

Microchip MPLAB XC8 Assembler V2.10 build 88905656 
                                                                                               Fri Feb 28 23:36:26 2020

Microchip MPLAB XC8 C Compiler v2.10 (Free license) build 20190730164152 Og1 
     1                           	processor	16F887
     2                           	opt	pw 120
     3                           	opt	flic
     4                           	psect	cinit,global,class=CODE,merge=1,delta=2
     5                           	psect	bssCOMMON,global,class=COMMON,space=1,delta=1
     6                           	psect	bssBANK0,global,class=BANK0,space=1,delta=1
     7                           	psect	cstackCOMMON,global,class=COMMON,space=1,delta=1
     8                           	psect	cstackBANK0,global,class=BANK0,space=1,delta=1
     9                           	psect	maintext,global,class=CODE,split=1,delta=2
    10                           	psect	text1,local,class=CODE,merge=1,delta=2,group=1
    11                           	psect	text2,local,class=CODE,merge=1,delta=2,group=1
    12                           	psect	text3,local,class=CODE,merge=1,delta=2,group=1
    13                           	psect	text4,local,class=CODE,merge=1,delta=2,group=1
    14                           	psect	text5,local,class=CODE,merge=1,delta=2,group=1
    15                           	psect	text6,local,class=CODE,merge=1,delta=2,group=1
    16                           	psect	text7,local,class=CODE,merge=1,delta=2
    17                           	psect	text8,local,class=CODE,merge=1,delta=2
    18                           	psect	text9,local,class=CODE,merge=1,delta=2
    19                           	psect	text10,local,class=CODE,merge=1,delta=2
    20                           	psect	intentry,global,class=CODE,delta=2
    21                           	dabs	1,0x7E,2
    22  0000                     
    23                           ; Version 2.10
    24                           ; Generated 31/07/2019 GMT
    25                           ; 
    26                           ; Copyright © 2019, Microchip Technology Inc. and its subsidiaries ("Microchip")
    27                           ; All rights reserved.
    28                           ; 
    29                           ; This software is developed by Microchip Technology Inc. and its subsidiaries ("Microch
      +                          ip").
    30                           ; 
    31                           ; Redistribution and use in source and binary forms, with or without modification, are
    32                           ; permitted provided that the following conditions are met:
    33                           ; 
    34                           ;     1. Redistributions of source code must retain the above copyright notice, this lis
      +                          t of
    35                           ;        conditions and the following disclaimer.
    36                           ; 
    37                           ;     2. Redistributions in binary form must reproduce the above copyright notice, this 
      +                          list
    38                           ;        of conditions and the following disclaimer in the documentation and/or other
    39                           ;        materials provided with the distribution.
    40                           ; 
    41                           ;     3. Microchip's name may not be used to endorse or promote products derived from th
      +                          is
    42                           ;        software without specific prior written permission.
    43                           ; 
    44                           ; THIS SOFTWARE IS PROVIDED BY MICROCHIP "AS IS" AND ANY EXPRESS OR IMPLIED WARRANTIES,
    45                           ; INCLUDING, BUT NOT LIMITED TO, THE IMPLIED WARRANTIES OF MERCHANTABILITY AND FITNESS F
      +                          OR
    46                           ; PURPOSE ARE DISCLAIMED.  IN NO EVENT SHALL MICROCHIP BE LIABLE FOR ANY DIRECT, INDIREC
      +                          T,
    47                           ; INCIDENTAL, SPECIAL, EXEMPLARY, OR CONSEQUENTIAL DAMAGES (INCLUDING BUT NOT LIMITED TO
    48                           ; PROCUREMENT OF SUBSTITUTE GOODS OR SERVICES; LOSS OF USE, DATA OR PROFITS; OR BUSINESS
    49                           ; INTERRUPTION) HOWSOEVER CAUSED AND ON ANY THEORY OF LIABILITY, WHETHER IN CONTRACT, ST
      +                          RICT
    50                           ; LIABILITY, OR TORT (INCLUDING NEGLIGENCE OR OTHERWISE) ARISING IN ANY WAY OUT OF THE U
      +                          SE OF
    51                           ; THIS SOFTWARE, EVEN IF ADVISED OF THE POSSIBILITY OF SUCH DAMAGE.
    52                           ; 
    53                           ; 
    54                           ; Code-generator required, PIC16F887 Definitions
    55                           ; 
    56                           ; SFR Addresses
    57  0000                     	;# 
    58  0001                     	;# 
    59  0002                     	;# 
    60  0003                     	;# 
    61  0004                     	;# 
    62  0005                     	;# 
    63  0006                     	;# 
    64  0007                     	;# 
    65  0008                     	;# 
    66  0009                     	;# 
    67  000A                     	;# 
    68  000B                     	;# 
    69  000C                     	;# 
    70  000D                     	;# 
    71  000E                     	;# 
    72  000E                     	;# 
    73  000F                     	;# 
    74  0010                     	;# 
    75  0011                     	;# 
    76  0012                     	;# 
    77  0013                     	;# 
    78  0014                     	;# 
    79  0015                     	;# 
    80  0015                     	;# 
    81  0016                     	;# 
    82  0017                     	;# 
    83  0018                     	;# 
    84  0019                     	;# 
    85  001A                     	;# 
    86  001B                     	;# 
    87  001B                     	;# 
    88  001C                     	;# 
    89  001D                     	;# 
    90  001E                     	;# 
    91  001F                     	;# 
    92  0081                     	;# 
    93  0085                     	;# 
    94  0086                     	;# 
    95  0087                     	;# 
    96  0088                     	;# 
    97  0089                     	;# 
    98  008C                     	;# 
    99  008D                     	;# 
   100  008E                     	;# 
   101  008F                     	;# 
   102  0090                     	;# 
   103  0091                     	;# 
   104  0092                     	;# 
   105  0093                     	;# 
   106  0093                     	;# 
   107  0093                     	;# 
   108  0094                     	;# 
   109  0095                     	;# 
   110  0096                     	;# 
   111  0097                     	;# 
   112  0098                     	;# 
   113  0099                     	;# 
   114  009A                     	;# 
   115  009B                     	;# 
   116  009C                     	;# 
   117  009D                     	;# 
   118  009E                     	;# 
   119  009F                     	;# 
   120  0105                     	;# 
   121  0107                     	;# 
   122  0108                     	;# 
   123  0109                     	;# 
   124  010C                     	;# 
   125  010C                     	;# 
   126  010D                     	;# 
   127  010E                     	;# 
   128  010F                     	;# 
   129  0185                     	;# 
   130  0187                     	;# 
   131  0188                     	;# 
   132  0189                     	;# 
   133  018C                     	;# 
   134  018D                     	;# 
   135  0000                     	;# 
   136  0001                     	;# 
   137  0002                     	;# 
   138  0003                     	;# 
   139  0004                     	;# 
   140  0005                     	;# 
   141  0006                     	;# 
   142  0007                     	;# 
   143  0008                     	;# 
   144  0009                     	;# 
   145  000A                     	;# 
   146  000B                     	;# 
   147  000C                     	;# 
   148  000D                     	;# 
   149  000E                     	;# 
   150  000E                     	;# 
   151  000F                     	;# 
   152  0010                     	;# 
   153  0011                     	;# 
   154  0012                     	;# 
   155  0013                     	;# 
   156  0014                     	;# 
   157  0015                     	;# 
   158  0015                     	;# 
   159  0016                     	;# 
   160  0017                     	;# 
   161  0018                     	;# 
   162  0019                     	;# 
   163  001A                     	;# 
   164  001B                     	;# 
   165  001B                     	;# 
   166  001C                     	;# 
   167  001D                     	;# 
   168  001E                     	;# 
   169  001F                     	;# 
   170  0081                     	;# 
   171  0085                     	;# 
   172  0086                     	;# 
   173  0087                     	;# 
   174  0088                     	;# 
   175  0089                     	;# 
   176  008C                     	;# 
   177  008D                     	;# 
   178  008E                     	;# 
   179  008F                     	;# 
   180  0090                     	;# 
   181  0091                     	;# 
   182  0092                     	;# 
   183  0093                     	;# 
   184  0093                     	;# 
   185  0093                     	;# 
   186  0094                     	;# 
   187  0095                     	;# 
   188  0096                     	;# 
   189  0097                     	;# 
   190  0098                     	;# 
   191  0099                     	;# 
   192  009A                     	;# 
   193  009B                     	;# 
   194  009C                     	;# 
   195  009D                     	;# 
   196  009E                     	;# 
   197  009F                     	;# 
   198  0105                     	;# 
   199  0107                     	;# 
   200  0108                     	;# 
   201  0109                     	;# 
   202  010C                     	;# 
   203  010C                     	;# 
   204  010D                     	;# 
   205  010E                     	;# 
   206  010F                     	;# 
   207  0185                     	;# 
   208  0187                     	;# 
   209  0188                     	;# 
   210  0189                     	;# 
   211  018C                     	;# 
   212  018D                     	;# 
   213  0000                     	;# 
   214  0001                     	;# 
   215  0002                     	;# 
   216  0003                     	;# 
   217  0004                     	;# 
   218  0005                     	;# 
   219  0006                     	;# 
   220  0007                     	;# 
   221  0008                     	;# 
   222  0009                     	;# 
   223  000A                     	;# 
   224  000B                     	;# 
   225  000C                     	;# 
   226  000D                     	;# 
   227  000E                     	;# 
   228  000E                     	;# 
   229  000F                     	;# 
   230  0010                     	;# 
   231  0011                     	;# 
   232  0012                     	;# 
   233  0013                     	;# 
   234  0014                     	;# 
   235  0015                     	;# 
   236  0015                     	;# 
   237  0016                     	;# 
   238  0017                     	;# 
   239  0018                     	;# 
   240  0019                     	;# 
   241  001A                     	;# 
   242  001B                     	;# 
   243  001B                     	;# 
   244  001C                     	;# 
   245  001D                     	;# 
   246  001E                     	;# 
   247  001F                     	;# 
   248  0081                     	;# 
   249  0085                     	;# 
   250  0086                     	;# 
   251  0087                     	;# 
   252  0088                     	;# 
   253  0089                     	;# 
   254  008C                     	;# 
   255  008D                     	;# 
   256  008E                     	;# 
   257  008F                     	;# 
   258  0090                     	;# 
   259  0091                     	;# 
   260  0092                     	;# 
   261  0093                     	;# 
   262  0093                     	;# 
   263  0093                     	;# 
   264  0094                     	;# 
   265  0095                     	;# 
   266  0096                     	;# 
   267  0097                     	;# 
   268  0098                     	;# 
   269  0099                     	;# 
   270  009A                     	;# 
   271  009B                     	;# 
   272  009C                     	;# 
   273  009D                     	;# 
   274  009E                     	;# 
   275  009F                     	;# 
   276  0105                     	;# 
   277  0107                     	;# 
   278  0108                     	;# 
   279  0109                     	;# 
   280  010C                     	;# 
   281  010C                     	;# 
   282  010D                     	;# 
   283  010E                     	;# 
   284  010F                     	;# 
   285  0185                     	;# 
   286  0187                     	;# 
   287  0188                     	;# 
   288  0189                     	;# 
   289  018C                     	;# 
   290  018D                     	;# 
   291  0000                     	;# 
   292  0001                     	;# 
   293  0002                     	;# 
   294  0003                     	;# 
   295  0004                     	;# 
   296  0005                     	;# 
   297  0006                     	;# 
   298  0007                     	;# 
   299  0008                     	;# 
   300  0009                     	;# 
   301  000A                     	;# 
   302  000B                     	;# 
   303  000C                     	;# 
   304  000D                     	;# 
   305  000E                     	;# 
   306  000E                     	;# 
   307  000F                     	;# 
   308  0010                     	;# 
   309  0011                     	;# 
   310  0012                     	;# 
   311  0013                     	;# 
   312  0014                     	;# 
   313  0015                     	;# 
   314  0015                     	;# 
   315  0016                     	;# 
   316  0017                     	;# 
   317  0018                     	;# 
   318  0019                     	;# 
   319  001A                     	;# 
   320  001B                     	;# 
   321  001B                     	;# 
   322  001C                     	;# 
   323  001D                     	;# 
   324  001E                     	;# 
   325  001F                     	;# 
   326  0081                     	;# 
   327  0085                     	;# 
   328  0086                     	;# 
   329  0087                     	;# 
   330  0088                     	;# 
   331  0089                     	;# 
   332  008C                     	;# 
   333  008D                     	;# 
   334  008E                     	;# 
   335  008F                     	;# 
   336  0090                     	;# 
   337  0091                     	;# 
   338  0092                     	;# 
   339  0093                     	;# 
   340  0093                     	;# 
   341  0093                     	;# 
   342  0094                     	;# 
   343  0095                     	;# 
   344  0096                     	;# 
   345  0097                     	;# 
   346  0098                     	;# 
   347  0099                     	;# 
   348  009A                     	;# 
   349  009B                     	;# 
   350  009C                     	;# 
   351  009D                     	;# 
   352  009E                     	;# 
   353  009F                     	;# 
   354  0105                     	;# 
   355  0107                     	;# 
   356  0108                     	;# 
   357  0109                     	;# 
   358  010C                     	;# 
   359  010C                     	;# 
   360  010D                     	;# 
   361  010E                     	;# 
   362  010F                     	;# 
   363  0185                     	;# 
   364  0187                     	;# 
   365  0188                     	;# 
   366  0189                     	;# 
   367  018C                     	;# 
   368  018D                     	;# 
   369  0014                     _SSPCON	set	20
   370  000B                     _INTCONbits	set	11
   371  0013                     _SSPBUF	set	19
   372  0014                     _SSPCONbits	set	20
   373  001F                     _ADCON0bits	set	31
   374  001E                     _ADRESH	set	30
   375  000C                     _PIR1bits	set	12
   376  0063                     _SSPIF	set	99
   377  005E                     _PEIE	set	94
   378  005F                     _GIE	set	95
   379  0041                     _RD1	set	65
   380  0066                     _ADIF	set	102
   381  0091                     _SSPCON2bits	set	145
   382  0087                     _TRISCbits	set	135
   383  0094                     _SSPSTAT	set	148
   384  0093                     _SSPADD	set	147
   385  0091                     _SSPCON2	set	145
   386  008C                     _PIE1bits	set	140
   387  0086                     _TRISBbits	set	134
   388  0089                     _TRISEbits	set	137
   389  0085                     _TRISAbits	set	133
   390  009F                     _ADCON1bits	set	159
   391  0088                     _TRISD	set	136
   392  0086                     _TRISB	set	134
   393  0087                     _TRISC	set	135
   394  0085                     _TRISA	set	133
   395  0094                     _SSPSTATbits	set	148
   396  0463                     _SSPIE	set	1123
   397  043C                     _TRISC4	set	1084
   398  043B                     _TRISC3	set	1083
   399  04A0                     _BF	set	1184
   400  0189                     _ANSELHbits	set	393
   401  0188                     _ANSELbits	set	392
   402  0189                     _ANSELH	set	393
   403  0188                     _ANSEL	set	392
   404                           
   405                           ; #config settings
   406  0000                     
   407                           	psect	cinit
   408  000F                     start_initialization:	
   409  000F                     __initialization:	
   410                           
   411                           ; Clear objects allocated to COMMON
   412  000F  01F8               	clrf	__pbssCOMMON& (0+127)
   413  0010  01F9               	clrf	(__pbssCOMMON+1)& (0+127)
   414  0011  01FA               	clrf	(__pbssCOMMON+2)& (0+127)
   415                           
   416                           ; Clear objects allocated to BANK0
   417  0012  1283               	bcf	3,5	;RP0=0, select bank0
   418  0013  1303               	bcf	3,6	;RP1=0, select bank0
   419  0014  01EB               	clrf	__pbssBANK0& (0+127)
   420  0015  01EC               	clrf	(__pbssBANK0+1)& (0+127)
   421  0016  01ED               	clrf	(__pbssBANK0+2)& (0+127)
   422  0017                     end_of_initialization:	
   423                           ;End of C runtime variable initialization code
   424                           
   425  0017                     __end_of__initialization:	
   426  0017  0183               	clrf	3
   427  0018  120A  158A  2F46   	ljmp	_main	;jump to C main() function
   428                           
   429                           	psect	bssCOMMON
   430  0078                     __pbssCOMMON:	
   431  0078                     _eleccion:	
   432  0078                     	ds	1
   433  0079                     _z:	
   434  0079                     	ds	1
   435  007A                     _adc:	
   436  007A                     	ds	1
   437                           
   438                           	psect	bssBANK0
   439  006B                     __pbssBANK0:	
   440  006B                     _TEMPA:	
   441  006B                     	ds	1
   442  006C                     _TEMP:	
   443  006C                     	ds	1
   444  006D                     _adc1:	
   445  006D                     	ds	1
   446                           
   447                           	psect	cstackCOMMON
   448  0070                     __pcstackCOMMON:	
   449  0070                     ?_I2C_Slave_Init:	
   450  0070                     ?_ADC_INTERRUPT:	
   451                           ; 1 bytes @ 0x0
   452                           
   453  0070                     ?_ISR:	
   454                           ; 1 bytes @ 0x0
   455                           
   456  0070                     ??_ISR:	
   457                           ; 1 bytes @ 0x0
   458                           
   459  0070                     ?_main:	
   460                           ; 1 bytes @ 0x0
   461                           
   462                           
   463                           ; 1 bytes @ 0x0
   464  0070                     	ds	3
   465  0073                     ??_I2C_Slave_Init:	
   466  0073                     ?_ADC_CONFIG:	
   467                           ; 1 bytes @ 0x3
   468                           
   469  0073                     ??_ADC_INTERRUPT:	
   470                           ; 1 bytes @ 0x3
   471                           
   472  0073                     ?__Umul8_16:	
   473                           ; 1 bytes @ 0x3
   474                           
   475  0073                     ?___awdiv:	
   476                           ; 2 bytes @ 0x3
   477                           
   478  0073                     ?___xxtofl:	
   479                           ; 2 bytes @ 0x3
   480                           
   481  0073                     ADC_CONFIG@justif:	
   482                           ; 4 bytes @ 0x3
   483                           
   484  0073                     I2C_Slave_Init@address:	
   485                           ; 1 bytes @ 0x3
   486                           
   487  0073                     __Umul8_16@multiplicand:	
   488                           ; 1 bytes @ 0x3
   489                           
   490  0073                     ___awdiv@divisor:	
   491                           ; 1 bytes @ 0x3
   492                           
   493  0073                     ___xxtofl@val:	
   494                           ; 2 bytes @ 0x3
   495                           
   496                           
   497                           ; 4 bytes @ 0x3
   498  0073                     	ds	1
   499  0074                     ??_ADC_CONFIG:	
   500                           
   501                           ; 1 bytes @ 0x4
   502  0074                     	ds	1
   503  0075                     ??__Umul8_16:	
   504  0075                     ___awdiv@dividend:	
   505                           ; 1 bytes @ 0x5
   506                           
   507                           
   508                           ; 2 bytes @ 0x5
   509  0075                     	ds	1
   510  0076                     ADC_CONFIG@canal:	
   511                           
   512                           ; 1 bytes @ 0x6
   513  0076                     	ds	1
   514  0077                     ??___awdiv:	
   515                           
   516                           ; 1 bytes @ 0x7
   517  0077                     	ds	1
   518                           
   519                           	psect	cstackBANK0
   520  0020                     __pcstackBANK0:	
   521  0020                     ??___xxtofl:	
   522  0020                     ___awdiv@counter:	
   523                           ; 1 bytes @ 0x0
   524                           
   525  0020                     __Umul8_16@product:	
   526                           ; 1 bytes @ 0x0
   527                           
   528                           
   529                           ; 2 bytes @ 0x0
   530  0020                     	ds	1
   531  0021                     ___awdiv@sign:	
   532                           
   533                           ; 1 bytes @ 0x1
   534  0021                     	ds	1
   535  0022                     ___awdiv@quotient:	
   536  0022                     __Umul8_16@word_mpld:	
   537                           ; 2 bytes @ 0x2
   538                           
   539                           
   540                           ; 2 bytes @ 0x2
   541  0022                     	ds	2
   542  0024                     ___xxtofl@sign:	
   543  0024                     __Umul8_16@multiplier:	
   544                           ; 1 bytes @ 0x4
   545                           
   546                           
   547                           ; 1 bytes @ 0x4
   548  0024                     	ds	1
   549  0025                     ___xxtofl@exp:	
   550                           
   551                           ; 1 bytes @ 0x5
   552  0025                     	ds	1
   553  0026                     ___xxtofl@arg:	
   554                           
   555                           ; 4 bytes @ 0x6
   556  0026                     	ds	4
   557  002A                     ?___flmul:	
   558  002A                     ___flmul@b:	
   559                           ; 4 bytes @ 0xA
   560                           
   561                           
   562                           ; 4 bytes @ 0xA
   563  002A                     	ds	4
   564  002E                     ___flmul@a:	
   565                           
   566                           ; 4 bytes @ 0xE
   567  002E                     	ds	4
   568  0032                     ??___flmul:	
   569                           
   570                           ; 1 bytes @ 0x12
   571  0032                     	ds	5
   572  0037                     ___flmul@sign:	
   573                           
   574                           ; 1 bytes @ 0x17
   575  0037                     	ds	1
   576  0038                     ___flmul@grs:	
   577                           
   578                           ; 4 bytes @ 0x18
   579  0038                     	ds	4
   580  003C                     ___flmul@aexp:	
   581                           
   582                           ; 1 bytes @ 0x1C
   583  003C                     	ds	1
   584  003D                     ___flmul@bexp:	
   585                           
   586                           ; 1 bytes @ 0x1D
   587  003D                     	ds	1
   588  003E                     ___flmul@prod:	
   589                           
   590                           ; 4 bytes @ 0x1E
   591  003E                     	ds	4
   592  0042                     ___flmul@temp:	
   593                           
   594                           ; 2 bytes @ 0x22
   595  0042                     	ds	2
   596  0044                     ?___fladd:	
   597  0044                     ___fladd@b:	
   598                           ; 4 bytes @ 0x24
   599                           
   600                           
   601                           ; 4 bytes @ 0x24
   602  0044                     	ds	4
   603  0048                     ___fladd@a:	
   604                           
   605                           ; 4 bytes @ 0x28
   606  0048                     	ds	4
   607  004C                     ??___fladd:	
   608                           
   609                           ; 1 bytes @ 0x2C
   610  004C                     	ds	8
   611  0054                     ___fladd@signs:	
   612                           
   613                           ; 1 bytes @ 0x34
   614  0054                     	ds	1
   615  0055                     ___fladd@aexp:	
   616                           
   617                           ; 1 bytes @ 0x35
   618  0055                     	ds	1
   619  0056                     ___fladd@bexp:	
   620                           
   621                           ; 1 bytes @ 0x36
   622  0056                     	ds	1
   623  0057                     ___fladd@grs:	
   624                           
   625                           ; 1 bytes @ 0x37
   626  0057                     	ds	1
   627  0058                     ?___fltol:	
   628  0058                     ___fltol@f1:	
   629                           ; 4 bytes @ 0x38
   630                           
   631                           
   632                           ; 4 bytes @ 0x38
   633  0058                     	ds	4
   634  005C                     ??___fltol:	
   635                           
   636                           ; 1 bytes @ 0x3C
   637  005C                     	ds	5
   638  0061                     ___fltol@sign1:	
   639                           
   640                           ; 1 bytes @ 0x41
   641  0061                     	ds	1
   642  0062                     ___fltol@exp1:	
   643                           
   644                           ; 1 bytes @ 0x42
   645  0062                     	ds	1
   646  0063                     ??_main:	
   647                           
   648                           ; 1 bytes @ 0x43
   649  0063                     	ds	4
   650  0067                     _main$1220:	
   651                           
   652                           ; 4 bytes @ 0x47
   653  0067                     	ds	4
   654                           
   655                           	psect	maintext
   656  0F46                     __pmaintext:	
   657 ;;
   658 ;;Main: autosize = 0, tempsize = 4, incstack = 0, save=0
   659 ;;
   660 ;; *************** function _main *****************
   661 ;; Defined at:
   662 ;;		line 77 in file "Slave_Temperatura.c"
   663 ;; Parameters:    Size  Location     Type
   664 ;;		None
   665 ;; Auto vars:     Size  Location     Type
   666 ;;		None
   667 ;; Return value:  Size  Location     Type
   668 ;;                  1    wreg      void 
   669 ;; Registers used:
   670 ;;		wreg, fsr0l, fsr0h, status,2, status,0, btemp+1, pclath, cstack
   671 ;; Tracked objects:
   672 ;;		On entry : B00/0
   673 ;;		On exit  : 0/0
   674 ;;		Unchanged: 0/0
   675 ;; Data sizes:     COMMON   BANK0   BANK1   BANK3   BANK2
   676 ;;      Params:         0       0       0       0       0
   677 ;;      Locals:         0       4       0       0       0
   678 ;;      Temps:          0       4       0       0       0
   679 ;;      Totals:         0       8       0       0       0
   680 ;;Total ram usage:        8 bytes
   681 ;; Hardware stack levels required when called:    3
   682 ;; This function calls:
   683 ;;		_ADC_CONFIG
   684 ;;		_ADC_INTERRUPT
   685 ;;		_I2C_Slave_Init
   686 ;;		___awdiv
   687 ;;		___fladd
   688 ;;		___flmul
   689 ;;		___fltol
   690 ;;		___xxtofl
   691 ;; This function is called by:
   692 ;;		Startup code after reset
   693 ;; This function uses a non-reentrant model
   694 ;;
   695                           
   696                           
   697                           ;psect for function _main
   698  0F46                     _main:	
   699  0F46                     l2212:	
   700                           ;incstack = 0
   701                           ; Regs used in _main: [wreg-fsr0h+status,2+status,0+btemp+1+pclath+cstack]
   702                           
   703                           
   704                           ;Slave_Temperatura.c: 78:     ANSEL = 0;
   705  0F46  1683               	bsf	3,5	;RP0=1, select bank3
   706  0F47  1703               	bsf	3,6	;RP1=1, select bank3
   707  0F48  0188               	clrf	8	;volatile
   708                           
   709                           ;Slave_Temperatura.c: 79:     ANSELH = 0;
   710  0F49  0189               	clrf	9	;volatile
   711                           
   712                           ;Slave_Temperatura.c: 80:     TRISA = 0;
   713  0F4A  1683               	bsf	3,5	;RP0=1, select bank1
   714  0F4B  1303               	bcf	3,6	;RP1=0, select bank1
   715  0F4C  0185               	clrf	5	;volatile
   716                           
   717                           ;Slave_Temperatura.c: 81:     TRISC = 0x00;
   718  0F4D  0187               	clrf	7	;volatile
   719  0F4E                     l2214:	
   720                           
   721                           ;Slave_Temperatura.c: 82:     TRISB = 0xFF;
   722  0F4E  30FF               	movlw	255
   723  0F4F  0086               	movwf	6	;volatile
   724  0F50                     l2216:	
   725                           
   726                           ;Slave_Temperatura.c: 83:     TRISD = 0x00;
   727  0F50  0188               	clrf	8	;volatile
   728  0F51                     l2218:	
   729                           
   730                           ;Slave_Temperatura.c: 86:     I2C_Slave_Init(0x10);
   731  0F51  3010               	movlw	16
   732  0F52  120A  158A  25D8  120A  158A  	fcall	_I2C_Slave_Init
   733  0F57                     l2220:	
   734                           
   735                           ;Slave_Temperatura.c: 89:     ADC_CONFIG(13,0);
   736  0F57  01F3               	clrf	ADC_CONFIG@justif
   737  0F58  300D               	movlw	13
   738  0F59  120A  118A  2604  120A  158A  	fcall	_ADC_CONFIG
   739  0F5E                     l2222:	
   740                           
   741                           ;Slave_Temperatura.c: 90:     ADC_INTERRUPT();
   742  0F5E  120A  118A  27F4  120A  158A  	fcall	_ADC_INTERRUPT
   743  0F63                     l2224:	
   744                           
   745                           ;Slave_Temperatura.c: 91:     ADCON0bits.GO = 1;
   746  0F63  1283               	bcf	3,5	;RP0=0, select bank0
   747  0F64  1303               	bcf	3,6	;RP1=0, select bank0
   748  0F65  149F               	bsf	31,1	;volatile
   749  0F66                     l2226:	
   750                           
   751                           ;Slave_Temperatura.c: 94:         TEMP = -0.3519*adc1+59.185+4;
   752  0F66  086D               	movf	_adc1,w
   753  0F67  00E3               	movwf	??_main
   754  0F68  01E4               	clrf	??_main+1
   755  0F69  01E5               	clrf	??_main+2
   756  0F6A  01E6               	clrf	??_main+3
   757  0F6B  0866               	movf	??_main+3,w
   758  0F6C  00F6               	movwf	___xxtofl@val+3
   759  0F6D  0865               	movf	??_main+2,w
   760  0F6E  00F5               	movwf	___xxtofl@val+2
   761  0F6F  0864               	movf	??_main+1,w
   762  0F70  00F4               	movwf	___xxtofl@val+1
   763  0F71  0863               	movf	??_main,w
   764  0F72  00F3               	movwf	___xxtofl@val
   765  0F73  3001               	movlw	1
   766  0F74  120A  118A  270F  120A  158A  	fcall	___xxtofl
   767  0F79  0876               	movf	?___xxtofl+3,w
   768  0F7A  1283               	bcf	3,5	;RP0=0, select bank0
   769  0F7B  1303               	bcf	3,6	;RP1=0, select bank0
   770  0F7C  00B1               	movwf	___flmul@a+3
   771  0F7D  0875               	movf	?___xxtofl+2,w
   772  0F7E  00B0               	movwf	___flmul@a+2
   773  0F7F  0874               	movf	?___xxtofl+1,w
   774  0F80  00AF               	movwf	___flmul@a+1
   775  0F81  0873               	movf	?___xxtofl,w
   776  0F82  00AE               	movwf	___flmul@a
   777  0F83  30BE               	movlw	190
   778  0F84  00AD               	movwf	___flmul@b+3
   779  0F85  30B4               	movlw	180
   780  0F86  00AC               	movwf	___flmul@b+2
   781  0F87  302C               	movlw	44
   782  0F88  00AB               	movwf	___flmul@b+1
   783  0F89  303D               	movlw	61
   784  0F8A  00AA               	movwf	___flmul@b
   785  0F8B  120A  118A  201B  120A  158A  	fcall	___flmul
   786  0F90  1283               	bcf	3,5	;RP0=0, select bank0
   787  0F91  1303               	bcf	3,6	;RP1=0, select bank0
   788  0F92  082D               	movf	?___flmul+3,w
   789  0F93  00CB               	movwf	___fladd@a+3
   790  0F94  082C               	movf	?___flmul+2,w
   791  0F95  00CA               	movwf	___fladd@a+2
   792  0F96  082B               	movf	?___flmul+1,w
   793  0F97  00C9               	movwf	___fladd@a+1
   794  0F98  082A               	movf	?___flmul,w
   795  0F99  00C8               	movwf	___fladd@a
   796  0F9A  3042               	movlw	66
   797  0F9B  00C7               	movwf	___fladd@b+3
   798  0F9C  306C               	movlw	108
   799  0F9D  00C6               	movwf	___fladd@b+2
   800  0F9E  30BD               	movlw	189
   801  0F9F  00C5               	movwf	___fladd@b+1
   802  0FA0  3071               	movlw	113
   803  0FA1  00C4               	movwf	___fladd@b
   804  0FA2  120A  118A  237C  120A  158A  	fcall	___fladd
   805  0FA7  1283               	bcf	3,5	;RP0=0, select bank0
   806  0FA8  1303               	bcf	3,6	;RP1=0, select bank0
   807  0FA9  0847               	movf	?___fladd+3,w
   808  0FAA  00EA               	movwf	_main$1220+3
   809  0FAB  0846               	movf	?___fladd+2,w
   810  0FAC  00E9               	movwf	_main$1220+2
   811  0FAD  0845               	movf	?___fladd+1,w
   812  0FAE  00E8               	movwf	_main$1220+1
   813  0FAF  0844               	movf	?___fladd,w
   814  0FB0  00E7               	movwf	_main$1220
   815  0FB1                     l2228:	
   816                           
   817                           ;Slave_Temperatura.c: 94:         TEMP = -0.3519*adc1+59.185+4;
   818  0FB1  086A               	movf	_main$1220+3,w
   819  0FB2  00CB               	movwf	___fladd@a+3
   820  0FB3  0869               	movf	_main$1220+2,w
   821  0FB4  00CA               	movwf	___fladd@a+2
   822  0FB5  0868               	movf	_main$1220+1,w
   823  0FB6  00C9               	movwf	___fladd@a+1
   824  0FB7  0867               	movf	_main$1220,w
   825  0FB8  00C8               	movwf	___fladd@a
   826  0FB9  3040               	movlw	64
   827  0FBA  00C7               	movwf	___fladd@b+3
   828  0FBB  3080               	movlw	128
   829  0FBC  00C6               	movwf	___fladd@b+2
   830  0FBD  3000               	movlw	0
   831  0FBE  00C5               	movwf	___fladd@b+1
   832  0FBF  3000               	movlw	0
   833  0FC0  00C4               	movwf	___fladd@b
   834  0FC1  120A  118A  237C  120A  158A  	fcall	___fladd
   835  0FC6  1283               	bcf	3,5	;RP0=0, select bank0
   836  0FC7  1303               	bcf	3,6	;RP1=0, select bank0
   837  0FC8  0847               	movf	?___fladd+3,w
   838  0FC9  00DB               	movwf	___fltol@f1+3
   839  0FCA  0846               	movf	?___fladd+2,w
   840  0FCB  00DA               	movwf	___fltol@f1+2
   841  0FCC  0845               	movf	?___fladd+1,w
   842  0FCD  00D9               	movwf	___fltol@f1+1
   843  0FCE  0844               	movf	?___fladd,w
   844  0FCF  00D8               	movwf	___fltol@f1
   845  0FD0  120A  158A  26CA  120A  158A  	fcall	___fltol
   846  0FD5  1283               	bcf	3,5	;RP0=0, select bank0
   847  0FD6  1303               	bcf	3,6	;RP1=0, select bank0
   848  0FD7  0858               	movf	?___fltol,w
   849  0FD8  00E3               	movwf	??_main
   850  0FD9  0863               	movf	??_main,w
   851  0FDA  00EC               	movwf	_TEMP
   852  0FDB                     l2230:	
   853                           
   854                           ;Slave_Temperatura.c: 95:         TEMP = (TEMP+TEMPA)/2;
   855  0FDB  3002               	movlw	2
   856  0FDC  00F3               	movwf	___awdiv@divisor
   857  0FDD  3000               	movlw	0
   858  0FDE  00F4               	movwf	___awdiv@divisor+1
   859  0FDF  086C               	movf	_TEMP,w
   860  0FE0  076B               	addwf	_TEMPA,w
   861  0FE1  00F5               	movwf	___awdiv@dividend
   862  0FE2  01F6               	clrf	___awdiv@dividend+1
   863  0FE3  0DF6               	rlf	___awdiv@dividend+1,f
   864  0FE4  120A  158A  25F2  120A  158A  	fcall	___awdiv
   865  0FE9  0873               	movf	?___awdiv,w
   866  0FEA  1283               	bcf	3,5	;RP0=0, select bank0
   867  0FEB  1303               	bcf	3,6	;RP1=0, select bank0
   868  0FEC  00E3               	movwf	??_main
   869  0FED  0863               	movf	??_main,w
   870  0FEE  00EC               	movwf	_TEMP
   871  0FEF                     l2232:	
   872                           
   873                           ;Slave_Temperatura.c: 97:         if(TEMP >=29){
   874  0FEF  301D               	movlw	29
   875  0FF0  026C               	subwf	_TEMP,w
   876  0FF1  1C03               	skipc
   877  0FF2  2FF4               	goto	u2811
   878  0FF3  2FF5               	goto	u2810
   879  0FF4                     u2811:	
   880  0FF4  2FF7               	goto	l75
   881  0FF5                     u2810:	
   882  0FF5                     l2234:	
   883                           
   884                           ;Slave_Temperatura.c: 98:             RD1 = 1;
   885  0FF5  1488               	bsf	8,1	;volatile
   886                           
   887                           ;Slave_Temperatura.c: 99:         }
   888  0FF6  2FF8               	goto	l2236
   889  0FF7                     l75:	
   890                           ;Slave_Temperatura.c: 100:         else{
   891                           
   892                           
   893                           ;Slave_Temperatura.c: 101:             RD1 = 0;
   894  0FF7  1088               	bcf	8,1	;volatile
   895  0FF8                     l2236:	
   896                           
   897                           ;Slave_Temperatura.c: 105:         TEMPA = TEMP;
   898  0FF8  086C               	movf	_TEMP,w
   899  0FF9  00E3               	movwf	??_main
   900  0FFA  0863               	movf	??_main,w
   901  0FFB  00EB               	movwf	_TEMPA
   902  0FFC  2F66               	goto	l2226
   903  0FFD  120A  118A  280C   	ljmp	start
   904  1000                     __end_of_main:	
   905                           
   906                           	psect	text1
   907  070F                     __ptext1:	
   908 ;; *************** function ___xxtofl *****************
   909 ;; Defined at:
   910 ;;		line 10 in file "C:\Program Files (x86)\Microchip\xc8\v2.10\pic\sources\c90\common\xxtofl.c"
   911 ;; Parameters:    Size  Location     Type
   912 ;;  sign            1    wreg     unsigned char 
   913 ;;  val             4    3[COMMON] long 
   914 ;; Auto vars:     Size  Location     Type
   915 ;;  sign            1    4[BANK0 ] unsigned char 
   916 ;;  arg             4    6[BANK0 ] unsigned long 
   917 ;;  exp             1    5[BANK0 ] unsigned char 
   918 ;; Return value:  Size  Location     Type
   919 ;;                  4    3[COMMON] unsigned char 
   920 ;; Registers used:
   921 ;;		wreg, status,2, status,0
   922 ;; Tracked objects:
   923 ;;		On entry : 0/0
   924 ;;		On exit  : 0/0
   925 ;;		Unchanged: 0/0
   926 ;; Data sizes:     COMMON   BANK0   BANK1   BANK3   BANK2
   927 ;;      Params:         4       0       0       0       0
   928 ;;      Locals:         0       6       0       0       0
   929 ;;      Temps:          0       4       0       0       0
   930 ;;      Totals:         4      10       0       0       0
   931 ;;Total ram usage:       14 bytes
   932 ;; Hardware stack levels used:    1
   933 ;; Hardware stack levels required when called:    1
   934 ;; This function calls:
   935 ;;		Nothing
   936 ;; This function is called by:
   937 ;;		_main
   938 ;; This function uses a non-reentrant model
   939 ;;
   940                           
   941                           
   942                           ;psect for function ___xxtofl
   943  070F                     ___xxtofl:	
   944                           
   945                           ;incstack = 0
   946                           ; Regs used in ___xxtofl: [wreg+status,2+status,0]
   947                           ;___xxtofl@sign stored from wreg
   948  070F  1283               	bcf	3,5	;RP0=0, select bank0
   949  0710  1303               	bcf	3,6	;RP1=0, select bank0
   950  0711  00A4               	movwf	___xxtofl@sign
   951  0712                     l2168:	
   952  0712  0824               	movf	___xxtofl@sign,w
   953  0713  1903               	btfsc	3,2
   954  0714  2F16               	goto	u2671
   955  0715  2F17               	goto	u2670
   956  0716                     u2671:	
   957  0716  2F2B               	goto	l2174
   958  0717                     u2670:	
   959  0717                     l2170:	
   960  0717  1FF6               	btfss	___xxtofl@val+3,7
   961  0718  2F1A               	goto	u2681
   962  0719  2F1B               	goto	u2680
   963  071A                     u2681:	
   964  071A  2F2B               	goto	l2174
   965  071B                     u2680:	
   966  071B                     l2172:	
   967  071B  0973               	comf	___xxtofl@val,w
   968  071C  00A6               	movwf	___xxtofl@arg
   969  071D  0974               	comf	___xxtofl@val+1,w
   970  071E  00A7               	movwf	___xxtofl@arg+1
   971  071F  0975               	comf	___xxtofl@val+2,w
   972  0720  00A8               	movwf	___xxtofl@arg+2
   973  0721  0976               	comf	___xxtofl@val+3,w
   974  0722  00A9               	movwf	___xxtofl@arg+3
   975  0723  0AA6               	incf	___xxtofl@arg,f
   976  0724  1903               	skipnz
   977  0725  0AA7               	incf	___xxtofl@arg+1,f
   978  0726  1903               	skipnz
   979  0727  0AA8               	incf	___xxtofl@arg+2,f
   980  0728  1903               	skipnz
   981  0729  0AA9               	incf	___xxtofl@arg+3,f
   982  072A  2F33               	goto	l693
   983  072B                     l2174:	
   984  072B  0876               	movf	___xxtofl@val+3,w
   985  072C  00A9               	movwf	___xxtofl@arg+3
   986  072D  0875               	movf	___xxtofl@val+2,w
   987  072E  00A8               	movwf	___xxtofl@arg+2
   988  072F  0874               	movf	___xxtofl@val+1,w
   989  0730  00A7               	movwf	___xxtofl@arg+1
   990  0731  0873               	movf	___xxtofl@val,w
   991  0732  00A6               	movwf	___xxtofl@arg
   992  0733                     l693:	
   993  0733  0876               	movf	___xxtofl@val+3,w
   994  0734  0475               	iorwf	___xxtofl@val+2,w
   995  0735  0474               	iorwf	___xxtofl@val+1,w
   996  0736  0473               	iorwf	___xxtofl@val,w
   997  0737  1D03               	skipz
   998  0738  2F3A               	goto	u2691
   999  0739  2F3B               	goto	u2690
  1000  073A                     u2691:	
  1001  073A  2F44               	goto	l2180
  1002  073B                     u2690:	
  1003  073B                     l2176:	
  1004  073B  3000               	movlw	0
  1005  073C  00F6               	movwf	?___xxtofl+3
  1006  073D  3000               	movlw	0
  1007  073E  00F5               	movwf	?___xxtofl+2
  1008  073F  3000               	movlw	0
  1009  0740  00F4               	movwf	?___xxtofl+1
  1010  0741  3000               	movlw	0
  1011  0742  00F3               	movwf	?___xxtofl
  1012  0743  2FCA               	goto	l695
  1013  0744                     l2180:	
  1014  0744  3096               	movlw	150
  1015  0745  00A0               	movwf	??___xxtofl
  1016  0746  0820               	movf	??___xxtofl,w
  1017  0747  00A5               	movwf	___xxtofl@exp
  1018  0748  2F56               	goto	l2184
  1019  0749                     l2182:	
  1020  0749  3001               	movlw	1
  1021  074A  00A0               	movwf	??___xxtofl
  1022  074B  0820               	movf	??___xxtofl,w
  1023  074C  07A5               	addwf	___xxtofl@exp,f
  1024  074D  3001               	movlw	1
  1025  074E                     u2705:	
  1026  074E  1003               	clrc
  1027  074F  0CA9               	rrf	___xxtofl@arg+3,f
  1028  0750  0CA8               	rrf	___xxtofl@arg+2,f
  1029  0751  0CA7               	rrf	___xxtofl@arg+1,f
  1030  0752  0CA6               	rrf	___xxtofl@arg,f
  1031  0753  3EFF               	addlw	-1
  1032  0754  1D03               	skipz
  1033  0755  2F4E               	goto	u2705
  1034  0756                     l2184:	
  1035  0756  30FE               	movlw	254
  1036  0757  0529               	andwf	___xxtofl@arg+3,w
  1037  0758  1D03               	btfss	3,2
  1038  0759  2F5B               	goto	u2711
  1039  075A  2F5C               	goto	u2710
  1040  075B                     u2711:	
  1041  075B  2F49               	goto	l2182
  1042  075C                     u2710:	
  1043  075C  2F78               	goto	l699
  1044  075D                     l2186:	
  1045  075D  3001               	movlw	1
  1046  075E  00A0               	movwf	??___xxtofl
  1047  075F  0820               	movf	??___xxtofl,w
  1048  0760  07A5               	addwf	___xxtofl@exp,f
  1049  0761                     l2188:	
  1050  0761  3001               	movlw	1
  1051  0762  07A6               	addwf	___xxtofl@arg,f
  1052  0763  3000               	movlw	0
  1053  0764  1803               	skipnc
  1054  0765  3001               	movlw	1
  1055  0766  07A7               	addwf	___xxtofl@arg+1,f
  1056  0767  3000               	movlw	0
  1057  0768  1803               	skipnc
  1058  0769  3001               	movlw	1
  1059  076A  07A8               	addwf	___xxtofl@arg+2,f
  1060  076B  3000               	movlw	0
  1061  076C  1803               	skipnc
  1062  076D  3001               	movlw	1
  1063  076E  07A9               	addwf	___xxtofl@arg+3,f
  1064  076F                     l2190:	
  1065  076F  3001               	movlw	1
  1066  0770                     u2725:	
  1067  0770  1003               	clrc
  1068  0771  0CA9               	rrf	___xxtofl@arg+3,f
  1069  0772  0CA8               	rrf	___xxtofl@arg+2,f
  1070  0773  0CA7               	rrf	___xxtofl@arg+1,f
  1071  0774  0CA6               	rrf	___xxtofl@arg,f
  1072  0775  3EFF               	addlw	-1
  1073  0776  1D03               	skipz
  1074  0777  2F70               	goto	u2725
  1075  0778                     l699:	
  1076  0778  30FF               	movlw	255
  1077  0779  0529               	andwf	___xxtofl@arg+3,w
  1078  077A  1D03               	btfss	3,2
  1079  077B  2F7D               	goto	u2731
  1080  077C  2F7E               	goto	u2730
  1081  077D                     u2731:	
  1082  077D  2F5D               	goto	l2186
  1083  077E                     u2730:	
  1084  077E  2F8A               	goto	l2194
  1085  077F                     l2192:	
  1086  077F  3001               	movlw	1
  1087  0780  02A5               	subwf	___xxtofl@exp,f
  1088  0781  3001               	movlw	1
  1089  0782  00A0               	movwf	??___xxtofl
  1090  0783                     u2745:	
  1091  0783  1003               	clrc
  1092  0784  0DA6               	rlf	___xxtofl@arg,f
  1093  0785  0DA7               	rlf	___xxtofl@arg+1,f
  1094  0786  0DA8               	rlf	___xxtofl@arg+2,f
  1095  0787  0DA9               	rlf	___xxtofl@arg+3,f
  1096  0788  0BA0               	decfsz	??___xxtofl,f
  1097  0789  2F83               	goto	u2745
  1098  078A                     l2194:	
  1099  078A  1BA8               	btfsc	___xxtofl@arg+2,7
  1100  078B  2F8D               	goto	u2751
  1101  078C  2F8E               	goto	u2750
  1102  078D                     u2751:	
  1103  078D  2F94               	goto	l706
  1104  078E                     u2750:	
  1105  078E                     l2196:	
  1106  078E  3002               	movlw	2
  1107  078F  0225               	subwf	___xxtofl@exp,w
  1108  0790  1803               	skipnc
  1109  0791  2F93               	goto	u2761
  1110  0792  2F94               	goto	u2760
  1111  0793                     u2761:	
  1112  0793  2F7F               	goto	l2192
  1113  0794                     u2760:	
  1114  0794                     l706:	
  1115  0794  1825               	btfsc	___xxtofl@exp,0
  1116  0795  2F97               	goto	u2771
  1117  0796  2F98               	goto	u2770
  1118  0797                     u2771:	
  1119  0797  2FA0               	goto	l707
  1120  0798                     u2770:	
  1121  0798                     l2198:	
  1122  0798  30FF               	movlw	255
  1123  0799  05A6               	andwf	___xxtofl@arg,f
  1124  079A  30FF               	movlw	255
  1125  079B  05A7               	andwf	___xxtofl@arg+1,f
  1126  079C  307F               	movlw	127
  1127  079D  05A8               	andwf	___xxtofl@arg+2,f
  1128  079E  30FF               	movlw	255
  1129  079F  05A9               	andwf	___xxtofl@arg+3,f
  1130  07A0                     l707:	
  1131  07A0  1003               	clrc
  1132  07A1  0CA5               	rrf	___xxtofl@exp,f
  1133  07A2                     l2200:	
  1134  07A2  0825               	movf	___xxtofl@exp,w
  1135  07A3  00A0               	movwf	??___xxtofl
  1136  07A4  01A1               	clrf	??___xxtofl+1
  1137  07A5  01A2               	clrf	??___xxtofl+2
  1138  07A6  01A3               	clrf	??___xxtofl+3
  1139  07A7  3018               	movlw	24
  1140  07A8                     u2785:	
  1141  07A8  1003               	clrc
  1142  07A9  0DA0               	rlf	??___xxtofl,f
  1143  07AA  0DA1               	rlf	??___xxtofl+1,f
  1144  07AB  0DA2               	rlf	??___xxtofl+2,f
  1145  07AC  0DA3               	rlf	??___xxtofl+3,f
  1146  07AD                     u2780:	
  1147  07AD  3EFF               	addlw	-1
  1148  07AE  1D03               	skipz
  1149  07AF  2FA8               	goto	u2785
  1150  07B0  0820               	movf	??___xxtofl,w
  1151  07B1  04A6               	iorwf	___xxtofl@arg,f
  1152  07B2  0821               	movf	??___xxtofl+1,w
  1153  07B3  04A7               	iorwf	___xxtofl@arg+1,f
  1154  07B4  0822               	movf	??___xxtofl+2,w
  1155  07B5  04A8               	iorwf	___xxtofl@arg+2,f
  1156  07B6  0823               	movf	??___xxtofl+3,w
  1157  07B7  04A9               	iorwf	___xxtofl@arg+3,f
  1158  07B8                     l2202:	
  1159  07B8  0824               	movf	___xxtofl@sign,w
  1160  07B9  1903               	btfsc	3,2
  1161  07BA  2FBC               	goto	u2791
  1162  07BB  2FBD               	goto	u2790
  1163  07BC                     u2791:	
  1164  07BC  2FC2               	goto	l2208
  1165  07BD                     u2790:	
  1166  07BD                     l2204:	
  1167  07BD  1FF6               	btfss	___xxtofl@val+3,7
  1168  07BE  2FC0               	goto	u2801
  1169  07BF  2FC1               	goto	u2800
  1170  07C0                     u2801:	
  1171  07C0  2FC2               	goto	l2208
  1172  07C1                     u2800:	
  1173  07C1                     l2206:	
  1174  07C1  17A9               	bsf	___xxtofl@arg+3,7
  1175  07C2                     l2208:	
  1176  07C2  0829               	movf	___xxtofl@arg+3,w
  1177  07C3  00F6               	movwf	?___xxtofl+3
  1178  07C4  0828               	movf	___xxtofl@arg+2,w
  1179  07C5  00F5               	movwf	?___xxtofl+2
  1180  07C6  0827               	movf	___xxtofl@arg+1,w
  1181  07C7  00F4               	movwf	?___xxtofl+1
  1182  07C8  0826               	movf	___xxtofl@arg,w
  1183  07C9  00F3               	movwf	?___xxtofl
  1184  07CA                     l695:	
  1185  07CA  0008               	return
  1186  07CB                     __end_of___xxtofl:	
  1187                           
  1188                           	psect	text2
  1189  0ECA                     __ptext2:	
  1190 ;; *************** function ___fltol *****************
  1191 ;; Defined at:
  1192 ;;		line 43 in file "C:\Program Files (x86)\Microchip\xc8\v2.10\pic\sources\c90\common\fltol.c"
  1193 ;; Parameters:    Size  Location     Type
  1194 ;;  f1              4   56[BANK0 ] unsigned char 
  1195 ;; Auto vars:     Size  Location     Type
  1196 ;;  exp1            1   66[BANK0 ] unsigned char 
  1197 ;;  sign1           1   65[BANK0 ] unsigned char 
  1198 ;; Return value:  Size  Location     Type
  1199 ;;                  4   56[BANK0 ] long 
  1200 ;; Registers used:
  1201 ;;		wreg, status,2, status,0
  1202 ;; Tracked objects:
  1203 ;;		On entry : 0/0
  1204 ;;		On exit  : 0/0
  1205 ;;		Unchanged: 0/0
  1206 ;; Data sizes:     COMMON   BANK0   BANK1   BANK3   BANK2
  1207 ;;      Params:         0       4       0       0       0
  1208 ;;      Locals:         0       2       0       0       0
  1209 ;;      Temps:          0       5       0       0       0
  1210 ;;      Totals:         0      11       0       0       0
  1211 ;;Total ram usage:       11 bytes
  1212 ;; Hardware stack levels used:    1
  1213 ;; Hardware stack levels required when called:    1
  1214 ;; This function calls:
  1215 ;;		Nothing
  1216 ;; This function is called by:
  1217 ;;		_main
  1218 ;; This function uses a non-reentrant model
  1219 ;;
  1220                           
  1221                           
  1222                           ;psect for function ___fltol
  1223  0ECA                     ___fltol:	
  1224  0ECA                     l1646:	
  1225                           ;incstack = 0
  1226                           ; Regs used in ___fltol: [wreg+status,2+status,0]
  1227                           
  1228  0ECA  1003               	clrc
  1229  0ECB  1283               	bcf	3,5	;RP0=0, select bank0
  1230  0ECC  1303               	bcf	3,6	;RP1=0, select bank0
  1231  0ECD  0D5A               	rlf	___fltol@f1+2,w
  1232  0ECE  0D5B               	rlf	___fltol@f1+3,w
  1233  0ECF  00DC               	movwf	??___fltol
  1234  0ED0  085C               	movf	??___fltol,w
  1235  0ED1  00E2               	movwf	___fltol@exp1
  1236  0ED2  0862               	movf	___fltol@exp1,w
  1237  0ED3  1D03               	btfss	3,2
  1238  0ED4  2ED6               	goto	u1491
  1239  0ED5  2ED7               	goto	u1490
  1240  0ED6                     u1491:	
  1241  0ED6  2EE0               	goto	l1652
  1242  0ED7                     u1490:	
  1243  0ED7                     l1648:	
  1244  0ED7  3000               	movlw	0
  1245  0ED8  00DB               	movwf	?___fltol+3
  1246  0ED9  3000               	movlw	0
  1247  0EDA  00DA               	movwf	?___fltol+2
  1248  0EDB  3000               	movlw	0
  1249  0EDC  00D9               	movwf	?___fltol+1
  1250  0EDD  3000               	movlw	0
  1251  0EDE  00D8               	movwf	?___fltol
  1252  0EDF  2F45               	goto	l452
  1253  0EE0                     l1652:	
  1254  0EE0  0858               	movf	___fltol@f1,w
  1255  0EE1  00DC               	movwf	??___fltol
  1256  0EE2  0859               	movf	___fltol@f1+1,w
  1257  0EE3  00DD               	movwf	??___fltol+1
  1258  0EE4  085A               	movf	___fltol@f1+2,w
  1259  0EE5  00DE               	movwf	??___fltol+2
  1260  0EE6  085B               	movf	___fltol@f1+3,w
  1261  0EE7  00DF               	movwf	??___fltol+3
  1262  0EE8  301F               	movlw	31
  1263  0EE9                     u1505:	
  1264  0EE9  1003               	clrc
  1265  0EEA  0CDF               	rrf	??___fltol+3,f
  1266  0EEB  0CDE               	rrf	??___fltol+2,f
  1267  0EEC  0CDD               	rrf	??___fltol+1,f
  1268  0EED  0CDC               	rrf	??___fltol,f
  1269  0EEE                     u1500:	
  1270  0EEE  3EFF               	addlw	-1
  1271  0EEF  1D03               	skipz
  1272  0EF0  2EE9               	goto	u1505
  1273  0EF1  085C               	movf	??___fltol,w
  1274  0EF2  00E0               	movwf	??___fltol+4
  1275  0EF3  0860               	movf	??___fltol+4,w
  1276  0EF4  00E1               	movwf	___fltol@sign1
  1277  0EF5                     l1654:	
  1278  0EF5  17DA               	bsf	___fltol@f1+2,7
  1279  0EF6                     l1656:	
  1280  0EF6  30FF               	movlw	255
  1281  0EF7  05D8               	andwf	___fltol@f1,f
  1282  0EF8  30FF               	movlw	255
  1283  0EF9  05D9               	andwf	___fltol@f1+1,f
  1284  0EFA  30FF               	movlw	255
  1285  0EFB  05DA               	andwf	___fltol@f1+2,f
  1286  0EFC  3000               	movlw	0
  1287  0EFD  05DB               	andwf	___fltol@f1+3,f
  1288  0EFE                     l1658:	
  1289  0EFE  3096               	movlw	150
  1290  0EFF  02E2               	subwf	___fltol@exp1,f
  1291  0F00                     l1660:	
  1292  0F00  1FE2               	btfss	___fltol@exp1,7
  1293  0F01  2F03               	goto	u1511
  1294  0F02  2F04               	goto	u1510
  1295  0F03                     u1511:	
  1296  0F03  2F1E               	goto	l1670
  1297  0F04                     u1510:	
  1298  0F04                     l1662:	
  1299  0F04  0862               	movf	___fltol@exp1,w
  1300  0F05  3A80               	xorlw	128
  1301  0F06  3E97               	addlw	151
  1302  0F07  1803               	skipnc
  1303  0F08  2F0A               	goto	u1521
  1304  0F09  2F0B               	goto	u1520
  1305  0F0A                     u1521:	
  1306  0F0A  2F0C               	goto	l1668
  1307  0F0B                     u1520:	
  1308  0F0B  2ED7               	goto	l1648
  1309  0F0C                     l1668:	
  1310  0F0C  3001               	movlw	1
  1311  0F0D                     u1535:	
  1312  0F0D  1003               	clrc
  1313  0F0E  0CDB               	rrf	___fltol@f1+3,f
  1314  0F0F  0CDA               	rrf	___fltol@f1+2,f
  1315  0F10  0CD9               	rrf	___fltol@f1+1,f
  1316  0F11  0CD8               	rrf	___fltol@f1,f
  1317  0F12  3EFF               	addlw	-1
  1318  0F13  1D03               	skipz
  1319  0F14  2F0D               	goto	u1535
  1320  0F15  3001               	movlw	1
  1321  0F16  00DC               	movwf	??___fltol
  1322  0F17  085C               	movf	??___fltol,w
  1323  0F18  07E2               	addwf	___fltol@exp1,f
  1324  0F19  1D03               	btfss	3,2
  1325  0F1A  2F1C               	goto	u1541
  1326  0F1B  2F1D               	goto	u1540
  1327  0F1C                     u1541:	
  1328  0F1C  2F0C               	goto	l1668
  1329  0F1D                     u1540:	
  1330  0F1D  2F35               	goto	l1678
  1331  0F1E                     l1670:	
  1332  0F1E  3020               	movlw	32
  1333  0F1F  0262               	subwf	___fltol@exp1,w
  1334  0F20  1C03               	skipc
  1335  0F21  2F23               	goto	u1551
  1336  0F22  2F24               	goto	u1550
  1337  0F23                     u1551:	
  1338  0F23  2F30               	goto	l459
  1339  0F24                     u1550:	
  1340  0F24  2ED7               	goto	l1648
  1341  0F25                     l1676:	
  1342  0F25  3001               	movlw	1
  1343  0F26  00DC               	movwf	??___fltol
  1344  0F27                     u1565:	
  1345  0F27  1003               	clrc
  1346  0F28  0DD8               	rlf	___fltol@f1,f
  1347  0F29  0DD9               	rlf	___fltol@f1+1,f
  1348  0F2A  0DDA               	rlf	___fltol@f1+2,f
  1349  0F2B  0DDB               	rlf	___fltol@f1+3,f
  1350  0F2C  0BDC               	decfsz	??___fltol,f
  1351  0F2D  2F27               	goto	u1565
  1352  0F2E  3001               	movlw	1
  1353  0F2F  02E2               	subwf	___fltol@exp1,f
  1354  0F30                     l459:	
  1355  0F30  0862               	movf	___fltol@exp1,w
  1356  0F31  1D03               	btfss	3,2
  1357  0F32  2F34               	goto	u1571
  1358  0F33  2F35               	goto	u1570
  1359  0F34                     u1571:	
  1360  0F34  2F25               	goto	l1676
  1361  0F35                     u1570:	
  1362  0F35                     l1678:	
  1363  0F35  0861               	movf	___fltol@sign1,w
  1364  0F36  1903               	btfsc	3,2
  1365  0F37  2F39               	goto	u1581
  1366  0F38  2F3A               	goto	u1580
  1367  0F39                     u1581:	
  1368  0F39  2F45               	goto	l462
  1369  0F3A                     u1580:	
  1370  0F3A                     l1680:	
  1371  0F3A  09D8               	comf	___fltol@f1,f
  1372  0F3B  09D9               	comf	___fltol@f1+1,f
  1373  0F3C  09DA               	comf	___fltol@f1+2,f
  1374  0F3D  09DB               	comf	___fltol@f1+3,f
  1375  0F3E  0AD8               	incf	___fltol@f1,f
  1376  0F3F  1903               	skipnz
  1377  0F40  0AD9               	incf	___fltol@f1+1,f
  1378  0F41  1903               	skipnz
  1379  0F42  0ADA               	incf	___fltol@f1+2,f
  1380  0F43  1903               	skipnz
  1381  0F44  0ADB               	incf	___fltol@f1+3,f
  1382  0F45                     l462:	
  1383  0F45                     l452:	
  1384  0F45  0008               	return
  1385  0F46                     __end_of___fltol:	
  1386                           
  1387                           	psect	text3
  1388  001B                     __ptext3:	
  1389 ;; *************** function ___flmul *****************
  1390 ;; Defined at:
  1391 ;;		line 8 in file "C:\Program Files (x86)\Microchip\xc8\v2.10\pic\sources\c90\common\sprcmul.c"
  1392 ;; Parameters:    Size  Location     Type
  1393 ;;  b               4   10[BANK0 ] long 
  1394 ;;  a               4   14[BANK0 ] long 
  1395 ;; Auto vars:     Size  Location     Type
  1396 ;;  prod            4   30[BANK0 ] struct .
  1397 ;;  grs             4   24[BANK0 ] unsigned long 
  1398 ;;  temp            2   34[BANK0 ] struct .
  1399 ;;  bexp            1   29[BANK0 ] unsigned char 
  1400 ;;  aexp            1   28[BANK0 ] unsigned char 
  1401 ;;  sign            1   23[BANK0 ] unsigned char 
  1402 ;; Return value:  Size  Location     Type
  1403 ;;                  4   10[BANK0 ] unsigned char 
  1404 ;; Registers used:
  1405 ;;		wreg, status,2, status,0, btemp+1, pclath, cstack
  1406 ;; Tracked objects:
  1407 ;;		On entry : 0/0
  1408 ;;		On exit  : 0/0
  1409 ;;		Unchanged: 0/0
  1410 ;; Data sizes:     COMMON   BANK0   BANK1   BANK3   BANK2
  1411 ;;      Params:         0       8       0       0       0
  1412 ;;      Locals:         0      13       0       0       0
  1413 ;;      Temps:          0       5       0       0       0
  1414 ;;      Totals:         0      26       0       0       0
  1415 ;;Total ram usage:       26 bytes
  1416 ;; Hardware stack levels used:    1
  1417 ;; Hardware stack levels required when called:    2
  1418 ;; This function calls:
  1419 ;;		__Umul8_16
  1420 ;; This function is called by:
  1421 ;;		_main
  1422 ;; This function uses a non-reentrant model
  1423 ;;
  1424                           
  1425                           
  1426                           ;psect for function ___flmul
  1427  001B                     ___flmul:	
  1428  001B                     l1876:	
  1429                           ;incstack = 0
  1430                           ; Regs used in ___flmul: [wreg+status,2+status,0+btemp+1+pclath+cstack]
  1431                           
  1432  001B  1283               	bcf	3,5	;RP0=0, select bank0
  1433  001C  1303               	bcf	3,6	;RP1=0, select bank0
  1434  001D  082D               	movf	___flmul@b+3,w
  1435  001E  3980               	andlw	128
  1436  001F  00B2               	movwf	??___flmul
  1437  0020  0832               	movf	??___flmul,w
  1438  0021  00B7               	movwf	___flmul@sign
  1439  0022                     l1878:	
  1440  0022  082D               	movf	___flmul@b+3,w
  1441  0023  00B2               	movwf	??___flmul
  1442  0024  0732               	addwf	??___flmul,w
  1443  0025  00B3               	movwf	??___flmul+1
  1444  0026  0833               	movf	??___flmul+1,w
  1445  0027  00BD               	movwf	___flmul@bexp
  1446  0028                     l1880:	
  1447  0028  1FAC               	btfss	___flmul@b+2,7
  1448  0029  282B               	goto	u2051
  1449  002A  282C               	goto	u2050
  1450  002B                     u2051:	
  1451  002B  282D               	goto	l1884
  1452  002C                     u2050:	
  1453  002C                     l1882:	
  1454  002C  143D               	bsf	___flmul@bexp,0
  1455  002D                     l1884:	
  1456  002D  083D               	movf	___flmul@bexp,w
  1457  002E  1903               	btfsc	3,2
  1458  002F  2831               	goto	u2061
  1459  0030  2832               	goto	u2060
  1460  0031                     u2061:	
  1461  0031  2841               	goto	l1892
  1462  0032                     u2060:	
  1463  0032                     l1886:	
  1464  0032  0A3D               	incf	___flmul@bexp,w
  1465  0033  1D03               	btfss	3,2
  1466  0034  2836               	goto	u2071
  1467  0035  2837               	goto	u2070
  1468  0036                     u2071:	
  1469  0036  283F               	goto	l1890
  1470  0037                     u2070:	
  1471  0037                     l1888:	
  1472  0037  3000               	movlw	0
  1473  0038  00AD               	movwf	___flmul@b+3
  1474  0039  3000               	movlw	0
  1475  003A  00AC               	movwf	___flmul@b+2
  1476  003B  3000               	movlw	0
  1477  003C  00AB               	movwf	___flmul@b+1
  1478  003D  3000               	movlw	0
  1479  003E  00AA               	movwf	___flmul@b
  1480  003F                     l1890:	
  1481  003F  17AC               	bsf	___flmul@b+2,7
  1482  0040  2849               	goto	l1894
  1483  0041                     l1892:	
  1484  0041  3000               	movlw	0
  1485  0042  00AD               	movwf	___flmul@b+3
  1486  0043  3000               	movlw	0
  1487  0044  00AC               	movwf	___flmul@b+2
  1488  0045  3000               	movlw	0
  1489  0046  00AB               	movwf	___flmul@b+1
  1490  0047  3000               	movlw	0
  1491  0048  00AA               	movwf	___flmul@b
  1492  0049                     l1894:	
  1493  0049  0831               	movf	___flmul@a+3,w
  1494  004A  3980               	andlw	128
  1495  004B  00B2               	movwf	??___flmul
  1496  004C  0832               	movf	??___flmul,w
  1497  004D  06B7               	xorwf	___flmul@sign,f
  1498  004E                     l1896:	
  1499  004E  0831               	movf	___flmul@a+3,w
  1500  004F  00B2               	movwf	??___flmul
  1501  0050  0732               	addwf	??___flmul,w
  1502  0051  00B3               	movwf	??___flmul+1
  1503  0052  0833               	movf	??___flmul+1,w
  1504  0053  00BC               	movwf	___flmul@aexp
  1505  0054                     l1898:	
  1506  0054  1FB0               	btfss	___flmul@a+2,7
  1507  0055  2857               	goto	u2081
  1508  0056  2858               	goto	u2080
  1509  0057                     u2081:	
  1510  0057  2859               	goto	l1902
  1511  0058                     u2080:	
  1512  0058                     l1900:	
  1513  0058  143C               	bsf	___flmul@aexp,0
  1514  0059                     l1902:	
  1515  0059  083C               	movf	___flmul@aexp,w
  1516  005A  1903               	btfsc	3,2
  1517  005B  285D               	goto	u2091
  1518  005C  285E               	goto	u2090
  1519  005D                     u2091:	
  1520  005D  286D               	goto	l1910
  1521  005E                     u2090:	
  1522  005E                     l1904:	
  1523  005E  0A3C               	incf	___flmul@aexp,w
  1524  005F  1D03               	btfss	3,2
  1525  0060  2862               	goto	u2101
  1526  0061  2863               	goto	u2100
  1527  0062                     u2101:	
  1528  0062  286B               	goto	l1908
  1529  0063                     u2100:	
  1530  0063                     l1906:	
  1531  0063  3000               	movlw	0
  1532  0064  00B1               	movwf	___flmul@a+3
  1533  0065  3000               	movlw	0
  1534  0066  00B0               	movwf	___flmul@a+2
  1535  0067  3000               	movlw	0
  1536  0068  00AF               	movwf	___flmul@a+1
  1537  0069  3000               	movlw	0
  1538  006A  00AE               	movwf	___flmul@a
  1539  006B                     l1908:	
  1540  006B  17B0               	bsf	___flmul@a+2,7
  1541  006C  2875               	goto	l1912
  1542  006D                     l1910:	
  1543  006D  3000               	movlw	0
  1544  006E  00B1               	movwf	___flmul@a+3
  1545  006F  3000               	movlw	0
  1546  0070  00B0               	movwf	___flmul@a+2
  1547  0071  3000               	movlw	0
  1548  0072  00AF               	movwf	___flmul@a+1
  1549  0073  3000               	movlw	0
  1550  0074  00AE               	movwf	___flmul@a
  1551  0075                     l1912:	
  1552  0075  083C               	movf	___flmul@aexp,w
  1553  0076  1903               	btfsc	3,2
  1554  0077  2879               	goto	u2111
  1555  0078  287A               	goto	u2110
  1556  0079                     u2111:	
  1557  0079  287F               	goto	l1916
  1558  007A                     u2110:	
  1559  007A                     l1914:	
  1560  007A  083D               	movf	___flmul@bexp,w
  1561  007B  1D03               	btfss	3,2
  1562  007C  287E               	goto	u2121
  1563  007D  287F               	goto	u2120
  1564  007E                     u2121:	
  1565  007E  2888               	goto	l1920
  1566  007F                     u2120:	
  1567  007F                     l1916:	
  1568  007F  3000               	movlw	0
  1569  0080  00AD               	movwf	?___flmul+3
  1570  0081  3000               	movlw	0
  1571  0082  00AC               	movwf	?___flmul+2
  1572  0083  3000               	movlw	0
  1573  0084  00AB               	movwf	?___flmul+1
  1574  0085  3000               	movlw	0
  1575  0086  00AA               	movwf	?___flmul
  1576  0087  2B7B               	goto	l655
  1577  0088                     l1920:	
  1578  0088  082A               	movf	___flmul@b,w
  1579  0089  00B2               	movwf	??___flmul
  1580  008A  0832               	movf	??___flmul,w
  1581  008B  00F3               	movwf	__Umul8_16@multiplicand
  1582  008C  0830               	movf	___flmul@a+2,w
  1583  008D  120A  118A  27CB  120A  118A  	fcall	__Umul8_16
  1584  0092  0874               	movf	?__Umul8_16+1,w
  1585  0093  1283               	bcf	3,5	;RP0=0, select bank0
  1586  0094  1303               	bcf	3,6	;RP1=0, select bank0
  1587  0095  00C3               	movwf	___flmul@temp+1
  1588  0096  0873               	movf	?__Umul8_16,w
  1589  0097  00C2               	movwf	___flmul@temp
  1590  0098                     l1922:	
  1591  0098  0842               	movf	___flmul@temp,w
  1592  0099  00B2               	movwf	??___flmul
  1593  009A  01B3               	clrf	??___flmul+1
  1594  009B  01B4               	clrf	??___flmul+2
  1595  009C  01B5               	clrf	??___flmul+3
  1596  009D  0835               	movf	??___flmul+3,w
  1597  009E  00BB               	movwf	___flmul@grs+3
  1598  009F  0834               	movf	??___flmul+2,w
  1599  00A0  00BA               	movwf	___flmul@grs+2
  1600  00A1  0833               	movf	??___flmul+1,w
  1601  00A2  00B9               	movwf	___flmul@grs+1
  1602  00A3  0832               	movf	??___flmul,w
  1603  00A4  00B8               	movwf	___flmul@grs
  1604  00A5                     l1924:	
  1605  00A5  0843               	movf	___flmul@temp+1,w
  1606  00A6  00B2               	movwf	??___flmul
  1607  00A7  01B3               	clrf	??___flmul+1
  1608  00A8  01B4               	clrf	??___flmul+2
  1609  00A9  01B5               	clrf	??___flmul+3
  1610  00AA  0835               	movf	??___flmul+3,w
  1611  00AB  00C1               	movwf	___flmul@prod+3
  1612  00AC  0834               	movf	??___flmul+2,w
  1613  00AD  00C0               	movwf	___flmul@prod+2
  1614  00AE  0833               	movf	??___flmul+1,w
  1615  00AF  00BF               	movwf	___flmul@prod+1
  1616  00B0  0832               	movf	??___flmul,w
  1617  00B1  00BE               	movwf	___flmul@prod
  1618  00B2  082B               	movf	___flmul@b+1,w
  1619  00B3  00B2               	movwf	??___flmul
  1620  00B4  0832               	movf	??___flmul,w
  1621  00B5  00F3               	movwf	__Umul8_16@multiplicand
  1622  00B6  082F               	movf	___flmul@a+1,w
  1623  00B7  120A  118A  27CB  120A  118A  	fcall	__Umul8_16
  1624  00BC  0874               	movf	?__Umul8_16+1,w
  1625  00BD  1283               	bcf	3,5	;RP0=0, select bank0
  1626  00BE  1303               	bcf	3,6	;RP1=0, select bank0
  1627  00BF  00C3               	movwf	___flmul@temp+1
  1628  00C0  0873               	movf	?__Umul8_16,w
  1629  00C1  00C2               	movwf	___flmul@temp
  1630  00C2                     l1926:	
  1631  00C2  0842               	movf	___flmul@temp,w
  1632  00C3  00B2               	movwf	??___flmul
  1633  00C4  01B3               	clrf	??___flmul+1
  1634  00C5  01B4               	clrf	??___flmul+2
  1635  00C6  01B5               	clrf	??___flmul+3
  1636  00C7  0832               	movf	??___flmul,w
  1637  00C8  07B8               	addwf	___flmul@grs,f
  1638  00C9  0833               	movf	??___flmul+1,w
  1639  00CA  1103               	clrz
  1640  00CB  1803               	skipnc
  1641  00CC  3E01               	addlw	1
  1642  00CD  1903               	skipnz
  1643  00CE  28D0               	goto	u2131
  1644  00CF  07B9               	addwf	___flmul@grs+1,f
  1645  00D0                     u2131:	
  1646  00D0  0834               	movf	??___flmul+2,w
  1647  00D1  1103               	clrz
  1648  00D2  1803               	skipnc
  1649  00D3  3E01               	addlw	1
  1650  00D4  1903               	skipnz
  1651  00D5  28D7               	goto	u2132
  1652  00D6  07BA               	addwf	___flmul@grs+2,f
  1653  00D7                     u2132:	
  1654  00D7  0835               	movf	??___flmul+3,w
  1655  00D8  1103               	clrz
  1656  00D9  1803               	skipnc
  1657  00DA  3E01               	addlw	1
  1658  00DB  1903               	skipnz
  1659  00DC  28DE               	goto	u2133
  1660  00DD  07BB               	addwf	___flmul@grs+3,f
  1661  00DE                     u2133:	
  1662  00DE                     l1928:	
  1663  00DE  0843               	movf	___flmul@temp+1,w
  1664  00DF  00B2               	movwf	??___flmul
  1665  00E0  01B3               	clrf	??___flmul+1
  1666  00E1  01B4               	clrf	??___flmul+2
  1667  00E2  01B5               	clrf	??___flmul+3
  1668  00E3  0832               	movf	??___flmul,w
  1669  00E4  07BE               	addwf	___flmul@prod,f
  1670  00E5  0833               	movf	??___flmul+1,w
  1671  00E6  1103               	clrz
  1672  00E7  1803               	skipnc
  1673  00E8  3E01               	addlw	1
  1674  00E9  1903               	skipnz
  1675  00EA  28EC               	goto	u2141
  1676  00EB  07BF               	addwf	___flmul@prod+1,f
  1677  00EC                     u2141:	
  1678  00EC  0834               	movf	??___flmul+2,w
  1679  00ED  1103               	clrz
  1680  00EE  1803               	skipnc
  1681  00EF  3E01               	addlw	1
  1682  00F0  1903               	skipnz
  1683  00F1  28F3               	goto	u2142
  1684  00F2  07C0               	addwf	___flmul@prod+2,f
  1685  00F3                     u2142:	
  1686  00F3  0835               	movf	??___flmul+3,w
  1687  00F4  1103               	clrz
  1688  00F5  1803               	skipnc
  1689  00F6  3E01               	addlw	1
  1690  00F7  1903               	skipnz
  1691  00F8  28FA               	goto	u2143
  1692  00F9  07C1               	addwf	___flmul@prod+3,f
  1693  00FA                     u2143:	
  1694  00FA  082C               	movf	___flmul@b+2,w
  1695  00FB  00B2               	movwf	??___flmul
  1696  00FC  0832               	movf	??___flmul,w
  1697  00FD  00F3               	movwf	__Umul8_16@multiplicand
  1698  00FE  082E               	movf	___flmul@a,w
  1699  00FF  120A  118A  27CB  120A  118A  	fcall	__Umul8_16
  1700  0104  0874               	movf	?__Umul8_16+1,w
  1701  0105  1283               	bcf	3,5	;RP0=0, select bank0
  1702  0106  1303               	bcf	3,6	;RP1=0, select bank0
  1703  0107  00C3               	movwf	___flmul@temp+1
  1704  0108  0873               	movf	?__Umul8_16,w
  1705  0109  00C2               	movwf	___flmul@temp
  1706  010A                     l1930:	
  1707  010A  0842               	movf	___flmul@temp,w
  1708  010B  00B2               	movwf	??___flmul
  1709  010C  01B3               	clrf	??___flmul+1
  1710  010D  01B4               	clrf	??___flmul+2
  1711  010E  01B5               	clrf	??___flmul+3
  1712  010F  0832               	movf	??___flmul,w
  1713  0110  07B8               	addwf	___flmul@grs,f
  1714  0111  0833               	movf	??___flmul+1,w
  1715  0112  1103               	clrz
  1716  0113  1803               	skipnc
  1717  0114  3E01               	addlw	1
  1718  0115  1903               	skipnz
  1719  0116  2918               	goto	u2151
  1720  0117  07B9               	addwf	___flmul@grs+1,f
  1721  0118                     u2151:	
  1722  0118  0834               	movf	??___flmul+2,w
  1723  0119  1103               	clrz
  1724  011A  1803               	skipnc
  1725  011B  3E01               	addlw	1
  1726  011C  1903               	skipnz
  1727  011D  291F               	goto	u2152
  1728  011E  07BA               	addwf	___flmul@grs+2,f
  1729  011F                     u2152:	
  1730  011F  0835               	movf	??___flmul+3,w
  1731  0120  1103               	clrz
  1732  0121  1803               	skipnc
  1733  0122  3E01               	addlw	1
  1734  0123  1903               	skipnz
  1735  0124  2926               	goto	u2153
  1736  0125  07BB               	addwf	___flmul@grs+3,f
  1737  0126                     u2153:	
  1738  0126                     l1932:	
  1739  0126  0843               	movf	___flmul@temp+1,w
  1740  0127  00B2               	movwf	??___flmul
  1741  0128  01B3               	clrf	??___flmul+1
  1742  0129  01B4               	clrf	??___flmul+2
  1743  012A  01B5               	clrf	??___flmul+3
  1744  012B  0832               	movf	??___flmul,w
  1745  012C  07BE               	addwf	___flmul@prod,f
  1746  012D  0833               	movf	??___flmul+1,w
  1747  012E  1103               	clrz
  1748  012F  1803               	skipnc
  1749  0130  3E01               	addlw	1
  1750  0131  1903               	skipnz
  1751  0132  2934               	goto	u2161
  1752  0133  07BF               	addwf	___flmul@prod+1,f
  1753  0134                     u2161:	
  1754  0134  0834               	movf	??___flmul+2,w
  1755  0135  1103               	clrz
  1756  0136  1803               	skipnc
  1757  0137  3E01               	addlw	1
  1758  0138  1903               	skipnz
  1759  0139  293B               	goto	u2162
  1760  013A  07C0               	addwf	___flmul@prod+2,f
  1761  013B                     u2162:	
  1762  013B  0835               	movf	??___flmul+3,w
  1763  013C  1103               	clrz
  1764  013D  1803               	skipnc
  1765  013E  3E01               	addlw	1
  1766  013F  1903               	skipnz
  1767  0140  2942               	goto	u2163
  1768  0141  07C1               	addwf	___flmul@prod+3,f
  1769  0142                     u2163:	
  1770  0142                     l1934:	
  1771  0142  3008               	movlw	8
  1772  0143  00B2               	movwf	??___flmul
  1773  0144                     u2175:	
  1774  0144  1003               	clrc
  1775  0145  0DB8               	rlf	___flmul@grs,f
  1776  0146  0DB9               	rlf	___flmul@grs+1,f
  1777  0147  0DBA               	rlf	___flmul@grs+2,f
  1778  0148  0DBB               	rlf	___flmul@grs+3,f
  1779  0149  0BB2               	decfsz	??___flmul,f
  1780  014A  2944               	goto	u2175
  1781  014B                     l1936:	
  1782  014B  082B               	movf	___flmul@b+1,w
  1783  014C  00B2               	movwf	??___flmul
  1784  014D  0832               	movf	??___flmul,w
  1785  014E  00F3               	movwf	__Umul8_16@multiplicand
  1786  014F  082E               	movf	___flmul@a,w
  1787  0150  120A  118A  27CB  120A  118A  	fcall	__Umul8_16
  1788  0155  0874               	movf	?__Umul8_16+1,w
  1789  0156  1283               	bcf	3,5	;RP0=0, select bank0
  1790  0157  1303               	bcf	3,6	;RP1=0, select bank0
  1791  0158  00C3               	movwf	___flmul@temp+1
  1792  0159  0873               	movf	?__Umul8_16,w
  1793  015A  00C2               	movwf	___flmul@temp
  1794  015B                     l1938:	
  1795  015B  0842               	movf	___flmul@temp,w
  1796  015C  00B2               	movwf	??___flmul
  1797  015D  0843               	movf	___flmul@temp+1,w
  1798  015E  00B3               	movwf	??___flmul+1
  1799  015F  01B4               	clrf	??___flmul+2
  1800  0160  01B5               	clrf	??___flmul+3
  1801  0161  0832               	movf	??___flmul,w
  1802  0162  07B8               	addwf	___flmul@grs,f
  1803  0163  0833               	movf	??___flmul+1,w
  1804  0164  1103               	clrz
  1805  0165  1803               	skipnc
  1806  0166  3E01               	addlw	1
  1807  0167  1903               	skipnz
  1808  0168  296A               	goto	u2181
  1809  0169  07B9               	addwf	___flmul@grs+1,f
  1810  016A                     u2181:	
  1811  016A  0834               	movf	??___flmul+2,w
  1812  016B  1103               	clrz
  1813  016C  1803               	skipnc
  1814  016D  3E01               	addlw	1
  1815  016E  1903               	skipnz
  1816  016F  2971               	goto	u2182
  1817  0170  07BA               	addwf	___flmul@grs+2,f
  1818  0171                     u2182:	
  1819  0171  0835               	movf	??___flmul+3,w
  1820  0172  1103               	clrz
  1821  0173  1803               	skipnc
  1822  0174  3E01               	addlw	1
  1823  0175  1903               	skipnz
  1824  0176  2978               	goto	u2183
  1825  0177  07BB               	addwf	___flmul@grs+3,f
  1826  0178                     u2183:	
  1827  0178                     l1940:	
  1828  0178  082A               	movf	___flmul@b,w
  1829  0179  00B2               	movwf	??___flmul
  1830  017A  0832               	movf	??___flmul,w
  1831  017B  00F3               	movwf	__Umul8_16@multiplicand
  1832  017C  082F               	movf	___flmul@a+1,w
  1833  017D  120A  118A  27CB  120A  118A  	fcall	__Umul8_16
  1834  0182  0874               	movf	?__Umul8_16+1,w
  1835  0183  1283               	bcf	3,5	;RP0=0, select bank0
  1836  0184  1303               	bcf	3,6	;RP1=0, select bank0
  1837  0185  00C3               	movwf	___flmul@temp+1
  1838  0186  0873               	movf	?__Umul8_16,w
  1839  0187  00C2               	movwf	___flmul@temp
  1840  0188                     l1942:	
  1841  0188  0842               	movf	___flmul@temp,w
  1842  0189  00B2               	movwf	??___flmul
  1843  018A  0843               	movf	___flmul@temp+1,w
  1844  018B  00B3               	movwf	??___flmul+1
  1845  018C  01B4               	clrf	??___flmul+2
  1846  018D  01B5               	clrf	??___flmul+3
  1847  018E  0832               	movf	??___flmul,w
  1848  018F  07B8               	addwf	___flmul@grs,f
  1849  0190  0833               	movf	??___flmul+1,w
  1850  0191  1103               	clrz
  1851  0192  1803               	skipnc
  1852  0193  3E01               	addlw	1
  1853  0194  1903               	skipnz
  1854  0195  2997               	goto	u2191
  1855  0196  07B9               	addwf	___flmul@grs+1,f
  1856  0197                     u2191:	
  1857  0197  0834               	movf	??___flmul+2,w
  1858  0198  1103               	clrz
  1859  0199  1803               	skipnc
  1860  019A  3E01               	addlw	1
  1861  019B  1903               	skipnz
  1862  019C  299E               	goto	u2192
  1863  019D  07BA               	addwf	___flmul@grs+2,f
  1864  019E                     u2192:	
  1865  019E  0835               	movf	??___flmul+3,w
  1866  019F  1103               	clrz
  1867  01A0  1803               	skipnc
  1868  01A1  3E01               	addlw	1
  1869  01A2  1903               	skipnz
  1870  01A3  29A5               	goto	u2193
  1871  01A4  07BB               	addwf	___flmul@grs+3,f
  1872  01A5                     u2193:	
  1873  01A5                     l1944:	
  1874  01A5  3008               	movlw	8
  1875  01A6  00B2               	movwf	??___flmul
  1876  01A7                     u2205:	
  1877  01A7  1003               	clrc
  1878  01A8  0DB8               	rlf	___flmul@grs,f
  1879  01A9  0DB9               	rlf	___flmul@grs+1,f
  1880  01AA  0DBA               	rlf	___flmul@grs+2,f
  1881  01AB  0DBB               	rlf	___flmul@grs+3,f
  1882  01AC  0BB2               	decfsz	??___flmul,f
  1883  01AD  29A7               	goto	u2205
  1884  01AE  082A               	movf	___flmul@b,w
  1885  01AF  00B2               	movwf	??___flmul
  1886  01B0  0832               	movf	??___flmul,w
  1887  01B1  00F3               	movwf	__Umul8_16@multiplicand
  1888  01B2  082E               	movf	___flmul@a,w
  1889  01B3  120A  118A  27CB  120A  118A  	fcall	__Umul8_16
  1890  01B8  0874               	movf	?__Umul8_16+1,w
  1891  01B9  1283               	bcf	3,5	;RP0=0, select bank0
  1892  01BA  1303               	bcf	3,6	;RP1=0, select bank0
  1893  01BB  00C3               	movwf	___flmul@temp+1
  1894  01BC  0873               	movf	?__Umul8_16,w
  1895  01BD  00C2               	movwf	___flmul@temp
  1896  01BE                     l1946:	
  1897  01BE  0842               	movf	___flmul@temp,w
  1898  01BF  00B2               	movwf	??___flmul
  1899  01C0  0843               	movf	___flmul@temp+1,w
  1900  01C1  00B3               	movwf	??___flmul+1
  1901  01C2  01B4               	clrf	??___flmul+2
  1902  01C3  01B5               	clrf	??___flmul+3
  1903  01C4  0832               	movf	??___flmul,w
  1904  01C5  07B8               	addwf	___flmul@grs,f
  1905  01C6  0833               	movf	??___flmul+1,w
  1906  01C7  1103               	clrz
  1907  01C8  1803               	skipnc
  1908  01C9  3E01               	addlw	1
  1909  01CA  1903               	skipnz
  1910  01CB  29CD               	goto	u2211
  1911  01CC  07B9               	addwf	___flmul@grs+1,f
  1912  01CD                     u2211:	
  1913  01CD  0834               	movf	??___flmul+2,w
  1914  01CE  1103               	clrz
  1915  01CF  1803               	skipnc
  1916  01D0  3E01               	addlw	1
  1917  01D1  1903               	skipnz
  1918  01D2  29D4               	goto	u2212
  1919  01D3  07BA               	addwf	___flmul@grs+2,f
  1920  01D4                     u2212:	
  1921  01D4  0835               	movf	??___flmul+3,w
  1922  01D5  1103               	clrz
  1923  01D6  1803               	skipnc
  1924  01D7  3E01               	addlw	1
  1925  01D8  1903               	skipnz
  1926  01D9  29DB               	goto	u2213
  1927  01DA  07BB               	addwf	___flmul@grs+3,f
  1928  01DB                     u2213:	
  1929  01DB                     l1948:	
  1930  01DB  082B               	movf	___flmul@b+1,w
  1931  01DC  00B2               	movwf	??___flmul
  1932  01DD  0832               	movf	??___flmul,w
  1933  01DE  00F3               	movwf	__Umul8_16@multiplicand
  1934  01DF  0830               	movf	___flmul@a+2,w
  1935  01E0  120A  118A  27CB  120A  118A  	fcall	__Umul8_16
  1936  01E5  0874               	movf	?__Umul8_16+1,w
  1937  01E6  1283               	bcf	3,5	;RP0=0, select bank0
  1938  01E7  1303               	bcf	3,6	;RP1=0, select bank0
  1939  01E8  00C3               	movwf	___flmul@temp+1
  1940  01E9  0873               	movf	?__Umul8_16,w
  1941  01EA  00C2               	movwf	___flmul@temp
  1942  01EB  0842               	movf	___flmul@temp,w
  1943  01EC  00B2               	movwf	??___flmul
  1944  01ED  0843               	movf	___flmul@temp+1,w
  1945  01EE  00B3               	movwf	??___flmul+1
  1946  01EF  01B4               	clrf	??___flmul+2
  1947  01F0  01B5               	clrf	??___flmul+3
  1948  01F1  0832               	movf	??___flmul,w
  1949  01F2  07BE               	addwf	___flmul@prod,f
  1950  01F3  0833               	movf	??___flmul+1,w
  1951  01F4  1103               	clrz
  1952  01F5  1803               	skipnc
  1953  01F6  3E01               	addlw	1
  1954  01F7  1903               	skipnz
  1955  01F8  29FA               	goto	u2221
  1956  01F9  07BF               	addwf	___flmul@prod+1,f
  1957  01FA                     u2221:	
  1958  01FA  0834               	movf	??___flmul+2,w
  1959  01FB  1103               	clrz
  1960  01FC  1803               	skipnc
  1961  01FD  3E01               	addlw	1
  1962  01FE  1903               	skipnz
  1963  01FF  2A01               	goto	u2222
  1964  0200  07C0               	addwf	___flmul@prod+2,f
  1965  0201                     u2222:	
  1966  0201  0835               	movf	??___flmul+3,w
  1967  0202  1103               	clrz
  1968  0203  1803               	skipnc
  1969  0204  3E01               	addlw	1
  1970  0205  1903               	skipnz
  1971  0206  2A08               	goto	u2223
  1972  0207  07C1               	addwf	___flmul@prod+3,f
  1973  0208                     u2223:	
  1974  0208                     l1950:	
  1975  0208  082C               	movf	___flmul@b+2,w
  1976  0209  00B2               	movwf	??___flmul
  1977  020A  0832               	movf	??___flmul,w
  1978  020B  00F3               	movwf	__Umul8_16@multiplicand
  1979  020C  082F               	movf	___flmul@a+1,w
  1980  020D  120A  118A  27CB  120A  118A  	fcall	__Umul8_16
  1981  0212  0874               	movf	?__Umul8_16+1,w
  1982  0213  1283               	bcf	3,5	;RP0=0, select bank0
  1983  0214  1303               	bcf	3,6	;RP1=0, select bank0
  1984  0215  00C3               	movwf	___flmul@temp+1
  1985  0216  0873               	movf	?__Umul8_16,w
  1986  0217  00C2               	movwf	___flmul@temp
  1987  0218                     l1952:	
  1988  0218  0842               	movf	___flmul@temp,w
  1989  0219  00B2               	movwf	??___flmul
  1990  021A  0843               	movf	___flmul@temp+1,w
  1991  021B  00B3               	movwf	??___flmul+1
  1992  021C  01B4               	clrf	??___flmul+2
  1993  021D  01B5               	clrf	??___flmul+3
  1994  021E  0832               	movf	??___flmul,w
  1995  021F  07BE               	addwf	___flmul@prod,f
  1996  0220  0833               	movf	??___flmul+1,w
  1997  0221  1103               	clrz
  1998  0222  1803               	skipnc
  1999  0223  3E01               	addlw	1
  2000  0224  1903               	skipnz
  2001  0225  2A27               	goto	u2231
  2002  0226  07BF               	addwf	___flmul@prod+1,f
  2003  0227                     u2231:	
  2004  0227  0834               	movf	??___flmul+2,w
  2005  0228  1103               	clrz
  2006  0229  1803               	skipnc
  2007  022A  3E01               	addlw	1
  2008  022B  1903               	skipnz
  2009  022C  2A2E               	goto	u2232
  2010  022D  07C0               	addwf	___flmul@prod+2,f
  2011  022E                     u2232:	
  2012  022E  0835               	movf	??___flmul+3,w
  2013  022F  1103               	clrz
  2014  0230  1803               	skipnc
  2015  0231  3E01               	addlw	1
  2016  0232  1903               	skipnz
  2017  0233  2A35               	goto	u2233
  2018  0234  07C1               	addwf	___flmul@prod+3,f
  2019  0235                     u2233:	
  2020  0235  082C               	movf	___flmul@b+2,w
  2021  0236  00B2               	movwf	??___flmul
  2022  0237  0832               	movf	??___flmul,w
  2023  0238  00F3               	movwf	__Umul8_16@multiplicand
  2024  0239  0830               	movf	___flmul@a+2,w
  2025  023A  120A  118A  27CB  120A  118A  	fcall	__Umul8_16
  2026  023F  0874               	movf	?__Umul8_16+1,w
  2027  0240  1283               	bcf	3,5	;RP0=0, select bank0
  2028  0241  1303               	bcf	3,6	;RP1=0, select bank0
  2029  0242  00C3               	movwf	___flmul@temp+1
  2030  0243  0873               	movf	?__Umul8_16,w
  2031  0244  00C2               	movwf	___flmul@temp
  2032  0245                     l1954:	
  2033  0245  0842               	movf	___flmul@temp,w
  2034  0246  00B2               	movwf	??___flmul
  2035  0247  0843               	movf	___flmul@temp+1,w
  2036  0248  00B3               	movwf	??___flmul+1
  2037  0249  01B4               	clrf	??___flmul+2
  2038  024A  01B5               	clrf	??___flmul+3
  2039  024B  3008               	movlw	8
  2040  024C                     u2245:	
  2041  024C  1003               	clrc
  2042  024D  0DB2               	rlf	??___flmul,f
  2043  024E  0DB3               	rlf	??___flmul+1,f
  2044  024F  0DB4               	rlf	??___flmul+2,f
  2045  0250  0DB5               	rlf	??___flmul+3,f
  2046  0251                     u2240:	
  2047  0251  3EFF               	addlw	-1
  2048  0252  1D03               	skipz
  2049  0253  2A4C               	goto	u2245
  2050  0254  0832               	movf	??___flmul,w
  2051  0255  07BE               	addwf	___flmul@prod,f
  2052  0256  0833               	movf	??___flmul+1,w
  2053  0257  1103               	clrz
  2054  0258  1803               	skipnc
  2055  0259  3E01               	addlw	1
  2056  025A  1903               	skipnz
  2057  025B  2A5D               	goto	u2251
  2058  025C  07BF               	addwf	___flmul@prod+1,f
  2059  025D                     u2251:	
  2060  025D  0834               	movf	??___flmul+2,w
  2061  025E  1103               	clrz
  2062  025F  1803               	skipnc
  2063  0260  3E01               	addlw	1
  2064  0261  1903               	skipnz
  2065  0262  2A64               	goto	u2252
  2066  0263  07C0               	addwf	___flmul@prod+2,f
  2067  0264                     u2252:	
  2068  0264  0835               	movf	??___flmul+3,w
  2069  0265  1103               	clrz
  2070  0266  1803               	skipnc
  2071  0267  3E01               	addlw	1
  2072  0268  1903               	skipnz
  2073  0269  2A6B               	goto	u2253
  2074  026A  07C1               	addwf	___flmul@prod+3,f
  2075  026B                     u2253:	
  2076  026B                     l1956:	
  2077  026B  0838               	movf	___flmul@grs,w
  2078  026C  00B2               	movwf	??___flmul
  2079  026D  0839               	movf	___flmul@grs+1,w
  2080  026E  00B3               	movwf	??___flmul+1
  2081  026F  083A               	movf	___flmul@grs+2,w
  2082  0270  00B4               	movwf	??___flmul+2
  2083  0271  083B               	movf	___flmul@grs+3,w
  2084  0272  00B5               	movwf	??___flmul+3
  2085  0273  3018               	movlw	24
  2086  0274                     u2265:	
  2087  0274  1003               	clrc
  2088  0275  0CB5               	rrf	??___flmul+3,f
  2089  0276  0CB4               	rrf	??___flmul+2,f
  2090  0277  0CB3               	rrf	??___flmul+1,f
  2091  0278  0CB2               	rrf	??___flmul,f
  2092  0279                     u2260:	
  2093  0279  3EFF               	addlw	-1
  2094  027A  1D03               	skipz
  2095  027B  2A74               	goto	u2265
  2096  027C  0832               	movf	??___flmul,w
  2097  027D  07BE               	addwf	___flmul@prod,f
  2098  027E  0833               	movf	??___flmul+1,w
  2099  027F  1103               	clrz
  2100  0280  1803               	skipnc
  2101  0281  3E01               	addlw	1
  2102  0282  1903               	skipnz
  2103  0283  2A85               	goto	u2271
  2104  0284  07BF               	addwf	___flmul@prod+1,f
  2105  0285                     u2271:	
  2106  0285  0834               	movf	??___flmul+2,w
  2107  0286  1103               	clrz
  2108  0287  1803               	skipnc
  2109  0288  3E01               	addlw	1
  2110  0289  1903               	skipnz
  2111  028A  2A8C               	goto	u2272
  2112  028B  07C0               	addwf	___flmul@prod+2,f
  2113  028C                     u2272:	
  2114  028C  0835               	movf	??___flmul+3,w
  2115  028D  1103               	clrz
  2116  028E  1803               	skipnc
  2117  028F  3E01               	addlw	1
  2118  0290  1903               	skipnz
  2119  0291  2A93               	goto	u2273
  2120  0292  07C1               	addwf	___flmul@prod+3,f
  2121  0293                     u2273:	
  2122  0293                     l1958:	
  2123  0293  3008               	movlw	8
  2124  0294  00B2               	movwf	??___flmul
  2125  0295                     u2285:	
  2126  0295  1003               	clrc
  2127  0296  0DB8               	rlf	___flmul@grs,f
  2128  0297  0DB9               	rlf	___flmul@grs+1,f
  2129  0298  0DBA               	rlf	___flmul@grs+2,f
  2130  0299  0DBB               	rlf	___flmul@grs+3,f
  2131  029A  0BB2               	decfsz	??___flmul,f
  2132  029B  2A95               	goto	u2285
  2133  029C                     l1960:	
  2134  029C  083D               	movf	___flmul@bexp,w
  2135  029D  073C               	addwf	___flmul@aexp,w
  2136  029E  00B2               	movwf	??___flmul
  2137  029F  01B3               	clrf	??___flmul+1
  2138  02A0  0DB3               	rlf	??___flmul+1,f
  2139  02A1  0832               	movf	??___flmul,w
  2140  02A2  3E82               	addlw	130
  2141  02A3  00C2               	movwf	___flmul@temp
  2142  02A4  0833               	movf	??___flmul+1,w
  2143  02A5  1803               	skipnc
  2144  02A6  3E01               	addlw	1
  2145  02A7  3EFF               	addlw	255
  2146  02A8  00C3               	movwf	___flmul@temp+1
  2147  02A9  2AC7               	goto	l1972
  2148  02AA                     l1962:	
  2149  02AA  3001               	movlw	1
  2150  02AB  00B2               	movwf	??___flmul
  2151  02AC                     u2295:	
  2152  02AC  1003               	clrc
  2153  02AD  0DBE               	rlf	___flmul@prod,f
  2154  02AE  0DBF               	rlf	___flmul@prod+1,f
  2155  02AF  0DC0               	rlf	___flmul@prod+2,f
  2156  02B0  0DC1               	rlf	___flmul@prod+3,f
  2157  02B1  0BB2               	decfsz	??___flmul,f
  2158  02B2  2AAC               	goto	u2295
  2159  02B3                     l1964:	
  2160  02B3  1FBB               	btfss	___flmul@grs+3,7
  2161  02B4  2AB6               	goto	u2301
  2162  02B5  2AB7               	goto	u2300
  2163  02B6                     u2301:	
  2164  02B6  2AB8               	goto	l1968
  2165  02B7                     u2300:	
  2166  02B7                     l1966:	
  2167  02B7  143E               	bsf	___flmul@prod,0
  2168  02B8                     l1968:	
  2169  02B8  3001               	movlw	1
  2170  02B9  00B2               	movwf	??___flmul
  2171  02BA                     u2315:	
  2172  02BA  1003               	clrc
  2173  02BB  0DB8               	rlf	___flmul@grs,f
  2174  02BC  0DB9               	rlf	___flmul@grs+1,f
  2175  02BD  0DBA               	rlf	___flmul@grs+2,f
  2176  02BE  0DBB               	rlf	___flmul@grs+3,f
  2177  02BF  0BB2               	decfsz	??___flmul,f
  2178  02C0  2ABA               	goto	u2315
  2179  02C1                     l1970:	
  2180  02C1  30FF               	movlw	255
  2181  02C2  07C2               	addwf	___flmul@temp,f
  2182  02C3  1803               	skipnc
  2183  02C4  0AC3               	incf	___flmul@temp+1,f
  2184  02C5  30FF               	movlw	255
  2185  02C6  07C3               	addwf	___flmul@temp+1,f
  2186  02C7                     l1972:	
  2187  02C7  1FC0               	btfss	___flmul@prod+2,7
  2188  02C8  2ACA               	goto	u2321
  2189  02C9  2ACB               	goto	u2320
  2190  02CA                     u2321:	
  2191  02CA  2AAA               	goto	l1962
  2192  02CB                     u2320:	
  2193  02CB                     l1974:	
  2194  02CB  01BC               	clrf	___flmul@aexp
  2195  02CC                     l1976:	
  2196  02CC  1FBB               	btfss	___flmul@grs+3,7
  2197  02CD  2ACF               	goto	u2331
  2198  02CE  2AD0               	goto	u2330
  2199  02CF                     u2331:	
  2200  02CF  2AEC               	goto	l1984
  2201  02D0                     u2330:	
  2202  02D0                     l1978:	
  2203  02D0  30FF               	movlw	255
  2204  02D1  0538               	andwf	___flmul@grs,w
  2205  02D2  00B2               	movwf	??___flmul
  2206  02D3  30FF               	movlw	255
  2207  02D4  0539               	andwf	___flmul@grs+1,w
  2208  02D5  00B3               	movwf	??___flmul+1
  2209  02D6  30FF               	movlw	255
  2210  02D7  053A               	andwf	___flmul@grs+2,w
  2211  02D8  00B4               	movwf	??___flmul+2
  2212  02D9  307F               	movlw	127
  2213  02DA  053B               	andwf	___flmul@grs+3,w
  2214  02DB  00B5               	movwf	??___flmul+3
  2215  02DC  0835               	movf	??___flmul+3,w
  2216  02DD  0434               	iorwf	??___flmul+2,w
  2217  02DE  0433               	iorwf	??___flmul+1,w
  2218  02DF  0432               	iorwf	??___flmul,w
  2219  02E0  1903               	skipnz
  2220  02E1  2AE3               	goto	u2341
  2221  02E2  2AE4               	goto	u2340
  2222  02E3                     u2341:	
  2223  02E3  2AE7               	goto	l661
  2224  02E4                     u2340:	
  2225  02E4                     l1980:	
  2226  02E4  01BC               	clrf	___flmul@aexp
  2227  02E5  0ABC               	incf	___flmul@aexp,f
  2228  02E6  2AEC               	goto	l1984
  2229  02E7                     l661:	
  2230  02E7  1C3E               	btfss	___flmul@prod,0
  2231  02E8  2AEA               	goto	u2351
  2232  02E9  2AEB               	goto	u2350
  2233  02EA                     u2351:	
  2234  02EA  2AEC               	goto	l1984
  2235  02EB                     u2350:	
  2236  02EB  2AE4               	goto	l1980
  2237  02EC                     l1984:	
  2238  02EC  083C               	movf	___flmul@aexp,w
  2239  02ED  1903               	btfsc	3,2
  2240  02EE  2AF0               	goto	u2361
  2241  02EF  2AF1               	goto	u2360
  2242  02F0                     u2361:	
  2243  02F0  2B22               	goto	l1994
  2244  02F1                     u2360:	
  2245  02F1                     l1986:	
  2246  02F1  3001               	movlw	1
  2247  02F2  07BE               	addwf	___flmul@prod,f
  2248  02F3  3000               	movlw	0
  2249  02F4  1803               	skipnc
  2250  02F5  3001               	movlw	1
  2251  02F6  07BF               	addwf	___flmul@prod+1,f
  2252  02F7  3000               	movlw	0
  2253  02F8  1803               	skipnc
  2254  02F9  3001               	movlw	1
  2255  02FA  07C0               	addwf	___flmul@prod+2,f
  2256  02FB  3000               	movlw	0
  2257  02FC  1803               	skipnc
  2258  02FD  3001               	movlw	1
  2259  02FE  07C1               	addwf	___flmul@prod+3,f
  2260  02FF                     l1988:	
  2261  02FF  1C41               	btfss	___flmul@prod+3,0
  2262  0300  2B02               	goto	u2371
  2263  0301  2B03               	goto	u2370
  2264  0302                     u2371:	
  2265  0302  2B22               	goto	l1994
  2266  0303                     u2370:	
  2267  0303                     l1990:	
  2268  0303  083E               	movf	___flmul@prod,w
  2269  0304  00B2               	movwf	??___flmul
  2270  0305  083F               	movf	___flmul@prod+1,w
  2271  0306  00B3               	movwf	??___flmul+1
  2272  0307  0840               	movf	___flmul@prod+2,w
  2273  0308  00B4               	movwf	??___flmul+2
  2274  0309  0841               	movf	___flmul@prod+3,w
  2275  030A  00B5               	movwf	??___flmul+3
  2276  030B  3001               	movlw	1
  2277  030C  00B6               	movwf	??___flmul+4
  2278  030D                     u2385:	
  2279  030D  0D35               	rlf	??___flmul+3,w
  2280  030E  0CB5               	rrf	??___flmul+3,f
  2281  030F  0CB4               	rrf	??___flmul+2,f
  2282  0310  0CB3               	rrf	??___flmul+1,f
  2283  0311  0CB2               	rrf	??___flmul,f
  2284  0312                     u2380:	
  2285  0312  0BB6               	decfsz	??___flmul+4,f
  2286  0313  2B0D               	goto	u2385
  2287  0314  0835               	movf	??___flmul+3,w
  2288  0315  00C1               	movwf	___flmul@prod+3
  2289  0316  0834               	movf	??___flmul+2,w
  2290  0317  00C0               	movwf	___flmul@prod+2
  2291  0318  0833               	movf	??___flmul+1,w
  2292  0319  00BF               	movwf	___flmul@prod+1
  2293  031A  0832               	movf	??___flmul,w
  2294  031B  00BE               	movwf	___flmul@prod
  2295  031C                     l1992:	
  2296  031C  3001               	movlw	1
  2297  031D  07C2               	addwf	___flmul@temp,f
  2298  031E  1803               	skipnc
  2299  031F  0AC3               	incf	___flmul@temp+1,f
  2300  0320  3000               	movlw	0
  2301  0321  07C3               	addwf	___flmul@temp+1,f
  2302  0322                     l1994:	
  2303  0322  0843               	movf	___flmul@temp+1,w
  2304  0323  3A80               	xorlw	128
  2305  0324  00FF               	movwf	btemp+1
  2306  0325  3080               	movlw	128
  2307  0326  027F               	subwf	btemp+1,w
  2308  0327  1D03               	skipz
  2309  0328  2B2B               	goto	u2395
  2310  0329  30FF               	movlw	255
  2311  032A  0242               	subwf	___flmul@temp,w
  2312  032B                     u2395:	
  2313  032B  1C03               	skipc
  2314  032C  2B2E               	goto	u2391
  2315  032D  2B2F               	goto	u2390
  2316  032E                     u2391:	
  2317  032E  2B3A               	goto	l1998
  2318  032F                     u2390:	
  2319  032F                     l1996:	
  2320  032F  307F               	movlw	127
  2321  0330  1283               	bcf	3,5	;RP0=0, select bank0
  2322  0331  1303               	bcf	3,6	;RP1=0, select bank0
  2323  0332  00C1               	movwf	___flmul@prod+3
  2324  0333  3080               	movlw	128
  2325  0334  00C0               	movwf	___flmul@prod+2
  2326  0335  3000               	movlw	0
  2327  0336  00BF               	movwf	___flmul@prod+1
  2328  0337  3000               	movlw	0
  2329  0338  00BE               	movwf	___flmul@prod
  2330  0339  2B6F               	goto	l667
  2331  033A                     l1998:	
  2332  033A  1283               	bcf	3,5	;RP0=0, select bank0
  2333  033B  1303               	bcf	3,6	;RP1=0, select bank0
  2334  033C  0843               	movf	___flmul@temp+1,w
  2335  033D  3A80               	xorlw	128
  2336  033E  00FF               	movwf	btemp+1
  2337  033F  3080               	movlw	128
  2338  0340  027F               	subwf	btemp+1,w
  2339  0341  1D03               	skipz
  2340  0342  2B45               	goto	u2405
  2341  0343  3001               	movlw	1
  2342  0344  0242               	subwf	___flmul@temp,w
  2343  0345                     u2405:	
  2344  0345  1803               	skipnc
  2345  0346  2B48               	goto	u2401
  2346  0347  2B49               	goto	u2400
  2347  0348                     u2401:	
  2348  0348  2B55               	goto	l2004
  2349  0349                     u2400:	
  2350  0349                     l2000:	
  2351  0349  3000               	movlw	0
  2352  034A  1283               	bcf	3,5	;RP0=0, select bank0
  2353  034B  1303               	bcf	3,6	;RP1=0, select bank0
  2354  034C  00C1               	movwf	___flmul@prod+3
  2355  034D  3000               	movlw	0
  2356  034E  00C0               	movwf	___flmul@prod+2
  2357  034F  3000               	movlw	0
  2358  0350  00BF               	movwf	___flmul@prod+1
  2359  0351  3000               	movlw	0
  2360  0352  00BE               	movwf	___flmul@prod
  2361  0353                     l2002:	
  2362  0353  01B7               	clrf	___flmul@sign
  2363  0354  2B6F               	goto	l667
  2364  0355                     l2004:	
  2365  0355  1283               	bcf	3,5	;RP0=0, select bank0
  2366  0356  1303               	bcf	3,6	;RP1=0, select bank0
  2367  0357  0842               	movf	___flmul@temp,w
  2368  0358  00B2               	movwf	??___flmul
  2369  0359  0832               	movf	??___flmul,w
  2370  035A  00BD               	movwf	___flmul@bexp
  2371  035B  30FF               	movlw	255
  2372  035C  05BE               	andwf	___flmul@prod,f
  2373  035D  30FF               	movlw	255
  2374  035E  05BF               	andwf	___flmul@prod+1,f
  2375  035F  307F               	movlw	127
  2376  0360  05C0               	andwf	___flmul@prod+2,f
  2377  0361  3000               	movlw	0
  2378  0362  05C1               	andwf	___flmul@prod+3,f
  2379  0363                     l2006:	
  2380  0363  1C3D               	btfss	___flmul@bexp,0
  2381  0364  2B66               	goto	u2411
  2382  0365  2B67               	goto	u2410
  2383  0366                     u2411:	
  2384  0366  2B68               	goto	l2010
  2385  0367                     u2410:	
  2386  0367                     l2008:	
  2387  0367  17C0               	bsf	___flmul@prod+2,7
  2388  0368                     l2010:	
  2389  0368  083D               	movf	___flmul@bexp,w
  2390  0369  00B2               	movwf	??___flmul
  2391  036A  1003               	clrc
  2392  036B  0C32               	rrf	??___flmul,w
  2393  036C  00B3               	movwf	??___flmul+1
  2394  036D  0833               	movf	??___flmul+1,w
  2395  036E  00C1               	movwf	___flmul@prod+3
  2396  036F                     l667:	
  2397  036F  0837               	movf	___flmul@sign,w
  2398  0370  00B2               	movwf	??___flmul
  2399  0371  0832               	movf	??___flmul,w
  2400  0372  04C1               	iorwf	___flmul@prod+3,f
  2401  0373                     l2012:	
  2402  0373  0841               	movf	___flmul@prod+3,w
  2403  0374  00AD               	movwf	?___flmul+3
  2404  0375  0840               	movf	___flmul@prod+2,w
  2405  0376  00AC               	movwf	?___flmul+2
  2406  0377  083F               	movf	___flmul@prod+1,w
  2407  0378  00AB               	movwf	?___flmul+1
  2408  0379  083E               	movf	___flmul@prod,w
  2409  037A  00AA               	movwf	?___flmul
  2410  037B                     l655:	
  2411  037B  0008               	return
  2412  037C                     __end_of___flmul:	
  2413                           
  2414                           	psect	text4
  2415  07CB                     __ptext4:	
  2416 ;; *************** function __Umul8_16 *****************
  2417 ;; Defined at:
  2418 ;;		line 4 in file "C:\Program Files (x86)\Microchip\xc8\v2.10\pic\sources\c90\common\Umul8_16.c"
  2419 ;; Parameters:    Size  Location     Type
  2420 ;;  multiplier      1    wreg     unsigned char 
  2421 ;;  multiplicand    1    3[COMMON] unsigned char 
  2422 ;; Auto vars:     Size  Location     Type
  2423 ;;  multiplier      1    4[BANK0 ] unsigned char 
  2424 ;;  word_mpld       2    2[BANK0 ] unsigned int 
  2425 ;;  product         2    0[BANK0 ] unsigned int 
  2426 ;; Return value:  Size  Location     Type
  2427 ;;                  2    3[COMMON] unsigned int 
  2428 ;; Registers used:
  2429 ;;		wreg, status,2, status,0
  2430 ;; Tracked objects:
  2431 ;;		On entry : 0/0
  2432 ;;		On exit  : 0/0
  2433 ;;		Unchanged: 0/0
  2434 ;; Data sizes:     COMMON   BANK0   BANK1   BANK3   BANK2
  2435 ;;      Params:         2       0       0       0       0
  2436 ;;      Locals:         0       5       0       0       0
  2437 ;;      Temps:          2       0       0       0       0
  2438 ;;      Totals:         4       5       0       0       0
  2439 ;;Total ram usage:        9 bytes
  2440 ;; Hardware stack levels used:    1
  2441 ;; Hardware stack levels required when called:    1
  2442 ;; This function calls:
  2443 ;;		Nothing
  2444 ;; This function is called by:
  2445 ;;		___flmul
  2446 ;; This function uses a non-reentrant model
  2447 ;;
  2448                           
  2449                           
  2450                           ;psect for function __Umul8_16
  2451  07CB                     __Umul8_16:	
  2452                           
  2453                           ;incstack = 0
  2454                           ; Regs used in __Umul8_16: [wreg+status,2+status,0]
  2455                           ;__Umul8_16@multiplier stored from wreg
  2456  07CB  1283               	bcf	3,5	;RP0=0, select bank0
  2457  07CC  1303               	bcf	3,6	;RP1=0, select bank0
  2458  07CD  00A4               	movwf	__Umul8_16@multiplier
  2459  07CE                     l1492:	
  2460  07CE  01A0               	clrf	__Umul8_16@product
  2461  07CF  01A1               	clrf	__Umul8_16@product+1
  2462  07D0                     l1494:	
  2463  07D0  0873               	movf	__Umul8_16@multiplicand,w
  2464  07D1  00F5               	movwf	??__Umul8_16
  2465  07D2  01F6               	clrf	??__Umul8_16+1
  2466  07D3  0875               	movf	??__Umul8_16,w
  2467  07D4  00A2               	movwf	__Umul8_16@word_mpld
  2468  07D5  0876               	movf	??__Umul8_16+1,w
  2469  07D6  00A3               	movwf	__Umul8_16@word_mpld+1
  2470  07D7                     l1496:	
  2471  07D7  1C24               	btfss	__Umul8_16@multiplier,0
  2472  07D8  2FDA               	goto	u1361
  2473  07D9  2FDB               	goto	u1360
  2474  07DA                     u1361:	
  2475  07DA  2FE1               	goto	l712
  2476  07DB                     u1360:	
  2477  07DB                     l1498:	
  2478  07DB  0822               	movf	__Umul8_16@word_mpld,w
  2479  07DC  07A0               	addwf	__Umul8_16@product,f
  2480  07DD  1803               	skipnc
  2481  07DE  0AA1               	incf	__Umul8_16@product+1,f
  2482  07DF  0823               	movf	__Umul8_16@word_mpld+1,w
  2483  07E0  07A1               	addwf	__Umul8_16@product+1,f
  2484  07E1                     l712:	
  2485  07E1  3001               	movlw	1
  2486  07E2                     u1375:	
  2487  07E2  1003               	clrc
  2488  07E3  0DA2               	rlf	__Umul8_16@word_mpld,f
  2489  07E4  0DA3               	rlf	__Umul8_16@word_mpld+1,f
  2490  07E5  3EFF               	addlw	-1
  2491  07E6  1D03               	skipz
  2492  07E7  2FE2               	goto	u1375
  2493  07E8  1003               	clrc
  2494  07E9  0CA4               	rrf	__Umul8_16@multiplier,f
  2495  07EA                     l1500:	
  2496  07EA  0824               	movf	__Umul8_16@multiplier,w
  2497  07EB  1D03               	btfss	3,2
  2498  07EC  2FEE               	goto	u1381
  2499  07ED  2FEF               	goto	u1380
  2500  07EE                     u1381:	
  2501  07EE  2FD7               	goto	l1496
  2502  07EF                     u1380:	
  2503  07EF                     l1502:	
  2504  07EF  0821               	movf	__Umul8_16@product+1,w
  2505  07F0  00F4               	movwf	?__Umul8_16+1
  2506  07F1  0820               	movf	__Umul8_16@product,w
  2507  07F2  00F3               	movwf	?__Umul8_16
  2508  07F3                     l714:	
  2509  07F3  0008               	return
  2510  07F4                     __end_of__Umul8_16:	
  2511                           
  2512                           	psect	text5
  2513  037C                     __ptext5:	
  2514 ;; *************** function ___fladd *****************
  2515 ;; Defined at:
  2516 ;;		line 10 in file "C:\Program Files (x86)\Microchip\xc8\v2.10\pic\sources\c90\common\sprcadd.c"
  2517 ;; Parameters:    Size  Location     Type
  2518 ;;  b               4   36[BANK0 ] unsigned int 
  2519 ;;  a               4   40[BANK0 ] unsigned int 
  2520 ;; Auto vars:     Size  Location     Type
  2521 ;;  grs             1   55[BANK0 ] unsigned char 
  2522 ;;  bexp            1   54[BANK0 ] unsigned char 
  2523 ;;  aexp            1   53[BANK0 ] unsigned char 
  2524 ;;  signs           1   52[BANK0 ] unsigned char 
  2525 ;; Return value:  Size  Location     Type
  2526 ;;                  4   36[BANK0 ] unsigned char 
  2527 ;; Registers used:
  2528 ;;		wreg, status,2, status,0, btemp+1
  2529 ;; Tracked objects:
  2530 ;;		On entry : 0/0
  2531 ;;		On exit  : 0/0
  2532 ;;		Unchanged: 0/0
  2533 ;; Data sizes:     COMMON   BANK0   BANK1   BANK3   BANK2
  2534 ;;      Params:         0       8       0       0       0
  2535 ;;      Locals:         0       4       0       0       0
  2536 ;;      Temps:          0       8       0       0       0
  2537 ;;      Totals:         0      20       0       0       0
  2538 ;;Total ram usage:       20 bytes
  2539 ;; Hardware stack levels used:    1
  2540 ;; Hardware stack levels required when called:    1
  2541 ;; This function calls:
  2542 ;;		Nothing
  2543 ;; This function is called by:
  2544 ;;		_main
  2545 ;; This function uses a non-reentrant model
  2546 ;;
  2547                           
  2548                           
  2549                           ;psect for function ___fladd
  2550  037C                     ___fladd:	
  2551  037C                     l1682:	
  2552                           ;incstack = 0
  2553                           ; Regs used in ___fladd: [wreg+status,2+status,0+btemp+1]
  2554                           
  2555  037C  1283               	bcf	3,5	;RP0=0, select bank0
  2556  037D  1303               	bcf	3,6	;RP1=0, select bank0
  2557  037E  0847               	movf	___fladd@b+3,w
  2558  037F  3980               	andlw	128
  2559  0380  00CC               	movwf	??___fladd
  2560  0381  084C               	movf	??___fladd,w
  2561  0382  00D4               	movwf	___fladd@signs
  2562  0383                     l1684:	
  2563  0383  0847               	movf	___fladd@b+3,w
  2564  0384  00CC               	movwf	??___fladd
  2565  0385  074C               	addwf	??___fladd,w
  2566  0386  00CD               	movwf	??___fladd+1
  2567  0387  084D               	movf	??___fladd+1,w
  2568  0388  00D6               	movwf	___fladd@bexp
  2569  0389                     l1686:	
  2570  0389  1FC6               	btfss	___fladd@b+2,7
  2571  038A  2B8C               	goto	u1591
  2572  038B  2B8D               	goto	u1590
  2573  038C                     u1591:	
  2574  038C  2B8E               	goto	l1690
  2575  038D                     u1590:	
  2576  038D                     l1688:	
  2577  038D  1456               	bsf	___fladd@bexp,0
  2578  038E                     l1690:	
  2579  038E  0856               	movf	___fladd@bexp,w
  2580  038F  1903               	btfsc	3,2
  2581  0390  2B92               	goto	u1601
  2582  0391  2B93               	goto	u1600
  2583  0392                     u1601:	
  2584  0392  2BA3               	goto	l1700
  2585  0393                     u1600:	
  2586  0393                     l1692:	
  2587  0393  0A56               	incf	___fladd@bexp,w
  2588  0394  1D03               	btfss	3,2
  2589  0395  2B97               	goto	u1611
  2590  0396  2B98               	goto	u1610
  2591  0397                     u1611:	
  2592  0397  2BA0               	goto	l1696
  2593  0398                     u1610:	
  2594  0398                     l1694:	
  2595  0398  3000               	movlw	0
  2596  0399  00C7               	movwf	___fladd@b+3
  2597  039A  3000               	movlw	0
  2598  039B  00C6               	movwf	___fladd@b+2
  2599  039C  3000               	movlw	0
  2600  039D  00C5               	movwf	___fladd@b+1
  2601  039E  3000               	movlw	0
  2602  039F  00C4               	movwf	___fladd@b
  2603  03A0                     l1696:	
  2604  03A0  17C6               	bsf	___fladd@b+2,7
  2605  03A1                     l1698:	
  2606  03A1  01C7               	clrf	___fladd@b+3
  2607  03A2  2BAB               	goto	l1702
  2608  03A3                     l1700:	
  2609  03A3  3000               	movlw	0
  2610  03A4  00C7               	movwf	___fladd@b+3
  2611  03A5  3000               	movlw	0
  2612  03A6  00C6               	movwf	___fladd@b+2
  2613  03A7  3000               	movlw	0
  2614  03A8  00C5               	movwf	___fladd@b+1
  2615  03A9  3000               	movlw	0
  2616  03AA  00C4               	movwf	___fladd@b
  2617  03AB                     l1702:	
  2618  03AB  084B               	movf	___fladd@a+3,w
  2619  03AC  3980               	andlw	128
  2620  03AD  00CC               	movwf	??___fladd
  2621  03AE  084C               	movf	??___fladd,w
  2622  03AF  00D5               	movwf	___fladd@aexp
  2623  03B0                     l1704:	
  2624  03B0  0855               	movf	___fladd@aexp,w
  2625  03B1  0654               	xorwf	___fladd@signs,w
  2626  03B2  1903               	skipnz
  2627  03B3  2BB5               	goto	u1621
  2628  03B4  2BB6               	goto	u1620
  2629  03B5                     u1621:	
  2630  03B5  2BB7               	goto	l1708
  2631  03B6                     u1620:	
  2632  03B6                     l1706:	
  2633  03B6  1754               	bsf	___fladd@signs,6
  2634  03B7                     l1708:	
  2635  03B7  084B               	movf	___fladd@a+3,w
  2636  03B8  00CC               	movwf	??___fladd
  2637  03B9  074C               	addwf	??___fladd,w
  2638  03BA  00CD               	movwf	??___fladd+1
  2639  03BB  084D               	movf	??___fladd+1,w
  2640  03BC  00D5               	movwf	___fladd@aexp
  2641  03BD                     l1710:	
  2642  03BD  1FCA               	btfss	___fladd@a+2,7
  2643  03BE  2BC0               	goto	u1631
  2644  03BF  2BC1               	goto	u1630
  2645  03C0                     u1631:	
  2646  03C0  2BC2               	goto	l1714
  2647  03C1                     u1630:	
  2648  03C1                     l1712:	
  2649  03C1  1455               	bsf	___fladd@aexp,0
  2650  03C2                     l1714:	
  2651  03C2  0855               	movf	___fladd@aexp,w
  2652  03C3  1903               	btfsc	3,2
  2653  03C4  2BC6               	goto	u1641
  2654  03C5  2BC7               	goto	u1640
  2655  03C6                     u1641:	
  2656  03C6  2BD7               	goto	l1724
  2657  03C7                     u1640:	
  2658  03C7                     l1716:	
  2659  03C7  0A55               	incf	___fladd@aexp,w
  2660  03C8  1D03               	btfss	3,2
  2661  03C9  2BCB               	goto	u1651
  2662  03CA  2BCC               	goto	u1650
  2663  03CB                     u1651:	
  2664  03CB  2BD4               	goto	l1720
  2665  03CC                     u1650:	
  2666  03CC                     l1718:	
  2667  03CC  3000               	movlw	0
  2668  03CD  00CB               	movwf	___fladd@a+3
  2669  03CE  3000               	movlw	0
  2670  03CF  00CA               	movwf	___fladd@a+2
  2671  03D0  3000               	movlw	0
  2672  03D1  00C9               	movwf	___fladd@a+1
  2673  03D2  3000               	movlw	0
  2674  03D3  00C8               	movwf	___fladd@a
  2675  03D4                     l1720:	
  2676  03D4  17CA               	bsf	___fladd@a+2,7
  2677  03D5                     l1722:	
  2678  03D5  01CB               	clrf	___fladd@a+3
  2679  03D6  2BDF               	goto	l559
  2680  03D7                     l1724:	
  2681  03D7  3000               	movlw	0
  2682  03D8  00CB               	movwf	___fladd@a+3
  2683  03D9  3000               	movlw	0
  2684  03DA  00CA               	movwf	___fladd@a+2
  2685  03DB  3000               	movlw	0
  2686  03DC  00C9               	movwf	___fladd@a+1
  2687  03DD  3000               	movlw	0
  2688  03DE  00C8               	movwf	___fladd@a
  2689  03DF                     l559:	
  2690  03DF  0856               	movf	___fladd@bexp,w
  2691  03E0  0255               	subwf	___fladd@aexp,w
  2692  03E1  1803               	skipnc
  2693  03E2  2BE4               	goto	u1661
  2694  03E3  2BE5               	goto	u1660
  2695  03E4                     u1661:	
  2696  03E4  2C29               	goto	l1760
  2697  03E5                     u1660:	
  2698  03E5                     l1726:	
  2699  03E5  1F54               	btfss	___fladd@signs,6
  2700  03E6  2BE8               	goto	u1671
  2701  03E7  2BE9               	goto	u1670
  2702  03E8                     u1671:	
  2703  03E8  2BED               	goto	l1730
  2704  03E9                     u1670:	
  2705  03E9                     l1728:	
  2706  03E9  3080               	movlw	128
  2707  03EA  00CC               	movwf	??___fladd
  2708  03EB  084C               	movf	??___fladd,w
  2709  03EC  06D4               	xorwf	___fladd@signs,f
  2710  03ED                     l1730:	
  2711  03ED  0856               	movf	___fladd@bexp,w
  2712  03EE  00CC               	movwf	??___fladd
  2713  03EF  084C               	movf	??___fladd,w
  2714  03F0  00D7               	movwf	___fladd@grs
  2715  03F1                     l1732:	
  2716  03F1  0855               	movf	___fladd@aexp,w
  2717  03F2  00CC               	movwf	??___fladd
  2718  03F3  084C               	movf	??___fladd,w
  2719  03F4  00D6               	movwf	___fladd@bexp
  2720  03F5                     l1734:	
  2721  03F5  0857               	movf	___fladd@grs,w
  2722  03F6  00CC               	movwf	??___fladd
  2723  03F7  084C               	movf	??___fladd,w
  2724  03F8  00D5               	movwf	___fladd@aexp
  2725  03F9                     l1736:	
  2726  03F9  0844               	movf	___fladd@b,w
  2727  03FA  00CC               	movwf	??___fladd
  2728  03FB  084C               	movf	??___fladd,w
  2729  03FC  00D7               	movwf	___fladd@grs
  2730  03FD                     l1738:	
  2731  03FD  0848               	movf	___fladd@a,w
  2732  03FE  00CC               	movwf	??___fladd
  2733  03FF  084C               	movf	??___fladd,w
  2734  0400  00C4               	movwf	___fladd@b
  2735  0401                     l1740:	
  2736  0401  0857               	movf	___fladd@grs,w
  2737  0402  00CC               	movwf	??___fladd
  2738  0403  084C               	movf	??___fladd,w
  2739  0404  00C8               	movwf	___fladd@a
  2740  0405                     l1742:	
  2741  0405  0845               	movf	___fladd@b+1,w
  2742  0406  00CC               	movwf	??___fladd
  2743  0407  084C               	movf	??___fladd,w
  2744  0408  00D7               	movwf	___fladd@grs
  2745  0409                     l1744:	
  2746  0409  0849               	movf	___fladd@a+1,w
  2747  040A  00CC               	movwf	??___fladd
  2748  040B  084C               	movf	??___fladd,w
  2749  040C  00C5               	movwf	___fladd@b+1
  2750  040D                     l1746:	
  2751  040D  0857               	movf	___fladd@grs,w
  2752  040E  00CC               	movwf	??___fladd
  2753  040F  084C               	movf	??___fladd,w
  2754  0410  00C9               	movwf	___fladd@a+1
  2755  0411                     l1748:	
  2756  0411  0846               	movf	___fladd@b+2,w
  2757  0412  00CC               	movwf	??___fladd
  2758  0413  084C               	movf	??___fladd,w
  2759  0414  00D7               	movwf	___fladd@grs
  2760  0415                     l1750:	
  2761  0415  084A               	movf	___fladd@a+2,w
  2762  0416  00CC               	movwf	??___fladd
  2763  0417  084C               	movf	??___fladd,w
  2764  0418  00C6               	movwf	___fladd@b+2
  2765  0419                     l1752:	
  2766  0419  0857               	movf	___fladd@grs,w
  2767  041A  00CC               	movwf	??___fladd
  2768  041B  084C               	movf	??___fladd,w
  2769  041C  00CA               	movwf	___fladd@a+2
  2770  041D                     l1754:	
  2771  041D  0847               	movf	___fladd@b+3,w
  2772  041E  00CC               	movwf	??___fladd
  2773  041F  084C               	movf	??___fladd,w
  2774  0420  00D7               	movwf	___fladd@grs
  2775  0421                     l1756:	
  2776  0421  084B               	movf	___fladd@a+3,w
  2777  0422  00CC               	movwf	??___fladd
  2778  0423  084C               	movf	??___fladd,w
  2779  0424  00C7               	movwf	___fladd@b+3
  2780  0425                     l1758:	
  2781  0425  0857               	movf	___fladd@grs,w
  2782  0426  00CC               	movwf	??___fladd
  2783  0427  084C               	movf	??___fladd,w
  2784  0428  00CB               	movwf	___fladd@a+3
  2785  0429                     l1760:	
  2786  0429  01D7               	clrf	___fladd@grs
  2787  042A                     l1762:	
  2788  042A  0855               	movf	___fladd@aexp,w
  2789  042B  00CC               	movwf	??___fladd
  2790  042C  01CD               	clrf	??___fladd+1
  2791  042D  084D               	movf	??___fladd+1,w
  2792  042E  00CF               	movwf	??___fladd+3
  2793  042F  0856               	movf	___fladd@bexp,w
  2794  0430  024C               	subwf	??___fladd,w
  2795  0431  00CE               	movwf	??___fladd+2
  2796  0432  1C03               	skipc
  2797  0433  03CF               	decf	??___fladd+3,f
  2798  0434  084F               	movf	??___fladd+3,w
  2799  0435  3A80               	xorlw	128
  2800  0436  00FF               	movwf	btemp+1
  2801  0437  3080               	movlw	128
  2802  0438  027F               	subwf	btemp+1,w
  2803  0439  1D03               	skipz
  2804  043A  2C3D               	goto	u1685
  2805  043B  301A               	movlw	26
  2806  043C  024E               	subwf	??___fladd+2,w
  2807  043D                     u1685:	
  2808  043D  1C03               	skipc
  2809  043E  2C40               	goto	u1681
  2810  043F  2C41               	goto	u1680
  2811  0440                     u1681:	
  2812  0440  2C7E               	goto	l1778
  2813  0441                     u1680:	
  2814  0441                     l1764:	
  2815  0441  1283               	bcf	3,5	;RP0=0, select bank0
  2816  0442  1303               	bcf	3,6	;RP1=0, select bank0
  2817  0443  0847               	movf	___fladd@b+3,w
  2818  0444  0446               	iorwf	___fladd@b+2,w
  2819  0445  0445               	iorwf	___fladd@b+1,w
  2820  0446  0444               	iorwf	___fladd@b,w
  2821  0447  1D03               	skipz
  2822  0448  2C4A               	goto	u1691
  2823  0449  2C4C               	goto	u1690
  2824  044A                     u1691:	
  2825  044A  3001               	movlw	1
  2826  044B  2C4D               	goto	u1700
  2827  044C                     u1690:	
  2828  044C  3000               	movlw	0
  2829  044D                     u1700:	
  2830  044D  00CC               	movwf	??___fladd
  2831  044E  084C               	movf	??___fladd,w
  2832  044F  00D7               	movwf	___fladd@grs
  2833  0450  3000               	movlw	0
  2834  0451  00C7               	movwf	___fladd@b+3
  2835  0452  3000               	movlw	0
  2836  0453  00C6               	movwf	___fladd@b+2
  2837  0454  3000               	movlw	0
  2838  0455  00C5               	movwf	___fladd@b+1
  2839  0456  3000               	movlw	0
  2840  0457  00C4               	movwf	___fladd@b
  2841  0458  0855               	movf	___fladd@aexp,w
  2842  0459  00CC               	movwf	??___fladd
  2843  045A  084C               	movf	??___fladd,w
  2844  045B  00D6               	movwf	___fladd@bexp
  2845  045C  2C86               	goto	l563
  2846  045D                     l565:	
  2847  045D  1C57               	btfss	___fladd@grs,0
  2848  045E  2C60               	goto	u1711
  2849  045F  2C61               	goto	u1710
  2850  0460                     u1711:	
  2851  0460  2C6A               	goto	l1768
  2852  0461                     u1710:	
  2853  0461                     l1766:	
  2854  0461  0857               	movf	___fladd@grs,w
  2855  0462  00CC               	movwf	??___fladd
  2856  0463  1003               	clrc
  2857  0464  0C4C               	rrf	??___fladd,w
  2858  0465  3801               	iorlw	1
  2859  0466  00CD               	movwf	??___fladd+1
  2860  0467  084D               	movf	??___fladd+1,w
  2861  0468  00D7               	movwf	___fladd@grs
  2862  0469  2C6C               	goto	l1770
  2863  046A                     l1768:	
  2864  046A  1003               	clrc
  2865  046B  0CD7               	rrf	___fladd@grs,f
  2866  046C                     l1770:	
  2867  046C  1C44               	btfss	___fladd@b,0
  2868  046D  2C6F               	goto	u1721
  2869  046E  2C70               	goto	u1720
  2870  046F                     u1721:	
  2871  046F  2C71               	goto	l1774
  2872  0470                     u1720:	
  2873  0470                     l1772:	
  2874  0470  17D7               	bsf	___fladd@grs,7
  2875  0471                     l1774:	
  2876  0471  3001               	movlw	1
  2877  0472  00CC               	movwf	??___fladd
  2878  0473                     u1735:	
  2879  0473  0D47               	rlf	___fladd@b+3,w
  2880  0474  0CC7               	rrf	___fladd@b+3,f
  2881  0475  0CC6               	rrf	___fladd@b+2,f
  2882  0476  0CC5               	rrf	___fladd@b+1,f
  2883  0477  0CC4               	rrf	___fladd@b,f
  2884  0478  0BCC               	decfsz	??___fladd& (0+127),f
  2885  0479  2C73               	goto	u1735
  2886  047A                     l1776:	
  2887  047A  3001               	movlw	1
  2888  047B  00CC               	movwf	??___fladd
  2889  047C  084C               	movf	??___fladd,w
  2890  047D  07D6               	addwf	___fladd@bexp,f
  2891  047E                     l1778:	
  2892  047E  1283               	bcf	3,5	;RP0=0, select bank0
  2893  047F  1303               	bcf	3,6	;RP1=0, select bank0
  2894  0480  0855               	movf	___fladd@aexp,w
  2895  0481  0256               	subwf	___fladd@bexp,w
  2896  0482  1C03               	skipc
  2897  0483  2C85               	goto	u1741
  2898  0484  2C86               	goto	u1740
  2899  0485                     u1741:	
  2900  0485  2C5D               	goto	l565
  2901  0486                     u1740:	
  2902  0486                     l563:	
  2903  0486  1B54               	btfsc	___fladd@signs,6
  2904  0487  2C89               	goto	u1751
  2905  0488  2C8A               	goto	u1750
  2906  0489                     u1751:	
  2907  0489  2CD5               	goto	l1804
  2908  048A                     u1750:	
  2909  048A                     l1780:	
  2910  048A  0856               	movf	___fladd@bexp,w
  2911  048B  1D03               	btfss	3,2
  2912  048C  2C8E               	goto	u1761
  2913  048D  2C8F               	goto	u1760
  2914  048E                     u1761:	
  2915  048E  2C98               	goto	l1786
  2916  048F                     u1760:	
  2917  048F                     l1782:	
  2918  048F  3000               	movlw	0
  2919  0490  00C7               	movwf	?___fladd+3
  2920  0491  3000               	movlw	0
  2921  0492  00C6               	movwf	?___fladd+2
  2922  0493  3000               	movlw	0
  2923  0494  00C5               	movwf	?___fladd+1
  2924  0495  3000               	movlw	0
  2925  0496  00C4               	movwf	?___fladd
  2926  0497  2E03               	goto	l572
  2927  0498                     l1786:	
  2928  0498  0848               	movf	___fladd@a,w
  2929  0499  07C4               	addwf	___fladd@b,f
  2930  049A  0849               	movf	___fladd@a+1,w
  2931  049B  1103               	clrz
  2932  049C  1803               	skipnc
  2933  049D  3E01               	addlw	1
  2934  049E  1903               	skipnz
  2935  049F  2CA1               	goto	u1771
  2936  04A0  07C5               	addwf	___fladd@b+1,f
  2937  04A1                     u1771:	
  2938  04A1  084A               	movf	___fladd@a+2,w
  2939  04A2  1103               	clrz
  2940  04A3  1803               	skipnc
  2941  04A4  3E01               	addlw	1
  2942  04A5  1903               	skipnz
  2943  04A6  2CA8               	goto	u1772
  2944  04A7  07C6               	addwf	___fladd@b+2,f
  2945  04A8                     u1772:	
  2946  04A8  084B               	movf	___fladd@a+3,w
  2947  04A9  1103               	clrz
  2948  04AA  1803               	skipnc
  2949  04AB  3E01               	addlw	1
  2950  04AC  1903               	skipnz
  2951  04AD  2CAF               	goto	u1773
  2952  04AE  07C7               	addwf	___fladd@b+3,f
  2953  04AF                     u1773:	
  2954  04AF                     l1788:	
  2955  04AF  1C47               	btfss	___fladd@b+3,0
  2956  04B0  2CB2               	goto	u1781
  2957  04B1  2CB3               	goto	u1780
  2958  04B2                     u1781:	
  2959  04B2  2D89               	goto	l1838
  2960  04B3                     u1780:	
  2961  04B3                     l1790:	
  2962  04B3  1C57               	btfss	___fladd@grs,0
  2963  04B4  2CB6               	goto	u1791
  2964  04B5  2CB7               	goto	u1790
  2965  04B6                     u1791:	
  2966  04B6  2CC0               	goto	l1794
  2967  04B7                     u1790:	
  2968  04B7                     l1792:	
  2969  04B7  0857               	movf	___fladd@grs,w
  2970  04B8  00CC               	movwf	??___fladd
  2971  04B9  1003               	clrc
  2972  04BA  0C4C               	rrf	??___fladd,w
  2973  04BB  3801               	iorlw	1
  2974  04BC  00CD               	movwf	??___fladd+1
  2975  04BD  084D               	movf	??___fladd+1,w
  2976  04BE  00D7               	movwf	___fladd@grs
  2977  04BF  2CC2               	goto	l1796
  2978  04C0                     l1794:	
  2979  04C0  1003               	clrc
  2980  04C1  0CD7               	rrf	___fladd@grs,f
  2981  04C2                     l1796:	
  2982  04C2  1C44               	btfss	___fladd@b,0
  2983  04C3  2CC5               	goto	u1801
  2984  04C4  2CC6               	goto	u1800
  2985  04C5                     u1801:	
  2986  04C5  2CC7               	goto	l1800
  2987  04C6                     u1800:	
  2988  04C6                     l1798:	
  2989  04C6  17D7               	bsf	___fladd@grs,7
  2990  04C7                     l1800:	
  2991  04C7  3001               	movlw	1
  2992  04C8  00CC               	movwf	??___fladd
  2993  04C9                     u1815:	
  2994  04C9  0D47               	rlf	___fladd@b+3,w
  2995  04CA  0CC7               	rrf	___fladd@b+3,f
  2996  04CB  0CC6               	rrf	___fladd@b+2,f
  2997  04CC  0CC5               	rrf	___fladd@b+1,f
  2998  04CD  0CC4               	rrf	___fladd@b,f
  2999  04CE  0BCC               	decfsz	??___fladd& (0+127),f
  3000  04CF  2CC9               	goto	u1815
  3001  04D0                     l1802:	
  3002  04D0  3001               	movlw	1
  3003  04D1  00CC               	movwf	??___fladd
  3004  04D2  084C               	movf	??___fladd,w
  3005  04D3  07D6               	addwf	___fladd@bexp,f
  3006  04D4  2D89               	goto	l1838
  3007  04D5                     l1804:	
  3008  04D5  0847               	movf	___fladd@b+3,w
  3009  04D6  3A80               	xorlw	128
  3010  04D7  00FF               	movwf	btemp+1
  3011  04D8  084B               	movf	___fladd@a+3,w
  3012  04D9  3A80               	xorlw	128
  3013  04DA  027F               	subwf	btemp+1,w
  3014  04DB  1D03               	skipz
  3015  04DC  2CE7               	goto	u1823
  3016  04DD  084A               	movf	___fladd@a+2,w
  3017  04DE  0246               	subwf	___fladd@b+2,w
  3018  04DF  1D03               	skipz
  3019  04E0  2CE7               	goto	u1823
  3020  04E1  0849               	movf	___fladd@a+1,w
  3021  04E2  0245               	subwf	___fladd@b+1,w
  3022  04E3  1D03               	skipz
  3023  04E4  2CE7               	goto	u1823
  3024  04E5  0848               	movf	___fladd@a,w
  3025  04E6  0244               	subwf	___fladd@b,w
  3026  04E7                     u1823:	
  3027  04E7  1803               	skipnc
  3028  04E8  2CEA               	goto	u1821
  3029  04E9  2CEB               	goto	u1820
  3030  04EA                     u1821:	
  3031  04EA  2D43               	goto	l1814
  3032  04EB                     u1820:	
  3033  04EB                     l1806:	
  3034  04EB  30FF               	movlw	255
  3035  04EC  00CC               	movwf	??___fladd
  3036  04ED  30FF               	movlw	255
  3037  04EE  00CD               	movwf	??___fladd+1
  3038  04EF  30FF               	movlw	255
  3039  04F0  00CE               	movwf	??___fladd+2
  3040  04F1  30FF               	movlw	255
  3041  04F2  00CF               	movwf	??___fladd+3
  3042  04F3  0848               	movf	___fladd@a,w
  3043  04F4  00D0               	movwf	??___fladd+4
  3044  04F5  0849               	movf	___fladd@a+1,w
  3045  04F6  00D1               	movwf	??___fladd+5
  3046  04F7  084A               	movf	___fladd@a+2,w
  3047  04F8  00D2               	movwf	??___fladd+6
  3048  04F9  084B               	movf	___fladd@a+3,w
  3049  04FA  00D3               	movwf	??___fladd+7
  3050  04FB  0844               	movf	___fladd@b,w
  3051  04FC  02D0               	subwf	??___fladd+4,f
  3052  04FD  0845               	movf	___fladd@b+1,w
  3053  04FE  1C03               	skipc
  3054  04FF  0F45               	incfsz	___fladd@b+1,w
  3055  0500  2D02               	goto	u1831
  3056  0501  2D03               	goto	u1832
  3057  0502                     u1831:	
  3058  0502  02D1               	subwf	??___fladd+5,f
  3059  0503                     u1832:	
  3060  0503  0846               	movf	___fladd@b+2,w
  3061  0504  1C03               	skipc
  3062  0505  0F46               	incfsz	___fladd@b+2,w
  3063  0506  2D08               	goto	u1833
  3064  0507  2D09               	goto	u1834
  3065  0508                     u1833:	
  3066  0508  02D2               	subwf	??___fladd+6,f
  3067  0509                     u1834:	
  3068  0509  0847               	movf	___fladd@b+3,w
  3069  050A  1C03               	skipc
  3070  050B  0F47               	incfsz	___fladd@b+3,w
  3071  050C  2D0E               	goto	u1835
  3072  050D  2D0F               	goto	u1836
  3073  050E                     u1835:	
  3074  050E  02D3               	subwf	??___fladd+7,f
  3075  050F                     u1836:	
  3076  050F  0850               	movf	??___fladd+4,w
  3077  0510  07CC               	addwf	??___fladd,f
  3078  0511  0851               	movf	??___fladd+5,w
  3079  0512  1803               	skipnc
  3080  0513  0F51               	incfsz	??___fladd+5,w
  3081  0514  2D16               	goto	u1840
  3082  0515  2D17               	goto	u1841
  3083  0516                     u1840:	
  3084  0516  07CD               	addwf	??___fladd+1,f
  3085  0517                     u1841:	
  3086  0517  0852               	movf	??___fladd+6,w
  3087  0518  1803               	skipnc
  3088  0519  0F52               	incfsz	??___fladd+6,w
  3089  051A  2D1C               	goto	u1842
  3090  051B  2D1D               	goto	u1843
  3091  051C                     u1842:	
  3092  051C  07CE               	addwf	??___fladd+2,f
  3093  051D                     u1843:	
  3094  051D  0853               	movf	??___fladd+7,w
  3095  051E  1803               	skipnc
  3096  051F  0A53               	incf	??___fladd+7,w
  3097  0520  07CF               	addwf	??___fladd+3,f
  3098  0521  084F               	movf	??___fladd+3,w
  3099  0522  00C7               	movwf	___fladd@b+3
  3100  0523  084E               	movf	??___fladd+2,w
  3101  0524  00C6               	movwf	___fladd@b+2
  3102  0525  084D               	movf	??___fladd+1,w
  3103  0526  00C5               	movwf	___fladd@b+1
  3104  0527  084C               	movf	??___fladd,w
  3105  0528  00C4               	movwf	___fladd@b
  3106  0529                     l1808:	
  3107  0529  3080               	movlw	128
  3108  052A  00CC               	movwf	??___fladd
  3109  052B  084C               	movf	??___fladd,w
  3110  052C  06D4               	xorwf	___fladd@signs,f
  3111  052D  09D7               	comf	___fladd@grs,f
  3112  052E  0AD7               	incf	___fladd@grs,f
  3113  052F                     l1810:	
  3114  052F  0857               	movf	___fladd@grs,w
  3115  0530  1D03               	btfss	3,2
  3116  0531  2D33               	goto	u1851
  3117  0532  2D34               	goto	u1850
  3118  0533                     u1851:	
  3119  0533  2D51               	goto	l580
  3120  0534                     u1850:	
  3121  0534                     l1812:	
  3122  0534  3001               	movlw	1
  3123  0535  07C4               	addwf	___fladd@b,f
  3124  0536  3000               	movlw	0
  3125  0537  1803               	skipnc
  3126  0538  3001               	movlw	1
  3127  0539  07C5               	addwf	___fladd@b+1,f
  3128  053A  3000               	movlw	0
  3129  053B  1803               	skipnc
  3130  053C  3001               	movlw	1
  3131  053D  07C6               	addwf	___fladd@b+2,f
  3132  053E  3000               	movlw	0
  3133  053F  1803               	skipnc
  3134  0540  3001               	movlw	1
  3135  0541  07C7               	addwf	___fladd@b+3,f
  3136  0542  2D51               	goto	l580
  3137  0543                     l1814:	
  3138  0543  0848               	movf	___fladd@a,w
  3139  0544  02C4               	subwf	___fladd@b,f
  3140  0545  0849               	movf	___fladd@a+1,w
  3141  0546  1C03               	skipc
  3142  0547  0F49               	incfsz	___fladd@a+1,w
  3143  0548  02C5               	subwf	___fladd@b+1,f
  3144  0549  084A               	movf	___fladd@a+2,w
  3145  054A  1C03               	skipc
  3146  054B  0F4A               	incfsz	___fladd@a+2,w
  3147  054C  02C6               	subwf	___fladd@b+2,f
  3148  054D  084B               	movf	___fladd@a+3,w
  3149  054E  1C03               	skipc
  3150  054F  0F4B               	incfsz	___fladd@a+3,w
  3151  0550  02C7               	subwf	___fladd@b+3,f
  3152  0551                     l580:	
  3153  0551  0847               	movf	___fladd@b+3,w
  3154  0552  0446               	iorwf	___fladd@b+2,w
  3155  0553  0445               	iorwf	___fladd@b+1,w
  3156  0554  0444               	iorwf	___fladd@b,w
  3157  0555  1D03               	skipz
  3158  0556  2D58               	goto	u1861
  3159  0557  2D59               	goto	u1860
  3160  0558                     u1861:	
  3161  0558  2D85               	goto	l1836
  3162  0559                     u1860:	
  3163  0559                     l1816:	
  3164  0559  0857               	movf	___fladd@grs,w
  3165  055A  1D03               	btfss	3,2
  3166  055B  2D5D               	goto	u1871
  3167  055C  2D5E               	goto	u1870
  3168  055D                     u1871:	
  3169  055D  2D85               	goto	l1836
  3170  055E                     u1870:	
  3171  055E                     l1818:	
  3172  055E  3000               	movlw	0
  3173  055F  00C7               	movwf	?___fladd+3
  3174  0560  3000               	movlw	0
  3175  0561  00C6               	movwf	?___fladd+2
  3176  0562  3000               	movlw	0
  3177  0563  00C5               	movwf	?___fladd+1
  3178  0564  3000               	movlw	0
  3179  0565  00C4               	movwf	?___fladd
  3180  0566  2E03               	goto	l572
  3181  0567                     l1822:	
  3182  0567  3001               	movlw	1
  3183  0568  00CC               	movwf	??___fladd
  3184  0569                     u1885:	
  3185  0569  1003               	clrc
  3186  056A  0DC4               	rlf	___fladd@b,f
  3187  056B  0DC5               	rlf	___fladd@b+1,f
  3188  056C  0DC6               	rlf	___fladd@b+2,f
  3189  056D  0DC7               	rlf	___fladd@b+3,f
  3190  056E  0BCC               	decfsz	??___fladd,f
  3191  056F  2D69               	goto	u1885
  3192  0570                     l1824:	
  3193  0570  1FD7               	btfss	___fladd@grs,7
  3194  0571  2D73               	goto	u1891
  3195  0572  2D74               	goto	u1890
  3196  0573                     u1891:	
  3197  0573  2D75               	goto	l584
  3198  0574                     u1890:	
  3199  0574                     l1826:	
  3200  0574  1444               	bsf	___fladd@b,0
  3201  0575                     l584:	
  3202  0575  1C57               	btfss	___fladd@grs,0
  3203  0576  2D78               	goto	u1901
  3204  0577  2D79               	goto	u1900
  3205  0578                     u1901:	
  3206  0578  2D7C               	goto	l1830
  3207  0579                     u1900:	
  3208  0579                     l1828:	
  3209  0579  1403               	setc
  3210  057A  0DD7               	rlf	___fladd@grs,f
  3211  057B  2D7E               	goto	l1832
  3212  057C                     l1830:	
  3213  057C  1003               	clrc
  3214  057D  0DD7               	rlf	___fladd@grs,f
  3215  057E                     l1832:	
  3216  057E  0856               	movf	___fladd@bexp,w
  3217  057F  1903               	btfsc	3,2
  3218  0580  2D82               	goto	u1911
  3219  0581  2D83               	goto	u1910
  3220  0582                     u1911:	
  3221  0582  2D85               	goto	l1836
  3222  0583                     u1910:	
  3223  0583                     l1834:	
  3224  0583  3001               	movlw	1
  3225  0584  02D6               	subwf	___fladd@bexp,f
  3226  0585                     l1836:	
  3227  0585  1FC6               	btfss	___fladd@b+2,7
  3228  0586  2D88               	goto	u1921
  3229  0587  2D89               	goto	u1920
  3230  0588                     u1921:	
  3231  0588  2D67               	goto	l1822
  3232  0589                     u1920:	
  3233  0589                     l1838:	
  3234  0589  01D5               	clrf	___fladd@aexp
  3235  058A                     l1840:	
  3236  058A  1FD7               	btfss	___fladd@grs,7
  3237  058B  2D8D               	goto	u1931
  3238  058C  2D8E               	goto	u1930
  3239  058D                     u1931:	
  3240  058D  2D9C               	goto	l1848
  3241  058E                     u1930:	
  3242  058E                     l1842:	
  3243  058E  0857               	movf	___fladd@grs,w
  3244  058F  397F               	andlw	127
  3245  0590  1903               	btfsc	3,2
  3246  0591  2D93               	goto	u1941
  3247  0592  2D94               	goto	u1940
  3248  0593                     u1941:	
  3249  0593  2D97               	goto	l590
  3250  0594                     u1940:	
  3251  0594                     l1844:	
  3252  0594  01D5               	clrf	___fladd@aexp
  3253  0595  0AD5               	incf	___fladd@aexp,f
  3254  0596  2D9C               	goto	l1848
  3255  0597                     l590:	
  3256  0597  1C44               	btfss	___fladd@b,0
  3257  0598  2D9A               	goto	u1951
  3258  0599  2D9B               	goto	u1950
  3259  059A                     u1951:	
  3260  059A  2D9C               	goto	l1848
  3261  059B                     u1950:	
  3262  059B  2D94               	goto	l1844
  3263  059C                     l1848:	
  3264  059C  0855               	movf	___fladd@aexp,w
  3265  059D  1903               	btfsc	3,2
  3266  059E  2DA0               	goto	u1961
  3267  059F  2DA1               	goto	u1960
  3268  05A0                     u1961:	
  3269  05A0  2DD5               	goto	l593
  3270  05A1                     u1960:	
  3271  05A1                     l1850:	
  3272  05A1  3001               	movlw	1
  3273  05A2  07C4               	addwf	___fladd@b,f
  3274  05A3  3000               	movlw	0
  3275  05A4  1803               	skipnc
  3276  05A5  3001               	movlw	1
  3277  05A6  07C5               	addwf	___fladd@b+1,f
  3278  05A7  3000               	movlw	0
  3279  05A8  1803               	skipnc
  3280  05A9  3001               	movlw	1
  3281  05AA  07C6               	addwf	___fladd@b+2,f
  3282  05AB  3000               	movlw	0
  3283  05AC  1803               	skipnc
  3284  05AD  3001               	movlw	1
  3285  05AE  07C7               	addwf	___fladd@b+3,f
  3286  05AF                     l1852:	
  3287  05AF  1C47               	btfss	___fladd@b+3,0
  3288  05B0  2DB2               	goto	u1971
  3289  05B1  2DB3               	goto	u1970
  3290  05B2                     u1971:	
  3291  05B2  2DD5               	goto	l593
  3292  05B3                     u1970:	
  3293  05B3                     l1854:	
  3294  05B3  0844               	movf	___fladd@b,w
  3295  05B4  00CC               	movwf	??___fladd
  3296  05B5  0845               	movf	___fladd@b+1,w
  3297  05B6  00CD               	movwf	??___fladd+1
  3298  05B7  0846               	movf	___fladd@b+2,w
  3299  05B8  00CE               	movwf	??___fladd+2
  3300  05B9  0847               	movf	___fladd@b+3,w
  3301  05BA  00CF               	movwf	??___fladd+3
  3302  05BB  3001               	movlw	1
  3303  05BC  00D0               	movwf	??___fladd+4
  3304  05BD                     u1985:	
  3305  05BD  0D4F               	rlf	??___fladd+3,w
  3306  05BE  0CCF               	rrf	??___fladd+3,f
  3307  05BF  0CCE               	rrf	??___fladd+2,f
  3308  05C0  0CCD               	rrf	??___fladd+1,f
  3309  05C1  0CCC               	rrf	??___fladd,f
  3310  05C2                     u1980:	
  3311  05C2  0BD0               	decfsz	??___fladd+4,f
  3312  05C3  2DBD               	goto	u1985
  3313  05C4  084F               	movf	??___fladd+3,w
  3314  05C5  00C7               	movwf	___fladd@b+3
  3315  05C6  084E               	movf	??___fladd+2,w
  3316  05C7  00C6               	movwf	___fladd@b+2
  3317  05C8  084D               	movf	??___fladd+1,w
  3318  05C9  00C5               	movwf	___fladd@b+1
  3319  05CA  084C               	movf	??___fladd,w
  3320  05CB  00C4               	movwf	___fladd@b
  3321  05CC  0A56               	incf	___fladd@bexp,w
  3322  05CD  1903               	btfsc	3,2
  3323  05CE  2DD0               	goto	u1991
  3324  05CF  2DD1               	goto	u1990
  3325  05D0                     u1991:	
  3326  05D0  2DD5               	goto	l593
  3327  05D1                     u1990:	
  3328  05D1                     l1856:	
  3329  05D1  3001               	movlw	1
  3330  05D2  00CC               	movwf	??___fladd
  3331  05D3  084C               	movf	??___fladd,w
  3332  05D4  07D6               	addwf	___fladd@bexp,f
  3333  05D5                     l593:	
  3334  05D5  0A56               	incf	___fladd@bexp,w
  3335  05D6  1903               	btfsc	3,2
  3336  05D7  2DD9               	goto	u2001
  3337  05D8  2DDA               	goto	u2000
  3338  05D9                     u2001:	
  3339  05D9  2DDF               	goto	l1860
  3340  05DA                     u2000:	
  3341  05DA                     l1858:	
  3342  05DA  0856               	movf	___fladd@bexp,w
  3343  05DB  1D03               	btfss	3,2
  3344  05DC  2DDE               	goto	u2011
  3345  05DD  2DDF               	goto	u2010
  3346  05DE                     u2011:	
  3347  05DE  2DED               	goto	l1866
  3348  05DF                     u2010:	
  3349  05DF                     l1860:	
  3350  05DF  3000               	movlw	0
  3351  05E0  00C7               	movwf	___fladd@b+3
  3352  05E1  3000               	movlw	0
  3353  05E2  00C6               	movwf	___fladd@b+2
  3354  05E3  3000               	movlw	0
  3355  05E4  00C5               	movwf	___fladd@b+1
  3356  05E5  3000               	movlw	0
  3357  05E6  00C4               	movwf	___fladd@b
  3358  05E7                     l1862:	
  3359  05E7  0856               	movf	___fladd@bexp,w
  3360  05E8  1D03               	btfss	3,2
  3361  05E9  2DEB               	goto	u2021
  3362  05EA  2DEC               	goto	u2020
  3363  05EB                     u2021:	
  3364  05EB  2DED               	goto	l1866
  3365  05EC                     u2020:	
  3366  05EC                     l1864:	
  3367  05EC  01D4               	clrf	___fladd@signs
  3368  05ED                     l1866:	
  3369  05ED  1C56               	btfss	___fladd@bexp,0
  3370  05EE  2DF0               	goto	u2031
  3371  05EF  2DF1               	goto	u2030
  3372  05F0                     u2031:	
  3373  05F0  2DF3               	goto	l1870
  3374  05F1                     u2030:	
  3375  05F1                     l1868:	
  3376  05F1  17C6               	bsf	___fladd@b+2,7
  3377  05F2  2DF7               	goto	l601
  3378  05F3                     l1870:	
  3379  05F3  307F               	movlw	127
  3380  05F4  00CC               	movwf	??___fladd
  3381  05F5  084C               	movf	??___fladd,w
  3382  05F6  05C6               	andwf	___fladd@b+2,f
  3383  05F7                     l601:	
  3384  05F7  0856               	movf	___fladd@bexp,w
  3385  05F8  00CC               	movwf	??___fladd
  3386  05F9  1003               	clrc
  3387  05FA  0C4C               	rrf	??___fladd,w
  3388  05FB  00CD               	movwf	??___fladd+1
  3389  05FC  084D               	movf	??___fladd+1,w
  3390  05FD  00C7               	movwf	___fladd@b+3
  3391  05FE                     l1872:	
  3392  05FE  1FD4               	btfss	___fladd@signs,7
  3393  05FF  2E01               	goto	u2041
  3394  0600  2E02               	goto	u2040
  3395  0601                     u2041:	
  3396  0601  2E03               	goto	l602
  3397  0602                     u2040:	
  3398  0602                     l1874:	
  3399  0602  17C7               	bsf	___fladd@b+3,7
  3400  0603                     l602:	
  3401  0603                     l572:	
  3402  0603  0008               	return
  3403  0604                     __end_of___fladd:	
  3404                           
  3405                           	psect	text6
  3406  0DF2                     __ptext6:	
  3407 ;; *************** function ___awdiv *****************
  3408 ;; Defined at:
  3409 ;;		line 5 in file "C:\Program Files (x86)\Microchip\xc8\v2.10\pic\sources\c90\common\awdiv.c"
  3410 ;; Parameters:    Size  Location     Type
  3411 ;;  divisor         2    3[COMMON] int 
  3412 ;;  dividend        2    5[COMMON] int 
  3413 ;; Auto vars:     Size  Location     Type
  3414 ;;  quotient        2    2[BANK0 ] int 
  3415 ;;  sign            1    1[BANK0 ] unsigned char 
  3416 ;;  counter         1    0[BANK0 ] unsigned char 
  3417 ;; Return value:  Size  Location     Type
  3418 ;;                  2    3[COMMON] int 
  3419 ;; Registers used:
  3420 ;;		wreg, status,2, status,0
  3421 ;; Tracked objects:
  3422 ;;		On entry : 0/0
  3423 ;;		On exit  : 0/0
  3424 ;;		Unchanged: 0/0
  3425 ;; Data sizes:     COMMON   BANK0   BANK1   BANK3   BANK2
  3426 ;;      Params:         4       0       0       0       0
  3427 ;;      Locals:         0       4       0       0       0
  3428 ;;      Temps:          1       0       0       0       0
  3429 ;;      Totals:         5       4       0       0       0
  3430 ;;Total ram usage:        9 bytes
  3431 ;; Hardware stack levels used:    1
  3432 ;; Hardware stack levels required when called:    1
  3433 ;; This function calls:
  3434 ;;		Nothing
  3435 ;; This function is called by:
  3436 ;;		_main
  3437 ;; This function uses a non-reentrant model
  3438 ;;
  3439                           
  3440                           
  3441                           ;psect for function ___awdiv
  3442  0DF2                     ___awdiv:	
  3443  0DF2                     l1602:	
  3444                           ;incstack = 0
  3445                           ; Regs used in ___awdiv: [wreg+status,2+status,0]
  3446                           
  3447  0DF2  1283               	bcf	3,5	;RP0=0, select bank0
  3448  0DF3  1303               	bcf	3,6	;RP1=0, select bank0
  3449  0DF4  01A1               	clrf	___awdiv@sign
  3450  0DF5                     l1604:	
  3451  0DF5  1FF4               	btfss	___awdiv@divisor+1,7
  3452  0DF6  2DF8               	goto	u1391
  3453  0DF7  2DF9               	goto	u1390
  3454  0DF8                     u1391:	
  3455  0DF8  2E00               	goto	l1610
  3456  0DF9                     u1390:	
  3457  0DF9                     l1606:	
  3458  0DF9  09F3               	comf	___awdiv@divisor,f
  3459  0DFA  09F4               	comf	___awdiv@divisor+1,f
  3460  0DFB  0AF3               	incf	___awdiv@divisor,f
  3461  0DFC  1903               	skipnz
  3462  0DFD  0AF4               	incf	___awdiv@divisor+1,f
  3463  0DFE                     l1608:	
  3464  0DFE  01A1               	clrf	___awdiv@sign
  3465  0DFF  0AA1               	incf	___awdiv@sign,f
  3466  0E00                     l1610:	
  3467  0E00  1FF6               	btfss	___awdiv@dividend+1,7
  3468  0E01  2E03               	goto	u1401
  3469  0E02  2E04               	goto	u1400
  3470  0E03                     u1401:	
  3471  0E03  2E0D               	goto	l1616
  3472  0E04                     u1400:	
  3473  0E04                     l1612:	
  3474  0E04  09F5               	comf	___awdiv@dividend,f
  3475  0E05  09F6               	comf	___awdiv@dividend+1,f
  3476  0E06  0AF5               	incf	___awdiv@dividend,f
  3477  0E07  1903               	skipnz
  3478  0E08  0AF6               	incf	___awdiv@dividend+1,f
  3479  0E09                     l1614:	
  3480  0E09  3001               	movlw	1
  3481  0E0A  00F7               	movwf	??___awdiv
  3482  0E0B  0877               	movf	??___awdiv,w
  3483  0E0C  06A1               	xorwf	___awdiv@sign,f
  3484  0E0D                     l1616:	
  3485  0E0D  01A2               	clrf	___awdiv@quotient
  3486  0E0E  01A3               	clrf	___awdiv@quotient+1
  3487  0E0F                     l1618:	
  3488  0E0F  0873               	movf	___awdiv@divisor,w
  3489  0E10  0474               	iorwf	___awdiv@divisor+1,w
  3490  0E11  1903               	btfsc	3,2
  3491  0E12  2E14               	goto	u1411
  3492  0E13  2E15               	goto	u1410
  3493  0E14                     u1411:	
  3494  0E14  2E4C               	goto	l1638
  3495  0E15                     u1410:	
  3496  0E15                     l1620:	
  3497  0E15  01A0               	clrf	___awdiv@counter
  3498  0E16  0AA0               	incf	___awdiv@counter,f
  3499  0E17  2E23               	goto	l1626
  3500  0E18                     l1622:	
  3501  0E18  3001               	movlw	1
  3502  0E19                     u1425:	
  3503  0E19  1003               	clrc
  3504  0E1A  0DF3               	rlf	___awdiv@divisor,f
  3505  0E1B  0DF4               	rlf	___awdiv@divisor+1,f
  3506  0E1C  3EFF               	addlw	-1
  3507  0E1D  1D03               	skipz
  3508  0E1E  2E19               	goto	u1425
  3509  0E1F                     l1624:	
  3510  0E1F  3001               	movlw	1
  3511  0E20  00F7               	movwf	??___awdiv
  3512  0E21  0877               	movf	??___awdiv,w
  3513  0E22  07A0               	addwf	___awdiv@counter,f
  3514  0E23                     l1626:	
  3515  0E23  1FF4               	btfss	___awdiv@divisor+1,7
  3516  0E24  2E26               	goto	u1431
  3517  0E25  2E27               	goto	u1430
  3518  0E26                     u1431:	
  3519  0E26  2E18               	goto	l1622
  3520  0E27                     u1430:	
  3521  0E27                     l1628:	
  3522  0E27  3001               	movlw	1
  3523  0E28                     u1445:	
  3524  0E28  1003               	clrc
  3525  0E29  0DA2               	rlf	___awdiv@quotient,f
  3526  0E2A  0DA3               	rlf	___awdiv@quotient+1,f
  3527  0E2B  3EFF               	addlw	-1
  3528  0E2C  1D03               	skipz
  3529  0E2D  2E28               	goto	u1445
  3530  0E2E  0874               	movf	___awdiv@divisor+1,w
  3531  0E2F  0276               	subwf	___awdiv@dividend+1,w
  3532  0E30  1D03               	skipz
  3533  0E31  2E34               	goto	u1455
  3534  0E32  0873               	movf	___awdiv@divisor,w
  3535  0E33  0275               	subwf	___awdiv@dividend,w
  3536  0E34                     u1455:	
  3537  0E34  1C03               	skipc
  3538  0E35  2E37               	goto	u1451
  3539  0E36  2E38               	goto	u1450
  3540  0E37                     u1451:	
  3541  0E37  2E3F               	goto	l1634
  3542  0E38                     u1450:	
  3543  0E38                     l1630:	
  3544  0E38  0873               	movf	___awdiv@divisor,w
  3545  0E39  02F5               	subwf	___awdiv@dividend,f
  3546  0E3A  0874               	movf	___awdiv@divisor+1,w
  3547  0E3B  1C03               	skipc
  3548  0E3C  03F6               	decf	___awdiv@dividend+1,f
  3549  0E3D  02F6               	subwf	___awdiv@dividend+1,f
  3550  0E3E                     l1632:	
  3551  0E3E  1422               	bsf	___awdiv@quotient,0
  3552  0E3F                     l1634:	
  3553  0E3F  3001               	movlw	1
  3554  0E40                     u1465:	
  3555  0E40  1003               	clrc
  3556  0E41  0CF4               	rrf	___awdiv@divisor+1,f
  3557  0E42  0CF3               	rrf	___awdiv@divisor,f
  3558  0E43  3EFF               	addlw	-1
  3559  0E44  1D03               	skipz
  3560  0E45  2E40               	goto	u1465
  3561  0E46                     l1636:	
  3562  0E46  3001               	movlw	1
  3563  0E47  02A0               	subwf	___awdiv@counter,f
  3564  0E48  1D03               	btfss	3,2
  3565  0E49  2E4B               	goto	u1471
  3566  0E4A  2E4C               	goto	u1470
  3567  0E4B                     u1471:	
  3568  0E4B  2E27               	goto	l1628
  3569  0E4C                     u1470:	
  3570  0E4C                     l1638:	
  3571  0E4C  0821               	movf	___awdiv@sign,w
  3572  0E4D  1903               	btfsc	3,2
  3573  0E4E  2E50               	goto	u1481
  3574  0E4F  2E51               	goto	u1480
  3575  0E50                     u1481:	
  3576  0E50  2E56               	goto	l1642
  3577  0E51                     u1480:	
  3578  0E51                     l1640:	
  3579  0E51  09A2               	comf	___awdiv@quotient,f
  3580  0E52  09A3               	comf	___awdiv@quotient+1,f
  3581  0E53  0AA2               	incf	___awdiv@quotient,f
  3582  0E54  1903               	skipnz
  3583  0E55  0AA3               	incf	___awdiv@quotient+1,f
  3584  0E56                     l1642:	
  3585  0E56  0823               	movf	___awdiv@quotient+1,w
  3586  0E57  00F4               	movwf	?___awdiv+1
  3587  0E58  0822               	movf	___awdiv@quotient,w
  3588  0E59  00F3               	movwf	?___awdiv
  3589  0E5A                     l419:	
  3590  0E5A  0008               	return
  3591  0E5B                     __end_of___awdiv:	
  3592                           
  3593                           	psect	text7
  3594  0DD8                     __ptext7:	
  3595 ;; *************** function _I2C_Slave_Init *****************
  3596 ;; Defined at:
  3597 ;;		line 90 in file "I2C.c"
  3598 ;; Parameters:    Size  Location     Type
  3599 ;;  address         1    wreg     unsigned char 
  3600 ;; Auto vars:     Size  Location     Type
  3601 ;;  address         1    3[COMMON] unsigned char 
  3602 ;; Return value:  Size  Location     Type
  3603 ;;                  1    wreg      void 
  3604 ;; Registers used:
  3605 ;;		wreg
  3606 ;; Tracked objects:
  3607 ;;		On entry : 0/0
  3608 ;;		On exit  : 0/0
  3609 ;;		Unchanged: 0/0
  3610 ;; Data sizes:     COMMON   BANK0   BANK1   BANK3   BANK2
  3611 ;;      Params:         0       0       0       0       0
  3612 ;;      Locals:         1       0       0       0       0
  3613 ;;      Temps:          0       0       0       0       0
  3614 ;;      Totals:         1       0       0       0       0
  3615 ;;Total ram usage:        1 bytes
  3616 ;; Hardware stack levels used:    1
  3617 ;; Hardware stack levels required when called:    1
  3618 ;; This function calls:
  3619 ;;		Nothing
  3620 ;; This function is called by:
  3621 ;;		_main
  3622 ;; This function uses a non-reentrant model
  3623 ;;
  3624                           
  3625                           
  3626                           ;psect for function _I2C_Slave_Init
  3627  0DD8                     _I2C_Slave_Init:	
  3628                           
  3629                           ;incstack = 0
  3630                           ; Regs used in _I2C_Slave_Init: [wreg]
  3631                           ;I2C_Slave_Init@address stored from wreg
  3632  0DD8  00F3               	movwf	I2C_Slave_Init@address
  3633  0DD9                     l1506:	
  3634                           
  3635                           ;I2C.c: 90: void I2C_Slave_Init(uint8_t address);I2C.c: 91: {;I2C.c: 92:     SSPADD = ad
      +                          dress;
  3636  0DD9  0873               	movf	I2C_Slave_Init@address,w
  3637  0DDA  1683               	bsf	3,5	;RP0=1, select bank1
  3638  0DDB  1303               	bcf	3,6	;RP1=0, select bank1
  3639  0DDC  0093               	movwf	19	;volatile
  3640                           
  3641                           ;I2C.c: 93:     SSPCON = 0x36;
  3642  0DDD  3036               	movlw	54
  3643  0DDE  1283               	bcf	3,5	;RP0=0, select bank0
  3644  0DDF  1303               	bcf	3,6	;RP1=0, select bank0
  3645  0DE0  0094               	movwf	20	;volatile
  3646                           
  3647                           ;I2C.c: 94:     SSPSTAT = 0x80;
  3648  0DE1  3080               	movlw	128
  3649  0DE2  1683               	bsf	3,5	;RP0=1, select bank1
  3650  0DE3  1303               	bcf	3,6	;RP1=0, select bank1
  3651  0DE4  0094               	movwf	20	;volatile
  3652                           
  3653                           ;I2C.c: 95:     SSPCON2 = 0x01;
  3654  0DE5  3001               	movlw	1
  3655  0DE6  0091               	movwf	17	;volatile
  3656  0DE7                     l1508:	
  3657                           
  3658                           ;I2C.c: 96:     TRISC3 = 1;
  3659  0DE7  1587               	bsf	7,3	;volatile
  3660  0DE8                     l1510:	
  3661                           
  3662                           ;I2C.c: 97:     TRISC4 = 1;
  3663  0DE8  1607               	bsf	7,4	;volatile
  3664  0DE9                     l1512:	
  3665                           
  3666                           ;I2C.c: 98:     GIE = 1;
  3667  0DE9  178B               	bsf	11,7	;volatile
  3668  0DEA                     l1514:	
  3669                           
  3670                           ;I2C.c: 99:     PEIE = 1;
  3671  0DEA  170B               	bsf	11,6	;volatile
  3672  0DEB                     l1516:	
  3673                           
  3674                           ;I2C.c: 100:     SSPIF = 0;
  3675  0DEB  1283               	bcf	3,5	;RP0=0, select bank0
  3676  0DEC  1303               	bcf	3,6	;RP1=0, select bank0
  3677  0DED  118C               	bcf	12,3	;volatile
  3678  0DEE                     l1518:	
  3679                           
  3680                           ;I2C.c: 101:     SSPIE = 1;
  3681  0DEE  1683               	bsf	3,5	;RP0=1, select bank1
  3682  0DEF  1303               	bcf	3,6	;RP1=0, select bank1
  3683  0DF0  158C               	bsf	12,3	;volatile
  3684  0DF1                     l180:	
  3685  0DF1  0008               	return
  3686  0DF2                     __end_of_I2C_Slave_Init:	
  3687                           
  3688                           	psect	text8
  3689  07F4                     __ptext8:	
  3690 ;; *************** function _ADC_INTERRUPT *****************
  3691 ;; Defined at:
  3692 ;;		line 114 in file "ADC.c"
  3693 ;; Parameters:    Size  Location     Type
  3694 ;;		None
  3695 ;; Auto vars:     Size  Location     Type
  3696 ;;		None
  3697 ;; Return value:  Size  Location     Type
  3698 ;;                  1    wreg      void 
  3699 ;; Registers used:
  3700 ;;		None
  3701 ;; Tracked objects:
  3702 ;;		On entry : 0/0
  3703 ;;		On exit  : 0/0
  3704 ;;		Unchanged: 0/0
  3705 ;; Data sizes:     COMMON   BANK0   BANK1   BANK3   BANK2
  3706 ;;      Params:         0       0       0       0       0
  3707 ;;      Locals:         0       0       0       0       0
  3708 ;;      Temps:          0       0       0       0       0
  3709 ;;      Totals:         0       0       0       0       0
  3710 ;;Total ram usage:        0 bytes
  3711 ;; Hardware stack levels used:    1
  3712 ;; Hardware stack levels required when called:    1
  3713 ;; This function calls:
  3714 ;;		Nothing
  3715 ;; This function is called by:
  3716 ;;		_main
  3717 ;; This function uses a non-reentrant model
  3718 ;;
  3719                           
  3720                           
  3721                           ;psect for function _ADC_INTERRUPT
  3722  07F4                     _ADC_INTERRUPT:	
  3723  07F4                     l1600:	
  3724                           ;incstack = 0
  3725                           ; Regs used in _ADC_INTERRUPT: []
  3726                           
  3727                           
  3728                           ;ADC.c: 115:     PIR1bits.ADIF = 0;
  3729  07F4  1283               	bcf	3,5	;RP0=0, select bank0
  3730  07F5  1303               	bcf	3,6	;RP1=0, select bank0
  3731  07F6  130C               	bcf	12,6	;volatile
  3732                           
  3733                           ;ADC.c: 116:     PIE1bits.ADIE = 1;
  3734  07F7  1683               	bsf	3,5	;RP0=1, select bank1
  3735  07F8  1303               	bcf	3,6	;RP1=0, select bank1
  3736  07F9  170C               	bsf	12,6	;volatile
  3737                           
  3738                           ;ADC.c: 117:     INTCONbits.GIE = 1;
  3739  07FA  178B               	bsf	11,7	;volatile
  3740                           
  3741                           ;ADC.c: 118:     INTCONbits.PEIE = 1;
  3742  07FB  170B               	bsf	11,6	;volatile
  3743  07FC                     l125:	
  3744  07FC  0008               	return
  3745  07FD                     __end_of_ADC_INTERRUPT:	
  3746                           
  3747                           	psect	text9
  3748  0604                     __ptext9:	
  3749 ;; *************** function _ADC_CONFIG *****************
  3750 ;; Defined at:
  3751 ;;		line 12 in file "ADC.c"
  3752 ;; Parameters:    Size  Location     Type
  3753 ;;  canal           1    wreg     unsigned char 
  3754 ;;  justif          1    3[COMMON] unsigned char 
  3755 ;; Auto vars:     Size  Location     Type
  3756 ;;  canal           1    6[COMMON] unsigned char 
  3757 ;; Return value:  Size  Location     Type
  3758 ;;                  1    wreg      void 
  3759 ;; Registers used:
  3760 ;;		wreg, fsr0l, fsr0h, status,2, status,0
  3761 ;; Tracked objects:
  3762 ;;		On entry : 0/0
  3763 ;;		On exit  : 0/0
  3764 ;;		Unchanged: 0/0
  3765 ;; Data sizes:     COMMON   BANK0   BANK1   BANK3   BANK2
  3766 ;;      Params:         1       0       0       0       0
  3767 ;;      Locals:         1       0       0       0       0
  3768 ;;      Temps:          2       0       0       0       0
  3769 ;;      Totals:         4       0       0       0       0
  3770 ;;Total ram usage:        4 bytes
  3771 ;; Hardware stack levels used:    1
  3772 ;; Hardware stack levels required when called:    1
  3773 ;; This function calls:
  3774 ;;		Nothing
  3775 ;; This function is called by:
  3776 ;;		_main
  3777 ;; This function uses a non-reentrant model
  3778 ;;
  3779                           
  3780                           
  3781                           ;psect for function _ADC_CONFIG
  3782  0604                     _ADC_CONFIG:	
  3783                           
  3784                           ;incstack = 0
  3785                           ; Regs used in _ADC_CONFIG: [wreg-fsr0h+status,2+status,0]
  3786                           ;ADC_CONFIG@canal stored from wreg
  3787  0604  00F6               	movwf	ADC_CONFIG@canal
  3788  0605                     l1520:	
  3789                           
  3790                           ;ADC.c: 13:     ADCON0bits.ADON = 1;
  3791  0605  1283               	bcf	3,5	;RP0=0, select bank0
  3792  0606  1303               	bcf	3,6	;RP1=0, select bank0
  3793  0607  141F               	bsf	31,0	;volatile
  3794                           
  3795                           ;ADC.c: 14:     ADCON0bits.GO = 1;
  3796  0608  149F               	bsf	31,1	;volatile
  3797  0609                     l1522:	
  3798                           
  3799                           ;ADC.c: 15:     ADCON0bits.ADCS = 1;
  3800  0609  081F               	movf	31,w	;volatile
  3801  060A  393F               	andlw	-193
  3802  060B  3840               	iorlw	64
  3803  060C  009F               	movwf	31	;volatile
  3804  060D                     l1524:	
  3805                           
  3806                           ;ADC.c: 16:     ADCON1bits.VCFG0 = 0;
  3807  060D  1683               	bsf	3,5	;RP0=1, select bank1
  3808  060E  1303               	bcf	3,6	;RP1=0, select bank1
  3809  060F  121F               	bcf	31,4	;volatile
  3810  0610                     l1526:	
  3811                           
  3812                           ;ADC.c: 17:     ADCON1bits.VCFG1 = 0;
  3813  0610  129F               	bcf	31,5	;volatile
  3814                           
  3815                           ;ADC.c: 19:     switch(canal){
  3816  0611  2EC6               	goto	l1586
  3817  0612                     l103:	
  3818                           ;ADC.c: 20:         case 0:
  3819                           
  3820                           
  3821                           ;ADC.c: 21:             ANSELbits.ANS0 = 1;
  3822  0612  1683               	bsf	3,5	;RP0=1, select bank3
  3823  0613  1703               	bsf	3,6	;RP1=1, select bank3
  3824  0614  1408               	bsf	8,0	;volatile
  3825  0615                     l1528:	
  3826                           
  3827                           ;ADC.c: 22:             ADCON0bits.CHS = 0;
  3828  0615  30C3               	movlw	-61
  3829  0616  1283               	bcf	3,5	;RP0=0, select bank0
  3830  0617  1303               	bcf	3,6	;RP1=0, select bank0
  3831  0618  059F               	andwf	31,f	;volatile
  3832  0619                     l1530:	
  3833                           
  3834                           ;ADC.c: 23:             TRISAbits.TRISA0 = 1;
  3835  0619  1683               	bsf	3,5	;RP0=1, select bank1
  3836  061A  1303               	bcf	3,6	;RP1=0, select bank1
  3837  061B  1405               	bsf	5,0	;volatile
  3838                           
  3839                           ;ADC.c: 24:             break;
  3840  061C  2EFE               	goto	l1590
  3841  061D                     l105:	
  3842                           ;ADC.c: 26:         case 1:
  3843                           
  3844                           
  3845                           ;ADC.c: 27:             ANSELbits.ANS1 = 1;
  3846  061D  1683               	bsf	3,5	;RP0=1, select bank3
  3847  061E  1703               	bsf	3,6	;RP1=1, select bank3
  3848  061F  1488               	bsf	8,1	;volatile
  3849  0620                     l1532:	
  3850                           
  3851                           ;ADC.c: 28:             ADCON0bits.CHS = 1;
  3852  0620  1283               	bcf	3,5	;RP0=0, select bank0
  3853  0621  1303               	bcf	3,6	;RP1=0, select bank0
  3854  0622  081F               	movf	31,w	;volatile
  3855  0623  39C3               	andlw	-61
  3856  0624  3804               	iorlw	4
  3857  0625  009F               	movwf	31	;volatile
  3858  0626                     l1534:	
  3859                           
  3860                           ;ADC.c: 29:             TRISAbits.TRISA1 = 1;
  3861  0626  1683               	bsf	3,5	;RP0=1, select bank1
  3862  0627  1303               	bcf	3,6	;RP1=0, select bank1
  3863  0628  1485               	bsf	5,1	;volatile
  3864                           
  3865                           ;ADC.c: 30:             break;
  3866  0629  2EFE               	goto	l1590
  3867  062A                     l106:	
  3868                           ;ADC.c: 32:         case 2:
  3869                           
  3870                           
  3871                           ;ADC.c: 33:             ANSELbits.ANS2 = 1;
  3872  062A  1683               	bsf	3,5	;RP0=1, select bank3
  3873  062B  1703               	bsf	3,6	;RP1=1, select bank3
  3874  062C  1508               	bsf	8,2	;volatile
  3875  062D                     l1536:	
  3876                           
  3877                           ;ADC.c: 34:             ADCON0bits.CHS = 2;
  3878  062D  1283               	bcf	3,5	;RP0=0, select bank0
  3879  062E  1303               	bcf	3,6	;RP1=0, select bank0
  3880  062F  081F               	movf	31,w	;volatile
  3881  0630  39C3               	andlw	-61
  3882  0631  3808               	iorlw	8
  3883  0632  009F               	movwf	31	;volatile
  3884  0633                     l1538:	
  3885                           
  3886                           ;ADC.c: 35:             TRISAbits.TRISA2 = 1;
  3887  0633  1683               	bsf	3,5	;RP0=1, select bank1
  3888  0634  1303               	bcf	3,6	;RP1=0, select bank1
  3889  0635  1505               	bsf	5,2	;volatile
  3890                           
  3891                           ;ADC.c: 36:             break;
  3892  0636  2EFE               	goto	l1590
  3893  0637                     l107:	
  3894                           ;ADC.c: 38:         case 3:
  3895                           
  3896                           
  3897                           ;ADC.c: 39:             ANSELbits.ANS3 = 1;
  3898  0637  1683               	bsf	3,5	;RP0=1, select bank3
  3899  0638  1703               	bsf	3,6	;RP1=1, select bank3
  3900  0639  1588               	bsf	8,3	;volatile
  3901  063A                     l1540:	
  3902                           
  3903                           ;ADC.c: 40:             ADCON0bits.CHS = 3;
  3904  063A  1283               	bcf	3,5	;RP0=0, select bank0
  3905  063B  1303               	bcf	3,6	;RP1=0, select bank0
  3906  063C  081F               	movf	31,w	;volatile
  3907  063D  39C3               	andlw	-61
  3908  063E  380C               	iorlw	12
  3909  063F  009F               	movwf	31	;volatile
  3910  0640                     l1542:	
  3911                           
  3912                           ;ADC.c: 41:             TRISAbits.TRISA3 = 1;
  3913  0640  1683               	bsf	3,5	;RP0=1, select bank1
  3914  0641  1303               	bcf	3,6	;RP1=0, select bank1
  3915  0642  1585               	bsf	5,3	;volatile
  3916                           
  3917                           ;ADC.c: 42:             break;
  3918  0643  2EFE               	goto	l1590
  3919  0644                     l108:	
  3920                           ;ADC.c: 44:         case 4:
  3921                           
  3922                           
  3923                           ;ADC.c: 45:             ANSELbits.ANS4 = 1;
  3924  0644  1683               	bsf	3,5	;RP0=1, select bank3
  3925  0645  1703               	bsf	3,6	;RP1=1, select bank3
  3926  0646  1608               	bsf	8,4	;volatile
  3927  0647                     l1544:	
  3928                           
  3929                           ;ADC.c: 46:             ADCON0bits.CHS = 4;
  3930  0647  1283               	bcf	3,5	;RP0=0, select bank0
  3931  0648  1303               	bcf	3,6	;RP1=0, select bank0
  3932  0649  081F               	movf	31,w	;volatile
  3933  064A  39C3               	andlw	-61
  3934  064B  3810               	iorlw	16
  3935  064C  009F               	movwf	31	;volatile
  3936  064D                     l1546:	
  3937                           
  3938                           ;ADC.c: 47:             TRISAbits.TRISA5 = 1;
  3939  064D  1683               	bsf	3,5	;RP0=1, select bank1
  3940  064E  1303               	bcf	3,6	;RP1=0, select bank1
  3941  064F  1685               	bsf	5,5	;volatile
  3942                           
  3943                           ;ADC.c: 48:             break;
  3944  0650  2EFE               	goto	l1590
  3945  0651                     l109:	
  3946                           ;ADC.c: 50:         case 5:
  3947                           
  3948                           
  3949                           ;ADC.c: 51:             ANSELbits.ANS5 = 1;
  3950  0651  1683               	bsf	3,5	;RP0=1, select bank3
  3951  0652  1703               	bsf	3,6	;RP1=1, select bank3
  3952  0653  1688               	bsf	8,5	;volatile
  3953  0654                     l1548:	
  3954                           
  3955                           ;ADC.c: 52:             ADCON0bits.CHS = 5;
  3956  0654  1283               	bcf	3,5	;RP0=0, select bank0
  3957  0655  1303               	bcf	3,6	;RP1=0, select bank0
  3958  0656  081F               	movf	31,w	;volatile
  3959  0657  39C3               	andlw	-61
  3960  0658  3814               	iorlw	20
  3961  0659  009F               	movwf	31	;volatile
  3962  065A                     l1550:	
  3963                           
  3964                           ;ADC.c: 53:             TRISEbits.TRISE0 = 1;
  3965  065A  1683               	bsf	3,5	;RP0=1, select bank1
  3966  065B  1303               	bcf	3,6	;RP1=0, select bank1
  3967  065C  1409               	bsf	9,0	;volatile
  3968                           
  3969                           ;ADC.c: 54:             break;
  3970  065D  2EFE               	goto	l1590
  3971  065E                     l110:	
  3972                           ;ADC.c: 56:         case 6:
  3973                           
  3974                           
  3975                           ;ADC.c: 57:             ANSELbits.ANS6 = 1;
  3976  065E  1683               	bsf	3,5	;RP0=1, select bank3
  3977  065F  1703               	bsf	3,6	;RP1=1, select bank3
  3978  0660  1708               	bsf	8,6	;volatile
  3979  0661                     l1552:	
  3980                           
  3981                           ;ADC.c: 58:             ADCON0bits.CHS = 6;
  3982  0661  1283               	bcf	3,5	;RP0=0, select bank0
  3983  0662  1303               	bcf	3,6	;RP1=0, select bank0
  3984  0663  081F               	movf	31,w	;volatile
  3985  0664  39C3               	andlw	-61
  3986  0665  3818               	iorlw	24
  3987  0666  009F               	movwf	31	;volatile
  3988  0667                     l1554:	
  3989                           
  3990                           ;ADC.c: 59:             TRISEbits.TRISE1 = 1;
  3991  0667  1683               	bsf	3,5	;RP0=1, select bank1
  3992  0668  1303               	bcf	3,6	;RP1=0, select bank1
  3993  0669  1489               	bsf	9,1	;volatile
  3994                           
  3995                           ;ADC.c: 60:             break;
  3996  066A  2EFE               	goto	l1590
  3997  066B                     l111:	
  3998                           ;ADC.c: 62:         case 7:
  3999                           
  4000                           
  4001                           ;ADC.c: 63:             ANSELbits.ANS7 = 1;
  4002  066B  1683               	bsf	3,5	;RP0=1, select bank3
  4003  066C  1703               	bsf	3,6	;RP1=1, select bank3
  4004  066D  1788               	bsf	8,7	;volatile
  4005  066E                     l1556:	
  4006                           
  4007                           ;ADC.c: 64:             ADCON0bits.CHS = 7;
  4008  066E  1283               	bcf	3,5	;RP0=0, select bank0
  4009  066F  1303               	bcf	3,6	;RP1=0, select bank0
  4010  0670  081F               	movf	31,w	;volatile
  4011  0671  39C3               	andlw	-61
  4012  0672  381C               	iorlw	28
  4013  0673  009F               	movwf	31	;volatile
  4014  0674                     l1558:	
  4015                           
  4016                           ;ADC.c: 65:             TRISEbits.TRISE2 = 1;
  4017  0674  1683               	bsf	3,5	;RP0=1, select bank1
  4018  0675  1303               	bcf	3,6	;RP1=0, select bank1
  4019  0676  1509               	bsf	9,2	;volatile
  4020                           
  4021                           ;ADC.c: 66:             break;
  4022  0677  2EFE               	goto	l1590
  4023  0678                     l112:	
  4024                           ;ADC.c: 68:         case 8:
  4025                           
  4026                           
  4027                           ;ADC.c: 69:             ANSELHbits.ANS8 = 1;
  4028  0678  1683               	bsf	3,5	;RP0=1, select bank3
  4029  0679  1703               	bsf	3,6	;RP1=1, select bank3
  4030  067A  1409               	bsf	9,0	;volatile
  4031  067B                     l1560:	
  4032                           
  4033                           ;ADC.c: 70:             ADCON0bits.CHS = 8;
  4034  067B  1283               	bcf	3,5	;RP0=0, select bank0
  4035  067C  1303               	bcf	3,6	;RP1=0, select bank0
  4036  067D  081F               	movf	31,w	;volatile
  4037  067E  39C3               	andlw	-61
  4038  067F  3820               	iorlw	32
  4039  0680  009F               	movwf	31	;volatile
  4040  0681                     l1562:	
  4041                           
  4042                           ;ADC.c: 71:             TRISBbits.TRISB2 = 1;
  4043  0681  1683               	bsf	3,5	;RP0=1, select bank1
  4044  0682  1303               	bcf	3,6	;RP1=0, select bank1
  4045  0683  1506               	bsf	6,2	;volatile
  4046                           
  4047                           ;ADC.c: 72:             break;
  4048  0684  2EFE               	goto	l1590
  4049  0685                     l113:	
  4050                           ;ADC.c: 74:         case 9:
  4051                           
  4052                           
  4053                           ;ADC.c: 75:             ANSELHbits.ANS9 = 1;
  4054  0685  1683               	bsf	3,5	;RP0=1, select bank3
  4055  0686  1703               	bsf	3,6	;RP1=1, select bank3
  4056  0687  1489               	bsf	9,1	;volatile
  4057  0688                     l1564:	
  4058                           
  4059                           ;ADC.c: 76:             ADCON0bits.CHS = 9;
  4060  0688  1283               	bcf	3,5	;RP0=0, select bank0
  4061  0689  1303               	bcf	3,6	;RP1=0, select bank0
  4062  068A  081F               	movf	31,w	;volatile
  4063  068B  39C3               	andlw	-61
  4064  068C  3824               	iorlw	36
  4065  068D  009F               	movwf	31	;volatile
  4066  068E                     l1566:	
  4067                           
  4068                           ;ADC.c: 77:             TRISBbits.TRISB3 = 1;
  4069  068E  1683               	bsf	3,5	;RP0=1, select bank1
  4070  068F  1303               	bcf	3,6	;RP1=0, select bank1
  4071  0690  1586               	bsf	6,3	;volatile
  4072                           
  4073                           ;ADC.c: 78:             break;
  4074  0691  2EFE               	goto	l1590
  4075  0692                     l114:	
  4076                           ;ADC.c: 80:         case 10:
  4077                           
  4078                           
  4079                           ;ADC.c: 81:             ANSELHbits.ANS10 = 1;
  4080  0692  1683               	bsf	3,5	;RP0=1, select bank3
  4081  0693  1703               	bsf	3,6	;RP1=1, select bank3
  4082  0694  1509               	bsf	9,2	;volatile
  4083  0695                     l1568:	
  4084                           
  4085                           ;ADC.c: 82:             ADCON0bits.CHS = 10;
  4086  0695  1283               	bcf	3,5	;RP0=0, select bank0
  4087  0696  1303               	bcf	3,6	;RP1=0, select bank0
  4088  0697  081F               	movf	31,w	;volatile
  4089  0698  39C3               	andlw	-61
  4090  0699  3828               	iorlw	40
  4091  069A  009F               	movwf	31	;volatile
  4092  069B                     l1570:	
  4093                           
  4094                           ;ADC.c: 83:             TRISBbits.TRISB1 = 1;
  4095  069B  1683               	bsf	3,5	;RP0=1, select bank1
  4096  069C  1303               	bcf	3,6	;RP1=0, select bank1
  4097  069D  1486               	bsf	6,1	;volatile
  4098                           
  4099                           ;ADC.c: 84:             break;
  4100  069E  2EFE               	goto	l1590
  4101  069F                     l115:	
  4102                           ;ADC.c: 86:         case 11:
  4103                           
  4104                           
  4105                           ;ADC.c: 87:             ANSELHbits.ANS11 = 1;
  4106  069F  1683               	bsf	3,5	;RP0=1, select bank3
  4107  06A0  1703               	bsf	3,6	;RP1=1, select bank3
  4108  06A1  1589               	bsf	9,3	;volatile
  4109  06A2                     l1572:	
  4110                           
  4111                           ;ADC.c: 88:             ADCON0bits.CHS = 11;
  4112  06A2  1283               	bcf	3,5	;RP0=0, select bank0
  4113  06A3  1303               	bcf	3,6	;RP1=0, select bank0
  4114  06A4  081F               	movf	31,w	;volatile
  4115  06A5  39C3               	andlw	-61
  4116  06A6  382C               	iorlw	44
  4117  06A7  009F               	movwf	31	;volatile
  4118  06A8                     l1574:	
  4119                           
  4120                           ;ADC.c: 89:             TRISBbits.TRISB4 = 1;
  4121  06A8  1683               	bsf	3,5	;RP0=1, select bank1
  4122  06A9  1303               	bcf	3,6	;RP1=0, select bank1
  4123  06AA  1606               	bsf	6,4	;volatile
  4124                           
  4125                           ;ADC.c: 90:             break;
  4126  06AB  2EFE               	goto	l1590
  4127  06AC                     l116:	
  4128                           ;ADC.c: 92:         case 12:
  4129                           
  4130                           
  4131                           ;ADC.c: 93:             ANSELHbits.ANS12 = 1;
  4132  06AC  1683               	bsf	3,5	;RP0=1, select bank3
  4133  06AD  1703               	bsf	3,6	;RP1=1, select bank3
  4134  06AE  1609               	bsf	9,4	;volatile
  4135  06AF                     l1576:	
  4136                           
  4137                           ;ADC.c: 94:             ADCON0bits.CHS = 12;
  4138  06AF  1283               	bcf	3,5	;RP0=0, select bank0
  4139  06B0  1303               	bcf	3,6	;RP1=0, select bank0
  4140  06B1  081F               	movf	31,w	;volatile
  4141  06B2  39C3               	andlw	-61
  4142  06B3  3830               	iorlw	48
  4143  06B4  009F               	movwf	31	;volatile
  4144  06B5                     l1578:	
  4145                           
  4146                           ;ADC.c: 95:             TRISBbits.TRISB0 = 1;
  4147  06B5  1683               	bsf	3,5	;RP0=1, select bank1
  4148  06B6  1303               	bcf	3,6	;RP1=0, select bank1
  4149  06B7  1406               	bsf	6,0	;volatile
  4150                           
  4151                           ;ADC.c: 96:             break;
  4152  06B8  2EFE               	goto	l1590
  4153  06B9                     l117:	
  4154                           ;ADC.c: 98:         case 13:
  4155                           
  4156                           
  4157                           ;ADC.c: 99:             ANSELHbits.ANS13 = 1;
  4158  06B9  1683               	bsf	3,5	;RP0=1, select bank3
  4159  06BA  1703               	bsf	3,6	;RP1=1, select bank3
  4160  06BB  1689               	bsf	9,5	;volatile
  4161  06BC                     l1580:	
  4162                           
  4163                           ;ADC.c: 100:             ADCON0bits.CHS = 13;
  4164  06BC  1283               	bcf	3,5	;RP0=0, select bank0
  4165  06BD  1303               	bcf	3,6	;RP1=0, select bank0
  4166  06BE  081F               	movf	31,w	;volatile
  4167  06BF  39C3               	andlw	-61
  4168  06C0  3834               	iorlw	52
  4169  06C1  009F               	movwf	31	;volatile
  4170  06C2                     l1582:	
  4171                           
  4172                           ;ADC.c: 101:             TRISBbits.TRISB5 = 1;
  4173  06C2  1683               	bsf	3,5	;RP0=1, select bank1
  4174  06C3  1303               	bcf	3,6	;RP1=0, select bank1
  4175  06C4  1686               	bsf	6,5	;volatile
  4176                           
  4177                           ;ADC.c: 102:             break;
  4178  06C5  2EFE               	goto	l1590
  4179  06C6                     l1586:	
  4180  06C6  0876               	movf	ADC_CONFIG@canal,w
  4181  06C7  00F4               	movwf	??_ADC_CONFIG
  4182  06C8  01F5               	clrf	??_ADC_CONFIG+1
  4183                           
  4184                           ; Switch on 2 bytes has been partitioned into a top level switch of size 1, and 1 sub-sw
      +                          itches
  4185                           ; Switch size 1, requested type "simple"
  4186                           ; Number of cases is 1, Range of values is 0 to 0
  4187                           ; switch strategies available:
  4188                           ; Name         Instructions Cycles
  4189                           ; simple_byte            4     3 (average)
  4190                           ; direct_byte           11     8 (fixed)
  4191                           ; jumptable            260     6 (fixed)
  4192                           ;	Chosen strategy is simple_byte
  4193  06C9  0875               	movf	??_ADC_CONFIG+1,w
  4194  06CA  3A00               	xorlw	0	; case 0
  4195  06CB  1903               	skipnz
  4196  06CC  2ECE               	goto	l2278
  4197  06CD  2EFE               	goto	l1590
  4198  06CE                     l2278:	
  4199                           
  4200                           ; Switch size 1, requested type "simple"
  4201                           ; Number of cases is 14, Range of values is 0 to 13
  4202                           ; switch strategies available:
  4203                           ; Name         Instructions Cycles
  4204                           ; simple_byte           43    22 (average)
  4205                           ; direct_byte           50     8 (fixed)
  4206                           ; jumptable            260     6 (fixed)
  4207                           ;	Chosen strategy is simple_byte
  4208  06CE  0874               	movf	??_ADC_CONFIG,w
  4209  06CF  3A00               	xorlw	0	; case 0
  4210  06D0  1903               	skipnz
  4211  06D1  2E12               	goto	l103
  4212  06D2  3A01               	xorlw	1	; case 1
  4213  06D3  1903               	skipnz
  4214  06D4  2E1D               	goto	l105
  4215  06D5  3A03               	xorlw	3	; case 2
  4216  06D6  1903               	skipnz
  4217  06D7  2E2A               	goto	l106
  4218  06D8  3A01               	xorlw	1	; case 3
  4219  06D9  1903               	skipnz
  4220  06DA  2E37               	goto	l107
  4221  06DB  3A07               	xorlw	7	; case 4
  4222  06DC  1903               	skipnz
  4223  06DD  2E44               	goto	l108
  4224  06DE  3A01               	xorlw	1	; case 5
  4225  06DF  1903               	skipnz
  4226  06E0  2E51               	goto	l109
  4227  06E1  3A03               	xorlw	3	; case 6
  4228  06E2  1903               	skipnz
  4229  06E3  2E5E               	goto	l110
  4230  06E4  3A01               	xorlw	1	; case 7
  4231  06E5  1903               	skipnz
  4232  06E6  2E6B               	goto	l111
  4233  06E7  3A0F               	xorlw	15	; case 8
  4234  06E8  1903               	skipnz
  4235  06E9  2E78               	goto	l112
  4236  06EA  3A01               	xorlw	1	; case 9
  4237  06EB  1903               	skipnz
  4238  06EC  2E85               	goto	l113
  4239  06ED  3A03               	xorlw	3	; case 10
  4240  06EE  1903               	skipnz
  4241  06EF  2E92               	goto	l114
  4242  06F0  3A01               	xorlw	1	; case 11
  4243  06F1  1903               	skipnz
  4244  06F2  2E9F               	goto	l115
  4245  06F3  3A07               	xorlw	7	; case 12
  4246  06F4  1903               	skipnz
  4247  06F5  2EAC               	goto	l116
  4248  06F6  3A01               	xorlw	1	; case 13
  4249  06F7  1903               	skipnz
  4250  06F8  2EB9               	goto	l117
  4251  06F9  2EFE               	goto	l1590
  4252  06FA                     l119:	
  4253                           ;ADC.c: 105:         case 0:
  4254                           
  4255                           
  4256                           ;ADC.c: 106:             ADCON1bits.ADFM = 0;
  4257  06FA  139F               	bcf	31,7	;volatile
  4258                           
  4259                           ;ADC.c: 107:             break;
  4260  06FB  2F0E               	goto	l122
  4261  06FC                     l121:	
  4262                           ;ADC.c: 108:         case 1:
  4263                           
  4264                           
  4265                           ;ADC.c: 109:             ADCON1bits.ADFM = 1;
  4266  06FC  179F               	bsf	31,7	;volatile
  4267                           
  4268                           ;ADC.c: 110:             break;
  4269  06FD  2F0E               	goto	l122
  4270  06FE                     l1590:	
  4271  06FE  0873               	movf	ADC_CONFIG@justif,w
  4272  06FF  00F4               	movwf	??_ADC_CONFIG
  4273  0700  01F5               	clrf	??_ADC_CONFIG+1
  4274                           
  4275                           ; Switch on 2 bytes has been partitioned into a top level switch of size 1, and 1 sub-sw
      +                          itches
  4276                           ; Switch size 1, requested type "simple"
  4277                           ; Number of cases is 1, Range of values is 0 to 0
  4278                           ; switch strategies available:
  4279                           ; Name         Instructions Cycles
  4280                           ; simple_byte            4     3 (average)
  4281                           ; direct_byte           11     8 (fixed)
  4282                           ; jumptable            260     6 (fixed)
  4283                           ;	Chosen strategy is simple_byte
  4284  0701  0875               	movf	??_ADC_CONFIG+1,w
  4285  0702  3A00               	xorlw	0	; case 0
  4286  0703  1903               	skipnz
  4287  0704  2F06               	goto	l2280
  4288  0705  2F0E               	goto	l122
  4289  0706                     l2280:	
  4290                           
  4291                           ; Switch size 1, requested type "simple"
  4292                           ; Number of cases is 2, Range of values is 0 to 1
  4293                           ; switch strategies available:
  4294                           ; Name         Instructions Cycles
  4295                           ; simple_byte            7     4 (average)
  4296                           ; direct_byte           14     8 (fixed)
  4297                           ; jumptable            260     6 (fixed)
  4298                           ;	Chosen strategy is simple_byte
  4299  0706  0874               	movf	??_ADC_CONFIG,w
  4300  0707  3A00               	xorlw	0	; case 0
  4301  0708  1903               	skipnz
  4302  0709  2EFA               	goto	l119
  4303  070A  3A01               	xorlw	1	; case 1
  4304  070B  1903               	skipnz
  4305  070C  2EFC               	goto	l121
  4306  070D  2F0E               	goto	l122
  4307  070E                     l122:	
  4308  070E  0008               	return
  4309  070F                     __end_of_ADC_CONFIG:	
  4310                           
  4311                           	psect	text10
  4312  0E5B                     __ptext10:	
  4313 ;; *************** function _ISR *****************
  4314 ;; Defined at:
  4315 ;;		line 37 in file "Slave_Temperatura.c"
  4316 ;; Parameters:    Size  Location     Type
  4317 ;;		None
  4318 ;; Auto vars:     Size  Location     Type
  4319 ;;		None
  4320 ;; Return value:  Size  Location     Type
  4321 ;;                  1    wreg      void 
  4322 ;; Registers used:
  4323 ;;		wreg
  4324 ;; Tracked objects:
  4325 ;;		On entry : 0/0
  4326 ;;		On exit  : 0/0
  4327 ;;		Unchanged: 0/0
  4328 ;; Data sizes:     COMMON   BANK0   BANK1   BANK3   BANK2
  4329 ;;      Params:         0       0       0       0       0
  4330 ;;      Locals:         0       0       0       0       0
  4331 ;;      Temps:          3       0       0       0       0
  4332 ;;      Totals:         3       0       0       0       0
  4333 ;;Total ram usage:        3 bytes
  4334 ;; Hardware stack levels used:    1
  4335 ;; This function calls:
  4336 ;;		Nothing
  4337 ;; This function is called by:
  4338 ;;		Interrupt level 1
  4339 ;; This function uses a non-reentrant model
  4340 ;;
  4341                           
  4342                           
  4343                           ;psect for function _ISR
  4344  0E5B                     _ISR:	
  4345  0E5B                     i1l2060:	
  4346                           
  4347                           ;Slave_Temperatura.c: 38:     if(PIR1bits.ADIF == 1){
  4348  0E5B  1283               	bcf	3,5	;RP0=0, select bank0
  4349  0E5C  1303               	bcf	3,6	;RP1=0, select bank0
  4350  0E5D  1F0C               	btfss	12,6	;volatile
  4351  0E5E  2E60               	goto	u256_21
  4352  0E5F  2E61               	goto	u256_20
  4353  0E60                     u256_21:	
  4354  0E60  2E67               	goto	i1l2068
  4355  0E61                     u256_20:	
  4356  0E61                     i1l2062:	
  4357                           
  4358                           ;Slave_Temperatura.c: 39:         adc1 = ADRESH;
  4359  0E61  081E               	movf	30,w	;volatile
  4360  0E62  00F0               	movwf	??_ISR
  4361  0E63  0870               	movf	??_ISR,w
  4362  0E64  00ED               	movwf	_adc1
  4363  0E65                     i1l2064:	
  4364                           
  4365                           ;Slave_Temperatura.c: 40:         ADIF = 0;
  4366  0E65  130C               	bcf	12,6	;volatile
  4367  0E66                     i1l2066:	
  4368                           
  4369                           ;Slave_Temperatura.c: 41:         ADCON0bits.GO = 1;
  4370  0E66  149F               	bsf	31,1	;volatile
  4371  0E67                     i1l2068:	
  4372                           
  4373                           ;Slave_Temperatura.c: 43:     if(PIR1bits.SSPIF == 1){
  4374  0E67  1D8C               	btfss	12,3	;volatile
  4375  0E68  2E6A               	goto	u257_21
  4376  0E69  2E6B               	goto	u257_20
  4377  0E6A                     u257_21:	
  4378  0E6A  2EC3               	goto	i1l69
  4379  0E6B                     u257_20:	
  4380  0E6B                     i1l2070:	
  4381                           
  4382                           ;Slave_Temperatura.c: 45:         SSPCONbits.CKP = 0;
  4383  0E6B  1214               	bcf	20,4	;volatile
  4384                           
  4385                           ;Slave_Temperatura.c: 47:         if ((SSPCONbits.SSPOV) || (SSPCONbits.WCOL)){
  4386  0E6C  1B14               	btfsc	20,6	;volatile
  4387  0E6D  2E6F               	goto	u258_21
  4388  0E6E  2E70               	goto	u258_20
  4389  0E6F                     u258_21:	
  4390  0E6F  2E74               	goto	i1l2074
  4391  0E70                     u258_20:	
  4392  0E70                     i1l2072:	
  4393  0E70  1F94               	btfss	20,7	;volatile
  4394  0E71  2E73               	goto	u259_21
  4395  0E72  2E74               	goto	u259_20
  4396  0E73                     u259_21:	
  4397  0E73  2E7B               	goto	i1l2082
  4398  0E74                     u259_20:	
  4399  0E74                     i1l2074:	
  4400                           
  4401                           ;Slave_Temperatura.c: 48:             z = SSPBUF;
  4402  0E74  0813               	movf	19,w	;volatile
  4403  0E75  00F0               	movwf	??_ISR
  4404  0E76  0870               	movf	??_ISR,w
  4405  0E77  00F9               	movwf	_z
  4406  0E78                     i1l2076:	
  4407                           
  4408                           ;Slave_Temperatura.c: 49:             SSPCONbits.SSPOV = 0;
  4409  0E78  1314               	bcf	20,6	;volatile
  4410  0E79                     i1l2078:	
  4411                           
  4412                           ;Slave_Temperatura.c: 50:             SSPCONbits.WCOL = 0;
  4413  0E79  1394               	bcf	20,7	;volatile
  4414  0E7A                     i1l2080:	
  4415                           
  4416                           ;Slave_Temperatura.c: 51:             SSPCONbits.CKP = 1;
  4417  0E7A  1614               	bsf	20,4	;volatile
  4418  0E7B                     i1l2082:	
  4419                           
  4420                           ;Slave_Temperatura.c: 54:         if(!SSPSTATbits.D_nA && !SSPSTATbits.R_nW) {
  4421  0E7B  1683               	bsf	3,5	;RP0=1, select bank1
  4422  0E7C  1303               	bcf	3,6	;RP1=0, select bank1
  4423  0E7D  1A94               	btfsc	20,5	;volatile
  4424  0E7E  2E80               	goto	u260_21
  4425  0E7F  2E81               	goto	u260_20
  4426  0E80                     u260_21:	
  4427  0E80  2E9F               	goto	i1l60
  4428  0E81                     u260_20:	
  4429  0E81                     i1l2084:	
  4430  0E81  1914               	btfsc	20,2	;volatile
  4431  0E82  2E84               	goto	u261_21
  4432  0E83  2E85               	goto	u261_20
  4433  0E84                     u261_21:	
  4434  0E84  2E9F               	goto	i1l60
  4435  0E85                     u261_20:	
  4436  0E85                     i1l2086:	
  4437                           
  4438                           ;Slave_Temperatura.c: 56:             z = SSPBUF;
  4439  0E85  1283               	bcf	3,5	;RP0=0, select bank0
  4440  0E86  1303               	bcf	3,6	;RP1=0, select bank0
  4441  0E87  0813               	movf	19,w	;volatile
  4442  0E88  00F0               	movwf	??_ISR
  4443  0E89  0870               	movf	??_ISR,w
  4444  0E8A  00F9               	movwf	_z
  4445  0E8B                     i1l2088:	
  4446                           
  4447                           ;Slave_Temperatura.c: 58:             PIR1bits.SSPIF = 0;
  4448  0E8B  118C               	bcf	12,3	;volatile
  4449  0E8C                     i1l2090:	
  4450                           
  4451                           ;Slave_Temperatura.c: 59:             SSPCONbits.CKP = 1;
  4452  0E8C  1614               	bsf	20,4	;volatile
  4453  0E8D                     i1l61:	
  4454                           ;Slave_Temperatura.c: 60:             while(!SSPSTATbits.BF);
  4455                           
  4456  0E8D  1683               	bsf	3,5	;RP0=1, select bank1
  4457  0E8E  1303               	bcf	3,6	;RP1=0, select bank1
  4458  0E8F  1C14               	btfss	20,0	;volatile
  4459  0E90  2E92               	goto	u262_21
  4460  0E91  2E93               	goto	u262_20
  4461  0E92                     u262_21:	
  4462  0E92  2E8D               	goto	i1l61
  4463  0E93                     u262_20:	
  4464  0E93                     i1l2092:	
  4465                           
  4466                           ;Slave_Temperatura.c: 61:             eleccion = SSPBUF;
  4467  0E93  1283               	bcf	3,5	;RP0=0, select bank0
  4468  0E94  1303               	bcf	3,6	;RP1=0, select bank0
  4469  0E95  0813               	movf	19,w	;volatile
  4470  0E96  00F0               	movwf	??_ISR
  4471  0E97  0870               	movf	??_ISR,w
  4472  0E98  00F8               	movwf	_eleccion
  4473                           
  4474                           ;Slave_Temperatura.c: 62:             _delay((unsigned long)((250)*(8000000/4000000.0)))
      +                          ;
  4475  0E99  30A6               	movlw	166
  4476  0E9A  00F0               	movwf	??_ISR
  4477  0E9B                     u282_27:	
  4478  0E9B  0BF0               	decfsz	??_ISR,f
  4479  0E9C  2E9B               	goto	u282_27
  4480  0E9D  0000               	nop
  4481                           
  4482                           ;Slave_Temperatura.c: 64:         }else if(!SSPSTATbits.D_nA && SSPSTATbits.R_nW){
  4483  0E9E  2EC0               	goto	i1l64
  4484  0E9F                     i1l60:	
  4485  0E9F  1A94               	btfsc	20,5	;volatile
  4486  0EA0  2EA2               	goto	u263_21
  4487  0EA1  2EA3               	goto	u263_20
  4488  0EA2                     u263_21:	
  4489  0EA2  2EC0               	goto	i1l64
  4490  0EA3                     u263_20:	
  4491  0EA3                     i1l2094:	
  4492  0EA3  1D14               	btfss	20,2	;volatile
  4493  0EA4  2EA6               	goto	u264_21
  4494  0EA5  2EA7               	goto	u264_20
  4495  0EA6                     u264_21:	
  4496  0EA6  2EC0               	goto	i1l64
  4497  0EA7                     u264_20:	
  4498  0EA7                     i1l2096:	
  4499                           
  4500                           ;Slave_Temperatura.c: 65:             z = SSPBUF;
  4501  0EA7  1283               	bcf	3,5	;RP0=0, select bank0
  4502  0EA8  1303               	bcf	3,6	;RP1=0, select bank0
  4503  0EA9  0813               	movf	19,w	;volatile
  4504  0EAA  00F0               	movwf	??_ISR
  4505  0EAB  0870               	movf	??_ISR,w
  4506  0EAC  00F9               	movwf	_z
  4507  0EAD                     i1l2098:	
  4508                           
  4509                           ;Slave_Temperatura.c: 66:             BF = 0;
  4510  0EAD  1683               	bsf	3,5	;RP0=1, select bank1
  4511  0EAE  1303               	bcf	3,6	;RP1=0, select bank1
  4512  0EAF  1014               	bcf	20,0	;volatile
  4513                           
  4514                           ;Slave_Temperatura.c: 67:             SSPBUF = TEMP;
  4515  0EB0  1283               	bcf	3,5	;RP0=0, select bank0
  4516  0EB1  1303               	bcf	3,6	;RP1=0, select bank0
  4517  0EB2  086C               	movf	_TEMP,w
  4518  0EB3  0093               	movwf	19	;volatile
  4519  0EB4                     i1l2100:	
  4520                           
  4521                           ;Slave_Temperatura.c: 68:             SSPCONbits.CKP = 1;
  4522  0EB4  1614               	bsf	20,4	;volatile
  4523                           
  4524                           ;Slave_Temperatura.c: 69:             _delay((unsigned long)((250)*(8000000/4000000.0)))
      +                          ;
  4525  0EB5  30A6               	movlw	166
  4526  0EB6  00F0               	movwf	??_ISR
  4527  0EB7                     u283_27:	
  4528  0EB7  0BF0               	decfsz	??_ISR,f
  4529  0EB8  2EB7               	goto	u283_27
  4530  0EB9  0000               	nop
  4531  0EBA                     i1l66:	
  4532                           ;Slave_Temperatura.c: 70:             while(SSPSTATbits.BF);
  4533                           
  4534  0EBA  1683               	bsf	3,5	;RP0=1, select bank1
  4535  0EBB  1303               	bcf	3,6	;RP1=0, select bank1
  4536  0EBC  1814               	btfsc	20,0	;volatile
  4537  0EBD  2EBF               	goto	u265_21
  4538  0EBE  2EC0               	goto	u265_20
  4539  0EBF                     u265_21:	
  4540  0EBF  2EBA               	goto	i1l66
  4541  0EC0                     u265_20:	
  4542  0EC0                     i1l64:	
  4543                           
  4544                           ;Slave_Temperatura.c: 73:         PIR1bits.SSPIF = 0;
  4545  0EC0  1283               	bcf	3,5	;RP0=0, select bank0
  4546  0EC1  1303               	bcf	3,6	;RP1=0, select bank0
  4547  0EC2  118C               	bcf	12,3	;volatile
  4548  0EC3                     i1l69:	
  4549  0EC3  0872               	movf	??_ISR+2,w
  4550  0EC4  008A               	movwf	10
  4551  0EC5  0E71               	swapf	(??_ISR+1)^(0+4294967168),w
  4552  0EC6  0083               	movwf	3
  4553  0EC7  0EFE               	swapf	btemp,f
  4554  0EC8  0E7E               	swapf	btemp,w
  4555  0EC9  0009               	retfie
  4556  0ECA                     __end_of_ISR:	
  4557  007E                     btemp	set	126	;btemp
  4558  007E                     wtemp0	set	126
  4559                           
  4560                           	psect	intentry
  4561  0004                     __pintentry:	
  4562                           ;incstack = 0
  4563                           ; Regs used in _ISR: [wreg]
  4564                           
  4565  0004                     interrupt_function:	
  4566  007E                     saved_w	set	btemp
  4567  0004  00FE               	movwf	btemp
  4568  0005  0E03               	swapf	3,w
  4569  0006  00F1               	movwf	??_ISR+1
  4570  0007  080A               	movf	10,w
  4571  0008  00F2               	movwf	??_ISR+2
  4572  0009  120A  158A  2E5B   	ljmp	_ISR


Data Sizes:
    Strings     0
    Constant    0
    Data        0
    BSS         6
    Persistent  0
    Stack       0

Auto Spaces:
    Space          Size  Autos    Used
    COMMON           14      8      11
    BANK0            80     75      78
    BANK1            80      0       0
    BANK3            96      0       0
    BANK2            96      0       0

Pointer List with Targets:

    None.

Critical Paths under _main in COMMON

    _main->___awdiv
    ___fltol->___xxtofl
    ___flmul->__Umul8_16
    ___flmul->___xxtofl
    ___fladd->___xxtofl

Critical Paths under _ISR in COMMON

    None.

Critical Paths under _main in BANK0

    _main->___fltol
    ___fltol->___fladd
    ___flmul->___xxtofl
    ___fladd->___flmul

Critical Paths under _ISR in BANK0

    None.

Critical Paths under _main in BANK1

    None.

Critical Paths under _ISR in BANK1

    None.

Critical Paths under _main in BANK3

    None.

Critical Paths under _ISR in BANK3

    None.

Critical Paths under _main in BANK2

    None.

Critical Paths under _ISR in BANK2

    None.

Call Graph Tables:

 ---------------------------------------------------------------------------------
 (Depth) Function   	        Calls       Base Space   Used Autos Params    Refs
 ---------------------------------------------------------------------------------
 (0) _main                                                 8     8      0    6330
                                             67 BANK0      8     8      0
                         _ADC_CONFIG
                      _ADC_INTERRUPT
                     _I2C_Slave_Init
                            ___awdiv
                            ___fladd
                            ___flmul
                            ___fltol
                           ___xxtofl
 ---------------------------------------------------------------------------------
 (1) ___xxtofl                                            14    10      4     566
                                              3 COMMON     4     0      4
                                              0 BANK0     10    10      0
 ---------------------------------------------------------------------------------
 (1) ___fltol                                             11     7      4     305
                                             56 BANK0     11     7      4
                            ___fladd (ARG)
                            ___flmul (ARG)
                           ___xxtofl (ARG)
 ---------------------------------------------------------------------------------
 (1) ___flmul                                             26    18      8    2417
                                             10 BANK0     26    18      8
                          __Umul8_16
                           ___xxtofl (ARG)
 ---------------------------------------------------------------------------------
 (2) __Umul8_16                                            9     7      2     799
                                              3 COMMON     4     2      2
                                              0 BANK0      5     5      0
 ---------------------------------------------------------------------------------
 (1) ___fladd                                             20    12      8    2414
                                             36 BANK0     20    12      8
                            ___flmul (ARG)
                           ___xxtofl (ARG)
 ---------------------------------------------------------------------------------
 (1) ___awdiv                                              9     5      4     452
                                              3 COMMON     5     1      4
                                              0 BANK0      4     4      0
 ---------------------------------------------------------------------------------
 (1) _I2C_Slave_Init                                       1     1      0      22
                                              3 COMMON     1     1      0
 ---------------------------------------------------------------------------------
 (1) _ADC_INTERRUPT                                        0     0      0       0
 ---------------------------------------------------------------------------------
 (1) _ADC_CONFIG                                           4     3      1     120
                                              3 COMMON     4     3      1
 ---------------------------------------------------------------------------------
 Estimated maximum stack depth 2
 ---------------------------------------------------------------------------------
 (Depth) Function   	        Calls       Base Space   Used Autos Params    Refs
 ---------------------------------------------------------------------------------
 (3) _ISR                                                  3     3      0       0
                                              0 COMMON     3     3      0
 ---------------------------------------------------------------------------------
 Estimated maximum stack depth 3
 ---------------------------------------------------------------------------------

 Call Graph Graphs:

 _main (ROOT)
   _ADC_CONFIG
   _ADC_INTERRUPT
   _I2C_Slave_Init
   ___awdiv
   ___fladd
     ___flmul (ARG)
       __Umul8_16
       ___xxtofl (ARG)
     ___xxtofl (ARG)
   ___flmul
     __Umul8_16
     ___xxtofl (ARG)
   ___fltol
     ___fladd (ARG)
       ___flmul (ARG)
         __Umul8_16
         ___xxtofl (ARG)
       ___xxtofl (ARG)
     ___flmul (ARG)
       __Umul8_16
       ___xxtofl (ARG)
     ___xxtofl (ARG)
   ___xxtofl

 _ISR (ROOT)

 Address spaces:
Name               Size   Autos  Total    Cost      Usage
BITCOMMON            E      0       0       0        0.0%
EEDATA             100      0       0       0        0.0%
NULL                 0      0       0       0        0.0%
CODE                 0      0       0       0        0.0%
COMMON               E      8       B       1       78.6%
BITSFR0              0      0       0       1        0.0%
SFR0                 0      0       0       1        0.0%
BITSFR1              0      0       0       2        0.0%
SFR1                 0      0       0       2        0.0%
STACK                0      0       0       2        0.0%
ABS                  0      0      59       3        0.0%
BITBANK0            50      0       0       4        0.0%
BITSFR3              0      0       0       4        0.0%
SFR3                 0      0       0       4        0.0%
BANK0               50     4B      4E       5       97.5%
BITSFR2              0      0       0       5        0.0%
SFR2                 0      0       0       5        0.0%
BITBANK1            50      0       0       6        0.0%
BANK1               50      0       0       7        0.0%
BITBANK3            60      0       0       8        0.0%
BANK3               60      0       0       9        0.0%
BITBANK2            60      0       0      10        0.0%
BANK2               60      0       0      11        0.0%
DATA                 0      0      59      12        0.0%


Microchip Technology PIC Macro Assembler V2.10 build 88905656 
Symbol Table                                                                                   Fri Feb 28 23:36:26 2020

     __size_of_ADC_CONFIG 010B                         _z 0079               __CFG_CP$OFF 0000  
         ADC_CONFIG@canal 0076               _SSPSTATbits 0094                        _BF 04A0  
                      l75 0FF7              ___awdiv@sign 0021       __Umul8_16@word_mpld 0022  
                     l110 065E                       l111 066B                       l103 0612  
                     l112 0678                       l121 06FC                       l113 0685  
                     l105 061D                       l122 070E                       l114 0692  
                     l106 062A                       l115 069F                       l107 0637  
                     l116 06AC                       l108 0644                       l117 06B9  
                     l109 0651                       l125 07FC                       l119 06FA  
                     l180 0DF1                       l601 05F7                       l602 0603  
                     l419 0E5A                       l452 0F45                       l462 0F45  
                     l712 07E1                       l714 07F3                       l706 0794  
                     l563 0486                       l459 0F30                       l707 07A0  
                     l580 0551                       l572 0603                       l565 045D  
                     l661 02E7                       l590 0597                       l559 03DF  
                     l655 037B                       l584 0575                       l593 05D5  
                     l667 036F                       l693 0733                       l695 07CA  
                     l699 0778                       _GIE 005F                       _RD1 0041  
            __CFG_CPD$OFF 0000                       _ISR 0E5B                       _adc 007A  
        ADC_CONFIG@justif 0073              ___flmul@aexp 003C              ___flmul@bexp 003D  
            ___flmul@sign 0037              ___flmul@temp 0042              ___flmul@prod 003E  
            __CFG_LVP$OFF 0000                      ?_ISR 0070              ___fltol@exp1 0062  
                    l2000 0349                      l2010 0368                      l2002 0353  
                    l2012 0373                      l2004 0355                      l2006 0363  
                    l2008 0367                      l2200 07A2                      l2202 07B8  
                    l1500 07EA                      l2204 07BD                      l2220 0F57  
                    l2212 0F46                      l1510 0DE8                      l1502 07EF  
                    l2206 07C1                      l2230 0FDB                      l2222 0F5E  
                    l2214 0F4E                      l1520 0605                      l1600 07F4  
                    l1512 0DE9                      l2208 07C2                      l2232 0FEF  
                    l2224 0F63                      l2216 0F50                      l1530 0619  
                    l1522 0609                      l1514 0DEA                      l1506 0DD9  
                    l1610 0E00                      l1602 0DF2                      l2170 0717  
                    l2234 0FF5                      l2226 0F66                      l2218 0F51  
                    l1540 063A                      l1532 0620                      l1524 060D  
                    l1516 0DEB                      l1508 0DE7                      l1620 0E15  
                    l1612 0E04                      l1604 0DF5                      l1700 03A3  
                    l2180 0744                      l2172 071B                      l2236 0FF8  
                    l2228 0FB1                      l1550 065A                      l1542 0640  
                    l1534 0626                      l1526 0610                      l1518 0DEE  
                    l1630 0E38                      l1622 0E18                      l1614 0E09  
                    l1606 0DF9                      l1710 03BD                      l1702 03AB  
                    l2190 076F                      l2182 0749                      l2174 072B  
                    l2280 0706                      l1560 067B                      l1552 0661  
                    l1544 0647                      l1536 062D                      l1528 0615  
                    l1640 0E51                      l1632 0E3E                      l1624 0E1F  
                    l1616 0E0D                      l1608 0DFE                      l1800 04C7  
                    l1720 03D4                      l1712 03C1                      l1704 03B0  
                    l2192 077F                      l2184 0756                      l2176 073B  
                    l2168 0712                      l1570 069B                      l1562 0681  
                    l1554 0667                      l1546 064D                      l1538 0633  
                    l1642 0E56                      l1634 0E3F                      l1626 0E23  
                    l1618 0E0F                      l1810 052F                      l1802 04D0  
                    l1730 03ED                      l1722 03D5                      l1714 03C2  
                    l1706 03B6                      l2194 078A                      l2186 075D  
                    l1580 06BC                      l1572 06A2                      l1564 0688  
                    l1556 066E                      l1548 0654                      l1636 0E46  
                    l1628 0E27                      l1812 0534                      l1804 04D5  
                    l1740 0401                      l1732 03F1                      l1716 03C7  
                    l1724 03D7                      l1708 03B7                      l1492 07CE  
                    l1900 0058                      l1660 0F00                      l1652 0EE0  
                    l2196 078E                      l2188 0761                      l2278 06CE  
                    l1582 06C2                      l1574 06A8                      l1566 068E  
                    l1558 0674                      l1590 06FE                      l1638 0E4C  
                    l1830 057C                      l1822 0567                      l1806 04EB  
                    l1814 0543                      l1750 0415                      l1742 0405  
                    l1734 03F5                      l1726 03E5                      l1718 03CC  
                    l1494 07D0                      l1910 006D                      l1902 0059  
                    l1662 0F04                      l1670 0F1E                      l1654 0EF5  
                    l1646 0ECA                      l2198 0798                      l1576 06AF  
                    l1568 0695                      l1840 058A                      l1832 057E  
                    l1824 0570                      l1816 0559                      l1808 0529  
                    l1752 0419                      l1744 0409                      l1736 03F9  
                    l1728 03E9                      l1760 0429                      l1496 07D7  
                    l1920 0088                      l1912 0075                      l1904 005E  
                    l1680 0F3A                      l1656 0EF6                      l1648 0ED7  
                    l1578 06B5                      l1586 06C6                      l1850 05A1  
                    l1842 058E                      l1834 0583                      l1826 0574  
                    l1818 055E                      l1770 046C                      l1762 042A  
                    l1754 041D                      l1746 040D                      l1738 03FD  
                    l1690 038E                      l1682 037C                      l1498 07DB  
                    l1930 010A                      l1922 0098                      l1914 007A  
                    l1906 0063                      l1658 0EFE                      l1860 05DF  
                    l1852 05AF                      l1844 0594                      l1828 0579  
                    l1836 0585                      l1780 048A                      l1772 0470  
                    l1764 0441                      l1756 0421                      l1748 0411  
                    l1692 0393                      l1684 0383                      l1940 0178  
                    l1932 0126                      l1924 00A5                      l1916 007F  
                    l1908 006B                      l1676 0F25                      l1668 0F0C  
                    l1870 05F3                      l1862 05E7                      l1854 05B3  
                    l1790 04B3                      l1838 0589                      l1782 048F  
                    l1774 0471                      l1766 0461                      l1758 0425  
                    l1694 0398                      l1686 0389                      l1950 0208  
                    l1942 0188                      l1934 0142                      l1926 00C2  
                    l1678 0F35                      l1872 05FE                      l1864 05EC  
                    l1856 05D1                      l1848 059C                      l1792 04B7  
                    l1776 047A                      l1768 046A                      l1696 03A0  
                    l1688 038D                      l1960 029C                      l1952 0218  
                    l1944 01A5                      l1936 014B                      l1928 00DE  
                    l1880 0028                      l1874 0602                      l1866 05ED  
                    l1858 05DA                      l1794 04C0                      l1786 0498  
                    l1778 047E                      l1698 03A1                      l1970 02C1  
                    l1962 02AA                      l1954 0245                      l1946 01BE  
                    l1938 015B                      l1890 003F                      l1882 002C  
                    l1868 05F1                      l1796 04C2                      l1788 04AF  
                    l1980 02E4                      l1964 02B3                      l1972 02C7  
                    l1956 026B                      l1948 01DB                      l1892 0041  
                    l1884 002D                      l1876 001B                      l1798 04C6  
                    l1990 0303                      l1974 02CB                      l1966 02B7  
                    l1958 0293                      l1894 0049                      l1886 0032  
                    l1878 0022                      l1992 031C                      l1984 02EC  
                    l1976 02CC                      l1968 02B8                      l1896 004E  
                    l1888 0037                      l1986 02F1                      l1994 0322  
                    l1978 02D0                      l1898 0054                      l1996 032F  
                    l1988 02FF                      l1998 033A                      _ADIF 0066  
                    u2000 05DA                      u2001 05D9                      u2010 05DF  
                    u2011 05DE                      u2020 05EC                      u2100 0063  
                    u2021 05EB                      u2101 0062                      u2030 05F1  
                    u2110 007A                      u2031 05F0                      u2111 0079  
                    u1400 0E04                      u2040 0602                      u2120 007F  
                    u1401 0E03                      u2041 0601                      u2121 007E  
                    u1410 0E15                      u2050 002C                      u1411 0E14  
                    u2211 01CD                      u2131 00D0                      u2051 002B  
                    u2300 02B7                      u2212 01D4                      u2132 00D7  
                    u2060 0032                      u1500 0EEE                      u2301 02B6  
                    u2221 01FA                      u2213 01DB                      u2205 01A7  
                    u2141 00EC                      u2133 00DE                      u2061 0031  
                    u1430 0E27                      u2222 0201                      u2142 00F3  
                    u2070 0037                      u1510 0F04                      u1431 0E26  
                    u2231 0227                      u2223 0208                      u2151 0118  
                    u2143 00FA                      u2071 0036                      u1511 0F03  
                    u1600 0393                      u1360 07DB                      u2400 0349  
                    u2320 02CB                      u2240 0251                      u2232 022E  
                    u2152 011F                      u2080 0058                      u1520 0F0B  
                    u1425 0E19                      u1601 0392                      u1361 07DA  
                    u2401 0348                      u2321 02CA                      u2233 0235  
                    u2161 0134                      u2153 0126                      u2081 0057  
                    u1521 0F0A                      u1505 0EE9                      u1450 0E38  
                    u1610 0398                      u2410 0367                      u2330 02D0  
                    u2162 013B                      u2090 005E                      u1451 0E37  
                    u1611 0397                      u2411 0366                      u2331 02CF  
                    u2315 02BA                      u2251 025D                      u2163 0142  
                    u2091 005D                      u1700 044D                      u1620 03B6  
                    u1380 07EF                      u2340 02E4                      u2260 0279  
                    u2252 0264                      u1540 0F1D                      u1445 0E28  
                    u1621 03B5                      u1381 07EE                      u2405 0345  
                    u2341 02E3                      u2253 026B                      u2245 024C  
                    u2181 016A                      u1541 0F1C                      u1470 0E4C  
                    u1390 0DF9                      u1710 0461                      u1630 03C1  
                    u2350 02EB                      u2182 0171                      u1550 0F24  
                    u1471 0E4B                      u1455 0E34                      u1391 0DF8  
                    u1711 0460                      u1631 03C0                      u1375 07E2  
                    u2351 02EA                      u2271 0285                      u2191 0197  
                    u2183 0178                      u2175 0144                      u1551 0F23  
                    u1535 0F0D                      u1480 0E51                      u1800 04C6  
                    u1720 0470                      u1640 03C7                      u2360 02F1  
                    u2272 028C                      u2192 019E                      u1481 0E50  
                    u1465 0E40                      u1801 04C5                      u1721 046F  
                    u1641 03C6                      u2361 02F0                      u2273 0293  
                    u2265 0274                      u2193 01A5                      u1650 03CC  
                    u2370 0303                      u1570 0F35                      u1490 0ED7  
                    u1651 03CB                      u2371 0302                      u1571 0F34  
                    u1491 0ED6                      u1900 0579                      u1820 04EB  
                    u1740 0486                      u1660 03E5                      u2380 0312  
                    u1580 0F3A                      u1901 0578                      u1821 04EA  
                    u1741 0485                      u1661 03E4                      u2285 0295  
                    u1581 0F39                      u1565 0F27                      u1910 0583  
                    u1750 048A                      u1670 03E9                      u1590 038D  
                    u2390 032F                      u2710 075C                      u1911 0582  
                    u1831 0502                      u1823 04E7                      u1815 04C9  
                    u1751 0489                      u1735 0473                      u1671 03E8  
                    u1591 038C                      u2391 032E                      u2295 02AC  
                    u2711 075B                      u1920 0589                      u1840 0516  
                    u1832 0503                      u1760 048F                      u1680 0441  
                    u2800 07C1                      u1921 0588                      u1841 0517  
                    u1833 0508                      u1761 048E                      u1681 0440  
                    u2385 030D                      u2801 07C0                      u2705 074E  
                    u1930 058E                      u1850 0534                      u1842 051C  
                    u1834 0509                      u1690 044C                      u2730 077E  
                    u2810 0FF5                      u1931 058D                      u1851 0533  
                    u1843 051D                      u1835 050E                      u1771 04A1  
                    u1691 044A                      u2395 032B                      u2731 077D  
                    u2811 0FF4                      u1940 0594                      u1860 0559  
                    u1836 050F                      u1780 04B3                      u1772 04A8  
                    u1941 0593                      u1861 0558                      u1781 04B2  
                    u1773 04AF                      u1685 043D                      u2725 0770  
                    u1950 059B                      u1870 055E                      u1790 04B7  
                    u2750 078E                      u2670 0717                      u1951 059A  
                    u1871 055D                      u1791 04B6                      u2751 078D  
                    u2671 0716                      u1960 05A1                      u2760 0794  
                    u2680 071B                      u1961 05A0                      u2761 0793  
                    u2745 0783                      u2681 071A                      u1970 05B3  
                    u1890 0574                      u2770 0798                      u2690 073B  
                    u1971 05B2                      u1891 0573                      u2771 0797  
                    u2691 073A                      _PEIE 005E                      u1980 05C2  
                    u2780 07AD                      u1885 0569                      u1990 05D1  
                    u2790 07BD                      u1991 05D0                      u2791 07BC  
                    u1985 05BD                      u2785 07A8                      i1l60 0E9F  
                    i1l61 0E8D                      i1l64 0EC0                      i1l66 0EBA  
                    i1l69 0EC3                      _TEMP 006C              __CFG_WRT$OFF 0000  
                    _adc1 006D    __size_of_ADC_INTERRUPT 0009                      _main 0F46  
                    btemp 007E                      start 000C             __CFG_IESO$OFF 0000  
                   ??_ISR 0070             ___fltol@sign1 0061           __end_of___fladd 0604  
                   ?_main 0070           __end_of___awdiv 0E5B             __CFG_WDTE$OFF 0000  
         __end_of___flmul 037C           __end_of___fltol 0F46                     _ANSEL 0188  
         ___awdiv@divisor 0073           ___awdiv@counter 0020                     _TEMPA 006B  
                   _TRISA 0085                     _TRISB 0086                     _TRISC 0087  
                   _TRISD 0088                     _SSPIE 0463                     _SSPIF 0063  
          __CFG_FCMEN$OFF 0000            __CFG_BOREN$OFF 0000                     pclath 000A  
                   status 0003                     wtemp0 007E            __CFG_MCLRE$OFF 0000  
         __initialization 000F              __end_of_main 1000             _ADC_INTERRUPT 07F4  
                  ??_main 0063              ??_ADC_CONFIG 0074                    _ADRESH 001E  
        ___awdiv@dividend 0075                    _ANSELH 0189                    i1l2100 0EB4  
                  i1l2060 0E5B                    i1l2070 0E6B                    i1l2062 0E61  
                  i1l2080 0E7A                    i1l2072 0E70                    i1l2064 0E65  
                  i1l2090 0E8C                    i1l2082 0E7B                    i1l2074 0E74  
                  i1l2066 0E66                    i1l2092 0E93                    i1l2084 0E81  
                  i1l2076 0E78                    i1l2068 0E67                    i1l2094 0EA3  
                  i1l2086 0E85                    i1l2078 0E79                    i1l2096 0EA7  
                  i1l2088 0E8B                    i1l2098 0EAD                    u260_20 0E81  
                  u260_21 0E80                    u261_20 0E85                    u261_21 0E84  
                  u262_20 0E93                    u262_21 0E92                    u263_20 0EA3  
                  u263_21 0EA2                    u264_20 0EA7                    u256_20 0E61  
                  u264_21 0EA6                    u256_21 0E60                    u265_20 0EC0  
                  u257_20 0E6B                    u265_21 0EBF                    u257_21 0E6A  
                  u258_20 0E70                    u258_21 0E6F                    u282_27 0E9B  
                  u259_20 0E74                    u259_21 0E73                    u283_27 0EB7  
                  _SSPADD 0093                    _TRISC3 043B                    _TRISC4 043C  
                  _SSPBUF 0013                    _SSPCON 0014          __end_of___xxtofl 07CB  
          __CFG_PWRTE$OFF 0000                 ??___fladd 004C        __end_of_ADC_CONFIG 070F  
               ??___awdiv 0077                 ??___flmul 0032                 ??___fltol 005C  
          ?_ADC_INTERRUPT 0070          ___awdiv@quotient 0022        __size_of__Umul8_16 0029  
                  saved_w 007E              ___xxtofl@arg 0026              ___xxtofl@exp 0025  
            ___xxtofl@val 0073   __end_of__initialization 0017                ___fltol@f1 0058  
          __pcstackCOMMON 0070   __size_of_I2C_Slave_Init 001A     I2C_Slave_Init@address 0073  
              __pbssBANK0 006B         __end_of__Umul8_16 07F4                __pmaintext 0F46  
         ??_ADC_INTERRUPT 0073                __pintentry 0004                 ?___xxtofl 0073  
                 _SSPCON2 0091                   _SSPSTAT 0094                   ___fladd 037C  
                 ___awdiv 0DF2                   ___flmul 001B                   ___fltol 0ECA  
               _ANSELbits 0188                   __ptext1 070F                   __ptext2 0ECA  
                 __ptext3 001B                   __ptext4 07CB                   __ptext5 037C  
                 __ptext6 0DF2                   __ptext7 0DD8                   __ptext8 07F4  
                 __ptext9 0604              __size_of_ISR 006F                ??___xxtofl 0020  
    end_of_initialization 0017            _I2C_Slave_Init 0DD8               ___fladd@grs 0057  
           ___xxtofl@sign 0024                 _TRISAbits 0085                 _TRISBbits 0086  
               _TRISCbits 0087                 _TRISEbits 0089               ___flmul@grs 0038  
  __end_of_I2C_Slave_Init 0DF2       start_initialization 000F               __end_of_ISR 0ECA  
__CFG_FOSC$INTRC_NOCLKOUT 0000           ?_I2C_Slave_Init 0070                 __Umul8_16 07CB  
               ___fladd@a 0048                 ___fladd@b 0044                 ___flmul@a 002E  
               ___flmul@b 002A               __pbssCOMMON 0078                 ___latbits 0002  
           __pcstackBANK0 0020         __size_of___xxtofl 00BC                 _main$1220 0067  
                ?___fladd 0044                  ?___awdiv 0073                  ?___flmul 002A  
                ?___fltol 0058                ?__Umul8_16 0073     __end_of_ADC_INTERRUPT 07FD  
       interrupt_function 0004                  _PIE1bits 008C                  _PIR1bits 000C  
              _ADCON0bits 001F                _ADCON1bits 009F                _ADC_CONFIG 0604  
             ??__Umul8_16 0075          __size_of___fladd 0288          __size_of___awdiv 0069  
        __size_of___flmul 0361          __size_of___fltol 007C                _ANSELHbits 0189  
                ___xxtofl 070F                  _eleccion 0078                  __ptext10 0E5B  
       __CFG_BOR4V$BOR40V 0000          ??_I2C_Slave_Init 0073             __size_of_main 00BA  
              _INTCONbits 000B               ?_ADC_CONFIG 0073                  intlevel1 0000  
  __Umul8_16@multiplicand 0073               _SSPCON2bits 0091             ___fladd@signs 0054  
            ___fladd@aexp 0055              ___fladd@bexp 0056      __Umul8_16@multiplier 0024  
              _SSPCONbits 0014         __Umul8_16@product 0020  
