

Microchip Technology PIC LITE Macro Assembler V2.00 build -1524193055 
                                                                                               Sat Feb 29 09:36:09 2020

Microchip Technology Omniscient Code Generator v2.00 (Free mode) build 20180527130849
     1  0000                     
      + 0000                     
     2                           ; Version 2.00
     3                           ; Generated 27/05/2018 GMT
     4                           
     5                           ; 
     6                           ; Copyright © 2018, Microchip Technology Inc. and its subsidiaries ("Microchip")
     7                           ; All rights reserved.
     8                           ; 
     9                           ; This software is developed by Microchip Technology Inc. and its subsidiaries ("Microch
                                 ip").
    10                           ; 
    11                           ; Redistribution and use in source and binary forms, with or without modification, are
    12                           ; permitted provided that the following conditions are met:
    13                           ; 
    14                           ;     1. Redistributions of source code must retain the above copyright notice, this lis
                                 t of
    15                           ;        conditions and the following disclaimer.
    16                           ; 
    17                           ;     2. Redistributions in binary form must reproduce the above copyright notice, this 
                                 list
    18                           ;        of conditions and the following disclaimer in the documentation and/or other
    19                           ;        materials provided with the distribution.
    20                           ; 
    21                           ;     3. Microchip's name may not be used to endorse or promote products derived from th
                                 is
    22                           ;        software without specific prior written permission.
    23                           ; 
    24                           ; THIS SOFTWARE IS PROVIDED BY MICROCHIP "AS IS" AND ANY EXPRESS OR IMPLIED WARRANTIES,

    25                           ; INCLUDING, BUT NOT LIMITED TO, THE IMPLIED WARRANTIES OF MERCHANTABILITY AND FITNESS F
                                 OR
    26                           ; PURPOSE ARE DISCLAIMED.  IN NO EVENT SHALL MICROCHIP BE LIABLE FOR ANY DIRECT, INDIREC
                                 T,
    27                           ; INCIDENTAL, SPECIAL, EXEMPLARY, OR CONSEQUENTIAL DAMAGES (INCLUDING BUT NOT LIMITED TO
                                 
    28                           ; PROCUREMENT OF SUBSTITUTE GOODS OR SERVICES; LOSS OF USE, DATA OR PROFITS; OR BUSINESS
                                 
    29                           ; INTERRUPTION) HOWSOEVER CAUSED AND ON ANY THEORY OF LIABILITY, WHETHER IN CONTRACT, ST
                                 RICT
    30                           ; LIABILITY, OR TORT (INCLUDING NEGLIGENCE OR OTHERWISE) ARISING IN ANY WAY OUT OF THE U
                                 SE OF
    31                           ; THIS SOFTWARE, EVEN IF ADVISED OF THE POSSIBILITY OF SUCH DAMAGE.
    32                           ; 
    33                           
    34                           
    35                           ; 
    36                           ; Code-generator required, PIC16F887 Definitions
    37                           ; 
    38  0004                     fsr0 equ 04h
    39  0004                     indf equ 00h
    40  0000                     indf0 equ 00h
    41  0000                     pc equ 02h
    42  0002                     pcl equ 02h
    43  0002                     pclath equ 0Ah
    44  000A                     status equ 03h
    45  0003                     
     2                           opt pagewidth 120
     3  0000                     byte0	macro	val
     4                           	(getbyte(val,0))
     5                           endm
     6  0000                     byte1	macro	val
     7                           	(getbyte(val,1))
     8                           endm
     9  0000                     byte2	macro	val
    10                           	(getbyte(val,2))
    11                           endm
    12  0000                     byte3	macro	val
    13                           	(getbyte(val,3))
    14                           endm
    15  0000                     byte4	macro	val
    16                           	(getbyte(val,4))
    17                           endm
    18  0000                     byte5	macro	val
    19                           	(getbyte(val,5))
    20                           endm
    21  0000                     byte6	macro	val
    22                           	(getbyte(val,6))
    23                           endm
    24  0000                     byte7	macro	val
    25                           	(getbyte(val,7))
    26                           endm
    27  0000                     getword	macro	val,pos
    28                           	(((val) >> (8 * pos)) and 0xffff)
    29                           endm
    30  0000                     word0	macro	val
    31                           	(getword(val,0))
    32                           endm
    33  0000                     word1	macro	val
    34                           	(getword(val,2))
    35                           endm
    36  0000                     word2	macro	val
    37                           	(getword(val,4))
    38                           endm
    39  0000                     word3	macro	val
    40                           	(getword(val,6))
    41                           endm
    42  0000                     gettword	macro	val,pos
    43                           	(((val) >> (8 * pos)) and 0xffffff)
    44                           endm
    45  0000                     tword0	macro	val
    46                           	(gettword(val,0))
    47                           endm
    48  0000                     tword1	macro	val
    49                           	(gettword(val,3))
    50                           endm
    51  0000                     tword2	macro	val
    52                           	(gettword(val,6))
    53                           endm
    54  0000                     getdword	macro	val,pos
    55                           	(((val) >> (8 * pos)) and 0xffffffff)
    56                           endm
    57  0000                     dword0	macro	val
    58                           	(getdword(val,0))
    59                           endm
    60  0000                     dword1	macro	val
    61                           	(getdword(val,4))
    62                           endm
    63  0000                     clrc	macro
    64                           	bcf	3,0
    65                           	endm
    66  0000                     clrz	macro
    67                           	bcf	3,2
    68                           	endm
    69  0000                     setc	macro
    70                           	bsf	3,0
    71                           	endm
    72  0000                     setz	macro
    73                           	bsf	3,2
    74                           	endm
    75  0000                     skipc	macro
    76                           	btfss	3,0
    77                           	endm
    78  0000                     skipz	macro
    79                           	btfss	3,2
    80                           	endm
    81  0000                     skipnc	macro
    82                           	btfsc	3,0
    83                           	endm
    84  0000                     skipnz	macro
    85                           	btfsc	3,2
    86                           	endm
    87  0000                     # 54 "C:\Program Files (x86)\Microchip\xc8\v2.00\pic\include\pic16f887.h"
    88                           INDF equ 00h ;# 
    89  0000                     # 61 "C:\Program Files (x86)\Microchip\xc8\v2.00\pic\include\pic16f887.h"
    90                           TMR0 equ 01h ;# 
    91  0001                     # 68 "C:\Program Files (x86)\Microchip\xc8\v2.00\pic\include\pic16f887.h"
    92                           PCL equ 02h ;# 
    93  0002                     # 75 "C:\Program Files (x86)\Microchip\xc8\v2.00\pic\include\pic16f887.h"
    94                           STATUS equ 03h ;# 
    95  0003                     # 161 "C:\Program Files (x86)\Microchip\xc8\v2.00\pic\include\pic16f887.h"
    96                           FSR equ 04h ;# 
    97  0004                     # 168 "C:\Program Files (x86)\Microchip\xc8\v2.00\pic\include\pic16f887.h"
    98                           PORTA equ 05h ;# 
    99  0005                     # 230 "C:\Program Files (x86)\Microchip\xc8\v2.00\pic\include\pic16f887.h"
   100                           PORTB equ 06h ;# 
   101  0006                     # 292 "C:\Program Files (x86)\Microchip\xc8\v2.00\pic\include\pic16f887.h"
   102                           PORTC equ 07h ;# 
   103  0007                     # 354 "C:\Program Files (x86)\Microchip\xc8\v2.00\pic\include\pic16f887.h"
   104                           PORTD equ 08h ;# 
   105  0008                     # 416 "C:\Program Files (x86)\Microchip\xc8\v2.00\pic\include\pic16f887.h"
   106                           PORTE equ 09h ;# 
   107  0009                     # 454 "C:\Program Files (x86)\Microchip\xc8\v2.00\pic\include\pic16f887.h"
   108                           PCLATH equ 0Ah ;# 
   109  000A                     # 461 "C:\Program Files (x86)\Microchip\xc8\v2.00\pic\include\pic16f887.h"
   110                           INTCON equ 0Bh ;# 
   111  000B                     # 539 "C:\Program Files (x86)\Microchip\xc8\v2.00\pic\include\pic16f887.h"
   112                           PIR1 equ 0Ch ;# 
   113  000C                     # 595 "C:\Program Files (x86)\Microchip\xc8\v2.00\pic\include\pic16f887.h"
   114                           PIR2 equ 0Dh ;# 
   115  000D                     # 652 "C:\Program Files (x86)\Microchip\xc8\v2.00\pic\include\pic16f887.h"
   116                           TMR1 equ 0Eh ;# 
   117  000E                     # 659 "C:\Program Files (x86)\Microchip\xc8\v2.00\pic\include\pic16f887.h"
   118                           TMR1L equ 0Eh ;# 
   119  000E                     # 666 "C:\Program Files (x86)\Microchip\xc8\v2.00\pic\include\pic16f887.h"
   120                           TMR1H equ 0Fh ;# 
   121  000F                     # 673 "C:\Program Files (x86)\Microchip\xc8\v2.00\pic\include\pic16f887.h"
   122                           T1CON equ 010h ;# 
   123  0010                     # 767 "C:\Program Files (x86)\Microchip\xc8\v2.00\pic\include\pic16f887.h"
   124                           TMR2 equ 011h ;# 
   125  0011                     # 774 "C:\Program Files (x86)\Microchip\xc8\v2.00\pic\include\pic16f887.h"
   126                           T2CON equ 012h ;# 
   127  0012                     # 845 "C:\Program Files (x86)\Microchip\xc8\v2.00\pic\include\pic16f887.h"
   128                           SSPBUF equ 013h ;# 
   129  0013                     # 852 "C:\Program Files (x86)\Microchip\xc8\v2.00\pic\include\pic16f887.h"
   130                           SSPCON equ 014h ;# 
   131  0014                     # 922 "C:\Program Files (x86)\Microchip\xc8\v2.00\pic\include\pic16f887.h"
   132                           CCPR1 equ 015h ;# 
   133  0015                     # 929 "C:\Program Files (x86)\Microchip\xc8\v2.00\pic\include\pic16f887.h"
   134                           CCPR1L equ 015h ;# 
   135  0015                     # 936 "C:\Program Files (x86)\Microchip\xc8\v2.00\pic\include\pic16f887.h"
   136                           CCPR1H equ 016h ;# 
   137  0016                     # 943 "C:\Program Files (x86)\Microchip\xc8\v2.00\pic\include\pic16f887.h"
   138                           CCP1CON equ 017h ;# 
   139  0017                     # 1040 "C:\Program Files (x86)\Microchip\xc8\v2.00\pic\include\pic16f887.h"
   140                           RCSTA equ 018h ;# 
   141  0018                     # 1135 "C:\Program Files (x86)\Microchip\xc8\v2.00\pic\include\pic16f887.h"
   142                           TXREG equ 019h ;# 
   143  0019                     # 1142 "C:\Program Files (x86)\Microchip\xc8\v2.00\pic\include\pic16f887.h"
   144                           RCREG equ 01Ah ;# 
   145  001A                     # 1149 "C:\Program Files (x86)\Microchip\xc8\v2.00\pic\include\pic16f887.h"
   146                           CCPR2 equ 01Bh ;# 
   147  001B                     # 1156 "C:\Program Files (x86)\Microchip\xc8\v2.00\pic\include\pic16f887.h"
   148                           CCPR2L equ 01Bh ;# 
   149  001B                     # 1163 "C:\Program Files (x86)\Microchip\xc8\v2.00\pic\include\pic16f887.h"
   150                           CCPR2H equ 01Ch ;# 
   151  001C                     # 1170 "C:\Program Files (x86)\Microchip\xc8\v2.00\pic\include\pic16f887.h"
   152                           CCP2CON equ 01Dh ;# 
   153  001D                     # 1240 "C:\Program Files (x86)\Microchip\xc8\v2.00\pic\include\pic16f887.h"
   154                           ADRESH equ 01Eh ;# 
   155  001E                     # 1247 "C:\Program Files (x86)\Microchip\xc8\v2.00\pic\include\pic16f887.h"
   156                           ADCON0 equ 01Fh ;# 
   157  001F                     # 1348 "C:\Program Files (x86)\Microchip\xc8\v2.00\pic\include\pic16f887.h"
   158                           OPTION_REG equ 081h ;# 
   159  0081                     # 1418 "C:\Program Files (x86)\Microchip\xc8\v2.00\pic\include\pic16f887.h"
   160                           TRISA equ 085h ;# 
   161  0085                     # 1480 "C:\Program Files (x86)\Microchip\xc8\v2.00\pic\include\pic16f887.h"
   162                           TRISB equ 086h ;# 
   163  0086                     # 1542 "C:\Program Files (x86)\Microchip\xc8\v2.00\pic\include\pic16f887.h"
   164                           TRISC equ 087h ;# 
   165  0087                     # 1604 "C:\Program Files (x86)\Microchip\xc8\v2.00\pic\include\pic16f887.h"
   166                           TRISD equ 088h ;# 
   167  0088                     # 1666 "C:\Program Files (x86)\Microchip\xc8\v2.00\pic\include\pic16f887.h"
   168                           TRISE equ 089h ;# 
   169  0089                     # 1704 "C:\Program Files (x86)\Microchip\xc8\v2.00\pic\include\pic16f887.h"
   170                           PIE1 equ 08Ch ;# 
   171  008C                     # 1760 "C:\Program Files (x86)\Microchip\xc8\v2.00\pic\include\pic16f887.h"
   172                           PIE2 equ 08Dh ;# 
   173  008D                     # 1817 "C:\Program Files (x86)\Microchip\xc8\v2.00\pic\include\pic16f887.h"
   174                           PCON equ 08Eh ;# 
   175  008E                     # 1864 "C:\Program Files (x86)\Microchip\xc8\v2.00\pic\include\pic16f887.h"
   176                           OSCCON equ 08Fh ;# 
   177  008F                     # 1929 "C:\Program Files (x86)\Microchip\xc8\v2.00\pic\include\pic16f887.h"
   178                           OSCTUNE equ 090h ;# 
   179  0090                     # 1981 "C:\Program Files (x86)\Microchip\xc8\v2.00\pic\include\pic16f887.h"
   180                           SSPCON2 equ 091h ;# 
   181  0091                     # 2043 "C:\Program Files (x86)\Microchip\xc8\v2.00\pic\include\pic16f887.h"
   182                           PR2 equ 092h ;# 
   183  0092                     # 2050 "C:\Program Files (x86)\Microchip\xc8\v2.00\pic\include\pic16f887.h"
   184                           SSPADD equ 093h ;# 
   185  0093                     # 2057 "C:\Program Files (x86)\Microchip\xc8\v2.00\pic\include\pic16f887.h"
   186                           SSPMSK equ 093h ;# 
   187  0093                     # 2062 "C:\Program Files (x86)\Microchip\xc8\v2.00\pic\include\pic16f887.h"
   188                           MSK equ 093h ;# 
   189  0093                     # 2179 "C:\Program Files (x86)\Microchip\xc8\v2.00\pic\include\pic16f887.h"
   190                           SSPSTAT equ 094h ;# 
   191  0094                     # 2348 "C:\Program Files (x86)\Microchip\xc8\v2.00\pic\include\pic16f887.h"
   192                           WPUB equ 095h ;# 
   193  0095                     # 2418 "C:\Program Files (x86)\Microchip\xc8\v2.00\pic\include\pic16f887.h"
   194                           IOCB equ 096h ;# 
   195  0096                     # 2488 "C:\Program Files (x86)\Microchip\xc8\v2.00\pic\include\pic16f887.h"
   196                           VRCON equ 097h ;# 
   197  0097                     # 2558 "C:\Program Files (x86)\Microchip\xc8\v2.00\pic\include\pic16f887.h"
   198                           TXSTA equ 098h ;# 
   199  0098                     # 2644 "C:\Program Files (x86)\Microchip\xc8\v2.00\pic\include\pic16f887.h"
   200                           SPBRG equ 099h ;# 
   201  0099                     # 2706 "C:\Program Files (x86)\Microchip\xc8\v2.00\pic\include\pic16f887.h"
   202                           SPBRGH equ 09Ah ;# 
   203  009A                     # 2776 "C:\Program Files (x86)\Microchip\xc8\v2.00\pic\include\pic16f887.h"
   204                           PWM1CON equ 09Bh ;# 
   205  009B                     # 2846 "C:\Program Files (x86)\Microchip\xc8\v2.00\pic\include\pic16f887.h"
   206                           ECCPAS equ 09Ch ;# 
   207  009C                     # 2928 "C:\Program Files (x86)\Microchip\xc8\v2.00\pic\include\pic16f887.h"
   208                           PSTRCON equ 09Dh ;# 
   209  009D                     # 2972 "C:\Program Files (x86)\Microchip\xc8\v2.00\pic\include\pic16f887.h"
   210                           ADRESL equ 09Eh ;# 
   211  009E                     # 2979 "C:\Program Files (x86)\Microchip\xc8\v2.00\pic\include\pic16f887.h"
   212                           ADCON1 equ 09Fh ;# 
   213  009F                     # 3013 "C:\Program Files (x86)\Microchip\xc8\v2.00\pic\include\pic16f887.h"
   214                           WDTCON equ 0105h ;# 
   215  0105                     # 3066 "C:\Program Files (x86)\Microchip\xc8\v2.00\pic\include\pic16f887.h"
   216                           CM1CON0 equ 0107h ;# 
   217  0107                     # 3131 "C:\Program Files (x86)\Microchip\xc8\v2.00\pic\include\pic16f887.h"
   218                           CM2CON0 equ 0108h ;# 
   219  0108                     # 3196 "C:\Program Files (x86)\Microchip\xc8\v2.00\pic\include\pic16f887.h"
   220                           CM2CON1 equ 0109h ;# 
   221  0109                     # 3247 "C:\Program Files (x86)\Microchip\xc8\v2.00\pic\include\pic16f887.h"
   222                           EEDATA equ 010Ch ;# 
   223  010C                     # 3252 "C:\Program Files (x86)\Microchip\xc8\v2.00\pic\include\pic16f887.h"
   224                           EEDAT equ 010Ch ;# 
   225  010C                     # 3259 "C:\Program Files (x86)\Microchip\xc8\v2.00\pic\include\pic16f887.h"
   226                           EEADR equ 010Dh ;# 
   227  010D                     # 3266 "C:\Program Files (x86)\Microchip\xc8\v2.00\pic\include\pic16f887.h"
   228                           EEDATH equ 010Eh ;# 
   229  010E                     # 3273 "C:\Program Files (x86)\Microchip\xc8\v2.00\pic\include\pic16f887.h"
   230                           EEADRH equ 010Fh ;# 
   231  010F                     # 3280 "C:\Program Files (x86)\Microchip\xc8\v2.00\pic\include\pic16f887.h"
   232                           SRCON equ 0185h ;# 
   233  0185                     # 3337 "C:\Program Files (x86)\Microchip\xc8\v2.00\pic\include\pic16f887.h"
   234                           BAUDCTL equ 0187h ;# 
   235  0187                     # 3389 "C:\Program Files (x86)\Microchip\xc8\v2.00\pic\include\pic16f887.h"
   236                           ANSEL equ 0188h ;# 
   237  0188                     # 3451 "C:\Program Files (x86)\Microchip\xc8\v2.00\pic\include\pic16f887.h"
   238                           ANSELH equ 0189h ;# 
   239  0189                     # 3501 "C:\Program Files (x86)\Microchip\xc8\v2.00\pic\include\pic16f887.h"
   240                           EECON1 equ 018Ch ;# 
   241  018C                     # 3546 "C:\Program Files (x86)\Microchip\xc8\v2.00\pic\include\pic16f887.h"
   242                           EECON2 equ 018Dh ;# 
   243  018D                     # 54 "C:\Program Files (x86)\Microchip\xc8\v2.00\pic\include\pic16f887.h"
   244                           INDF equ 00h ;# 
   245  0000                     # 61 "C:\Program Files (x86)\Microchip\xc8\v2.00\pic\include\pic16f887.h"
   246                           TMR0 equ 01h ;# 
   247  0001                     # 68 "C:\Program Files (x86)\Microchip\xc8\v2.00\pic\include\pic16f887.h"
   248                           PCL equ 02h ;# 
   249  0002                     # 75 "C:\Program Files (x86)\Microchip\xc8\v2.00\pic\include\pic16f887.h"
   250                           STATUS equ 03h ;# 
   251  0003                     # 161 "C:\Program Files (x86)\Microchip\xc8\v2.00\pic\include\pic16f887.h"
   252                           FSR equ 04h ;# 
   253  0004                     # 168 "C:\Program Files (x86)\Microchip\xc8\v2.00\pic\include\pic16f887.h"
   254                           PORTA equ 05h ;# 
   255  0005                     # 230 "C:\Program Files (x86)\Microchip\xc8\v2.00\pic\include\pic16f887.h"
   256                           PORTB equ 06h ;# 
   257  0006                     # 292 "C:\Program Files (x86)\Microchip\xc8\v2.00\pic\include\pic16f887.h"
   258                           PORTC equ 07h ;# 
   259  0007                     # 354 "C:\Program Files (x86)\Microchip\xc8\v2.00\pic\include\pic16f887.h"
   260                           PORTD equ 08h ;# 
   261  0008                     # 416 "C:\Program Files (x86)\Microchip\xc8\v2.00\pic\include\pic16f887.h"
   262                           PORTE equ 09h ;# 
   263  0009                     # 454 "C:\Program Files (x86)\Microchip\xc8\v2.00\pic\include\pic16f887.h"
   264                           PCLATH equ 0Ah ;# 
   265  000A                     # 461 "C:\Program Files (x86)\Microchip\xc8\v2.00\pic\include\pic16f887.h"
   266                           INTCON equ 0Bh ;# 
   267  000B                     # 539 "C:\Program Files (x86)\Microchip\xc8\v2.00\pic\include\pic16f887.h"
   268                           PIR1 equ 0Ch ;# 
   269  000C                     # 595 "C:\Program Files (x86)\Microchip\xc8\v2.00\pic\include\pic16f887.h"
   270                           PIR2 equ 0Dh ;# 
   271  000D                     # 652 "C:\Program Files (x86)\Microchip\xc8\v2.00\pic\include\pic16f887.h"
   272                           TMR1 equ 0Eh ;# 
   273  000E                     # 659 "C:\Program Files (x86)\Microchip\xc8\v2.00\pic\include\pic16f887.h"
   274                           TMR1L equ 0Eh ;# 
   275  000E                     # 666 "C:\Program Files (x86)\Microchip\xc8\v2.00\pic\include\pic16f887.h"
   276                           TMR1H equ 0Fh ;# 
   277  000F                     # 673 "C:\Program Files (x86)\Microchip\xc8\v2.00\pic\include\pic16f887.h"
   278                           T1CON equ 010h ;# 
   279  0010                     # 767 "C:\Program Files (x86)\Microchip\xc8\v2.00\pic\include\pic16f887.h"
   280                           TMR2 equ 011h ;# 
   281  0011                     # 774 "C:\Program Files (x86)\Microchip\xc8\v2.00\pic\include\pic16f887.h"
   282                           T2CON equ 012h ;# 
   283  0012                     # 845 "C:\Program Files (x86)\Microchip\xc8\v2.00\pic\include\pic16f887.h"
   284                           SSPBUF equ 013h ;# 
   285  0013                     # 852 "C:\Program Files (x86)\Microchip\xc8\v2.00\pic\include\pic16f887.h"
   286                           SSPCON equ 014h ;# 
   287  0014                     # 922 "C:\Program Files (x86)\Microchip\xc8\v2.00\pic\include\pic16f887.h"
   288                           CCPR1 equ 015h ;# 
   289  0015                     # 929 "C:\Program Files (x86)\Microchip\xc8\v2.00\pic\include\pic16f887.h"
   290                           CCPR1L equ 015h ;# 
   291  0015                     # 936 "C:\Program Files (x86)\Microchip\xc8\v2.00\pic\include\pic16f887.h"
   292                           CCPR1H equ 016h ;# 
   293  0016                     # 943 "C:\Program Files (x86)\Microchip\xc8\v2.00\pic\include\pic16f887.h"
   294                           CCP1CON equ 017h ;# 
   295  0017                     # 1040 "C:\Program Files (x86)\Microchip\xc8\v2.00\pic\include\pic16f887.h"
   296                           RCSTA equ 018h ;# 
   297  0018                     # 1135 "C:\Program Files (x86)\Microchip\xc8\v2.00\pic\include\pic16f887.h"
   298                           TXREG equ 019h ;# 
   299  0019                     # 1142 "C:\Program Files (x86)\Microchip\xc8\v2.00\pic\include\pic16f887.h"
   300                           RCREG equ 01Ah ;# 
   301  001A                     # 1149 "C:\Program Files (x86)\Microchip\xc8\v2.00\pic\include\pic16f887.h"
   302                           CCPR2 equ 01Bh ;# 
   303  001B                     # 1156 "C:\Program Files (x86)\Microchip\xc8\v2.00\pic\include\pic16f887.h"
   304                           CCPR2L equ 01Bh ;# 
   305  001B                     # 1163 "C:\Program Files (x86)\Microchip\xc8\v2.00\pic\include\pic16f887.h"
   306                           CCPR2H equ 01Ch ;# 
   307  001C                     # 1170 "C:\Program Files (x86)\Microchip\xc8\v2.00\pic\include\pic16f887.h"
   308                           CCP2CON equ 01Dh ;# 
   309  001D                     # 1240 "C:\Program Files (x86)\Microchip\xc8\v2.00\pic\include\pic16f887.h"
   310                           ADRESH equ 01Eh ;# 
   311  001E                     # 1247 "C:\Program Files (x86)\Microchip\xc8\v2.00\pic\include\pic16f887.h"
   312                           ADCON0 equ 01Fh ;# 
   313  001F                     # 1348 "C:\Program Files (x86)\Microchip\xc8\v2.00\pic\include\pic16f887.h"
   314                           OPTION_REG equ 081h ;# 
   315  0081                     # 1418 "C:\Program Files (x86)\Microchip\xc8\v2.00\pic\include\pic16f887.h"
   316                           TRISA equ 085h ;# 
   317  0085                     # 1480 "C:\Program Files (x86)\Microchip\xc8\v2.00\pic\include\pic16f887.h"
   318                           TRISB equ 086h ;# 
   319  0086                     # 1542 "C:\Program Files (x86)\Microchip\xc8\v2.00\pic\include\pic16f887.h"
   320                           TRISC equ 087h ;# 
   321  0087                     # 1604 "C:\Program Files (x86)\Microchip\xc8\v2.00\pic\include\pic16f887.h"
   322                           TRISD equ 088h ;# 
   323  0088                     # 1666 "C:\Program Files (x86)\Microchip\xc8\v2.00\pic\include\pic16f887.h"
   324                           TRISE equ 089h ;# 
   325  0089                     # 1704 "C:\Program Files (x86)\Microchip\xc8\v2.00\pic\include\pic16f887.h"
   326                           PIE1 equ 08Ch ;# 
   327  008C                     # 1760 "C:\Program Files (x86)\Microchip\xc8\v2.00\pic\include\pic16f887.h"
   328                           PIE2 equ 08Dh ;# 
   329  008D                     # 1817 "C:\Program Files (x86)\Microchip\xc8\v2.00\pic\include\pic16f887.h"
   330                           PCON equ 08Eh ;# 
   331  008E                     # 1864 "C:\Program Files (x86)\Microchip\xc8\v2.00\pic\include\pic16f887.h"
   332                           OSCCON equ 08Fh ;# 
   333  008F                     # 1929 "C:\Program Files (x86)\Microchip\xc8\v2.00\pic\include\pic16f887.h"
   334                           OSCTUNE equ 090h ;# 
   335  0090                     # 1981 "C:\Program Files (x86)\Microchip\xc8\v2.00\pic\include\pic16f887.h"
   336                           SSPCON2 equ 091h ;# 
   337  0091                     # 2043 "C:\Program Files (x86)\Microchip\xc8\v2.00\pic\include\pic16f887.h"
   338                           PR2 equ 092h ;# 
   339  0092                     # 2050 "C:\Program Files (x86)\Microchip\xc8\v2.00\pic\include\pic16f887.h"
   340                           SSPADD equ 093h ;# 
   341  0093                     # 2057 "C:\Program Files (x86)\Microchip\xc8\v2.00\pic\include\pic16f887.h"
   342                           SSPMSK equ 093h ;# 
   343  0093                     # 2062 "C:\Program Files (x86)\Microchip\xc8\v2.00\pic\include\pic16f887.h"
   344                           MSK equ 093h ;# 
   345  0093                     # 2179 "C:\Program Files (x86)\Microchip\xc8\v2.00\pic\include\pic16f887.h"
   346                           SSPSTAT equ 094h ;# 
   347  0094                     # 2348 "C:\Program Files (x86)\Microchip\xc8\v2.00\pic\include\pic16f887.h"
   348                           WPUB equ 095h ;# 
   349  0095                     # 2418 "C:\Program Files (x86)\Microchip\xc8\v2.00\pic\include\pic16f887.h"
   350                           IOCB equ 096h ;# 
   351  0096                     # 2488 "C:\Program Files (x86)\Microchip\xc8\v2.00\pic\include\pic16f887.h"
   352                           VRCON equ 097h ;# 
   353  0097                     # 2558 "C:\Program Files (x86)\Microchip\xc8\v2.00\pic\include\pic16f887.h"
   354                           TXSTA equ 098h ;# 
   355  0098                     # 2644 "C:\Program Files (x86)\Microchip\xc8\v2.00\pic\include\pic16f887.h"
   356                           SPBRG equ 099h ;# 
   357  0099                     # 2706 "C:\Program Files (x86)\Microchip\xc8\v2.00\pic\include\pic16f887.h"
   358                           SPBRGH equ 09Ah ;# 
   359  009A                     # 2776 "C:\Program Files (x86)\Microchip\xc8\v2.00\pic\include\pic16f887.h"
   360                           PWM1CON equ 09Bh ;# 
   361  009B                     # 2846 "C:\Program Files (x86)\Microchip\xc8\v2.00\pic\include\pic16f887.h"
   362                           ECCPAS equ 09Ch ;# 
   363  009C                     # 2928 "C:\Program Files (x86)\Microchip\xc8\v2.00\pic\include\pic16f887.h"
   364                           PSTRCON equ 09Dh ;# 
   365  009D                     # 2972 "C:\Program Files (x86)\Microchip\xc8\v2.00\pic\include\pic16f887.h"
   366                           ADRESL equ 09Eh ;# 
   367  009E                     # 2979 "C:\Program Files (x86)\Microchip\xc8\v2.00\pic\include\pic16f887.h"
   368                           ADCON1 equ 09Fh ;# 
   369  009F                     # 3013 "C:\Program Files (x86)\Microchip\xc8\v2.00\pic\include\pic16f887.h"
   370                           WDTCON equ 0105h ;# 
   371  0105                     # 3066 "C:\Program Files (x86)\Microchip\xc8\v2.00\pic\include\pic16f887.h"
   372                           CM1CON0 equ 0107h ;# 
   373  0107                     # 3131 "C:\Program Files (x86)\Microchip\xc8\v2.00\pic\include\pic16f887.h"
   374                           CM2CON0 equ 0108h ;# 
   375  0108                     # 3196 "C:\Program Files (x86)\Microchip\xc8\v2.00\pic\include\pic16f887.h"
   376                           CM2CON1 equ 0109h ;# 
   377  0109                     # 3247 "C:\Program Files (x86)\Microchip\xc8\v2.00\pic\include\pic16f887.h"
   378                           EEDATA equ 010Ch ;# 
   379  010C                     # 3252 "C:\Program Files (x86)\Microchip\xc8\v2.00\pic\include\pic16f887.h"
   380                           EEDAT equ 010Ch ;# 
   381  010C                     # 3259 "C:\Program Files (x86)\Microchip\xc8\v2.00\pic\include\pic16f887.h"
   382                           EEADR equ 010Dh ;# 
   383  010D                     # 3266 "C:\Program Files (x86)\Microchip\xc8\v2.00\pic\include\pic16f887.h"
   384                           EEDATH equ 010Eh ;# 
   385  010E                     # 3273 "C:\Program Files (x86)\Microchip\xc8\v2.00\pic\include\pic16f887.h"
   386                           EEADRH equ 010Fh ;# 
   387  010F                     # 3280 "C:\Program Files (x86)\Microchip\xc8\v2.00\pic\include\pic16f887.h"
   388                           SRCON equ 0185h ;# 
   389  0185                     # 3337 "C:\Program Files (x86)\Microchip\xc8\v2.00\pic\include\pic16f887.h"
   390                           BAUDCTL equ 0187h ;# 
   391  0187                     # 3389 "C:\Program Files (x86)\Microchip\xc8\v2.00\pic\include\pic16f887.h"
   392                           ANSEL equ 0188h ;# 
   393  0188                     # 3451 "C:\Program Files (x86)\Microchip\xc8\v2.00\pic\include\pic16f887.h"
   394                           ANSELH equ 0189h ;# 
   395  0189                     # 3501 "C:\Program Files (x86)\Microchip\xc8\v2.00\pic\include\pic16f887.h"
   396                           EECON1 equ 018Ch ;# 
   397  018C                     # 3546 "C:\Program Files (x86)\Microchip\xc8\v2.00\pic\include\pic16f887.h"
   398                           EECON2 equ 018Dh ;# 
   399  018D                     # 54 "C:\Program Files (x86)\Microchip\xc8\v2.00\pic\include\pic16f887.h"
   400                           INDF equ 00h ;# 
   401  0000                     # 61 "C:\Program Files (x86)\Microchip\xc8\v2.00\pic\include\pic16f887.h"
   402                           TMR0 equ 01h ;# 
   403  0001                     # 68 "C:\Program Files (x86)\Microchip\xc8\v2.00\pic\include\pic16f887.h"
   404                           PCL equ 02h ;# 
   405  0002                     # 75 "C:\Program Files (x86)\Microchip\xc8\v2.00\pic\include\pic16f887.h"
   406                           STATUS equ 03h ;# 
   407  0003                     # 161 "C:\Program Files (x86)\Microchip\xc8\v2.00\pic\include\pic16f887.h"
   408                           FSR equ 04h ;# 
   409  0004                     # 168 "C:\Program Files (x86)\Microchip\xc8\v2.00\pic\include\pic16f887.h"
   410                           PORTA equ 05h ;# 
   411  0005                     # 230 "C:\Program Files (x86)\Microchip\xc8\v2.00\pic\include\pic16f887.h"
   412                           PORTB equ 06h ;# 
   413  0006                     # 292 "C:\Program Files (x86)\Microchip\xc8\v2.00\pic\include\pic16f887.h"
   414                           PORTC equ 07h ;# 
   415  0007                     # 354 "C:\Program Files (x86)\Microchip\xc8\v2.00\pic\include\pic16f887.h"
   416                           PORTD equ 08h ;# 
   417  0008                     # 416 "C:\Program Files (x86)\Microchip\xc8\v2.00\pic\include\pic16f887.h"
   418                           PORTE equ 09h ;# 
   419  0009                     # 454 "C:\Program Files (x86)\Microchip\xc8\v2.00\pic\include\pic16f887.h"
   420                           PCLATH equ 0Ah ;# 
   421  000A                     # 461 "C:\Program Files (x86)\Microchip\xc8\v2.00\pic\include\pic16f887.h"
   422                           INTCON equ 0Bh ;# 
   423  000B                     # 539 "C:\Program Files (x86)\Microchip\xc8\v2.00\pic\include\pic16f887.h"
   424                           PIR1 equ 0Ch ;# 
   425  000C                     # 595 "C:\Program Files (x86)\Microchip\xc8\v2.00\pic\include\pic16f887.h"
   426                           PIR2 equ 0Dh ;# 
   427  000D                     # 652 "C:\Program Files (x86)\Microchip\xc8\v2.00\pic\include\pic16f887.h"
   428                           TMR1 equ 0Eh ;# 
   429  000E                     # 659 "C:\Program Files (x86)\Microchip\xc8\v2.00\pic\include\pic16f887.h"
   430                           TMR1L equ 0Eh ;# 
   431  000E                     # 666 "C:\Program Files (x86)\Microchip\xc8\v2.00\pic\include\pic16f887.h"
   432                           TMR1H equ 0Fh ;# 
   433  000F                     # 673 "C:\Program Files (x86)\Microchip\xc8\v2.00\pic\include\pic16f887.h"
   434                           T1CON equ 010h ;# 
   435  0010                     # 767 "C:\Program Files (x86)\Microchip\xc8\v2.00\pic\include\pic16f887.h"
   436                           TMR2 equ 011h ;# 
   437  0011                     # 774 "C:\Program Files (x86)\Microchip\xc8\v2.00\pic\include\pic16f887.h"
   438                           T2CON equ 012h ;# 
   439  0012                     # 845 "C:\Program Files (x86)\Microchip\xc8\v2.00\pic\include\pic16f887.h"
   440                           SSPBUF equ 013h ;# 
   441  0013                     # 852 "C:\Program Files (x86)\Microchip\xc8\v2.00\pic\include\pic16f887.h"
   442                           SSPCON equ 014h ;# 
   443  0014                     # 922 "C:\Program Files (x86)\Microchip\xc8\v2.00\pic\include\pic16f887.h"
   444                           CCPR1 equ 015h ;# 
   445  0015                     # 929 "C:\Program Files (x86)\Microchip\xc8\v2.00\pic\include\pic16f887.h"
   446                           CCPR1L equ 015h ;# 
   447  0015                     # 936 "C:\Program Files (x86)\Microchip\xc8\v2.00\pic\include\pic16f887.h"
   448                           CCPR1H equ 016h ;# 
   449  0016                     # 943 "C:\Program Files (x86)\Microchip\xc8\v2.00\pic\include\pic16f887.h"
   450                           CCP1CON equ 017h ;# 
   451  0017                     # 1040 "C:\Program Files (x86)\Microchip\xc8\v2.00\pic\include\pic16f887.h"
   452                           RCSTA equ 018h ;# 
   453  0018                     # 1135 "C:\Program Files (x86)\Microchip\xc8\v2.00\pic\include\pic16f887.h"
   454                           TXREG equ 019h ;# 
   455  0019                     # 1142 "C:\Program Files (x86)\Microchip\xc8\v2.00\pic\include\pic16f887.h"
   456                           RCREG equ 01Ah ;# 
   457  001A                     # 1149 "C:\Program Files (x86)\Microchip\xc8\v2.00\pic\include\pic16f887.h"
   458                           CCPR2 equ 01Bh ;# 
   459  001B                     # 1156 "C:\Program Files (x86)\Microchip\xc8\v2.00\pic\include\pic16f887.h"
   460                           CCPR2L equ 01Bh ;# 
   461  001B                     # 1163 "C:\Program Files (x86)\Microchip\xc8\v2.00\pic\include\pic16f887.h"
   462                           CCPR2H equ 01Ch ;# 
   463  001C                     # 1170 "C:\Program Files (x86)\Microchip\xc8\v2.00\pic\include\pic16f887.h"
   464                           CCP2CON equ 01Dh ;# 
   465  001D                     # 1240 "C:\Program Files (x86)\Microchip\xc8\v2.00\pic\include\pic16f887.h"
   466                           ADRESH equ 01Eh ;# 
   467  001E                     # 1247 "C:\Program Files (x86)\Microchip\xc8\v2.00\pic\include\pic16f887.h"
   468                           ADCON0 equ 01Fh ;# 
   469  001F                     # 1348 "C:\Program Files (x86)\Microchip\xc8\v2.00\pic\include\pic16f887.h"
   470                           OPTION_REG equ 081h ;# 
   471  0081                     # 1418 "C:\Program Files (x86)\Microchip\xc8\v2.00\pic\include\pic16f887.h"
   472                           TRISA equ 085h ;# 
   473  0085                     # 1480 "C:\Program Files (x86)\Microchip\xc8\v2.00\pic\include\pic16f887.h"
   474                           TRISB equ 086h ;# 
   475  0086                     # 1542 "C:\Program Files (x86)\Microchip\xc8\v2.00\pic\include\pic16f887.h"
   476                           TRISC equ 087h ;# 
   477  0087                     # 1604 "C:\Program Files (x86)\Microchip\xc8\v2.00\pic\include\pic16f887.h"
   478                           TRISD equ 088h ;# 
   479  0088                     # 1666 "C:\Program Files (x86)\Microchip\xc8\v2.00\pic\include\pic16f887.h"
   480                           TRISE equ 089h ;# 
   481  0089                     # 1704 "C:\Program Files (x86)\Microchip\xc8\v2.00\pic\include\pic16f887.h"
   482                           PIE1 equ 08Ch ;# 
   483  008C                     # 1760 "C:\Program Files (x86)\Microchip\xc8\v2.00\pic\include\pic16f887.h"
   484                           PIE2 equ 08Dh ;# 
   485  008D                     # 1817 "C:\Program Files (x86)\Microchip\xc8\v2.00\pic\include\pic16f887.h"
   486                           PCON equ 08Eh ;# 
   487  008E                     # 1864 "C:\Program Files (x86)\Microchip\xc8\v2.00\pic\include\pic16f887.h"
   488                           OSCCON equ 08Fh ;# 
   489  008F                     # 1929 "C:\Program Files (x86)\Microchip\xc8\v2.00\pic\include\pic16f887.h"
   490                           OSCTUNE equ 090h ;# 
   491  0090                     # 1981 "C:\Program Files (x86)\Microchip\xc8\v2.00\pic\include\pic16f887.h"
   492                           SSPCON2 equ 091h ;# 
   493  0091                     # 2043 "C:\Program Files (x86)\Microchip\xc8\v2.00\pic\include\pic16f887.h"
   494                           PR2 equ 092h ;# 
   495  0092                     # 2050 "C:\Program Files (x86)\Microchip\xc8\v2.00\pic\include\pic16f887.h"
   496                           SSPADD equ 093h ;# 
   497  0093                     # 2057 "C:\Program Files (x86)\Microchip\xc8\v2.00\pic\include\pic16f887.h"
   498                           SSPMSK equ 093h ;# 
   499  0093                     # 2062 "C:\Program Files (x86)\Microchip\xc8\v2.00\pic\include\pic16f887.h"
   500                           MSK equ 093h ;# 
   501  0093                     # 2179 "C:\Program Files (x86)\Microchip\xc8\v2.00\pic\include\pic16f887.h"
   502                           SSPSTAT equ 094h ;# 
   503  0094                     # 2348 "C:\Program Files (x86)\Microchip\xc8\v2.00\pic\include\pic16f887.h"
   504                           WPUB equ 095h ;# 
   505  0095                     # 2418 "C:\Program Files (x86)\Microchip\xc8\v2.00\pic\include\pic16f887.h"
   506                           IOCB equ 096h ;# 
   507  0096                     # 2488 "C:\Program Files (x86)\Microchip\xc8\v2.00\pic\include\pic16f887.h"
   508                           VRCON equ 097h ;# 
   509  0097                     # 2558 "C:\Program Files (x86)\Microchip\xc8\v2.00\pic\include\pic16f887.h"
   510                           TXSTA equ 098h ;# 
   511  0098                     # 2644 "C:\Program Files (x86)\Microchip\xc8\v2.00\pic\include\pic16f887.h"
   512                           SPBRG equ 099h ;# 
   513  0099                     # 2706 "C:\Program Files (x86)\Microchip\xc8\v2.00\pic\include\pic16f887.h"
   514                           SPBRGH equ 09Ah ;# 
   515  009A                     # 2776 "C:\Program Files (x86)\Microchip\xc8\v2.00\pic\include\pic16f887.h"
   516                           PWM1CON equ 09Bh ;# 
   517  009B                     # 2846 "C:\Program Files (x86)\Microchip\xc8\v2.00\pic\include\pic16f887.h"
   518                           ECCPAS equ 09Ch ;# 
   519  009C                     # 2928 "C:\Program Files (x86)\Microchip\xc8\v2.00\pic\include\pic16f887.h"
   520                           PSTRCON equ 09Dh ;# 
   521  009D                     # 2972 "C:\Program Files (x86)\Microchip\xc8\v2.00\pic\include\pic16f887.h"
   522                           ADRESL equ 09Eh ;# 
   523  009E                     # 2979 "C:\Program Files (x86)\Microchip\xc8\v2.00\pic\include\pic16f887.h"
   524                           ADCON1 equ 09Fh ;# 
   525  009F                     # 3013 "C:\Program Files (x86)\Microchip\xc8\v2.00\pic\include\pic16f887.h"
   526                           WDTCON equ 0105h ;# 
   527  0105                     # 3066 "C:\Program Files (x86)\Microchip\xc8\v2.00\pic\include\pic16f887.h"
   528                           CM1CON0 equ 0107h ;# 
   529  0107                     # 3131 "C:\Program Files (x86)\Microchip\xc8\v2.00\pic\include\pic16f887.h"
   530                           CM2CON0 equ 0108h ;# 
   531  0108                     # 3196 "C:\Program Files (x86)\Microchip\xc8\v2.00\pic\include\pic16f887.h"
   532                           CM2CON1 equ 0109h ;# 
   533  0109                     # 3247 "C:\Program Files (x86)\Microchip\xc8\v2.00\pic\include\pic16f887.h"
   534                           EEDATA equ 010Ch ;# 
   535  010C                     # 3252 "C:\Program Files (x86)\Microchip\xc8\v2.00\pic\include\pic16f887.h"
   536                           EEDAT equ 010Ch ;# 
   537  010C                     # 3259 "C:\Program Files (x86)\Microchip\xc8\v2.00\pic\include\pic16f887.h"
   538                           EEADR equ 010Dh ;# 
   539  010D                     # 3266 "C:\Program Files (x86)\Microchip\xc8\v2.00\pic\include\pic16f887.h"
   540                           EEDATH equ 010Eh ;# 
   541  010E                     # 3273 "C:\Program Files (x86)\Microchip\xc8\v2.00\pic\include\pic16f887.h"
   542                           EEADRH equ 010Fh ;# 
   543  010F                     # 3280 "C:\Program Files (x86)\Microchip\xc8\v2.00\pic\include\pic16f887.h"
   544                           SRCON equ 0185h ;# 
   545  0185                     # 3337 "C:\Program Files (x86)\Microchip\xc8\v2.00\pic\include\pic16f887.h"
   546                           BAUDCTL equ 0187h ;# 
   547  0187                     # 3389 "C:\Program Files (x86)\Microchip\xc8\v2.00\pic\include\pic16f887.h"
   548                           ANSEL equ 0188h ;# 
   549  0188                     # 3451 "C:\Program Files (x86)\Microchip\xc8\v2.00\pic\include\pic16f887.h"
   550                           ANSELH equ 0189h ;# 
   551  0189                     # 3501 "C:\Program Files (x86)\Microchip\xc8\v2.00\pic\include\pic16f887.h"
   552                           EECON1 equ 018Ch ;# 
   553  018C                     # 3546 "C:\Program Files (x86)\Microchip\xc8\v2.00\pic\include\pic16f887.h"
   554                           EECON2 equ 018Dh ;# 
   555  018D                     # 54 "C:\Program Files (x86)\Microchip\xc8\v2.00\pic\include\pic16f887.h"
   556                           INDF equ 00h ;# 
   557  0000                     # 61 "C:\Program Files (x86)\Microchip\xc8\v2.00\pic\include\pic16f887.h"
   558                           TMR0 equ 01h ;# 
   559  0001                     # 68 "C:\Program Files (x86)\Microchip\xc8\v2.00\pic\include\pic16f887.h"
   560                           PCL equ 02h ;# 
   561  0002                     # 75 "C:\Program Files (x86)\Microchip\xc8\v2.00\pic\include\pic16f887.h"
   562                           STATUS equ 03h ;# 
   563  0003                     # 161 "C:\Program Files (x86)\Microchip\xc8\v2.00\pic\include\pic16f887.h"
   564                           FSR equ 04h ;# 
   565  0004                     # 168 "C:\Program Files (x86)\Microchip\xc8\v2.00\pic\include\pic16f887.h"
   566                           PORTA equ 05h ;# 
   567  0005                     # 230 "C:\Program Files (x86)\Microchip\xc8\v2.00\pic\include\pic16f887.h"
   568                           PORTB equ 06h ;# 
   569  0006                     # 292 "C:\Program Files (x86)\Microchip\xc8\v2.00\pic\include\pic16f887.h"
   570                           PORTC equ 07h ;# 
   571  0007                     # 354 "C:\Program Files (x86)\Microchip\xc8\v2.00\pic\include\pic16f887.h"
   572                           PORTD equ 08h ;# 
   573  0008                     # 416 "C:\Program Files (x86)\Microchip\xc8\v2.00\pic\include\pic16f887.h"
   574                           PORTE equ 09h ;# 
   575  0009                     # 454 "C:\Program Files (x86)\Microchip\xc8\v2.00\pic\include\pic16f887.h"
   576                           PCLATH equ 0Ah ;# 
   577  000A                     # 461 "C:\Program Files (x86)\Microchip\xc8\v2.00\pic\include\pic16f887.h"
   578                           INTCON equ 0Bh ;# 
   579  000B                     # 539 "C:\Program Files (x86)\Microchip\xc8\v2.00\pic\include\pic16f887.h"
   580                           PIR1 equ 0Ch ;# 
   581  000C                     # 595 "C:\Program Files (x86)\Microchip\xc8\v2.00\pic\include\pic16f887.h"
   582                           PIR2 equ 0Dh ;# 
   583  000D                     # 652 "C:\Program Files (x86)\Microchip\xc8\v2.00\pic\include\pic16f887.h"
   584                           TMR1 equ 0Eh ;# 
   585  000E                     # 659 "C:\Program Files (x86)\Microchip\xc8\v2.00\pic\include\pic16f887.h"
   586                           TMR1L equ 0Eh ;# 
   587  000E                     # 666 "C:\Program Files (x86)\Microchip\xc8\v2.00\pic\include\pic16f887.h"
   588                           TMR1H equ 0Fh ;# 
   589  000F                     # 673 "C:\Program Files (x86)\Microchip\xc8\v2.00\pic\include\pic16f887.h"
   590                           T1CON equ 010h ;# 
   591  0010                     # 767 "C:\Program Files (x86)\Microchip\xc8\v2.00\pic\include\pic16f887.h"
   592                           TMR2 equ 011h ;# 
   593  0011                     # 774 "C:\Program Files (x86)\Microchip\xc8\v2.00\pic\include\pic16f887.h"
   594                           T2CON equ 012h ;# 
   595  0012                     # 845 "C:\Program Files (x86)\Microchip\xc8\v2.00\pic\include\pic16f887.h"
   596                           SSPBUF equ 013h ;# 
   597  0013                     # 852 "C:\Program Files (x86)\Microchip\xc8\v2.00\pic\include\pic16f887.h"
   598                           SSPCON equ 014h ;# 
   599  0014                     # 922 "C:\Program Files (x86)\Microchip\xc8\v2.00\pic\include\pic16f887.h"
   600                           CCPR1 equ 015h ;# 
   601  0015                     # 929 "C:\Program Files (x86)\Microchip\xc8\v2.00\pic\include\pic16f887.h"
   602                           CCPR1L equ 015h ;# 
   603  0015                     # 936 "C:\Program Files (x86)\Microchip\xc8\v2.00\pic\include\pic16f887.h"
   604                           CCPR1H equ 016h ;# 
   605  0016                     # 943 "C:\Program Files (x86)\Microchip\xc8\v2.00\pic\include\pic16f887.h"
   606                           CCP1CON equ 017h ;# 
   607  0017                     # 1040 "C:\Program Files (x86)\Microchip\xc8\v2.00\pic\include\pic16f887.h"
   608                           RCSTA equ 018h ;# 
   609  0018                     # 1135 "C:\Program Files (x86)\Microchip\xc8\v2.00\pic\include\pic16f887.h"
   610                           TXREG equ 019h ;# 
   611  0019                     # 1142 "C:\Program Files (x86)\Microchip\xc8\v2.00\pic\include\pic16f887.h"
   612                           RCREG equ 01Ah ;# 
   613  001A                     # 1149 "C:\Program Files (x86)\Microchip\xc8\v2.00\pic\include\pic16f887.h"
   614                           CCPR2 equ 01Bh ;# 
   615  001B                     # 1156 "C:\Program Files (x86)\Microchip\xc8\v2.00\pic\include\pic16f887.h"
   616                           CCPR2L equ 01Bh ;# 
   617  001B                     # 1163 "C:\Program Files (x86)\Microchip\xc8\v2.00\pic\include\pic16f887.h"
   618                           CCPR2H equ 01Ch ;# 
   619  001C                     # 1170 "C:\Program Files (x86)\Microchip\xc8\v2.00\pic\include\pic16f887.h"
   620                           CCP2CON equ 01Dh ;# 
   621  001D                     # 1240 "C:\Program Files (x86)\Microchip\xc8\v2.00\pic\include\pic16f887.h"
   622                           ADRESH equ 01Eh ;# 
   623  001E                     # 1247 "C:\Program Files (x86)\Microchip\xc8\v2.00\pic\include\pic16f887.h"
   624                           ADCON0 equ 01Fh ;# 
   625  001F                     # 1348 "C:\Program Files (x86)\Microchip\xc8\v2.00\pic\include\pic16f887.h"
   626                           OPTION_REG equ 081h ;# 
   627  0081                     # 1418 "C:\Program Files (x86)\Microchip\xc8\v2.00\pic\include\pic16f887.h"
   628                           TRISA equ 085h ;# 
   629  0085                     # 1480 "C:\Program Files (x86)\Microchip\xc8\v2.00\pic\include\pic16f887.h"
   630                           TRISB equ 086h ;# 
   631  0086                     # 1542 "C:\Program Files (x86)\Microchip\xc8\v2.00\pic\include\pic16f887.h"
   632                           TRISC equ 087h ;# 
   633  0087                     # 1604 "C:\Program Files (x86)\Microchip\xc8\v2.00\pic\include\pic16f887.h"
   634                           TRISD equ 088h ;# 
   635  0088                     # 1666 "C:\Program Files (x86)\Microchip\xc8\v2.00\pic\include\pic16f887.h"
   636                           TRISE equ 089h ;# 
   637  0089                     # 1704 "C:\Program Files (x86)\Microchip\xc8\v2.00\pic\include\pic16f887.h"
   638                           PIE1 equ 08Ch ;# 
   639  008C                     # 1760 "C:\Program Files (x86)\Microchip\xc8\v2.00\pic\include\pic16f887.h"
   640                           PIE2 equ 08Dh ;# 
   641  008D                     # 1817 "C:\Program Files (x86)\Microchip\xc8\v2.00\pic\include\pic16f887.h"
   642                           PCON equ 08Eh ;# 
   643  008E                     # 1864 "C:\Program Files (x86)\Microchip\xc8\v2.00\pic\include\pic16f887.h"
   644                           OSCCON equ 08Fh ;# 
   645  008F                     # 1929 "C:\Program Files (x86)\Microchip\xc8\v2.00\pic\include\pic16f887.h"
   646                           OSCTUNE equ 090h ;# 
   647  0090                     # 1981 "C:\Program Files (x86)\Microchip\xc8\v2.00\pic\include\pic16f887.h"
   648                           SSPCON2 equ 091h ;# 
   649  0091                     # 2043 "C:\Program Files (x86)\Microchip\xc8\v2.00\pic\include\pic16f887.h"
   650                           PR2 equ 092h ;# 
   651  0092                     # 2050 "C:\Program Files (x86)\Microchip\xc8\v2.00\pic\include\pic16f887.h"
   652                           SSPADD equ 093h ;# 
   653  0093                     # 2057 "C:\Program Files (x86)\Microchip\xc8\v2.00\pic\include\pic16f887.h"
   654                           SSPMSK equ 093h ;# 
   655  0093                     # 2062 "C:\Program Files (x86)\Microchip\xc8\v2.00\pic\include\pic16f887.h"
   656                           MSK equ 093h ;# 
   657  0093                     # 2179 "C:\Program Files (x86)\Microchip\xc8\v2.00\pic\include\pic16f887.h"
   658                           SSPSTAT equ 094h ;# 
   659  0094                     # 2348 "C:\Program Files (x86)\Microchip\xc8\v2.00\pic\include\pic16f887.h"
   660                           WPUB equ 095h ;# 
   661  0095                     # 2418 "C:\Program Files (x86)\Microchip\xc8\v2.00\pic\include\pic16f887.h"
   662                           IOCB equ 096h ;# 
   663  0096                     # 2488 "C:\Program Files (x86)\Microchip\xc8\v2.00\pic\include\pic16f887.h"
   664                           VRCON equ 097h ;# 
   665  0097                     # 2558 "C:\Program Files (x86)\Microchip\xc8\v2.00\pic\include\pic16f887.h"
   666                           TXSTA equ 098h ;# 
   667  0098                     # 2644 "C:\Program Files (x86)\Microchip\xc8\v2.00\pic\include\pic16f887.h"
   668                           SPBRG equ 099h ;# 
   669  0099                     # 2706 "C:\Program Files (x86)\Microchip\xc8\v2.00\pic\include\pic16f887.h"
   670                           SPBRGH equ 09Ah ;# 
   671  009A                     # 2776 "C:\Program Files (x86)\Microchip\xc8\v2.00\pic\include\pic16f887.h"
   672                           PWM1CON equ 09Bh ;# 
   673  009B                     # 2846 "C:\Program Files (x86)\Microchip\xc8\v2.00\pic\include\pic16f887.h"
   674                           ECCPAS equ 09Ch ;# 
   675  009C                     # 2928 "C:\Program Files (x86)\Microchip\xc8\v2.00\pic\include\pic16f887.h"
   676                           PSTRCON equ 09Dh ;# 
   677  009D                     # 2972 "C:\Program Files (x86)\Microchip\xc8\v2.00\pic\include\pic16f887.h"
   678                           ADRESL equ 09Eh ;# 
   679  009E                     # 2979 "C:\Program Files (x86)\Microchip\xc8\v2.00\pic\include\pic16f887.h"
   680                           ADCON1 equ 09Fh ;# 
   681  009F                     # 3013 "C:\Program Files (x86)\Microchip\xc8\v2.00\pic\include\pic16f887.h"
   682                           WDTCON equ 0105h ;# 
   683  0105                     # 3066 "C:\Program Files (x86)\Microchip\xc8\v2.00\pic\include\pic16f887.h"
   684                           CM1CON0 equ 0107h ;# 
   685  0107                     # 3131 "C:\Program Files (x86)\Microchip\xc8\v2.00\pic\include\pic16f887.h"
   686                           CM2CON0 equ 0108h ;# 
   687  0108                     # 3196 "C:\Program Files (x86)\Microchip\xc8\v2.00\pic\include\pic16f887.h"
   688                           CM2CON1 equ 0109h ;# 
   689  0109                     # 3247 "C:\Program Files (x86)\Microchip\xc8\v2.00\pic\include\pic16f887.h"
   690                           EEDATA equ 010Ch ;# 
   691  010C                     # 3252 "C:\Program Files (x86)\Microchip\xc8\v2.00\pic\include\pic16f887.h"
   692                           EEDAT equ 010Ch ;# 
   693  010C                     # 3259 "C:\Program Files (x86)\Microchip\xc8\v2.00\pic\include\pic16f887.h"
   694                           EEADR equ 010Dh ;# 
   695  010D                     # 3266 "C:\Program Files (x86)\Microchip\xc8\v2.00\pic\include\pic16f887.h"
   696                           EEDATH equ 010Eh ;# 
   697  010E                     # 3273 "C:\Program Files (x86)\Microchip\xc8\v2.00\pic\include\pic16f887.h"
   698                           EEADRH equ 010Fh ;# 
   699  010F                     # 3280 "C:\Program Files (x86)\Microchip\xc8\v2.00\pic\include\pic16f887.h"
   700                           SRCON equ 0185h ;# 
   701  0185                     # 3337 "C:\Program Files (x86)\Microchip\xc8\v2.00\pic\include\pic16f887.h"
   702                           BAUDCTL equ 0187h ;# 
   703  0187                     # 3389 "C:\Program Files (x86)\Microchip\xc8\v2.00\pic\include\pic16f887.h"
   704                           ANSEL equ 0188h ;# 
   705  0188                     # 3451 "C:\Program Files (x86)\Microchip\xc8\v2.00\pic\include\pic16f887.h"
   706                           ANSELH equ 0189h ;# 
   707  0189                     # 3501 "C:\Program Files (x86)\Microchip\xc8\v2.00\pic\include\pic16f887.h"
   708                           EECON1 equ 018Ch ;# 
   709  018C                     # 3546 "C:\Program Files (x86)\Microchip\xc8\v2.00\pic\include\pic16f887.h"
   710                           EECON2 equ 018Dh ;# 
   711  018D                     	FNCALL	_main,_ADC_CONFIG
   712                           	FNCALL	_main,_ADC_INTERRUPT
   713                           	FNCALL	_main,_I2C_Slave_Init
   714                           	FNCALL	_main,___awdiv
   715                           	FNCALL	_main,___fladd
   716                           	FNCALL	_main,___flmul
   717                           	FNCALL	_main,___fltol
   718                           	FNCALL	_main,___xxtofl
   719                           	FNCALL	___flmul,__Umul8_16
   720                           	FNROOT	_main
   721                           	FNCALL	intlevel1,_ISR
   722                           	global	intlevel1
   723                           	FNROOT	intlevel1
   724                           	global	_eleccion
   725                           	global	_z
   726                           	global	_TEMPA
   727                           	global	_TEMP
   728                           	global	_adc1
   729                           	global	_SSPCONbits
   730                           _SSPCONbits	set	0x14
   731  0014                     	global	_ADRESH
   732                           _ADRESH	set	0x1E
   733  001E                     	global	_SSPBUF
   734                           _SSPBUF	set	0x13
   735  0013                     	global	_SSPCON
   736                           _SSPCON	set	0x14
   737  0014                     	global	_INTCONbits
   738                           _INTCONbits	set	0xB
   739  000B                     	global	_PIR1bits
   740                           _PIR1bits	set	0xC
   741  000C                     	global	_ADCON0bits
   742                           _ADCON0bits	set	0x1F
   743  001F                     	global	_RD1
   744                           _RD1	set	0x41
   745  0041                     	global	_ADIF
   746                           _ADIF	set	0x66
   747  0066                     	global	_SSPIF
   748                           _SSPIF	set	0x63
   749  0063                     	global	_PEIE
   750                           _PEIE	set	0x5E
   751  005E                     	global	_GIE
   752                           _GIE	set	0x5F
   753  005F                     	global	_TRISD
   754                           _TRISD	set	0x88
   755  0088                     	global	_TRISB
   756                           _TRISB	set	0x86
   757  0086                     	global	_TRISC
   758                           _TRISC	set	0x87
   759  0087                     	global	_TRISA
   760                           _TRISA	set	0x85
   761  0085                     	global	_SSPSTATbits
   762                           _SSPSTATbits	set	0x94
   763  0094                     	global	_SSPCON2bits
   764                           _SSPCON2bits	set	0x91
   765  0091                     	global	_TRISCbits
   766                           _TRISCbits	set	0x87
   767  0087                     	global	_SSPSTAT
   768                           _SSPSTAT	set	0x94
   769  0094                     	global	_SSPADD
   770                           _SSPADD	set	0x93
   771  0093                     	global	_SSPCON2
   772                           _SSPCON2	set	0x91
   773  0091                     	global	_PIE1bits
   774                           _PIE1bits	set	0x8C
   775  008C                     	global	_TRISBbits
   776                           _TRISBbits	set	0x86
   777  0086                     	global	_TRISEbits
   778                           _TRISEbits	set	0x89
   779  0089                     	global	_TRISAbits
   780                           _TRISAbits	set	0x85
   781  0085                     	global	_ADCON1bits
   782                           _ADCON1bits	set	0x9F
   783  009F                     	global	_BF
   784                           _BF	set	0x4A0
   785  04A0                     	global	_SSPIE
   786                           _SSPIE	set	0x463
   787  0463                     	global	_TRISC4
   788                           _TRISC4	set	0x43C
   789  043C                     	global	_TRISC3
   790                           _TRISC3	set	0x43B
   791  043B                     	global	_ANSELH
   792                           _ANSELH	set	0x189
   793  0189                     	global	_ANSEL
   794                           _ANSEL	set	0x188
   795  0188                     	global	_ANSELHbits
   796                           _ANSELHbits	set	0x189
   797  0189                     	global	_ANSELbits
   798                           _ANSELbits	set	0x188
   799  0188                     ; #config settings
   800                           global __CFG_FOSC$INTRC_NOCLKOUT
   801                           __CFG_FOSC$INTRC_NOCLKOUT equ 0x0
   802  0000                     global __CFG_WDTE$OFF
   803                           __CFG_WDTE$OFF equ 0x0
   804  0000                     global __CFG_PWRTE$OFF
   805                           __CFG_PWRTE$OFF equ 0x0
   806  0000                     global __CFG_MCLRE$OFF
   807                           __CFG_MCLRE$OFF equ 0x0
   808  0000                     global __CFG_CP$OFF
   809                           __CFG_CP$OFF equ 0x0
   810  0000                     global __CFG_CPD$OFF
   811                           __CFG_CPD$OFF equ 0x0
   812  0000                     global __CFG_BOREN$OFF
   813                           __CFG_BOREN$OFF equ 0x0
   814  0000                     global __CFG_IESO$OFF
   815                           __CFG_IESO$OFF equ 0x0
   816  0000                     global __CFG_FCMEN$OFF
   817                           __CFG_FCMEN$OFF equ 0x0
   818  0000                     global __CFG_LVP$OFF
   819                           __CFG_LVP$OFF equ 0x0
   820  0000                     global __CFG_BOR4V$BOR40V
   821                           __CFG_BOR4V$BOR40V equ 0x0
   822  0000                     global __CFG_WRT$OFF
   823                           __CFG_WRT$OFF equ 0x0
   824  0000                     	file	"C:\Users\JOSPEL~1\AppData\Local\Temp\sfl4."
   825                           	line	#
   826                           psect cinit,class=CODE,delta=2
   827                           global start_initialization
   828                           start_initialization:
   829  000F                     
   830                           global __initialization
   831                           __initialization:
   832  000F                     psect	bssCOMMON,class=COMMON,space=1,noexec
   833                           global __pbssCOMMON
   834                           __pbssCOMMON:
   835  0078                     _eleccion:
   836  0078                            ds      1
   837  0078                     
   838                           _z:
   839  0079                            ds      1
   840  0079                     
   841                           _adc:
   842  007A                            ds      1
   843  007A                     
   844                           psect	bssBANK0,class=BANK0,space=1,noexec
   845                           global __pbssBANK0
   846                           __pbssBANK0:
   847  006B                     _TEMPA:
   848  006B                            ds      1
   849  006B                     
   850                           _TEMP:
   851  006C                            ds      1
   852  006C                     
   853                           _adc1:
   854  006D                            ds      1
   855  006D                     
   856                           	file	"C:\Users\JOSPEL~1\AppData\Local\Temp\sfl4."
   857                           	line	#
   858                           ; Clear objects allocated to COMMON
   859                           psect cinit,class=CODE,delta=2,merge=1
   860                           	clrf	((__pbssCOMMON)+0)&07Fh
   861  000F  01F8               	clrf	((__pbssCOMMON)+1)&07Fh
   862  0010  01F9               	clrf	((__pbssCOMMON)+2)&07Fh
   863  0011  01FA               ; Clear objects allocated to BANK0
   864                           psect cinit,class=CODE,delta=2,merge=1
   865                           	bcf	status, 5	;RP0=0, select bank0
   866  0012  1283               	bcf	status, 6	;RP1=0, select bank0
   867  0013  1303               	clrf	((__pbssBANK0)+0)&07Fh
   868  0014  01EB               	clrf	((__pbssBANK0)+1)&07Fh
   869  0015  01EC               	clrf	((__pbssBANK0)+2)&07Fh
   870  0016  01ED               psect cinit,class=CODE,delta=2,merge=1
   871                           global end_of_initialization,__end_of__initialization
   872                           
   873                           ;End of C runtime variable initialization code
   874                           
   875                           end_of_initialization:
   876  0017                     __end_of__initialization:
   877  0017                     clrf status
   878  0017  0183               ljmp _main	;jump to C main() function
   879  0018  120A  158A  2F27   psect	cstackBANK1,class=BANK1,space=1,noexec
   880                           global __pcstackBANK1
   881                           __pcstackBANK1:
   882  00A0                     	global	_main$1209
   883                           _main$1209:	; 4 bytes @ 0x0
   884  00A0                     	ds	4
   885  00A0                     psect	cstackCOMMON,class=COMMON,space=1,noexec
   886                           global __pcstackCOMMON
   887                           __pcstackCOMMON:
   888  0070                     ?_ADC_INTERRUPT:	; 1 bytes @ 0x0
   889  0070                     ?_I2C_Slave_Init:	; 1 bytes @ 0x0
   890  0070                     ?_ISR:	; 1 bytes @ 0x0
   891  0070                     ??_ISR:	; 1 bytes @ 0x0
   892  0070                     ?_main:	; 1 bytes @ 0x0
   893  0070                     	ds	3
   894  0070                     ?_ADC_CONFIG:	; 1 bytes @ 0x3
   895  0073                     ??_ADC_INTERRUPT:	; 1 bytes @ 0x3
   896  0073                     ??_I2C_Slave_Init:	; 1 bytes @ 0x3
   897  0073                     	global	?__Umul8_16
   898                           ?__Umul8_16:	; 2 bytes @ 0x3
   899  0073                     	global	?___awdiv
   900                           ?___awdiv:	; 2 bytes @ 0x3
   901  0073                     	global	?___xxtofl
   902                           ?___xxtofl:	; 4 bytes @ 0x3
   903  0073                     	global	ADC_CONFIG@justif
   904                           ADC_CONFIG@justif:	; 1 bytes @ 0x3
   905  0073                     	global	I2C_Slave_Init@address
   906                           I2C_Slave_Init@address:	; 1 bytes @ 0x3
   907  0073                     	global	__Umul8_16@multiplicand
   908                           __Umul8_16@multiplicand:	; 1 bytes @ 0x3
   909  0073                     	global	___awdiv@divisor
   910                           ___awdiv@divisor:	; 2 bytes @ 0x3
   911  0073                     	global	___xxtofl@val
   912                           ___xxtofl@val:	; 4 bytes @ 0x3
   913  0073                     	ds	1
   914  0073                     ??_ADC_CONFIG:	; 1 bytes @ 0x4
   915  0074                     	ds	1
   916  0074                     ??__Umul8_16:	; 1 bytes @ 0x5
   917  0075                     	global	___awdiv@dividend
   918                           ___awdiv@dividend:	; 2 bytes @ 0x5
   919  0075                     	ds	1
   920  0075                     	global	ADC_CONFIG@canal
   921                           ADC_CONFIG@canal:	; 1 bytes @ 0x6
   922  0076                     	ds	1
   923  0076                     ??___awdiv:	; 1 bytes @ 0x7
   924  0077                     	ds	1
   925  0077                     psect	cstackBANK0,class=BANK0,space=1,noexec
   926                           global __pcstackBANK0
   927                           __pcstackBANK0:
   928  0020                     ??___xxtofl:	; 1 bytes @ 0x0
   929  0020                     	global	___awdiv@counter
   930                           ___awdiv@counter:	; 1 bytes @ 0x0
   931  0020                     	global	__Umul8_16@product
   932                           __Umul8_16@product:	; 2 bytes @ 0x0
   933  0020                     	ds	1
   934  0020                     	global	___awdiv@sign
   935                           ___awdiv@sign:	; 1 bytes @ 0x1
   936  0021                     	ds	1
   937  0021                     	global	___awdiv@quotient
   938                           ___awdiv@quotient:	; 2 bytes @ 0x2
   939  0022                     	global	__Umul8_16@word_mpld
   940                           __Umul8_16@word_mpld:	; 2 bytes @ 0x2
   941  0022                     	ds	2
   942  0022                     	global	___xxtofl@sign
   943                           ___xxtofl@sign:	; 1 bytes @ 0x4
   944  0024                     	global	__Umul8_16@multiplier
   945                           __Umul8_16@multiplier:	; 1 bytes @ 0x4
   946  0024                     	ds	1
   947  0024                     	global	___xxtofl@exp
   948                           ___xxtofl@exp:	; 1 bytes @ 0x5
   949  0025                     	ds	1
   950  0025                     	global	___xxtofl@arg
   951                           ___xxtofl@arg:	; 4 bytes @ 0x6
   952  0026                     	ds	4
   953  0026                     	global	?___flmul
   954                           ?___flmul:	; 4 bytes @ 0xA
   955  002A                     	global	___flmul@b
   956                           ___flmul@b:	; 4 bytes @ 0xA
   957  002A                     	ds	4
   958  002A                     	global	___flmul@a
   959                           ___flmul@a:	; 4 bytes @ 0xE
   960  002E                     	ds	4
   961  002E                     ??___flmul:	; 1 bytes @ 0x12
   962  0032                     	ds	5
   963  0032                     	global	___flmul@sign
   964                           ___flmul@sign:	; 1 bytes @ 0x17
   965  0037                     	ds	1
   966  0037                     	global	___flmul@aexp
   967                           ___flmul@aexp:	; 1 bytes @ 0x18
   968  0038                     	ds	1
   969  0038                     	global	___flmul@grs
   970                           ___flmul@grs:	; 4 bytes @ 0x19
   971  0039                     	ds	4
   972  0039                     	global	___flmul@bexp
   973                           ___flmul@bexp:	; 1 bytes @ 0x1D
   974  003D                     	ds	1
   975  003D                     	global	___flmul@prod
   976                           ___flmul@prod:	; 4 bytes @ 0x1E
   977  003E                     	ds	4
   978  003E                     	global	___flmul@temp
   979                           ___flmul@temp:	; 2 bytes @ 0x22
   980  0042                     	ds	2
   981  0042                     	global	?___fladd
   982                           ?___fladd:	; 4 bytes @ 0x24
   983  0044                     	global	___fladd@b
   984                           ___fladd@b:	; 4 bytes @ 0x24
   985  0044                     	ds	4
   986  0044                     	global	___fladd@a
   987                           ___fladd@a:	; 4 bytes @ 0x28
   988  0048                     	ds	4
   989  0048                     ??___fladd:	; 1 bytes @ 0x2C
   990  004C                     	ds	12
   991  004C                     	global	___fladd@signs
   992                           ___fladd@signs:	; 1 bytes @ 0x38
   993  0058                     	ds	1
   994  0058                     	global	___fladd@aexp
   995                           ___fladd@aexp:	; 1 bytes @ 0x39
   996  0059                     	ds	1
   997  0059                     	global	___fladd@bexp
   998                           ___fladd@bexp:	; 1 bytes @ 0x3A
   999  005A                     	ds	1
  1000  005A                     	global	___fladd@grs
  1001                           ___fladd@grs:	; 1 bytes @ 0x3B
  1002  005B                     	ds	1
  1003  005B                     	global	?___fltol
  1004                           ?___fltol:	; 4 bytes @ 0x3C
  1005  005C                     	global	___fltol@f1
  1006                           ___fltol@f1:	; 4 bytes @ 0x3C
  1007  005C                     	ds	4
  1008  005C                     ??___fltol:	; 1 bytes @ 0x40
  1009  0060                     	ds	5
  1010  0060                     	global	___fltol@sign1
  1011                           ___fltol@sign1:	; 1 bytes @ 0x45
  1012  0065                     	ds	1
  1013  0065                     	global	___fltol@exp1
  1014                           ___fltol@exp1:	; 1 bytes @ 0x46
  1015  0066                     	ds	1
  1016  0066                     ??_main:	; 1 bytes @ 0x47
  1017  0067                     	ds	4
  1018  0067                     ;!
  1019                           ;!Data Sizes:
  1020                           ;!    Strings     0
  1021                           ;!    Constant    0
  1022                           ;!    Data        0
  1023                           ;!    BSS         6
  1024                           ;!    Persistent  0
  1025                           ;!    Stack       0
  1026                           ;!
  1027                           ;!Auto Spaces:
  1028                           ;!    Space          Size  Autos    Used
  1029                           ;!    COMMON           14      8      11
  1030                           ;!    BANK0            80     75      78
  1031                           ;!    BANK1            80      4       4
  1032                           ;!    BANK3            96      0       0
  1033                           ;!    BANK2            96      0       0
  1034                           
  1035                           ;!
  1036                           ;!Pointer List with Targets:
  1037                           ;!
  1038                           ;!    None.
  1039                           
  1040                           
  1041                           ;!
  1042                           ;!Critical Paths under _main in COMMON
  1043                           ;!
  1044                           ;!    _main->___awdiv
  1045                           ;!    ___fltol->___xxtofl
  1046                           ;!    ___flmul->__Umul8_16
  1047                           ;!    ___flmul->___xxtofl
  1048                           ;!    ___fladd->___xxtofl
  1049                           ;!
  1050                           ;!Critical Paths under _ISR in COMMON
  1051                           ;!
  1052                           ;!    None.
  1053                           ;!
  1054                           ;!Critical Paths under _main in BANK0
  1055                           ;!
  1056                           ;!    _main->___fltol
  1057                           ;!    ___fltol->___fladd
  1058                           ;!    ___flmul->___xxtofl
  1059                           ;!    ___fladd->___flmul
  1060                           ;!
  1061                           ;!Critical Paths under _ISR in BANK0
  1062                           ;!
  1063                           ;!    None.
  1064                           ;!
  1065                           ;!Critical Paths under _main in BANK1
  1066                           ;!
  1067                           ;!    None.
  1068                           ;!
  1069                           ;!Critical Paths under _ISR in BANK1
  1070                           ;!
  1071                           ;!    None.
  1072                           ;!
  1073                           ;!Critical Paths under _main in BANK3
  1074                           ;!
  1075                           ;!    None.
  1076                           ;!
  1077                           ;!Critical Paths under _ISR in BANK3
  1078                           ;!
  1079                           ;!    None.
  1080                           ;!
  1081                           ;!Critical Paths under _main in BANK2
  1082                           ;!
  1083                           ;!    None.
  1084                           ;!
  1085                           ;!Critical Paths under _ISR in BANK2
  1086                           ;!
  1087                           ;!    None.
  1088                           
  1089 ;;
  1090 ;;Main: autosize = 0, tempsize = 4, incstack = 0, save=0
  1091 ;;
  1092                           
  1093                           ;!
  1094                           ;!Call Graph Tables:
  1095                           ;!
  1096                           ;! ---------------------------------------------------------------------------------
  1097                           ;! (Depth) Function   	        Calls       Base Space   Used Autos Params    Refs
  1098                           ;! ---------------------------------------------------------------------------------
  1099                           ;! (0) _main                                                 8     8      0    8630
  1100                           ;!                                             71 BANK0      4     4      0
  1101                           ;!                                              0 BANK1      4     4      0
  1102                           ;!                         _ADC_CONFIG
  1103                           ;!                      _ADC_INTERRUPT
  1104                           ;!                     _I2C_Slave_Init
  1105                           ;!                            ___awdiv
  1106                           ;!                            ___fladd
  1107                           ;!                            ___flmul
  1108                           ;!                            ___fltol
  1109                           ;!                           ___xxtofl
  1110                           ;! ---------------------------------------------------------------------------------
  1111                           ;! (1) ___xxtofl                                            14    10      4     566
  1112                           ;!                                              3 COMMON     4     0      4
  1113                           ;!                                              0 BANK0     10    10      0
  1114                           ;! ---------------------------------------------------------------------------------
  1115                           ;! (1) ___fltol                                             11     7      4     427
  1116                           ;!                                             60 BANK0     11     7      4
  1117                           ;!                            ___fladd (ARG)
  1118                           ;!                            ___flmul (ARG)
  1119                           ;!                           ___xxtofl (ARG)
  1120                           ;! ---------------------------------------------------------------------------------
  1121                           ;! (1) ___flmul                                             26    18      8    3353
  1122                           ;!                                             10 BANK0     26    18      8
  1123                           ;!                          __Umul8_16
  1124                           ;!                           ___xxtofl (ARG)
  1125                           ;! ---------------------------------------------------------------------------------
  1126                           ;! (2) __Umul8_16                                            9     7      2     980
  1127                           ;!                                              3 COMMON     4     2      2
  1128                           ;!                                              0 BANK0      5     5      0
  1129                           ;! ---------------------------------------------------------------------------------
  1130                           ;! (1) ___fladd                                             24    16      8    3442
  1131                           ;!                                             36 BANK0     24    16      8
  1132                           ;!                            ___flmul (ARG)
  1133                           ;!                           ___xxtofl (ARG)
  1134                           ;! ---------------------------------------------------------------------------------
  1135                           ;! (1) ___awdiv                                              9     5      4     625
  1136                           ;!                                              3 COMMON     5     1      4
  1137                           ;!                                              0 BANK0      4     4      0
  1138                           ;! ---------------------------------------------------------------------------------
  1139                           ;! (1) _I2C_Slave_Init                                       1     1      0      31
  1140                           ;!                                              3 COMMON     1     1      0
  1141                           ;! ---------------------------------------------------------------------------------
  1142                           ;! (1) _ADC_INTERRUPT                                        0     0      0       0
  1143                           ;! ---------------------------------------------------------------------------------
  1144                           ;! (1) _ADC_CONFIG                                           4     3      1     152
  1145                           ;!                                              3 COMMON     4     3      1
  1146                           ;! ---------------------------------------------------------------------------------
  1147                           ;! Estimated maximum stack depth 2
  1148                           ;! ---------------------------------------------------------------------------------
  1149                           ;! (Depth) Function   	        Calls       Base Space   Used Autos Params    Refs
  1150                           ;! ---------------------------------------------------------------------------------
  1151                           ;! (3) _ISR                                                  3     3      0       0
  1152                           ;!                                              0 COMMON     3     3      0
  1153                           ;! ---------------------------------------------------------------------------------
  1154                           ;! Estimated maximum stack depth 3
  1155                           ;! ---------------------------------------------------------------------------------
  1156                           ;!
  1157                           ;! Call Graph Graphs:
  1158                           ;!
  1159                           ;! _main (ROOT)
  1160                           ;!   _ADC_CONFIG
  1161                           ;!   _ADC_INTERRUPT
  1162                           ;!   _I2C_Slave_Init
  1163                           ;!   ___awdiv
  1164                           ;!   ___fladd
  1165                           ;!     ___flmul (ARG)
  1166                           ;!       __Umul8_16
  1167                           ;!       ___xxtofl (ARG)
  1168                           ;!     ___xxtofl (ARG)
  1169                           ;!   ___flmul
  1170                           ;!     __Umul8_16
  1171                           ;!     ___xxtofl (ARG)
  1172                           ;!   ___fltol
  1173                           ;!     ___fladd (ARG)
  1174                           ;!       ___flmul (ARG)
  1175                           ;!         __Umul8_16
  1176                           ;!         ___xxtofl (ARG)
  1177                           ;!       ___xxtofl (ARG)
  1178                           ;!     ___flmul (ARG)
  1179                           ;!       __Umul8_16
  1180                           ;!       ___xxtofl (ARG)
  1181                           ;!     ___xxtofl (ARG)
  1182                           ;!   ___xxtofl
  1183                           ;!
  1184                           ;! _ISR (ROOT)
  1185                           ;!
  1186                           
  1187                           ;! Address spaces:
  1188                           
  1189                           ;!Name               Size   Autos  Total    Cost      Usage
  1190                           ;!BITCOMMON            E      0       0       0        0.0%
  1191                           ;!EEDATA             100      0       0       0        0.0%
  1192                           ;!NULL                 0      0       0       0        0.0%
  1193                           ;!CODE                 0      0       0       0        0.0%
  1194                           ;!COMMON               E      8       B       1       78.6%
  1195                           ;!BITSFR0              0      0       0       1        0.0%
  1196                           ;!SFR0                 0      0       0       1        0.0%
  1197                           ;!BITSFR1              0      0       0       2        0.0%
  1198                           ;!SFR1                 0      0       0       2        0.0%
  1199                           ;!STACK                0      0       0       2        0.0%
  1200                           ;!ABS                  0      0      5D       3        0.0%
  1201                           ;!BITBANK0            50      0       0       4        0.0%
  1202                           ;!BITSFR3              0      0       0       4        0.0%
  1203                           ;!SFR3                 0      0       0       4        0.0%
  1204                           ;!BANK0               50     4B      4E       5       97.5%
  1205                           ;!BITSFR2              0      0       0       5        0.0%
  1206                           ;!SFR2                 0      0       0       5        0.0%
  1207                           ;!BITBANK1            50      0       0       6        0.0%
  1208                           ;!BANK1               50      4       4       7        5.0%
  1209                           ;!BITBANK3            60      0       0       8        0.0%
  1210                           ;!BANK3               60      0       0       9        0.0%
  1211                           ;!BITBANK2            60      0       0      10        0.0%
  1212                           ;!BANK2               60      0       0      11        0.0%
  1213                           ;!DATA                 0      0      5D      12        0.0%
  1214                           
  1215                           	global	_main
  1216                           
  1217 ;; *************** function _main *****************
  1218 ;; Defined at:
  1219 ;;		line 77 in file "Slave_Temperatura.c"
  1220 ;; Parameters:    Size  Location     Type
  1221 ;;		None
  1222 ;; Auto vars:     Size  Location     Type
  1223 ;;		None
  1224 ;; Return value:  Size  Location     Type
  1225 ;;                  1    wreg      void 
  1226 ;; Registers used:
  1227 ;;		wreg, fsr0l, fsr0h, status,2, status,0, btemp+1, pclath, cstack
  1228 ;; Tracked objects:
  1229 ;;		On entry : B00/0
  1230 ;;		On exit  : 0/0
  1231 ;;		Unchanged: 0/0
  1232 ;; Data sizes:     COMMON   BANK0   BANK1   BANK3   BANK2
  1233 ;;      Params:         0       0       0       0       0
  1234 ;;      Locals:         0       0       4       0       0
  1235 ;;      Temps:          0       4       0       0       0
  1236 ;;      Totals:         0       4       4       0       0
  1237 ;;Total ram usage:        8 bytes
  1238 ;; Hardware stack levels required when called:    3
  1239 ;; This function calls:
  1240 ;;		_ADC_CONFIG
  1241 ;;		_ADC_INTERRUPT
  1242 ;;		_I2C_Slave_Init
  1243 ;;		___awdiv
  1244 ;;		___fladd
  1245 ;;		___flmul
  1246 ;;		___fltol
  1247 ;;		___xxtofl
  1248 ;; This function is called by:
  1249 ;;		Startup code after reset
  1250 ;; This function uses a non-reentrant model
  1251 ;;
  1252                           psect	maintext,global,class=CODE,delta=2,split=1,group=0
  1253                           	file	"Slave_Temperatura.c"
  1254                           	line	77
  1255                           global __pmaintext
  1256                           __pmaintext:	;psect for function _main
  1257  0F27                     psect	maintext
  1258                           	file	"Slave_Temperatura.c"
  1259                           	line	77
  1260                           	global	__size_of_main
  1261                           	__size_of_main	equ	__end_of_main-_main
  1262  00D9                     	
  1263                           _main:	
  1264  0F27                     ;incstack = 0
  1265                           	opt	stack 5
  1266                           ; Regs used in _main: [wreg-fsr0h+status,2+status,0+btemp+1+pclath+cstack]
  1267                           	line	78
  1268                           	
  1269                           l2717:	
  1270  0F27                     ;Slave_Temperatura.c: 78:     ANSEL = 0;
  1271                           	bsf	status, 5	;RP0=1, select bank3
  1272  0F27  1683               	bsf	status, 6	;RP1=1, select bank3
  1273  0F28  1703               	clrf	(392)^0180h	;volatile
  1274  0F29  0188               	line	79
  1275                           ;Slave_Temperatura.c: 79:     ANSELH = 0;
  1276                           	clrf	(393)^0180h	;volatile
  1277  0F2A  0189               	line	80
  1278                           ;Slave_Temperatura.c: 80:     TRISA = 0;
  1279                           	bsf	status, 5	;RP0=1, select bank1
  1280  0F2B  1683               	bcf	status, 6	;RP1=0, select bank1
  1281  0F2C  1303               	clrf	(133)^080h	;volatile
  1282  0F2D  0185               	line	81
  1283                           ;Slave_Temperatura.c: 81:     TRISC = 0x00;
  1284                           	clrf	(135)^080h	;volatile
  1285  0F2E  0187               	line	82
  1286                           	
  1287                           l2719:	
  1288  0F2F                     ;Slave_Temperatura.c: 82:     TRISB = 0xFF;
  1289                           	movlw	low(0FFh)
  1290  0F2F  30FF               	movwf	(134)^080h	;volatile
  1291  0F30  0086               	line	83
  1292                           	
  1293                           l2721:	
  1294  0F31                     ;Slave_Temperatura.c: 83:     TRISD = 0x00;
  1295                           	clrf	(136)^080h	;volatile
  1296  0F31  0188               	line	86
  1297                           	
  1298                           l2723:	
  1299  0F32                     ;Slave_Temperatura.c: 86:     I2C_Slave_Init(0x10);
  1300                           	movlw	low(010h)
  1301  0F32  3010               	fcall	_I2C_Slave_Init
  1302  0F33  120A  158A  2532  120A  158A  	line	89
  1303                           	
  1304                           l2725:	
  1305  0F38                     ;Slave_Temperatura.c: 89:     ADC_CONFIG(13,0);
  1306                           	clrf	(ADC_CONFIG@justif)
  1307  0F38  01F3               	movlw	low(0Dh)
  1308  0F39  300D               	fcall	_ADC_CONFIG
  1309  0F3A  120A  118A  264C  120A  158A  	line	90
  1310                           	
  1311                           l2727:	
  1312  0F3F                     ;Slave_Temperatura.c: 90:     ADC_INTERRUPT();
  1313                           	fcall	_ADC_INTERRUPT
  1314  0F3F  120A  118A  27F6  120A  158A  	line	91
  1315                           	
  1316                           l2729:	
  1317  0F44                     ;Slave_Temperatura.c: 91:     ADCON0bits.GO = 1;
  1318                           	bcf	status, 5	;RP0=0, select bank0
  1319  0F44  1283               	bcf	status, 6	;RP1=0, select bank0
  1320  0F45  1303               	bsf	(31),1	;volatile
  1321  0F46  149F               	goto	l2731
  1322  0F47  2F48               	line	93
  1323                           ;Slave_Temperatura.c: 93:     while(1){
  1324                           	
  1325                           l175:	
  1326  0F48                     	line	94
  1327                           	
  1328                           l2731:	
  1329  0F48                     ;Slave_Temperatura.c: 94:         TEMP = -0.3519*adc1+59.185+4;
  1330                           	movf	(_adc1),w
  1331  0F48  086D               	movwf	(??_main+0)+0
  1332  0F49  00E7               	clrf	(??_main+0)+0+1
  1333  0F4A  01E8               	clrf	(??_main+0)+0+2
  1334  0F4B  01E9               	clrf	(??_main+0)+0+3
  1335  0F4C  01EA               	movf	3+(??_main+0)+0,w
  1336  0F4D  086A               	movwf	(___xxtofl@val+3)
  1337  0F4E  00F6               	movf	2+(??_main+0)+0,w
  1338  0F4F  0869               	movwf	(___xxtofl@val+2)
  1339  0F50  00F5               	movf	1+(??_main+0)+0,w
  1340  0F51  0868               	movwf	(___xxtofl@val+1)
  1341  0F52  00F4               	movf	0+(??_main+0)+0,w
  1342  0F53  0867               	movwf	(___xxtofl@val)
  1343  0F54  00F3               
  1344                           	movlw	low(01h)
  1345  0F55  3001               	fcall	___xxtofl
  1346  0F56  120A  158A  2663  120A  158A  	movf	(3+(?___xxtofl)),w
  1347  0F5B  0876               	bcf	status, 5	;RP0=0, select bank0
  1348  0F5C  1283               	bcf	status, 6	;RP1=0, select bank0
  1349  0F5D  1303               	movwf	(___flmul@a+3)
  1350  0F5E  00B1               	movf	(2+(?___xxtofl)),w
  1351  0F5F  0875               	movwf	(___flmul@a+2)
  1352  0F60  00B0               	movf	(1+(?___xxtofl)),w
  1353  0F61  0874               	movwf	(___flmul@a+1)
  1354  0F62  00AF               	movf	(0+(?___xxtofl)),w
  1355  0F63  0873               	movwf	(___flmul@a)
  1356  0F64  00AE               
  1357                           	movlw	0xbe
  1358  0F65  30BE               	movwf	(___flmul@b+3)
  1359  0F66  00AD               	movlw	0xb4
  1360  0F67  30B4               	movwf	(___flmul@b+2)
  1361  0F68  00AC               	movlw	0x2c
  1362  0F69  302C               	movwf	(___flmul@b+1)
  1363  0F6A  00AB               	movlw	0x3d
  1364  0F6B  303D               	movwf	(___flmul@b)
  1365  0F6C  00AA               
  1366                           	fcall	___flmul
  1367  0F6D  120A  118A  201B  120A  158A  	bcf	status, 5	;RP0=0, select bank0
  1368  0F72  1283               	bcf	status, 6	;RP1=0, select bank0
  1369  0F73  1303               	movf	(3+(?___flmul)),w
  1370  0F74  082D               	movwf	(___fladd@a+3)
  1371  0F75  00CB               	movf	(2+(?___flmul)),w
  1372  0F76  082C               	movwf	(___fladd@a+2)
  1373  0F77  00CA               	movf	(1+(?___flmul)),w
  1374  0F78  082B               	movwf	(___fladd@a+1)
  1375  0F79  00C9               	movf	(0+(?___flmul)),w
  1376  0F7A  082A               	movwf	(___fladd@a)
  1377  0F7B  00C8               
  1378                           	movlw	0x42
  1379  0F7C  3042               	movwf	(___fladd@b+3)
  1380  0F7D  00C7               	movlw	0x6c
  1381  0F7E  306C               	movwf	(___fladd@b+2)
  1382  0F7F  00C6               	movlw	0xbd
  1383  0F80  30BD               	movwf	(___fladd@b+1)
  1384  0F81  00C5               	movlw	0x71
  1385  0F82  3071               	movwf	(___fladd@b)
  1386  0F83  00C4               
  1387                           	fcall	___fladd
  1388  0F84  120A  118A  2390  120A  158A  	bcf	status, 5	;RP0=0, select bank0
  1389  0F89  1283               	bcf	status, 6	;RP1=0, select bank0
  1390  0F8A  1303               	movf	(3+(?___fladd)),w
  1391  0F8B  0847               	bsf	status, 5	;RP0=1, select bank1
  1392  0F8C  1683               	bcf	status, 6	;RP1=0, select bank1
  1393  0F8D  1303               	movwf	(_main$1209+3)^080h
  1394  0F8E  00A3               	bcf	status, 5	;RP0=0, select bank0
  1395  0F8F  1283               	bcf	status, 6	;RP1=0, select bank0
  1396  0F90  1303               	movf	(2+(?___fladd)),w
  1397  0F91  0846               	bsf	status, 5	;RP0=1, select bank1
  1398  0F92  1683               	bcf	status, 6	;RP1=0, select bank1
  1399  0F93  1303               	movwf	(_main$1209+2)^080h
  1400  0F94  00A2               	bcf	status, 5	;RP0=0, select bank0
  1401  0F95  1283               	bcf	status, 6	;RP1=0, select bank0
  1402  0F96  1303               	movf	(1+(?___fladd)),w
  1403  0F97  0845               	bsf	status, 5	;RP0=1, select bank1
  1404  0F98  1683               	bcf	status, 6	;RP1=0, select bank1
  1405  0F99  1303               	movwf	(_main$1209+1)^080h
  1406  0F9A  00A1               	bcf	status, 5	;RP0=0, select bank0
  1407  0F9B  1283               	bcf	status, 6	;RP1=0, select bank0
  1408  0F9C  1303               	movf	(0+(?___fladd)),w
  1409  0F9D  0844               	bsf	status, 5	;RP0=1, select bank1
  1410  0F9E  1683               	bcf	status, 6	;RP1=0, select bank1
  1411  0F9F  1303               	movwf	(_main$1209)^080h
  1412  0FA0  00A0               
  1413                           	
  1414                           l2733:	
  1415  0FA1                     ;Slave_Temperatura.c: 94:         TEMP = -0.3519*adc1+59.185+4;
  1416                           	movf	(_main$1209+3)^080h,w
  1417  0FA1  0823               	bcf	status, 5	;RP0=0, select bank0
  1418  0FA2  1283               	bcf	status, 6	;RP1=0, select bank0
  1419  0FA3  1303               	movwf	(___fladd@a+3)
  1420  0FA4  00CB               	bsf	status, 5	;RP0=1, select bank1
  1421  0FA5  1683               	bcf	status, 6	;RP1=0, select bank1
  1422  0FA6  1303               	movf	(_main$1209+2)^080h,w
  1423  0FA7  0822               	bcf	status, 5	;RP0=0, select bank0
  1424  0FA8  1283               	bcf	status, 6	;RP1=0, select bank0
  1425  0FA9  1303               	movwf	(___fladd@a+2)
  1426  0FAA  00CA               	bsf	status, 5	;RP0=1, select bank1
  1427  0FAB  1683               	bcf	status, 6	;RP1=0, select bank1
  1428  0FAC  1303               	movf	(_main$1209+1)^080h,w
  1429  0FAD  0821               	bcf	status, 5	;RP0=0, select bank0
  1430  0FAE  1283               	bcf	status, 6	;RP1=0, select bank0
  1431  0FAF  1303               	movwf	(___fladd@a+1)
  1432  0FB0  00C9               	bsf	status, 5	;RP0=1, select bank1
  1433  0FB1  1683               	bcf	status, 6	;RP1=0, select bank1
  1434  0FB2  1303               	movf	(_main$1209)^080h,w
  1435  0FB3  0820               	bcf	status, 5	;RP0=0, select bank0
  1436  0FB4  1283               	bcf	status, 6	;RP1=0, select bank0
  1437  0FB5  1303               	movwf	(___fladd@a)
  1438  0FB6  00C8               
  1439                           	movlw	0x40
  1440  0FB7  3040               	movwf	(___fladd@b+3)
  1441  0FB8  00C7               	movlw	0x80
  1442  0FB9  3080               	movwf	(___fladd@b+2)
  1443  0FBA  00C6               	movlw	0x0
  1444  0FBB  3000               	movwf	(___fladd@b+1)
  1445  0FBC  00C5               	movlw	0x0
  1446  0FBD  3000               	movwf	(___fladd@b)
  1447  0FBE  00C4               
  1448                           	fcall	___fladd
  1449  0FBF  120A  118A  2390  120A  158A  	bcf	status, 5	;RP0=0, select bank0
  1450  0FC4  1283               	bcf	status, 6	;RP1=0, select bank0
  1451  0FC5  1303               	movf	(3+(?___fladd)),w
  1452  0FC6  0847               	movwf	(___fltol@f1+3)
  1453  0FC7  00DF               	movf	(2+(?___fladd)),w
  1454  0FC8  0846               	movwf	(___fltol@f1+2)
  1455  0FC9  00DE               	movf	(1+(?___fladd)),w
  1456  0FCA  0845               	movwf	(___fltol@f1+1)
  1457  0FCB  00DD               	movf	(0+(?___fladd)),w
  1458  0FCC  0844               	movwf	(___fltol@f1)
  1459  0FCD  00DC               
  1460                           	fcall	___fltol
  1461  0FCE  120A  118A  275A  120A  158A  	bcf	status, 5	;RP0=0, select bank0
  1462  0FD3  1283               	bcf	status, 6	;RP1=0, select bank0
  1463  0FD4  1303               	movf	(0+(?___fltol)),w
  1464  0FD5  085C               	movwf	(??_main+0)+0
  1465  0FD6  00E7               	movf	(??_main+0)+0,w
  1466  0FD7  0867               	movwf	(_TEMP)
  1467  0FD8  00EC               	line	95
  1468                           	
  1469                           l2735:	
  1470  0FD9                     ;Slave_Temperatura.c: 95:         TEMP = (TEMP+TEMPA)/2;
  1471                           	movlw	02h
  1472  0FD9  3002               	movwf	(___awdiv@divisor)
  1473  0FDA  00F3               	movlw	0
  1474  0FDB  3000               	movwf	((___awdiv@divisor))+1
  1475  0FDC  00F4               	movf	(_TEMP),w
  1476  0FDD  086C               	addwf	(_TEMPA),w
  1477  0FDE  076B               	movwf	(___awdiv@dividend)
  1478  0FDF  00F5               	clrf	(___awdiv@dividend)+1
  1479  0FE0  01F6               	rlf	1+(___awdiv@dividend),f
  1480  0FE1  0DF6               	
  1481                           	fcall	___awdiv
  1482  0FE2  120A  158A  2578  120A  158A  	movf	(0+(?___awdiv)),w
  1483  0FE7  0873               	bcf	status, 5	;RP0=0, select bank0
  1484  0FE8  1283               	bcf	status, 6	;RP1=0, select bank0
  1485  0FE9  1303               	movwf	(??_main+0)+0
  1486  0FEA  00E7               	movf	(??_main+0)+0,w
  1487  0FEB  0867               	movwf	(_TEMP)
  1488  0FEC  00EC               	line	97
  1489                           	
  1490                           l2737:	
  1491  0FED                     ;Slave_Temperatura.c: 97:         if(TEMP >=29){
  1492                           	movlw	low(01Dh)
  1493  0FED  301D               	subwf	(_TEMP),w
  1494  0FEE  026C               	skipc
  1495  0FEF  1C03               	goto	u3871
  1496  0FF0  2FF2               	goto	u3870
  1497  0FF1  2FF3               u3871:
  1498  0FF2                     	goto	l176
  1499  0FF2  2FF5               u3870:
  1500  0FF3                     	line	98
  1501                           	
  1502                           l2739:	
  1503  0FF3                     ;Slave_Temperatura.c: 98:             RD1 = 1;
  1504                           	bsf	(65/8),(65)&7	;volatile
  1505  0FF3  1488               	line	99
  1506                           ;Slave_Temperatura.c: 99:         }
  1507                           	goto	l2741
  1508  0FF4  2FF7               	line	100
  1509                           ;Slave_Temperatura.c: 100:         else{
  1510                           	
  1511                           l176:	
  1512  0FF5                     	line	101
  1513                           ;Slave_Temperatura.c: 101:             RD1 = 0;
  1514                           	bcf	(65/8),(65)&7	;volatile
  1515  0FF5  1088               	goto	l2741
  1516  0FF6  2FF7               	line	102
  1517                           ;Slave_Temperatura.c: 102:         }
  1518                           	
  1519                           l177:	
  1520  0FF7                     	line	105
  1521                           	
  1522                           l2741:	
  1523  0FF7                     ;Slave_Temperatura.c: 105:         TEMPA = TEMP;
  1524                           	movf	(_TEMP),w
  1525  0FF7  086C               	movwf	(??_main+0)+0
  1526  0FF8  00E7               	movf	(??_main+0)+0,w
  1527  0FF9  0867               	movwf	(_TEMPA)
  1528  0FFA  00EB               	goto	l2731
  1529  0FFB  2F48               	line	106
  1530                           ;Slave_Temperatura.c: 106:     }
  1531                           	
  1532                           l178:	
  1533  0FFC                     	goto	l2731
  1534  0FFC  2F48               	
  1535                           l179:	
  1536  0FFD                     	line	108
  1537                           	
  1538                           l180:	
  1539  0FFD                     	global	start
  1540                           	ljmp	start
  1541  0FFD  120A  118A  280C   	opt stack 0
  1542                           GLOBAL	__end_of_main
  1543                           	__end_of_main:
  1544  1000                     	signat	_main,89
  1545                           	global	___xxtofl
  1546                           
  1547 ;; *************** function ___xxtofl *****************
  1548 ;; Defined at:
  1549 ;;		line 10 in file "C:\Program Files (x86)\Microchip\xc8\v2.00\pic\sources\c90\common\xxtofl.c"
  1550 ;; Parameters:    Size  Location     Type
  1551 ;;  sign            1    wreg     unsigned char 
  1552 ;;  val             4    3[COMMON] long 
  1553 ;; Auto vars:     Size  Location     Type
  1554 ;;  sign            1    4[BANK0 ] unsigned char 
  1555 ;;  arg             4    6[BANK0 ] unsigned long 
  1556 ;;  exp             1    5[BANK0 ] unsigned char 
  1557 ;; Return value:  Size  Location     Type
  1558 ;;                  4    3[COMMON] unsigned char 
  1559 ;; Registers used:
  1560 ;;		wreg, status,2, status,0
  1561 ;; Tracked objects:
  1562 ;;		On entry : 0/0
  1563 ;;		On exit  : 0/0
  1564 ;;		Unchanged: 0/0
  1565 ;; Data sizes:     COMMON   BANK0   BANK1   BANK3   BANK2
  1566 ;;      Params:         4       0       0       0       0
  1567 ;;      Locals:         0       6       0       0       0
  1568 ;;      Temps:          0       4       0       0       0
  1569 ;;      Totals:         4      10       0       0       0
  1570 ;;Total ram usage:       14 bytes
  1571 ;; Hardware stack levels used:    1
  1572 ;; Hardware stack levels required when called:    1
  1573 ;; This function calls:
  1574 ;;		Nothing
  1575 ;; This function is called by:
  1576 ;;		_main
  1577 ;; This function uses a non-reentrant model
  1578 ;;
  1579                           psect	text1,local,class=CODE,delta=2,merge=1,group=1
  1580                           	file	"C:\Program Files (x86)\Microchip\xc8\v2.00\pic\sources\c90\common\xxtofl.c"
  1581                           	line	10
  1582                           global __ptext1
  1583                           __ptext1:	;psect for function ___xxtofl
  1584  0E63                     psect	text1
  1585                           	file	"C:\Program Files (x86)\Microchip\xc8\v2.00\pic\sources\c90\common\xxtofl.c"
  1586                           	line	10
  1587                           	global	__size_of___xxtofl
  1588                           	__size_of___xxtofl	equ	__end_of___xxtofl-___xxtofl
  1589  00C4                     	
  1590                           ___xxtofl:	
  1591  0E63                     ;incstack = 0
  1592                           	opt	stack 6
  1593                           ; Regs used in ___xxtofl: [wreg+status,2+status,0]
  1594                           ;___xxtofl@sign stored from wreg
  1595                           	bcf	status, 5	;RP0=0, select bank0
  1596  0E63  1283               	bcf	status, 6	;RP1=0, select bank0
  1597  0E64  1303               	movwf	(___xxtofl@sign)
  1598  0E65  00A4               	line	15
  1599                           	
  1600                           l2673:	
  1601  0E66                     	movf	((___xxtofl@sign)),w
  1602  0E66  0824               	btfsc	status,2
  1603  0E67  1903               	goto	u3731
  1604  0E68  2E6A               	goto	u3730
  1605  0E69  2E6B               u3731:
  1606  0E6A                     	goto	l2679
  1607  0E6A  2E7F               u3730:
  1608  0E6B                     	
  1609                           l2675:	
  1610  0E6B                     	btfss	(___xxtofl@val+3),7
  1611  0E6B  1FF6               	goto	u3741
  1612  0E6C  2E6E               	goto	u3740
  1613  0E6D  2E6F               u3741:
  1614  0E6E                     	goto	l2679
  1615  0E6E  2E7F               u3740:
  1616  0E6F                     	line	16
  1617                           	
  1618                           l2677:	
  1619  0E6F                     	comf	(___xxtofl@val)+0,w
  1620  0E6F  0973               	movwf	(___xxtofl@arg)
  1621  0E70  00A6               	comf	(___xxtofl@val)+1,w
  1622  0E71  0974               	movwf	(___xxtofl@arg+1)
  1623  0E72  00A7               	comf	(___xxtofl@val)+2,w
  1624  0E73  0975               	movwf	(___xxtofl@arg+2)
  1625  0E74  00A8               	comf	(___xxtofl@val)+3,w
  1626  0E75  0976               	movwf	(___xxtofl@arg+3)
  1627  0E76  00A9               	incf	(___xxtofl@arg),f
  1628  0E77  0AA6               	skipnz
  1629  0E78  1903               	incf	(___xxtofl@arg+1),f
  1630  0E79  0AA7               	skipnz
  1631  0E7A  1903               	incf	(___xxtofl@arg+2),f
  1632  0E7B  0AA8               	skipnz
  1633  0E7C  1903               	incf	(___xxtofl@arg+3),f
  1634  0E7D  0AA9               	line	17
  1635                           	goto	l674
  1636  0E7E  2E87               	line	18
  1637                           	
  1638                           l673:	
  1639  0E7F                     	line	19
  1640                           	
  1641                           l2679:	
  1642  0E7F                     	movf	(___xxtofl@val+3),w
  1643  0E7F  0876               	movwf	(___xxtofl@arg+3)
  1644  0E80  00A9               	movf	(___xxtofl@val+2),w
  1645  0E81  0875               	movwf	(___xxtofl@arg+2)
  1646  0E82  00A8               	movf	(___xxtofl@val+1),w
  1647  0E83  0874               	movwf	(___xxtofl@arg+1)
  1648  0E84  00A7               	movf	(___xxtofl@val),w
  1649  0E85  0873               	movwf	(___xxtofl@arg)
  1650  0E86  00A6               
  1651                           	line	20
  1652                           	
  1653                           l674:	
  1654  0E87                     	line	21
  1655                           	movf	(___xxtofl@val+3),w
  1656  0E87  0876               	iorwf	(___xxtofl@val+2),w
  1657  0E88  0475               	iorwf	(___xxtofl@val+1),w
  1658  0E89  0474               	iorwf	(___xxtofl@val),w
  1659  0E8A  0473               	skipz
  1660  0E8B  1D03               	goto	u3751
  1661  0E8C  2E8E               	goto	u3750
  1662  0E8D  2E8F               u3751:
  1663  0E8E                     	goto	l2685
  1664  0E8E  2E99               u3750:
  1665  0E8F                     	line	22
  1666                           	
  1667                           l2681:	
  1668  0E8F                     	movlw	0x0
  1669  0E8F  3000               	movwf	(?___xxtofl+3)
  1670  0E90  00F6               	movlw	0x0
  1671  0E91  3000               	movwf	(?___xxtofl+2)
  1672  0E92  00F5               	movlw	0x0
  1673  0E93  3000               	movwf	(?___xxtofl+1)
  1674  0E94  00F4               	movlw	0x0
  1675  0E95  3000               	movwf	(?___xxtofl)
  1676  0E96  00F3               
  1677                           	goto	l676
  1678  0E97  2F26               	
  1679                           l2683:	
  1680  0E98                     	goto	l676
  1681  0E98  2F26               	
  1682                           l675:	
  1683  0E99                     	line	23
  1684                           	
  1685                           l2685:	
  1686  0E99                     	movlw	low(096h)
  1687  0E99  3096               	movwf	(??___xxtofl+0)+0
  1688  0E9A  00A0               	movf	(??___xxtofl+0)+0,w
  1689  0E9B  0820               	movwf	(___xxtofl@exp)
  1690  0E9C  00A5               	line	24
  1691                           	goto	l2689
  1692  0E9D  2EAC               	
  1693                           l678:	
  1694  0E9E                     	line	25
  1695                           	
  1696                           l2687:	
  1697  0E9E                     	movlw	low(01h)
  1698  0E9E  3001               	movwf	(??___xxtofl+0)+0
  1699  0E9F  00A0               	movf	(??___xxtofl+0)+0,w
  1700  0EA0  0820               	addwf	(___xxtofl@exp),f
  1701  0EA1  07A5               	line	26
  1702                           	movlw	01h
  1703  0EA2  3001               u3765:
  1704  0EA3                     	clrc
  1705  0EA3  1003               	rrf	(___xxtofl@arg+3),f
  1706  0EA4  0CA9               	rrf	(___xxtofl@arg+2),f
  1707  0EA5  0CA8               	rrf	(___xxtofl@arg+1),f
  1708  0EA6  0CA7               	rrf	(___xxtofl@arg),f
  1709  0EA7  0CA6               	addlw	-1
  1710  0EA8  3EFF               	skipz
  1711  0EA9  1D03               	goto	u3765
  1712  0EAA  2EA3               
  1713                           	goto	l2689
  1714  0EAB  2EAC               	line	27
  1715                           	
  1716                           l677:	
  1717  0EAC                     	line	24
  1718                           	
  1719                           l2689:	
  1720  0EAC                     	movlw	high highword(0FE000000h)
  1721  0EAC  30FE               	andwf	(___xxtofl@arg+3),w
  1722  0EAD  0529               	btfss	status,2
  1723  0EAE  1D03               	goto	u3771
  1724  0EAF  2EB1               	goto	u3770
  1725  0EB0  2EB2               u3771:
  1726  0EB1                     	goto	l2687
  1727  0EB1  2E9E               u3770:
  1728  0EB2                     	goto	l680
  1729  0EB2  2ECF               	
  1730                           l679:	
  1731  0EB3                     	line	28
  1732                           	goto	l680
  1733  0EB3  2ECF               	
  1734                           l681:	
  1735  0EB4                     	line	29
  1736                           	
  1737                           l2691:	
  1738  0EB4                     	movlw	low(01h)
  1739  0EB4  3001               	movwf	(??___xxtofl+0)+0
  1740  0EB5  00A0               	movf	(??___xxtofl+0)+0,w
  1741  0EB6  0820               	addwf	(___xxtofl@exp),f
  1742  0EB7  07A5               	line	30
  1743                           	
  1744                           l2693:	
  1745  0EB8                     	movlw	01h
  1746  0EB8  3001               	addwf	(___xxtofl@arg),f
  1747  0EB9  07A6               	movlw	0
  1748  0EBA  3000               	skipnc
  1749  0EBB  1803               movlw 1
  1750  0EBC  3001               	addwf	(___xxtofl@arg+1),f
  1751  0EBD  07A7               	movlw	0
  1752  0EBE  3000               	skipnc
  1753  0EBF  1803               movlw 1
  1754  0EC0  3001               	addwf	(___xxtofl@arg+2),f
  1755  0EC1  07A8               	movlw	0
  1756  0EC2  3000               	skipnc
  1757  0EC3  1803               movlw 1
  1758  0EC4  3001               	addwf	(___xxtofl@arg+3),f
  1759  0EC5  07A9               	line	31
  1760                           	
  1761                           l2695:	
  1762  0EC6                     	movlw	01h
  1763  0EC6  3001               u3785:
  1764  0EC7                     	clrc
  1765  0EC7  1003               	rrf	(___xxtofl@arg+3),f
  1766  0EC8  0CA9               	rrf	(___xxtofl@arg+2),f
  1767  0EC9  0CA8               	rrf	(___xxtofl@arg+1),f
  1768  0ECA  0CA7               	rrf	(___xxtofl@arg),f
  1769  0ECB  0CA6               	addlw	-1
  1770  0ECC  3EFF               	skipz
  1771  0ECD  1D03               	goto	u3785
  1772  0ECE  2EC7               
  1773                           	line	32
  1774                           	
  1775                           l680:	
  1776  0ECF                     	line	28
  1777                           	movlw	high highword(0FF000000h)
  1778  0ECF  30FF               	andwf	(___xxtofl@arg+3),w
  1779  0ED0  0529               	btfss	status,2
  1780  0ED1  1D03               	goto	u3791
  1781  0ED2  2ED4               	goto	u3790
  1782  0ED3  2ED5               u3791:
  1783  0ED4                     	goto	l2691
  1784  0ED4  2EB4               u3790:
  1785  0ED5                     	goto	l2699
  1786  0ED5  2EE3               	
  1787                           l682:	
  1788  0ED6                     	line	33
  1789                           	goto	l2699
  1790  0ED6  2EE3               	
  1791                           l684:	
  1792  0ED7                     	line	34
  1793                           	
  1794                           l2697:	
  1795  0ED7                     	movlw	01h
  1796  0ED7  3001               	subwf	(___xxtofl@exp),f
  1797  0ED8  02A5               	line	35
  1798                           	movlw	01h
  1799  0ED9  3001               	movwf	(??___xxtofl+0)+0
  1800  0EDA  00A0               u3805:
  1801  0EDB                     	clrc
  1802  0EDB  1003               	rlf	(___xxtofl@arg),f
  1803  0EDC  0DA6               	rlf	(___xxtofl@arg+1),f
  1804  0EDD  0DA7               	rlf	(___xxtofl@arg+2),f
  1805  0EDE  0DA8               	rlf	(___xxtofl@arg+3),f
  1806  0EDF  0DA9               	decfsz	(??___xxtofl+0)+0
  1807  0EE0  0BA0               	goto	u3805
  1808  0EE1  2EDB               	goto	l2699
  1809  0EE2  2EE3               	line	36
  1810                           	
  1811                           l683:	
  1812  0EE3                     	line	33
  1813                           	
  1814                           l2699:	
  1815  0EE3                     	btfsc	(___xxtofl@arg+2),(23)&7
  1816  0EE3  1BA8               	goto	u3811
  1817  0EE4  2EE6               	goto	u3810
  1818  0EE5  2EE7               u3811:
  1819  0EE6                     	goto	l687
  1820  0EE6  2EEE               u3810:
  1821  0EE7                     	
  1822                           l2701:	
  1823  0EE7                     	movlw	low(02h)
  1824  0EE7  3002               	subwf	(___xxtofl@exp),w
  1825  0EE8  0225               	skipnc
  1826  0EE9  1803               	goto	u3821
  1827  0EEA  2EEC               	goto	u3820
  1828  0EEB  2EED               u3821:
  1829  0EEC                     	goto	l2697
  1830  0EEC  2ED7               u3820:
  1831  0EED                     	goto	l687
  1832  0EED  2EEE               	
  1833                           l686:	
  1834  0EEE                     	
  1835                           l687:	
  1836  0EEE                     	line	37
  1837                           	btfsc	(___xxtofl@exp),(0)&7
  1838  0EEE  1825               	goto	u3831
  1839  0EEF  2EF1               	goto	u3830
  1840  0EF0  2EF2               u3831:
  1841  0EF1                     	goto	l688
  1842  0EF1  2EFA               u3830:
  1843  0EF2                     	line	38
  1844                           	
  1845                           l2703:	
  1846  0EF2                     	movlw	0FFh
  1847  0EF2  30FF               	andwf	(___xxtofl@arg),f
  1848  0EF3  05A6               	movlw	0FFh
  1849  0EF4  30FF               	andwf	(___xxtofl@arg+1),f
  1850  0EF5  05A7               	movlw	07Fh
  1851  0EF6  307F               	andwf	(___xxtofl@arg+2),f
  1852  0EF7  05A8               	movlw	0FFh
  1853  0EF8  30FF               	andwf	(___xxtofl@arg+3),f
  1854  0EF9  05A9               	
  1855                           l688:	
  1856  0EFA                     	line	39
  1857                           	clrc
  1858  0EFA  1003               	rrf	(___xxtofl@exp),f
  1859  0EFB  0CA5               
  1860                           	line	40
  1861                           	
  1862                           l2705:	
  1863  0EFC                     	movf	(___xxtofl@exp),w
  1864  0EFC  0825               	movwf	(??___xxtofl+0)+0
  1865  0EFD  00A0               	clrf	(??___xxtofl+0)+0+1
  1866  0EFE  01A1               	clrf	(??___xxtofl+0)+0+2
  1867  0EFF  01A2               	clrf	(??___xxtofl+0)+0+3
  1868  0F00  01A3               	movlw	018h
  1869  0F01  3018               u3845:
  1870  0F02                     	clrc
  1871  0F02  1003               	rlf	(??___xxtofl+0)+0,f
  1872  0F03  0DA0               	rlf	(??___xxtofl+0)+1,f
  1873  0F04  0DA1               	rlf	(??___xxtofl+0)+2,f
  1874  0F05  0DA2               	rlf	(??___xxtofl+0)+3,f
  1875  0F06  0DA3               u3840:
  1876  0F07                     	addlw	-1
  1877  0F07  3EFF               	skipz
  1878  0F08  1D03               	goto	u3845
  1879  0F09  2F02               	movf	0+(??___xxtofl+0)+0,w
  1880  0F0A  0820               	iorwf	(___xxtofl@arg),f
  1881  0F0B  04A6               	movf	1+(??___xxtofl+0)+0,w
  1882  0F0C  0821               	iorwf	(___xxtofl@arg+1),f
  1883  0F0D  04A7               	movf	2+(??___xxtofl+0)+0,w
  1884  0F0E  0822               	iorwf	(___xxtofl@arg+2),f
  1885  0F0F  04A8               	movf	3+(??___xxtofl+0)+0,w
  1886  0F10  0823               	iorwf	(___xxtofl@arg+3),f
  1887  0F11  04A9               	line	41
  1888                           	
  1889                           l2707:	
  1890  0F12                     	movf	((___xxtofl@sign)),w
  1891  0F12  0824               	btfsc	status,2
  1892  0F13  1903               	goto	u3851
  1893  0F14  2F16               	goto	u3850
  1894  0F15  2F17               u3851:
  1895  0F16                     	goto	l2713
  1896  0F16  2F1D               u3850:
  1897  0F17                     	
  1898                           l2709:	
  1899  0F17                     	btfss	(___xxtofl@val+3),7
  1900  0F17  1FF6               	goto	u3861
  1901  0F18  2F1A               	goto	u3860
  1902  0F19  2F1B               u3861:
  1903  0F1A                     	goto	l2713
  1904  0F1A  2F1D               u3860:
  1905  0F1B                     	line	42
  1906                           	
  1907                           l2711:	
  1908  0F1B                     	bsf	(___xxtofl@arg)+(31/8),(31)&7
  1909  0F1B  17A9               	goto	l2713
  1910  0F1C  2F1D               	
  1911                           l689:	
  1912  0F1D                     	line	43
  1913                           	
  1914                           l2713:	
  1915  0F1D                     	movf	(___xxtofl@arg+3),w
  1916  0F1D  0829               	movwf	(?___xxtofl+3)
  1917  0F1E  00F6               	movf	(___xxtofl@arg+2),w
  1918  0F1F  0828               	movwf	(?___xxtofl+2)
  1919  0F20  00F5               	movf	(___xxtofl@arg+1),w
  1920  0F21  0827               	movwf	(?___xxtofl+1)
  1921  0F22  00F4               	movf	(___xxtofl@arg),w
  1922  0F23  0826               	movwf	(?___xxtofl)
  1923  0F24  00F3               
  1924                           	goto	l676
  1925  0F25  2F26               	
  1926                           l2715:	
  1927  0F26                     	line	44
  1928                           	
  1929                           l676:	
  1930  0F26                     	return
  1931  0F26  0008               	opt stack 0
  1932                           GLOBAL	__end_of___xxtofl
  1933                           	__end_of___xxtofl:
  1934  0F27                     	signat	___xxtofl,8316
  1935                           	global	___fltol
  1936                           
  1937 ;; *************** function ___fltol *****************
  1938 ;; Defined at:
  1939 ;;		line 43 in file "C:\Program Files (x86)\Microchip\xc8\v2.00\pic\sources\c90\common\fltol.c"
  1940 ;; Parameters:    Size  Location     Type
  1941 ;;  f1              4   60[BANK0 ] unsigned char 
  1942 ;; Auto vars:     Size  Location     Type
  1943 ;;  exp1            1   70[BANK0 ] unsigned char 
  1944 ;;  sign1           1   69[BANK0 ] unsigned char 
  1945 ;; Return value:  Size  Location     Type
  1946 ;;                  4   60[BANK0 ] long 
  1947 ;; Registers used:
  1948 ;;		wreg, status,2, status,0
  1949 ;; Tracked objects:
  1950 ;;		On entry : 0/0
  1951 ;;		On exit  : 0/0
  1952 ;;		Unchanged: 0/0
  1953 ;; Data sizes:     COMMON   BANK0   BANK1   BANK3   BANK2
  1954 ;;      Params:         0       4       0       0       0
  1955 ;;      Locals:         0       2       0       0       0
  1956 ;;      Temps:          0       5       0       0       0
  1957 ;;      Totals:         0      11       0       0       0
  1958 ;;Total ram usage:       11 bytes
  1959 ;; Hardware stack levels used:    1
  1960 ;; Hardware stack levels required when called:    1
  1961 ;; This function calls:
  1962 ;;		Nothing
  1963 ;; This function is called by:
  1964 ;;		_main
  1965 ;; This function uses a non-reentrant model
  1966 ;;
  1967                           psect	text2,local,class=CODE,delta=2,merge=1,group=1
  1968                           	file	"C:\Program Files (x86)\Microchip\xc8\v2.00\pic\sources\c90\common\fltol.c"
  1969                           	line	43
  1970                           global __ptext2
  1971                           __ptext2:	;psect for function ___fltol
  1972  075A                     psect	text2
  1973                           	file	"C:\Program Files (x86)\Microchip\xc8\v2.00\pic\sources\c90\common\fltol.c"
  1974                           	line	43
  1975                           	global	__size_of___fltol
  1976                           	__size_of___fltol	equ	__end_of___fltol-___fltol
  1977  009C                     	
  1978                           ___fltol:	
  1979  075A                     ;incstack = 0
  1980                           	opt	stack 6
  1981                           ; Regs used in ___fltol: [wreg+status,2+status,0]
  1982                           	line	47
  1983                           	
  1984                           l2303:	
  1985  075A                     	bcf	status, 5	;RP0=0, select bank0
  1986  075A  1283               	bcf	status, 6	;RP1=0, select bank0
  1987  075B  1303               	movf	(___fltol@f1),w
  1988  075C  085C               	movwf	(??___fltol+0)+0
  1989  075D  00E0               	movf	(___fltol@f1+1),w
  1990  075E  085D               	movwf	((??___fltol+0)+0+1)
  1991  075F  00E1               	movf	(___fltol@f1+2),w
  1992  0760  085E               	movwf	((??___fltol+0)+0+2)
  1993  0761  00E2               	movf	(___fltol@f1+3),w
  1994  0762  085F               	movwf	((??___fltol+0)+0+3)
  1995  0763  00E3               	clrc
  1996  0764  1003               	rlf	(??___fltol+0)+2,w
  1997  0765  0D62               	rlf	(??___fltol+0)+3,w
  1998  0766  0D63               	movwf	(??___fltol+4)+0
  1999  0767  00E4               	movf	(??___fltol+4)+0,w
  2000  0768  0864               	movwf	(___fltol@exp1)
  2001  0769  00E6               	movf	(((___fltol@exp1))),w
  2002  076A  0866               	btfss	status,2
  2003  076B  1D03               	goto	u2801
  2004  076C  2F6E               	goto	u2800
  2005  076D  2F6F               u2801:
  2006  076E                     	goto	l2309
  2007  076E  2F79               u2800:
  2008  076F                     	line	48
  2009                           	
  2010                           l2305:	
  2011  076F                     	movlw	high highword(0)
  2012  076F  3000               	movwf	(?___fltol+3)
  2013  0770  00DF               	movlw	low highword(0)
  2014  0771  3000               	movwf	(?___fltol+2)
  2015  0772  00DE               	movlw	high(0)
  2016  0773  3000               	movwf	(?___fltol+1)
  2017  0774  00DD               	movlw	low(0)
  2018  0775  3000               	movwf	(?___fltol)
  2019  0776  00DC               
  2020                           	goto	l452
  2021  0777  2FF5               	
  2022                           l2307:	
  2023  0778                     	goto	l452
  2024  0778  2FF5               	
  2025                           l451:	
  2026  0779                     	line	49
  2027                           	
  2028                           l2309:	
  2029  0779                     	movf	(___fltol@f1),w
  2030  0779  085C               	movwf	(??___fltol+0)+0
  2031  077A  00E0               	movf	(___fltol@f1+1),w
  2032  077B  085D               	movwf	((??___fltol+0)+0+1)
  2033  077C  00E1               	movf	(___fltol@f1+2),w
  2034  077D  085E               	movwf	((??___fltol+0)+0+2)
  2035  077E  00E2               	movf	(___fltol@f1+3),w
  2036  077F  085F               	movwf	((??___fltol+0)+0+3)
  2037  0780  00E3               	movlw	01Fh
  2038  0781  301F               u2815:
  2039  0782                     	clrc
  2040  0782  1003               	rrf	(??___fltol+0)+3,f
  2041  0783  0CE3               	rrf	(??___fltol+0)+2,f
  2042  0784  0CE2               	rrf	(??___fltol+0)+1,f
  2043  0785  0CE1               	rrf	(??___fltol+0)+0,f
  2044  0786  0CE0               u2810:
  2045  0787                     	addlw	-1
  2046  0787  3EFF               	skipz
  2047  0788  1D03               	goto	u2815
  2048  0789  2F82               	movf	0+(??___fltol+0)+0,w
  2049  078A  0860               	movwf	(??___fltol+4)+0
  2050  078B  00E4               	movf	(??___fltol+4)+0,w
  2051  078C  0864               	movwf	(___fltol@sign1)
  2052  078D  00E5               	line	50
  2053                           	
  2054                           l2311:	
  2055  078E                     	bsf	(___fltol@f1)+(23/8),(23)&7
  2056  078E  17DE               	line	51
  2057                           	
  2058                           l2313:	
  2059  078F                     	movlw	0FFh
  2060  078F  30FF               	andwf	(___fltol@f1),f
  2061  0790  05DC               	movlw	0FFh
  2062  0791  30FF               	andwf	(___fltol@f1+1),f
  2063  0792  05DD               	movlw	0FFh
  2064  0793  30FF               	andwf	(___fltol@f1+2),f
  2065  0794  05DE               	movlw	0
  2066  0795  3000               	andwf	(___fltol@f1+3),f
  2067  0796  05DF               	line	52
  2068                           	
  2069                           l2315:	
  2070  0797                     	movlw	096h
  2071  0797  3096               	subwf	(___fltol@exp1),f
  2072  0798  02E6               	line	53
  2073                           	
  2074                           l2317:	
  2075  0799                     	btfss	(___fltol@exp1),7
  2076  0799  1FE6               	goto	u2821
  2077  079A  2F9C               	goto	u2820
  2078  079B  2F9D               u2821:
  2079  079C                     	goto	l2327
  2080  079C  2FC2               u2820:
  2081  079D                     	line	54
  2082                           	
  2083                           l2319:	
  2084  079D                     	movf	(___fltol@exp1),w
  2085  079D  0866               	xorlw	80h
  2086  079E  3A80               	addlw	-((-23)^80h)
  2087  079F  3E97               	skipnc
  2088  07A0  1803               	goto	u2831
  2089  07A1  2FA3               	goto	u2830
  2090  07A2  2FA4               u2831:
  2091  07A3                     	goto	l2325
  2092  07A3  2FAF               u2830:
  2093  07A4                     	line	55
  2094                           	
  2095                           l2321:	
  2096  07A4                     	movlw	high highword(0)
  2097  07A4  3000               	movwf	(?___fltol+3)
  2098  07A5  00DF               	movlw	low highword(0)
  2099  07A6  3000               	movwf	(?___fltol+2)
  2100  07A7  00DE               	movlw	high(0)
  2101  07A8  3000               	movwf	(?___fltol+1)
  2102  07A9  00DD               	movlw	low(0)
  2103  07AA  3000               	movwf	(?___fltol)
  2104  07AB  00DC               
  2105                           	goto	l452
  2106  07AC  2FF5               	
  2107                           l2323:	
  2108  07AD                     	goto	l452
  2109  07AD  2FF5               	
  2110                           l454:	
  2111  07AE                     	goto	l2325
  2112  07AE  2FAF               	line	56
  2113                           	
  2114                           l455:	
  2115  07AF                     	line	57
  2116                           	
  2117                           l2325:	
  2118  07AF                     	movlw	01h
  2119  07AF  3001               u2845:
  2120  07B0                     	clrc
  2121  07B0  1003               	rrf	(___fltol@f1+3),f
  2122  07B1  0CDF               	rrf	(___fltol@f1+2),f
  2123  07B2  0CDE               	rrf	(___fltol@f1+1),f
  2124  07B3  0CDD               	rrf	(___fltol@f1),f
  2125  07B4  0CDC               	addlw	-1
  2126  07B5  3EFF               	skipz
  2127  07B6  1D03               	goto	u2845
  2128  07B7  2FB0               
  2129                           	line	58
  2130                           	movlw	low(01h)
  2131  07B8  3001               	movwf	(??___fltol+0)+0
  2132  07B9  00E0               	movf	(??___fltol+0)+0,w
  2133  07BA  0860               	addwf	(___fltol@exp1),f
  2134  07BB  07E6               	btfss	status,2
  2135  07BC  1D03               	goto	u2851
  2136  07BD  2FBF               	goto	u2850
  2137  07BE  2FC0               u2851:
  2138  07BF                     	goto	l2325
  2139  07BF  2FAF               u2850:
  2140  07C0                     	goto	l2335
  2141  07C0  2FE5               	
  2142                           l456:	
  2143  07C1                     	line	59
  2144                           	goto	l2335
  2145  07C1  2FE5               	
  2146                           l453:	
  2147  07C2                     	line	60
  2148                           	
  2149                           l2327:	
  2150  07C2                     	movlw	low(020h)
  2151  07C2  3020               	subwf	(___fltol@exp1),w
  2152  07C3  0266               	skipc
  2153  07C4  1C03               	goto	u2861
  2154  07C5  2FC7               	goto	u2860
  2155  07C6  2FC8               u2861:
  2156  07C7                     	goto	l459
  2157  07C7  2FDE               u2860:
  2158  07C8                     	line	61
  2159                           	
  2160                           l2329:	
  2161  07C8                     	movlw	high highword(0)
  2162  07C8  3000               	movwf	(?___fltol+3)
  2163  07C9  00DF               	movlw	low highword(0)
  2164  07CA  3000               	movwf	(?___fltol+2)
  2165  07CB  00DE               	movlw	high(0)
  2166  07CC  3000               	movwf	(?___fltol+1)
  2167  07CD  00DD               	movlw	low(0)
  2168  07CE  3000               	movwf	(?___fltol)
  2169  07CF  00DC               
  2170                           	goto	l452
  2171  07D0  2FF5               	
  2172                           l2331:	
  2173  07D1                     	goto	l452
  2174  07D1  2FF5               	
  2175                           l458:	
  2176  07D2                     	line	62
  2177                           	goto	l459
  2178  07D2  2FDE               	
  2179                           l460:	
  2180  07D3                     	line	63
  2181                           	
  2182                           l2333:	
  2183  07D3                     	movlw	01h
  2184  07D3  3001               	movwf	(??___fltol+0)+0
  2185  07D4  00E0               u2875:
  2186  07D5                     	clrc
  2187  07D5  1003               	rlf	(___fltol@f1),f
  2188  07D6  0DDC               	rlf	(___fltol@f1+1),f
  2189  07D7  0DDD               	rlf	(___fltol@f1+2),f
  2190  07D8  0DDE               	rlf	(___fltol@f1+3),f
  2191  07D9  0DDF               	decfsz	(??___fltol+0)+0
  2192  07DA  0BE0               	goto	u2875
  2193  07DB  2FD5               	line	64
  2194                           	movlw	01h
  2195  07DC  3001               	subwf	(___fltol@exp1),f
  2196  07DD  02E6               	line	65
  2197                           	
  2198                           l459:	
  2199  07DE                     	line	62
  2200                           	movf	((___fltol@exp1)),w
  2201  07DE  0866               	btfss	status,2
  2202  07DF  1D03               	goto	u2881
  2203  07E0  2FE2               	goto	u2880
  2204  07E1  2FE3               u2881:
  2205  07E2                     	goto	l2333
  2206  07E2  2FD3               u2880:
  2207  07E3                     	goto	l2335
  2208  07E3  2FE5               	
  2209                           l461:	
  2210  07E4                     	goto	l2335
  2211  07E4  2FE5               	line	66
  2212                           	
  2213                           l457:	
  2214  07E5                     	line	67
  2215                           	
  2216                           l2335:	
  2217  07E5                     	movf	((___fltol@sign1)),w
  2218  07E5  0865               	btfsc	status,2
  2219  07E6  1903               	goto	u2891
  2220  07E7  2FE9               	goto	u2890
  2221  07E8  2FEA               u2891:
  2222  07E9                     	goto	l462
  2223  07E9  2FF5               u2890:
  2224  07EA                     	line	68
  2225                           	
  2226                           l2337:	
  2227  07EA                     	comf	(___fltol@f1),f
  2228  07EA  09DC               	comf	(___fltol@f1+1),f
  2229  07EB  09DD               	comf	(___fltol@f1+2),f
  2230  07EC  09DE               	comf	(___fltol@f1+3),f
  2231  07ED  09DF               	incf	(___fltol@f1),f
  2232  07EE  0ADC               	skipnz
  2233  07EF  1903               	incf	(___fltol@f1+1),f
  2234  07F0  0ADD               	skipnz
  2235  07F1  1903               	incf	(___fltol@f1+2),f
  2236  07F2  0ADE               	skipnz
  2237  07F3  1903               	incf	(___fltol@f1+3),f
  2238  07F4  0ADF               	
  2239                           l462:	
  2240  07F5                     	line	69
  2241                           	line	70
  2242                           	
  2243                           l452:	
  2244  07F5                     	return
  2245  07F5  0008               	opt stack 0
  2246                           GLOBAL	__end_of___fltol
  2247                           	__end_of___fltol:
  2248  07F6                     	signat	___fltol,4220
  2249                           	global	___flmul
  2250                           
  2251 ;; *************** function ___flmul *****************
  2252 ;; Defined at:
  2253 ;;		line 8 in file "C:\Program Files (x86)\Microchip\xc8\v2.00\pic\sources\c90\common\sprcmul.c"
  2254 ;; Parameters:    Size  Location     Type
  2255 ;;  b               4   10[BANK0 ] long 
  2256 ;;  a               4   14[BANK0 ] long 
  2257 ;; Auto vars:     Size  Location     Type
  2258 ;;  prod            4   30[BANK0 ] struct .
  2259 ;;  grs             4   25[BANK0 ] unsigned long 
  2260 ;;  temp            2   34[BANK0 ] struct .
  2261 ;;  bexp            1   29[BANK0 ] unsigned char 
  2262 ;;  aexp            1   24[BANK0 ] unsigned char 
  2263 ;;  sign            1   23[BANK0 ] unsigned char 
  2264 ;; Return value:  Size  Location     Type
  2265 ;;                  4   10[BANK0 ] unsigned char 
  2266 ;; Registers used:
  2267 ;;		wreg, status,2, status,0, btemp+1, pclath, cstack
  2268 ;; Tracked objects:
  2269 ;;		On entry : 0/0
  2270 ;;		On exit  : 0/0
  2271 ;;		Unchanged: 0/0
  2272 ;; Data sizes:     COMMON   BANK0   BANK1   BANK3   BANK2
  2273 ;;      Params:         0       8       0       0       0
  2274 ;;      Locals:         0      13       0       0       0
  2275 ;;      Temps:          0       5       0       0       0
  2276 ;;      Totals:         0      26       0       0       0
  2277 ;;Total ram usage:       26 bytes
  2278 ;; Hardware stack levels used:    1
  2279 ;; Hardware stack levels required when called:    2
  2280 ;; This function calls:
  2281 ;;		__Umul8_16
  2282 ;; This function is called by:
  2283 ;;		_main
  2284 ;; This function uses a non-reentrant model
  2285 ;;
  2286                           psect	text3,local,class=CODE,delta=2,merge=1,group=1
  2287                           	file	"C:\Program Files (x86)\Microchip\xc8\v2.00\pic\sources\c90\common\sprcmul.c"
  2288                           	line	8
  2289                           global __ptext3
  2290                           __ptext3:	;psect for function ___flmul
  2291  001B                     psect	text3
  2292                           	file	"C:\Program Files (x86)\Microchip\xc8\v2.00\pic\sources\c90\common\sprcmul.c"
  2293                           	line	8
  2294                           	global	__size_of___flmul
  2295                           	__size_of___flmul	equ	__end_of___flmul-___flmul
  2296  0375                     	
  2297                           ___flmul:	
  2298  001B                     ;incstack = 0
  2299                           	opt	stack 5
  2300                           ; Regs used in ___flmul: [wreg+status,2+status,0+btemp+1+pclath+cstack]
  2301                           	line	17
  2302                           	
  2303                           l2533:	
  2304  001B                     	bcf	status, 5	;RP0=0, select bank0
  2305  001B  1283               	bcf	status, 6	;RP1=0, select bank0
  2306  001C  1303               	movf	0+(___flmul@b)+03h,w
  2307  001D  082D               	andlw	080h
  2308  001E  3980               	movwf	(??___flmul+0)+0
  2309  001F  00B2               	movf	(??___flmul+0)+0,w
  2310  0020  0832               	movwf	(___flmul@sign)
  2311  0021  00B7               	line	18
  2312                           	
  2313                           l2535:	
  2314  0022                     	movf	0+(___flmul@b)+03h,w
  2315  0022  082D               	movwf	(??___flmul+0)+0
  2316  0023  00B2               	addwf	(??___flmul+0)+0,w
  2317  0024  0732               	movwf	(??___flmul+1)+0
  2318  0025  00B3               	movf	(??___flmul+1)+0,w
  2319  0026  0833               	movwf	(___flmul@bexp)
  2320  0027  00BD               	line	19
  2321                           	
  2322                           l2537:	
  2323  0028                     	btfss	0+(___flmul@b)+02h,(7)&7
  2324  0028  1FAC               	goto	u3361
  2325  0029  282B               	goto	u3360
  2326  002A  282C               u3361:
  2327  002B                     	goto	l2541
  2328  002B  282E               u3360:
  2329  002C                     	line	20
  2330                           	
  2331                           l2539:	
  2332  002C                     	bsf	(___flmul@bexp)+(0/8),(0)&7
  2333  002C  143D               	goto	l2541
  2334  002D  282E               	line	21
  2335                           	
  2336                           l644:	
  2337  002E                     	line	24
  2338                           	
  2339                           l2541:	
  2340  002E                     	movf	((___flmul@bexp)),w
  2341  002E  083D               	btfsc	status,2
  2342  002F  1903               	goto	u3371
  2343  0030  2832               	goto	u3370
  2344  0031  2833               u3371:
  2345  0032                     	goto	l2549
  2346  0032  2843               u3370:
  2347  0033                     	line	26
  2348                           	
  2349                           l2543:	
  2350  0033                     		incf	((___flmul@bexp)),w
  2351  0033  0A3D               	btfss	status,2
  2352  0034  1D03               	goto	u3381
  2353  0035  2837               	goto	u3380
  2354  0036  2838               u3381:
  2355  0037                     	goto	l2547
  2356  0037  2841               u3380:
  2357  0038                     	line	28
  2358                           	
  2359                           l2545:	
  2360  0038                     	movlw	0x0
  2361  0038  3000               	movwf	(___flmul@b+3)
  2362  0039  00AD               	movlw	0x0
  2363  003A  3000               	movwf	(___flmul@b+2)
  2364  003B  00AC               	movlw	0x0
  2365  003C  3000               	movwf	(___flmul@b+1)
  2366  003D  00AB               	movlw	0x0
  2367  003E  3000               	movwf	(___flmul@b)
  2368  003F  00AA               
  2369                           	goto	l2547
  2370  0040  2841               	line	29
  2371                           	
  2372                           l646:	
  2373  0041                     	line	31
  2374                           	
  2375                           l2547:	
  2376  0041                     	bsf	(___flmul@b)+(23/8),(23)&7
  2377  0041  17AC               	line	33
  2378                           	goto	l2551
  2379  0042  284C               	line	34
  2380                           	
  2381                           l645:	
  2382  0043                     	line	36
  2383                           	
  2384                           l2549:	
  2385  0043                     	movlw	0x0
  2386  0043  3000               	movwf	(___flmul@b+3)
  2387  0044  00AD               	movlw	0x0
  2388  0045  3000               	movwf	(___flmul@b+2)
  2389  0046  00AC               	movlw	0x0
  2390  0047  3000               	movwf	(___flmul@b+1)
  2391  0048  00AB               	movlw	0x0
  2392  0049  3000               	movwf	(___flmul@b)
  2393  004A  00AA               
  2394                           	goto	l2551
  2395  004B  284C               	line	37
  2396                           	
  2397                           l647:	
  2398  004C                     	line	39
  2399                           	
  2400                           l2551:	
  2401  004C                     	movf	0+(___flmul@a)+03h,w
  2402  004C  0831               	andlw	080h
  2403  004D  3980               	movwf	(??___flmul+0)+0
  2404  004E  00B2               	movf	(??___flmul+0)+0,w
  2405  004F  0832               	xorwf	(___flmul@sign),f
  2406  0050  06B7               	line	40
  2407                           	
  2408                           l2553:	
  2409  0051                     	movf	0+(___flmul@a)+03h,w
  2410  0051  0831               	movwf	(??___flmul+0)+0
  2411  0052  00B2               	addwf	(??___flmul+0)+0,w
  2412  0053  0732               	movwf	(??___flmul+1)+0
  2413  0054  00B3               	movf	(??___flmul+1)+0,w
  2414  0055  0833               	movwf	(___flmul@aexp)
  2415  0056  00B8               	line	41
  2416                           	
  2417                           l2555:	
  2418  0057                     	btfss	0+(___flmul@a)+02h,(7)&7
  2419  0057  1FB0               	goto	u3391
  2420  0058  285A               	goto	u3390
  2421  0059  285B               u3391:
  2422  005A                     	goto	l2559
  2423  005A  285D               u3390:
  2424  005B                     	line	42
  2425                           	
  2426                           l2557:	
  2427  005B                     	bsf	(___flmul@aexp)+(0/8),(0)&7
  2428  005B  1438               	goto	l2559
  2429  005C  285D               	line	43
  2430                           	
  2431                           l648:	
  2432  005D                     	line	45
  2433                           	
  2434                           l2559:	
  2435  005D                     	movf	((___flmul@aexp)),w
  2436  005D  0838               	btfsc	status,2
  2437  005E  1903               	goto	u3401
  2438  005F  2861               	goto	u3400
  2439  0060  2862               u3401:
  2440  0061                     	goto	l2567
  2441  0061  2872               u3400:
  2442  0062                     	line	48
  2443                           	
  2444                           l2561:	
  2445  0062                     		incf	((___flmul@aexp)),w
  2446  0062  0A38               	btfss	status,2
  2447  0063  1D03               	goto	u3411
  2448  0064  2866               	goto	u3410
  2449  0065  2867               u3411:
  2450  0066                     	goto	l2565
  2451  0066  2870               u3410:
  2452  0067                     	line	50
  2453                           	
  2454                           l2563:	
  2455  0067                     	movlw	0x0
  2456  0067  3000               	movwf	(___flmul@a+3)
  2457  0068  00B1               	movlw	0x0
  2458  0069  3000               	movwf	(___flmul@a+2)
  2459  006A  00B0               	movlw	0x0
  2460  006B  3000               	movwf	(___flmul@a+1)
  2461  006C  00AF               	movlw	0x0
  2462  006D  3000               	movwf	(___flmul@a)
  2463  006E  00AE               
  2464                           	goto	l2565
  2465  006F  2870               	line	51
  2466                           	
  2467                           l650:	
  2468  0070                     	line	53
  2469                           	
  2470                           l2565:	
  2471  0070                     	bsf	(___flmul@a)+(23/8),(23)&7
  2472  0070  17B0               	line	54
  2473                           	goto	l2569
  2474  0071  287B               	line	55
  2475                           	
  2476                           l649:	
  2477  0072                     	line	57
  2478                           	
  2479                           l2567:	
  2480  0072                     	movlw	0x0
  2481  0072  3000               	movwf	(___flmul@a+3)
  2482  0073  00B1               	movlw	0x0
  2483  0074  3000               	movwf	(___flmul@a+2)
  2484  0075  00B0               	movlw	0x0
  2485  0076  3000               	movwf	(___flmul@a+1)
  2486  0077  00AF               	movlw	0x0
  2487  0078  3000               	movwf	(___flmul@a)
  2488  0079  00AE               
  2489                           	goto	l2569
  2490  007A  287B               	line	58
  2491                           	
  2492                           l651:	
  2493  007B                     	line	65
  2494                           	
  2495                           l2569:	
  2496  007B                     	movf	((___flmul@aexp)),w
  2497  007B  0838               	btfsc	status,2
  2498  007C  1903               	goto	u3421
  2499  007D  287F               	goto	u3420
  2500  007E  2880               u3421:
  2501  007F                     	goto	l2573
  2502  007F  2886               u3420:
  2503  0080                     	
  2504                           l2571:	
  2505  0080                     	movf	((___flmul@bexp)),w
  2506  0080  083D               	btfss	status,2
  2507  0081  1D03               	goto	u3431
  2508  0082  2884               	goto	u3430
  2509  0083  2885               u3431:
  2510  0084                     	goto	l2577
  2511  0084  2890               u3430:
  2512  0085                     	goto	l2573
  2513  0085  2886               	
  2514                           l654:	
  2515  0086                     	line	66
  2516                           	
  2517                           l2573:	
  2518  0086                     	movlw	0x0
  2519  0086  3000               	movwf	(?___flmul+3)
  2520  0087  00AD               	movlw	0x0
  2521  0088  3000               	movwf	(?___flmul+2)
  2522  0089  00AC               	movlw	0x0
  2523  008A  3000               	movwf	(?___flmul+1)
  2524  008B  00AB               	movlw	0x0
  2525  008C  3000               	movwf	(?___flmul)
  2526  008D  00AA               
  2527                           	goto	l655
  2528  008E  2B8F               	
  2529                           l2575:	
  2530  008F                     	goto	l655
  2531  008F  2B8F               	line	67
  2532                           	
  2533                           l652:	
  2534  0090                     	line	119
  2535                           	
  2536                           l2577:	
  2537  0090                     	movf	(___flmul@b),w
  2538  0090  082A               	movwf	(??___flmul+0)+0
  2539  0091  00B2               	movf	(??___flmul+0)+0,w
  2540  0092  0832               	movwf	(__Umul8_16@multiplicand)
  2541  0093  00F3               	movf	0+(___flmul@a)+02h,w
  2542  0094  0830               	fcall	__Umul8_16
  2543  0095  120A  158A  254C  120A  118A  	movf	(1+(?__Umul8_16)),w
  2544  009A  0874               	bcf	status, 5	;RP0=0, select bank0
  2545  009B  1283               	bcf	status, 6	;RP1=0, select bank0
  2546  009C  1303               	movwf	(___flmul@temp+1)
  2547  009D  00C3               	movf	(0+(?__Umul8_16)),w
  2548  009E  0873               	movwf	(___flmul@temp)
  2549  009F  00C2               	line	120
  2550                           	
  2551                           l2579:	
  2552  00A0                     	movf	(___flmul@temp),w
  2553  00A0  0842               	movwf	(??___flmul+0)+0
  2554  00A1  00B2               	clrf	(??___flmul+0)+0+1
  2555  00A2  01B3               	clrf	(??___flmul+0)+0+2
  2556  00A3  01B4               	clrf	(??___flmul+0)+0+3
  2557  00A4  01B5               	movf	3+(??___flmul+0)+0,w
  2558  00A5  0835               	movwf	(___flmul@grs+3)
  2559  00A6  00BC               	movf	2+(??___flmul+0)+0,w
  2560  00A7  0834               	movwf	(___flmul@grs+2)
  2561  00A8  00BB               	movf	1+(??___flmul+0)+0,w
  2562  00A9  0833               	movwf	(___flmul@grs+1)
  2563  00AA  00BA               	movf	0+(??___flmul+0)+0,w
  2564  00AB  0832               	movwf	(___flmul@grs)
  2565  00AC  00B9               
  2566                           	line	121
  2567                           	
  2568                           l2581:	
  2569  00AD                     	movf	0+(___flmul@temp)+01h,w
  2570  00AD  0843               	movwf	(??___flmul+0)+0
  2571  00AE  00B2               	clrf	(??___flmul+0)+0+1
  2572  00AF  01B3               	clrf	(??___flmul+0)+0+2
  2573  00B0  01B4               	clrf	(??___flmul+0)+0+3
  2574  00B1  01B5               	movf	3+(??___flmul+0)+0,w
  2575  00B2  0835               	movwf	(___flmul@prod+3)
  2576  00B3  00C1               	movf	2+(??___flmul+0)+0,w
  2577  00B4  0834               	movwf	(___flmul@prod+2)
  2578  00B5  00C0               	movf	1+(??___flmul+0)+0,w
  2579  00B6  0833               	movwf	(___flmul@prod+1)
  2580  00B7  00BF               	movf	0+(??___flmul+0)+0,w
  2581  00B8  0832               	movwf	(___flmul@prod)
  2582  00B9  00BE               
  2583                           	line	122
  2584                           	movf	0+(___flmul@b)+01h,w
  2585  00BA  082B               	movwf	(??___flmul+0)+0
  2586  00BB  00B2               	movf	(??___flmul+0)+0,w
  2587  00BC  0832               	movwf	(__Umul8_16@multiplicand)
  2588  00BD  00F3               	movf	0+(___flmul@a)+01h,w
  2589  00BE  082F               	fcall	__Umul8_16
  2590  00BF  120A  158A  254C  120A  118A  	movf	(1+(?__Umul8_16)),w
  2591  00C4  0874               	bcf	status, 5	;RP0=0, select bank0
  2592  00C5  1283               	bcf	status, 6	;RP1=0, select bank0
  2593  00C6  1303               	movwf	(___flmul@temp+1)
  2594  00C7  00C3               	movf	(0+(?__Umul8_16)),w
  2595  00C8  0873               	movwf	(___flmul@temp)
  2596  00C9  00C2               	line	123
  2597                           	
  2598                           l2583:	
  2599  00CA                     	movf	(___flmul@temp),w
  2600  00CA  0842               	movwf	(??___flmul+0)+0
  2601  00CB  00B2               	clrf	(??___flmul+0)+0+1
  2602  00CC  01B3               	clrf	(??___flmul+0)+0+2
  2603  00CD  01B4               	clrf	(??___flmul+0)+0+3
  2604  00CE  01B5               	movf	0+(??___flmul+0)+0,w
  2605  00CF  0832               	addwf	(___flmul@grs),f
  2606  00D0  07B9               	movf	1+(??___flmul+0)+0,w
  2607  00D1  0833               	clrz
  2608  00D2  1103               	skipnc
  2609  00D3  1803               	addlw	1
  2610  00D4  3E01               	skipnz
  2611  00D5  1903               	goto	u3441
  2612  00D6  28D8               	addwf	(___flmul@grs+1),f
  2613  00D7  07BA               u3441:
  2614  00D8                     	movf	2+(??___flmul+0)+0,w
  2615  00D8  0834               	clrz
  2616  00D9  1103               	skipnc
  2617  00DA  1803               	addlw	1
  2618  00DB  3E01               	skipnz
  2619  00DC  1903               	goto	u3442
  2620  00DD  28DF               	addwf	(___flmul@grs+2),f
  2621  00DE  07BB               u3442:
  2622  00DF                     	movf	3+(??___flmul+0)+0,w
  2623  00DF  0835               	clrz
  2624  00E0  1103               	skipnc
  2625  00E1  1803               	addlw	1
  2626  00E2  3E01               	skipnz
  2627  00E3  1903               	goto	u3443
  2628  00E4  28E6               	addwf	(___flmul@grs+3),f
  2629  00E5  07BC               u3443:
  2630  00E6                     
  2631                           	line	124
  2632                           	
  2633                           l2585:	
  2634  00E6                     	movf	0+(___flmul@temp)+01h,w
  2635  00E6  0843               	movwf	(??___flmul+0)+0
  2636  00E7  00B2               	clrf	(??___flmul+0)+0+1
  2637  00E8  01B3               	clrf	(??___flmul+0)+0+2
  2638  00E9  01B4               	clrf	(??___flmul+0)+0+3
  2639  00EA  01B5               	movf	0+(??___flmul+0)+0,w
  2640  00EB  0832               	addwf	(___flmul@prod),f
  2641  00EC  07BE               	movf	1+(??___flmul+0)+0,w
  2642  00ED  0833               	clrz
  2643  00EE  1103               	skipnc
  2644  00EF  1803               	addlw	1
  2645  00F0  3E01               	skipnz
  2646  00F1  1903               	goto	u3451
  2647  00F2  28F4               	addwf	(___flmul@prod+1),f
  2648  00F3  07BF               u3451:
  2649  00F4                     	movf	2+(??___flmul+0)+0,w
  2650  00F4  0834               	clrz
  2651  00F5  1103               	skipnc
  2652  00F6  1803               	addlw	1
  2653  00F7  3E01               	skipnz
  2654  00F8  1903               	goto	u3452
  2655  00F9  28FB               	addwf	(___flmul@prod+2),f
  2656  00FA  07C0               u3452:
  2657  00FB                     	movf	3+(??___flmul+0)+0,w
  2658  00FB  0835               	clrz
  2659  00FC  1103               	skipnc
  2660  00FD  1803               	addlw	1
  2661  00FE  3E01               	skipnz
  2662  00FF  1903               	goto	u3453
  2663  0100  2902               	addwf	(___flmul@prod+3),f
  2664  0101  07C1               u3453:
  2665  0102                     
  2666                           	line	125
  2667                           	movf	0+(___flmul@b)+02h,w
  2668  0102  082C               	movwf	(??___flmul+0)+0
  2669  0103  00B2               	movf	(??___flmul+0)+0,w
  2670  0104  0832               	movwf	(__Umul8_16@multiplicand)
  2671  0105  00F3               	movf	(___flmul@a),w
  2672  0106  082E               	fcall	__Umul8_16
  2673  0107  120A  158A  254C  120A  118A  	movf	(1+(?__Umul8_16)),w
  2674  010C  0874               	bcf	status, 5	;RP0=0, select bank0
  2675  010D  1283               	bcf	status, 6	;RP1=0, select bank0
  2676  010E  1303               	movwf	(___flmul@temp+1)
  2677  010F  00C3               	movf	(0+(?__Umul8_16)),w
  2678  0110  0873               	movwf	(___flmul@temp)
  2679  0111  00C2               	line	126
  2680                           	
  2681                           l2587:	
  2682  0112                     	movf	(___flmul@temp),w
  2683  0112  0842               	movwf	(??___flmul+0)+0
  2684  0113  00B2               	clrf	(??___flmul+0)+0+1
  2685  0114  01B3               	clrf	(??___flmul+0)+0+2
  2686  0115  01B4               	clrf	(??___flmul+0)+0+3
  2687  0116  01B5               	movf	0+(??___flmul+0)+0,w
  2688  0117  0832               	addwf	(___flmul@grs),f
  2689  0118  07B9               	movf	1+(??___flmul+0)+0,w
  2690  0119  0833               	clrz
  2691  011A  1103               	skipnc
  2692  011B  1803               	addlw	1
  2693  011C  3E01               	skipnz
  2694  011D  1903               	goto	u3461
  2695  011E  2920               	addwf	(___flmul@grs+1),f
  2696  011F  07BA               u3461:
  2697  0120                     	movf	2+(??___flmul+0)+0,w
  2698  0120  0834               	clrz
  2699  0121  1103               	skipnc
  2700  0122  1803               	addlw	1
  2701  0123  3E01               	skipnz
  2702  0124  1903               	goto	u3462
  2703  0125  2927               	addwf	(___flmul@grs+2),f
  2704  0126  07BB               u3462:
  2705  0127                     	movf	3+(??___flmul+0)+0,w
  2706  0127  0835               	clrz
  2707  0128  1103               	skipnc
  2708  0129  1803               	addlw	1
  2709  012A  3E01               	skipnz
  2710  012B  1903               	goto	u3463
  2711  012C  292E               	addwf	(___flmul@grs+3),f
  2712  012D  07BC               u3463:
  2713  012E                     
  2714                           	line	127
  2715                           	
  2716                           l2589:	
  2717  012E                     	movf	0+(___flmul@temp)+01h,w
  2718  012E  0843               	movwf	(??___flmul+0)+0
  2719  012F  00B2               	clrf	(??___flmul+0)+0+1
  2720  0130  01B3               	clrf	(??___flmul+0)+0+2
  2721  0131  01B4               	clrf	(??___flmul+0)+0+3
  2722  0132  01B5               	movf	0+(??___flmul+0)+0,w
  2723  0133  0832               	addwf	(___flmul@prod),f
  2724  0134  07BE               	movf	1+(??___flmul+0)+0,w
  2725  0135  0833               	clrz
  2726  0136  1103               	skipnc
  2727  0137  1803               	addlw	1
  2728  0138  3E01               	skipnz
  2729  0139  1903               	goto	u3471
  2730  013A  293C               	addwf	(___flmul@prod+1),f
  2731  013B  07BF               u3471:
  2732  013C                     	movf	2+(??___flmul+0)+0,w
  2733  013C  0834               	clrz
  2734  013D  1103               	skipnc
  2735  013E  1803               	addlw	1
  2736  013F  3E01               	skipnz
  2737  0140  1903               	goto	u3472
  2738  0141  2943               	addwf	(___flmul@prod+2),f
  2739  0142  07C0               u3472:
  2740  0143                     	movf	3+(??___flmul+0)+0,w
  2741  0143  0835               	clrz
  2742  0144  1103               	skipnc
  2743  0145  1803               	addlw	1
  2744  0146  3E01               	skipnz
  2745  0147  1903               	goto	u3473
  2746  0148  294A               	addwf	(___flmul@prod+3),f
  2747  0149  07C1               u3473:
  2748  014A                     
  2749                           	line	128
  2750                           	
  2751                           l2591:	
  2752  014A                     	movlw	08h
  2753  014A  3008               	movwf	(??___flmul+0)+0
  2754  014B  00B2               u3485:
  2755  014C                     	clrc
  2756  014C  1003               	rlf	(___flmul@grs),f
  2757  014D  0DB9               	rlf	(___flmul@grs+1),f
  2758  014E  0DBA               	rlf	(___flmul@grs+2),f
  2759  014F  0DBB               	rlf	(___flmul@grs+3),f
  2760  0150  0DBC               	decfsz	(??___flmul+0)+0
  2761  0151  0BB2               	goto	u3485
  2762  0152  294C               	line	129
  2763                           	
  2764                           l2593:	
  2765  0153                     	movf	0+(___flmul@b)+01h,w
  2766  0153  082B               	movwf	(??___flmul+0)+0
  2767  0154  00B2               	movf	(??___flmul+0)+0,w
  2768  0155  0832               	movwf	(__Umul8_16@multiplicand)
  2769  0156  00F3               	movf	(___flmul@a),w
  2770  0157  082E               	fcall	__Umul8_16
  2771  0158  120A  158A  254C  120A  118A  	movf	(1+(?__Umul8_16)),w
  2772  015D  0874               	bcf	status, 5	;RP0=0, select bank0
  2773  015E  1283               	bcf	status, 6	;RP1=0, select bank0
  2774  015F  1303               	movwf	(___flmul@temp+1)
  2775  0160  00C3               	movf	(0+(?__Umul8_16)),w
  2776  0161  0873               	movwf	(___flmul@temp)
  2777  0162  00C2               	line	130
  2778                           	
  2779                           l2595:	
  2780  0163                     	movf	(___flmul@temp),w
  2781  0163  0842               	movwf	((??___flmul+0)+0)
  2782  0164  00B2               	movf	(___flmul@temp+1),w
  2783  0165  0843               	movwf	((??___flmul+0)+0+1)
  2784  0166  00B3               	clrf	((??___flmul+0)+0+2)
  2785  0167  01B4               	clrf	((??___flmul+0)+0+3)
  2786  0168  01B5               	movf	0+(??___flmul+0)+0,w
  2787  0169  0832               	addwf	(___flmul@grs),f
  2788  016A  07B9               	movf	1+(??___flmul+0)+0,w
  2789  016B  0833               	clrz
  2790  016C  1103               	skipnc
  2791  016D  1803               	addlw	1
  2792  016E  3E01               	skipnz
  2793  016F  1903               	goto	u3491
  2794  0170  2972               	addwf	(___flmul@grs+1),f
  2795  0171  07BA               u3491:
  2796  0172                     	movf	2+(??___flmul+0)+0,w
  2797  0172  0834               	clrz
  2798  0173  1103               	skipnc
  2799  0174  1803               	addlw	1
  2800  0175  3E01               	skipnz
  2801  0176  1903               	goto	u3492
  2802  0177  2979               	addwf	(___flmul@grs+2),f
  2803  0178  07BB               u3492:
  2804  0179                     	movf	3+(??___flmul+0)+0,w
  2805  0179  0835               	clrz
  2806  017A  1103               	skipnc
  2807  017B  1803               	addlw	1
  2808  017C  3E01               	skipnz
  2809  017D  1903               	goto	u3493
  2810  017E  2980               	addwf	(___flmul@grs+3),f
  2811  017F  07BC               u3493:
  2812  0180                     
  2813                           	line	131
  2814                           	
  2815                           l2597:	
  2816  0180                     	movf	(___flmul@b),w
  2817  0180  082A               	movwf	(??___flmul+0)+0
  2818  0181  00B2               	movf	(??___flmul+0)+0,w
  2819  0182  0832               	movwf	(__Umul8_16@multiplicand)
  2820  0183  00F3               	movf	0+(___flmul@a)+01h,w
  2821  0184  082F               	fcall	__Umul8_16
  2822  0185  120A  158A  254C  120A  118A  	movf	(1+(?__Umul8_16)),w
  2823  018A  0874               	bcf	status, 5	;RP0=0, select bank0
  2824  018B  1283               	bcf	status, 6	;RP1=0, select bank0
  2825  018C  1303               	movwf	(___flmul@temp+1)
  2826  018D  00C3               	movf	(0+(?__Umul8_16)),w
  2827  018E  0873               	movwf	(___flmul@temp)
  2828  018F  00C2               	line	132
  2829                           	
  2830                           l2599:	
  2831  0190                     	movf	(___flmul@temp),w
  2832  0190  0842               	movwf	((??___flmul+0)+0)
  2833  0191  00B2               	movf	(___flmul@temp+1),w
  2834  0192  0843               	movwf	((??___flmul+0)+0+1)
  2835  0193  00B3               	clrf	((??___flmul+0)+0+2)
  2836  0194  01B4               	clrf	((??___flmul+0)+0+3)
  2837  0195  01B5               	movf	0+(??___flmul+0)+0,w
  2838  0196  0832               	addwf	(___flmul@grs),f
  2839  0197  07B9               	movf	1+(??___flmul+0)+0,w
  2840  0198  0833               	clrz
  2841  0199  1103               	skipnc
  2842  019A  1803               	addlw	1
  2843  019B  3E01               	skipnz
  2844  019C  1903               	goto	u3501
  2845  019D  299F               	addwf	(___flmul@grs+1),f
  2846  019E  07BA               u3501:
  2847  019F                     	movf	2+(??___flmul+0)+0,w
  2848  019F  0834               	clrz
  2849  01A0  1103               	skipnc
  2850  01A1  1803               	addlw	1
  2851  01A2  3E01               	skipnz
  2852  01A3  1903               	goto	u3502
  2853  01A4  29A6               	addwf	(___flmul@grs+2),f
  2854  01A5  07BB               u3502:
  2855  01A6                     	movf	3+(??___flmul+0)+0,w
  2856  01A6  0835               	clrz
  2857  01A7  1103               	skipnc
  2858  01A8  1803               	addlw	1
  2859  01A9  3E01               	skipnz
  2860  01AA  1903               	goto	u3503
  2861  01AB  29AD               	addwf	(___flmul@grs+3),f
  2862  01AC  07BC               u3503:
  2863  01AD                     
  2864                           	line	133
  2865                           	
  2866                           l2601:	
  2867  01AD                     	movlw	08h
  2868  01AD  3008               	movwf	(??___flmul+0)+0
  2869  01AE  00B2               u3515:
  2870  01AF                     	clrc
  2871  01AF  1003               	rlf	(___flmul@grs),f
  2872  01B0  0DB9               	rlf	(___flmul@grs+1),f
  2873  01B1  0DBA               	rlf	(___flmul@grs+2),f
  2874  01B2  0DBB               	rlf	(___flmul@grs+3),f
  2875  01B3  0DBC               	decfsz	(??___flmul+0)+0
  2876  01B4  0BB2               	goto	u3515
  2877  01B5  29AF               	line	134
  2878                           	movf	(___flmul@b),w
  2879  01B6  082A               	movwf	(??___flmul+0)+0
  2880  01B7  00B2               	movf	(??___flmul+0)+0,w
  2881  01B8  0832               	movwf	(__Umul8_16@multiplicand)
  2882  01B9  00F3               	movf	(___flmul@a),w
  2883  01BA  082E               	fcall	__Umul8_16
  2884  01BB  120A  158A  254C  120A  118A  	movf	(1+(?__Umul8_16)),w
  2885  01C0  0874               	bcf	status, 5	;RP0=0, select bank0
  2886  01C1  1283               	bcf	status, 6	;RP1=0, select bank0
  2887  01C2  1303               	movwf	(___flmul@temp+1)
  2888  01C3  00C3               	movf	(0+(?__Umul8_16)),w
  2889  01C4  0873               	movwf	(___flmul@temp)
  2890  01C5  00C2               	line	135
  2891                           	
  2892                           l2603:	
  2893  01C6                     	movf	(___flmul@temp),w
  2894  01C6  0842               	movwf	((??___flmul+0)+0)
  2895  01C7  00B2               	movf	(___flmul@temp+1),w
  2896  01C8  0843               	movwf	((??___flmul+0)+0+1)
  2897  01C9  00B3               	clrf	((??___flmul+0)+0+2)
  2898  01CA  01B4               	clrf	((??___flmul+0)+0+3)
  2899  01CB  01B5               	movf	0+(??___flmul+0)+0,w
  2900  01CC  0832               	addwf	(___flmul@grs),f
  2901  01CD  07B9               	movf	1+(??___flmul+0)+0,w
  2902  01CE  0833               	clrz
  2903  01CF  1103               	skipnc
  2904  01D0  1803               	addlw	1
  2905  01D1  3E01               	skipnz
  2906  01D2  1903               	goto	u3521
  2907  01D3  29D5               	addwf	(___flmul@grs+1),f
  2908  01D4  07BA               u3521:
  2909  01D5                     	movf	2+(??___flmul+0)+0,w
  2910  01D5  0834               	clrz
  2911  01D6  1103               	skipnc
  2912  01D7  1803               	addlw	1
  2913  01D8  3E01               	skipnz
  2914  01D9  1903               	goto	u3522
  2915  01DA  29DC               	addwf	(___flmul@grs+2),f
  2916  01DB  07BB               u3522:
  2917  01DC                     	movf	3+(??___flmul+0)+0,w
  2918  01DC  0835               	clrz
  2919  01DD  1103               	skipnc
  2920  01DE  1803               	addlw	1
  2921  01DF  3E01               	skipnz
  2922  01E0  1903               	goto	u3523
  2923  01E1  29E3               	addwf	(___flmul@grs+3),f
  2924  01E2  07BC               u3523:
  2925  01E3                     
  2926                           	line	136
  2927                           	
  2928                           l2605:	
  2929  01E3                     	movf	0+(___flmul@b)+01h,w
  2930  01E3  082B               	movwf	(??___flmul+0)+0
  2931  01E4  00B2               	movf	(??___flmul+0)+0,w
  2932  01E5  0832               	movwf	(__Umul8_16@multiplicand)
  2933  01E6  00F3               	movf	0+(___flmul@a)+02h,w
  2934  01E7  0830               	fcall	__Umul8_16
  2935  01E8  120A  158A  254C  120A  118A  	movf	(1+(?__Umul8_16)),w
  2936  01ED  0874               	bcf	status, 5	;RP0=0, select bank0
  2937  01EE  1283               	bcf	status, 6	;RP1=0, select bank0
  2938  01EF  1303               	movwf	(___flmul@temp+1)
  2939  01F0  00C3               	movf	(0+(?__Umul8_16)),w
  2940  01F1  0873               	movwf	(___flmul@temp)
  2941  01F2  00C2               	line	137
  2942                           	movf	(___flmul@temp),w
  2943  01F3  0842               	movwf	((??___flmul+0)+0)
  2944  01F4  00B2               	movf	(___flmul@temp+1),w
  2945  01F5  0843               	movwf	((??___flmul+0)+0+1)
  2946  01F6  00B3               	clrf	((??___flmul+0)+0+2)
  2947  01F7  01B4               	clrf	((??___flmul+0)+0+3)
  2948  01F8  01B5               	movf	0+(??___flmul+0)+0,w
  2949  01F9  0832               	addwf	(___flmul@prod),f
  2950  01FA  07BE               	movf	1+(??___flmul+0)+0,w
  2951  01FB  0833               	clrz
  2952  01FC  1103               	skipnc
  2953  01FD  1803               	addlw	1
  2954  01FE  3E01               	skipnz
  2955  01FF  1903               	goto	u3531
  2956  0200  2A02               	addwf	(___flmul@prod+1),f
  2957  0201  07BF               u3531:
  2958  0202                     	movf	2+(??___flmul+0)+0,w
  2959  0202  0834               	clrz
  2960  0203  1103               	skipnc
  2961  0204  1803               	addlw	1
  2962  0205  3E01               	skipnz
  2963  0206  1903               	goto	u3532
  2964  0207  2A09               	addwf	(___flmul@prod+2),f
  2965  0208  07C0               u3532:
  2966  0209                     	movf	3+(??___flmul+0)+0,w
  2967  0209  0835               	clrz
  2968  020A  1103               	skipnc
  2969  020B  1803               	addlw	1
  2970  020C  3E01               	skipnz
  2971  020D  1903               	goto	u3533
  2972  020E  2A10               	addwf	(___flmul@prod+3),f
  2973  020F  07C1               u3533:
  2974  0210                     
  2975                           	line	138
  2976                           	
  2977                           l2607:	
  2978  0210                     	movf	0+(___flmul@b)+02h,w
  2979  0210  082C               	movwf	(??___flmul+0)+0
  2980  0211  00B2               	movf	(??___flmul+0)+0,w
  2981  0212  0832               	movwf	(__Umul8_16@multiplicand)
  2982  0213  00F3               	movf	0+(___flmul@a)+01h,w
  2983  0214  082F               	fcall	__Umul8_16
  2984  0215  120A  158A  254C  120A  118A  	movf	(1+(?__Umul8_16)),w
  2985  021A  0874               	bcf	status, 5	;RP0=0, select bank0
  2986  021B  1283               	bcf	status, 6	;RP1=0, select bank0
  2987  021C  1303               	movwf	(___flmul@temp+1)
  2988  021D  00C3               	movf	(0+(?__Umul8_16)),w
  2989  021E  0873               	movwf	(___flmul@temp)
  2990  021F  00C2               	line	139
  2991                           	
  2992                           l2609:	
  2993  0220                     	movf	(___flmul@temp),w
  2994  0220  0842               	movwf	((??___flmul+0)+0)
  2995  0221  00B2               	movf	(___flmul@temp+1),w
  2996  0222  0843               	movwf	((??___flmul+0)+0+1)
  2997  0223  00B3               	clrf	((??___flmul+0)+0+2)
  2998  0224  01B4               	clrf	((??___flmul+0)+0+3)
  2999  0225  01B5               	movf	0+(??___flmul+0)+0,w
  3000  0226  0832               	addwf	(___flmul@prod),f
  3001  0227  07BE               	movf	1+(??___flmul+0)+0,w
  3002  0228  0833               	clrz
  3003  0229  1103               	skipnc
  3004  022A  1803               	addlw	1
  3005  022B  3E01               	skipnz
  3006  022C  1903               	goto	u3541
  3007  022D  2A2F               	addwf	(___flmul@prod+1),f
  3008  022E  07BF               u3541:
  3009  022F                     	movf	2+(??___flmul+0)+0,w
  3010  022F  0834               	clrz
  3011  0230  1103               	skipnc
  3012  0231  1803               	addlw	1
  3013  0232  3E01               	skipnz
  3014  0233  1903               	goto	u3542
  3015  0234  2A36               	addwf	(___flmul@prod+2),f
  3016  0235  07C0               u3542:
  3017  0236                     	movf	3+(??___flmul+0)+0,w
  3018  0236  0835               	clrz
  3019  0237  1103               	skipnc
  3020  0238  1803               	addlw	1
  3021  0239  3E01               	skipnz
  3022  023A  1903               	goto	u3543
  3023  023B  2A3D               	addwf	(___flmul@prod+3),f
  3024  023C  07C1               u3543:
  3025  023D                     
  3026                           	line	140
  3027                           	movf	0+(___flmul@b)+02h,w
  3028  023D  082C               	movwf	(??___flmul+0)+0
  3029  023E  00B2               	movf	(??___flmul+0)+0,w
  3030  023F  0832               	movwf	(__Umul8_16@multiplicand)
  3031  0240  00F3               	movf	0+(___flmul@a)+02h,w
  3032  0241  0830               	fcall	__Umul8_16
  3033  0242  120A  158A  254C  120A  118A  	movf	(1+(?__Umul8_16)),w
  3034  0247  0874               	bcf	status, 5	;RP0=0, select bank0
  3035  0248  1283               	bcf	status, 6	;RP1=0, select bank0
  3036  0249  1303               	movwf	(___flmul@temp+1)
  3037  024A  00C3               	movf	(0+(?__Umul8_16)),w
  3038  024B  0873               	movwf	(___flmul@temp)
  3039  024C  00C2               	line	141
  3040                           	
  3041                           l2611:	
  3042  024D                     	movf	(___flmul@temp),w
  3043  024D  0842               	movwf	((??___flmul+0)+0)
  3044  024E  00B2               	movf	(___flmul@temp+1),w
  3045  024F  0843               	movwf	((??___flmul+0)+0+1)
  3046  0250  00B3               	clrf	((??___flmul+0)+0+2)
  3047  0251  01B4               	clrf	((??___flmul+0)+0+3)
  3048  0252  01B5               	movlw	08h
  3049  0253  3008               u3555:
  3050  0254                     	clrc
  3051  0254  1003               	rlf	(??___flmul+0)+0,f
  3052  0255  0DB2               	rlf	(??___flmul+0)+1,f
  3053  0256  0DB3               	rlf	(??___flmul+0)+2,f
  3054  0257  0DB4               	rlf	(??___flmul+0)+3,f
  3055  0258  0DB5               u3550:
  3056  0259                     	addlw	-1
  3057  0259  3EFF               	skipz
  3058  025A  1D03               	goto	u3555
  3059  025B  2A54               	movf	0+(??___flmul+0)+0,w
  3060  025C  0832               	addwf	(___flmul@prod),f
  3061  025D  07BE               	movf	1+(??___flmul+0)+0,w
  3062  025E  0833               	clrz
  3063  025F  1103               	skipnc
  3064  0260  1803               	addlw	1
  3065  0261  3E01               	skipnz
  3066  0262  1903               	goto	u3561
  3067  0263  2A65               	addwf	(___flmul@prod+1),f
  3068  0264  07BF               u3561:
  3069  0265                     	movf	2+(??___flmul+0)+0,w
  3070  0265  0834               	clrz
  3071  0266  1103               	skipnc
  3072  0267  1803               	addlw	1
  3073  0268  3E01               	skipnz
  3074  0269  1903               	goto	u3562
  3075  026A  2A6C               	addwf	(___flmul@prod+2),f
  3076  026B  07C0               u3562:
  3077  026C                     	movf	3+(??___flmul+0)+0,w
  3078  026C  0835               	clrz
  3079  026D  1103               	skipnc
  3080  026E  1803               	addlw	1
  3081  026F  3E01               	skipnz
  3082  0270  1903               	goto	u3563
  3083  0271  2A73               	addwf	(___flmul@prod+3),f
  3084  0272  07C1               u3563:
  3085  0273                     
  3086                           	line	145
  3087                           	
  3088                           l2613:	
  3089  0273                     	movf	(___flmul@grs),w
  3090  0273  0839               	movwf	(??___flmul+0)+0
  3091  0274  00B2               	movf	(___flmul@grs+1),w
  3092  0275  083A               	movwf	((??___flmul+0)+0+1)
  3093  0276  00B3               	movf	(___flmul@grs+2),w
  3094  0277  083B               	movwf	((??___flmul+0)+0+2)
  3095  0278  00B4               	movf	(___flmul@grs+3),w
  3096  0279  083C               	movwf	((??___flmul+0)+0+3)
  3097  027A  00B5               	movlw	018h
  3098  027B  3018               u3575:
  3099  027C                     	clrc
  3100  027C  1003               	rrf	(??___flmul+0)+3,f
  3101  027D  0CB5               	rrf	(??___flmul+0)+2,f
  3102  027E  0CB4               	rrf	(??___flmul+0)+1,f
  3103  027F  0CB3               	rrf	(??___flmul+0)+0,f
  3104  0280  0CB2               u3570:
  3105  0281                     	addlw	-1
  3106  0281  3EFF               	skipz
  3107  0282  1D03               	goto	u3575
  3108  0283  2A7C               	movf	0+(??___flmul+0)+0,w
  3109  0284  0832               	addwf	(___flmul@prod),f
  3110  0285  07BE               	movf	1+(??___flmul+0)+0,w
  3111  0286  0833               	clrz
  3112  0287  1103               	skipnc
  3113  0288  1803               	addlw	1
  3114  0289  3E01               	skipnz
  3115  028A  1903               	goto	u3581
  3116  028B  2A8D               	addwf	(___flmul@prod+1),f
  3117  028C  07BF               u3581:
  3118  028D                     	movf	2+(??___flmul+0)+0,w
  3119  028D  0834               	clrz
  3120  028E  1103               	skipnc
  3121  028F  1803               	addlw	1
  3122  0290  3E01               	skipnz
  3123  0291  1903               	goto	u3582
  3124  0292  2A94               	addwf	(___flmul@prod+2),f
  3125  0293  07C0               u3582:
  3126  0294                     	movf	3+(??___flmul+0)+0,w
  3127  0294  0835               	clrz
  3128  0295  1103               	skipnc
  3129  0296  1803               	addlw	1
  3130  0297  3E01               	skipnz
  3131  0298  1903               	goto	u3583
  3132  0299  2A9B               	addwf	(___flmul@prod+3),f
  3133  029A  07C1               u3583:
  3134  029B                     
  3135                           	line	146
  3136                           	
  3137                           l2615:	
  3138  029B                     	movlw	08h
  3139  029B  3008               	movwf	(??___flmul+0)+0
  3140  029C  00B2               u3595:
  3141  029D                     	clrc
  3142  029D  1003               	rlf	(___flmul@grs),f
  3143  029E  0DB9               	rlf	(___flmul@grs+1),f
  3144  029F  0DBA               	rlf	(___flmul@grs+2),f
  3145  02A0  0DBB               	rlf	(___flmul@grs+3),f
  3146  02A1  0DBC               	decfsz	(??___flmul+0)+0
  3147  02A2  0BB2               	goto	u3595
  3148  02A3  2A9D               	line	149
  3149                           	
  3150                           l2617:	
  3151  02A4                     	movf	(___flmul@bexp),w
  3152  02A4  083D               	addwf	(___flmul@aexp),w
  3153  02A5  0738               	movwf	(??___flmul+0)+0
  3154  02A6  00B2               	clrf	(??___flmul+0)+0+1
  3155  02A7  01B3               	rlf	1+(??___flmul+0)+0,f
  3156  02A8  0DB3               	
  3157                           	movf	0+(??___flmul+0)+0,w
  3158  02A9  0832               	addlw	low(-126)
  3159  02AA  3E82               	movwf	(___flmul@temp)
  3160  02AB  00C2               	movf	1+(??___flmul+0)+0,w
  3161  02AC  0833               	skipnc
  3162  02AD  1803               	addlw	1
  3163  02AE  3E01               	addlw	high(-126)
  3164  02AF  3EFF               	movwf	1+(___flmul@temp)
  3165  02B0  00C3               	line	152
  3166                           	goto	l2629
  3167  02B1  2AD1               	
  3168                           l657:	
  3169  02B2                     	line	153
  3170                           	
  3171                           l2619:	
  3172  02B2                     	movlw	01h
  3173  02B2  3001               	movwf	(??___flmul+0)+0
  3174  02B3  00B2               u3605:
  3175  02B4                     	clrc
  3176  02B4  1003               	rlf	(___flmul@prod),f
  3177  02B5  0DBE               	rlf	(___flmul@prod+1),f
  3178  02B6  0DBF               	rlf	(___flmul@prod+2),f
  3179  02B7  0DC0               	rlf	(___flmul@prod+3),f
  3180  02B8  0DC1               	decfsz	(??___flmul+0)+0
  3181  02B9  0BB2               	goto	u3605
  3182  02BA  2AB4               	line	154
  3183                           	
  3184                           l2621:	
  3185  02BB                     	btfss	(___flmul@grs+3),(31)&7
  3186  02BB  1FBC               	goto	u3611
  3187  02BC  2ABE               	goto	u3610
  3188  02BD  2ABF               u3611:
  3189  02BE                     	goto	l2625
  3190  02BE  2AC1               u3610:
  3191  02BF                     	line	155
  3192                           	
  3193                           l2623:	
  3194  02BF                     	bsf	(___flmul@prod)+(0/8),(0)&7
  3195  02BF  143E               	goto	l2625
  3196  02C0  2AC1               	line	156
  3197                           	
  3198                           l658:	
  3199  02C1                     	line	157
  3200                           	
  3201                           l2625:	
  3202  02C1                     	movlw	01h
  3203  02C1  3001               	movwf	(??___flmul+0)+0
  3204  02C2  00B2               u3625:
  3205  02C3                     	clrc
  3206  02C3  1003               	rlf	(___flmul@grs),f
  3207  02C4  0DB9               	rlf	(___flmul@grs+1),f
  3208  02C5  0DBA               	rlf	(___flmul@grs+2),f
  3209  02C6  0DBB               	rlf	(___flmul@grs+3),f
  3210  02C7  0DBC               	decfsz	(??___flmul+0)+0
  3211  02C8  0BB2               	goto	u3625
  3212  02C9  2AC3               	line	158
  3213                           	
  3214                           l2627:	
  3215  02CA                     	movlw	0FFh
  3216  02CA  30FF               	addwf	(___flmul@temp),f
  3217  02CB  07C2               	skipnc
  3218  02CC  1803               	incf	(___flmul@temp+1),f
  3219  02CD  0AC3               	movlw	0FFh
  3220  02CE  30FF               	addwf	(___flmul@temp+1),f
  3221  02CF  07C3               	goto	l2629
  3222  02D0  2AD1               	line	159
  3223                           	
  3224                           l656:	
  3225  02D1                     	line	152
  3226                           	
  3227                           l2629:	
  3228  02D1                     	btfss	(___flmul@prod+2),(23)&7
  3229  02D1  1FC0               	goto	u3631
  3230  02D2  2AD4               	goto	u3630
  3231  02D3  2AD5               u3631:
  3232  02D4                     	goto	l2619
  3233  02D4  2AB2               u3630:
  3234  02D5                     	goto	l2631
  3235  02D5  2AD6               	
  3236                           l659:	
  3237  02D6                     	line	163
  3238                           	
  3239                           l2631:	
  3240  02D6                     	clrf	(___flmul@aexp)
  3241  02D6  01B8               	line	164
  3242                           	
  3243                           l2633:	
  3244  02D7                     	btfss	(___flmul@grs+3),(31)&7
  3245  02D7  1FBC               	goto	u3641
  3246  02D8  2ADA               	goto	u3640
  3247  02D9  2ADB               u3641:
  3248  02DA                     	goto	l2641
  3249  02DA  2AFB               u3640:
  3250  02DB                     	line	165
  3251                           	
  3252                           l2635:	
  3253  02DB                     	movlw	0FFh
  3254  02DB  30FF               	andwf	(___flmul@grs),w
  3255  02DC  0539               	movwf	(??___flmul+0)+0
  3256  02DD  00B2               	movlw	0FFh
  3257  02DE  30FF               	andwf	(___flmul@grs+1),w
  3258  02DF  053A               	movwf	((??___flmul+0)+0+1)
  3259  02E0  00B3               	movlw	0FFh
  3260  02E1  30FF               	andwf	(___flmul@grs+2),w
  3261  02E2  053B               	movwf	((??___flmul+0)+0+2)
  3262  02E3  00B4               	movlw	07Fh
  3263  02E4  307F               	andwf	(___flmul@grs+3),w
  3264  02E5  053C               	movwf	((??___flmul+0)+0+3)
  3265  02E6  00B5               	movf	3+(??___flmul+0)+0,w
  3266  02E7  0835               	iorwf	2+(??___flmul+0)+0,w
  3267  02E8  0434               	iorwf	1+(??___flmul+0)+0,w
  3268  02E9  0433               	iorwf	0+(??___flmul+0)+0,w
  3269  02EA  0432               	skipnz
  3270  02EB  1903               	goto	u3651
  3271  02EC  2AEE               	goto	u3650
  3272  02ED  2AEF               u3651:
  3273  02EE                     	goto	l661
  3274  02EE  2AF2               u3650:
  3275  02EF                     	line	166
  3276                           	
  3277                           l2637:	
  3278  02EF                     	clrf	(___flmul@aexp)
  3279  02EF  01B8               	incf	(___flmul@aexp),f
  3280  02F0  0AB8               	line	167
  3281                           	goto	l2641
  3282  02F1  2AFB               	line	168
  3283                           	
  3284                           l661:	
  3285  02F2                     	line	169
  3286                           	btfss	(___flmul@prod),(0)&7
  3287  02F2  1C3E               	goto	u3661
  3288  02F3  2AF5               	goto	u3660
  3289  02F4  2AF6               u3661:
  3290  02F5                     	goto	l2641
  3291  02F5  2AFB               u3660:
  3292  02F6                     	line	170
  3293                           	
  3294                           l2639:	
  3295  02F6                     	clrf	(___flmul@aexp)
  3296  02F6  01B8               	incf	(___flmul@aexp),f
  3297  02F7  0AB8               	goto	l2641
  3298  02F8  2AFB               	line	171
  3299                           	
  3300                           l663:	
  3301  02F9                     	goto	l2641
  3302  02F9  2AFB               	line	172
  3303                           	
  3304                           l662:	
  3305  02FA                     	goto	l2641
  3306  02FA  2AFB               	line	173
  3307                           	
  3308                           l660:	
  3309  02FB                     	line	174
  3310                           	
  3311                           l2641:	
  3312  02FB                     	movf	((___flmul@aexp)),w
  3313  02FB  0838               	btfsc	status,2
  3314  02FC  1903               	goto	u3671
  3315  02FD  2AFF               	goto	u3670
  3316  02FE  2B00               u3671:
  3317  02FF                     	goto	l2651
  3318  02FF  2B33               u3670:
  3319  0300                     	line	175
  3320                           	
  3321                           l2643:	
  3322  0300                     	movlw	01h
  3323  0300  3001               	addwf	(___flmul@prod),f
  3324  0301  07BE               	movlw	0
  3325  0302  3000               	skipnc
  3326  0303  1803               movlw 1
  3327  0304  3001               	addwf	(___flmul@prod+1),f
  3328  0305  07BF               	movlw	0
  3329  0306  3000               	skipnc
  3330  0307  1803               movlw 1
  3331  0308  3001               	addwf	(___flmul@prod+2),f
  3332  0309  07C0               	movlw	0
  3333  030A  3000               	skipnc
  3334  030B  1803               movlw 1
  3335  030C  3001               	addwf	(___flmul@prod+3),f
  3336  030D  07C1               	line	176
  3337                           	
  3338                           l2645:	
  3339  030E                     	btfss	(___flmul@prod+3),(24)&7
  3340  030E  1C41               	goto	u3681
  3341  030F  2B11               	goto	u3680
  3342  0310  2B12               u3681:
  3343  0311                     	goto	l2651
  3344  0311  2B33               u3680:
  3345  0312                     	line	177
  3346                           	
  3347                           l2647:	
  3348  0312                     	movf	(___flmul@prod),w
  3349  0312  083E               	movwf	(??___flmul+0)+0
  3350  0313  00B2               	movf	(___flmul@prod+1),w
  3351  0314  083F               	movwf	((??___flmul+0)+0+1)
  3352  0315  00B3               	movf	(___flmul@prod+2),w
  3353  0316  0840               	movwf	((??___flmul+0)+0+2)
  3354  0317  00B4               	movf	(___flmul@prod+3),w
  3355  0318  0841               	movwf	((??___flmul+0)+0+3)
  3356  0319  00B5               	movlw	01h
  3357  031A  3001               	movwf	(??___flmul+4)+0
  3358  031B  00B6               u3695:
  3359  031C                     	rlf	(??___flmul+0)+3,w
  3360  031C  0D35               	rrf	(??___flmul+0)+3,f
  3361  031D  0CB5               	rrf	(??___flmul+0)+2,f
  3362  031E  0CB4               	rrf	(??___flmul+0)+1,f
  3363  031F  0CB3               	rrf	(??___flmul+0)+0,f
  3364  0320  0CB2               u3690:
  3365  0321                     	decfsz	(??___flmul+4)+0,f
  3366  0321  0BB6               	goto	u3695
  3367  0322  2B1C               	movf	3+(??___flmul+0)+0,w
  3368  0323  0835               	movwf	(___flmul@prod+3)
  3369  0324  00C1               	movf	2+(??___flmul+0)+0,w
  3370  0325  0834               	movwf	(___flmul@prod+2)
  3371  0326  00C0               	movf	1+(??___flmul+0)+0,w
  3372  0327  0833               	movwf	(___flmul@prod+1)
  3373  0328  00BF               	movf	0+(??___flmul+0)+0,w
  3374  0329  0832               	movwf	(___flmul@prod)
  3375  032A  00BE               
  3376                           	line	178
  3377                           	
  3378                           l2649:	
  3379  032B                     	movlw	01h
  3380  032B  3001               	addwf	(___flmul@temp),f
  3381  032C  07C2               	skipnc
  3382  032D  1803               	incf	(___flmul@temp+1),f
  3383  032E  0AC3               	movlw	0
  3384  032F  3000               	addwf	(___flmul@temp+1),f
  3385  0330  07C3               	goto	l2651
  3386  0331  2B33               	line	179
  3387                           	
  3388                           l665:	
  3389  0332                     	goto	l2651
  3390  0332  2B33               	line	180
  3391                           	
  3392                           l664:	
  3393  0333                     	line	183
  3394                           	
  3395                           l2651:	
  3396  0333                     	movf	(___flmul@temp+1),w
  3397  0333  0843               	xorlw	80h
  3398  0334  3A80               	movwf	btemp+1
  3399  0335  00FF               	movlw	(0)^80h
  3400  0336  3080               	subwf	btemp+1,w
  3401  0337  027F               	skipz
  3402  0338  1D03               	goto	u3705
  3403  0339  2B3C               	movlw	0FFh
  3404  033A  30FF               	subwf	(___flmul@temp),w
  3405  033B  0242               u3705:
  3406  033C                     
  3407                           	skipc
  3408  033C  1C03               	goto	u3701
  3409  033D  2B3F               	goto	u3700
  3410  033E  2B40               u3701:
  3411  033F                     	goto	l2655
  3412  033F  2B4B               u3700:
  3413  0340                     	line	184
  3414                           	
  3415                           l2653:	
  3416  0340                     	movlw	07Fh
  3417  0340  307F               	bcf	status, 5	;RP0=0, select bank0
  3418  0341  1283               	bcf	status, 6	;RP1=0, select bank0
  3419  0342  1303               	movwf	(___flmul@prod+3)
  3420  0343  00C1               	movlw	080h
  3421  0344  3080               	movwf	(___flmul@prod+2)
  3422  0345  00C0               	movlw	0
  3423  0346  3000               	movwf	(___flmul@prod+1)
  3424  0347  00BF               	movlw	0
  3425  0348  3000               	movwf	(___flmul@prod)
  3426  0349  00BE               
  3427                           	line	185
  3428                           	goto	l667
  3429  034A  2B82               	line	187
  3430                           	
  3431                           l666:	
  3432  034B                     	
  3433                           l2655:	
  3434  034B                     	bcf	status, 5	;RP0=0, select bank0
  3435  034B  1283               	bcf	status, 6	;RP1=0, select bank0
  3436  034C  1303               	movf	(___flmul@temp+1),w
  3437  034D  0843               	xorlw	80h
  3438  034E  3A80               	movwf	btemp+1
  3439  034F  00FF               	movlw	(0)^80h
  3440  0350  3080               	subwf	btemp+1,w
  3441  0351  027F               	skipz
  3442  0352  1D03               	goto	u3715
  3443  0353  2B56               	movlw	01h
  3444  0354  3001               	subwf	(___flmul@temp),w
  3445  0355  0242               u3715:
  3446  0356                     
  3447                           	skipnc
  3448  0356  1803               	goto	u3711
  3449  0357  2B59               	goto	u3710
  3450  0358  2B5A               u3711:
  3451  0359                     	goto	l2661
  3452  0359  2B66               u3710:
  3453  035A                     	line	188
  3454                           	
  3455                           l2657:	
  3456  035A                     	movlw	high highword(0)
  3457  035A  3000               	bcf	status, 5	;RP0=0, select bank0
  3458  035B  1283               	bcf	status, 6	;RP1=0, select bank0
  3459  035C  1303               	movwf	(___flmul@prod+3)
  3460  035D  00C1               	movlw	low highword(0)
  3461  035E  3000               	movwf	(___flmul@prod+2)
  3462  035F  00C0               	movlw	high(0)
  3463  0360  3000               	movwf	(___flmul@prod+1)
  3464  0361  00BF               	movlw	low(0)
  3465  0362  3000               	movwf	(___flmul@prod)
  3466  0363  00BE               
  3467                           	line	190
  3468                           	
  3469                           l2659:	
  3470  0364                     	clrf	(___flmul@sign)
  3471  0364  01B7               	line	191
  3472                           	goto	l667
  3473  0365  2B82               	line	192
  3474                           	
  3475                           l668:	
  3476  0366                     	line	194
  3477                           	
  3478                           l2661:	
  3479  0366                     	bcf	status, 5	;RP0=0, select bank0
  3480  0366  1283               	bcf	status, 6	;RP1=0, select bank0
  3481  0367  1303               	movf	(___flmul@temp),w
  3482  0368  0842               	movwf	(??___flmul+0)+0
  3483  0369  00B2               	movf	(??___flmul+0)+0,w
  3484  036A  0832               	movwf	(___flmul@bexp)
  3485  036B  00BD               	line	195
  3486                           	movlw	0FFh
  3487  036C  30FF               	andwf	(___flmul@prod),f
  3488  036D  05BE               	movlw	0FFh
  3489  036E  30FF               	andwf	(___flmul@prod+1),f
  3490  036F  05BF               	movlw	07Fh
  3491  0370  307F               	andwf	(___flmul@prod+2),f
  3492  0371  05C0               	movlw	0
  3493  0372  3000               	andwf	(___flmul@prod+3),f
  3494  0373  05C1               	line	196
  3495                           	
  3496                           l2663:	
  3497  0374                     	btfss	(___flmul@bexp),(0)&7
  3498  0374  1C3D               	goto	u3721
  3499  0375  2B77               	goto	u3720
  3500  0376  2B78               u3721:
  3501  0377                     	goto	l2667
  3502  0377  2B7A               u3720:
  3503  0378                     	line	197
  3504                           	
  3505                           l2665:	
  3506  0378                     	bsf	0+(___flmul@prod)+02h+(7/8),(7)&7
  3507  0378  17C0               	goto	l2667
  3508  0379  2B7A               	line	198
  3509                           	
  3510                           l670:	
  3511  037A                     	line	199
  3512                           	
  3513                           l2667:	
  3514  037A                     	movf	(___flmul@bexp),w
  3515  037A  083D               	movwf	(??___flmul+0)+0
  3516  037B  00B2               	clrc
  3517  037C  1003               	rrf	(??___flmul+0)+0,w
  3518  037D  0C32               	movwf	(??___flmul+1)+0
  3519  037E  00B3               	movf	(??___flmul+1)+0,w
  3520  037F  0833               	movwf	0+(___flmul@prod)+03h
  3521  0380  00C1               	goto	l667
  3522  0381  2B82               	line	200
  3523                           	
  3524                           l669:	
  3525  0382                     	
  3526                           l667:	
  3527  0382                     	line	201
  3528                           	movf	(___flmul@sign),w
  3529  0382  0837               	movwf	(??___flmul+0)+0
  3530  0383  00B2               	movf	(??___flmul+0)+0,w
  3531  0384  0832               	iorwf	0+(___flmul@prod)+03h,f
  3532  0385  04C1               	line	203
  3533                           	
  3534                           l2669:	
  3535  0386                     	movf	(___flmul@prod+3),w
  3536  0386  0841               	movwf	(?___flmul+3)
  3537  0387  00AD               	movf	(___flmul@prod+2),w
  3538  0388  0840               	movwf	(?___flmul+2)
  3539  0389  00AC               	movf	(___flmul@prod+1),w
  3540  038A  083F               	movwf	(?___flmul+1)
  3541  038B  00AB               	movf	(___flmul@prod),w
  3542  038C  083E               	movwf	(?___flmul)
  3543  038D  00AA               
  3544                           	goto	l655
  3545  038E  2B8F               	
  3546                           l2671:	
  3547  038F                     	line	205
  3548                           	
  3549                           l655:	
  3550  038F                     	return
  3551  038F  0008               	opt stack 0
  3552                           GLOBAL	__end_of___flmul
  3553                           	__end_of___flmul:
  3554  0390                     	signat	___flmul,8316
  3555                           	global	__Umul8_16
  3556                           
  3557 ;; *************** function __Umul8_16 *****************
  3558 ;; Defined at:
  3559 ;;		line 4 in file "C:\Program Files (x86)\Microchip\xc8\v2.00\pic\sources\c90\common\Umul8_16.c"
  3560 ;; Parameters:    Size  Location     Type
  3561 ;;  multiplier      1    wreg     unsigned char 
  3562 ;;  multiplicand    1    3[COMMON] unsigned char 
  3563 ;; Auto vars:     Size  Location     Type
  3564 ;;  multiplier      1    4[BANK0 ] unsigned char 
  3565 ;;  word_mpld       2    2[BANK0 ] unsigned int 
  3566 ;;  product         2    0[BANK0 ] unsigned int 
  3567 ;; Return value:  Size  Location     Type
  3568 ;;                  2    3[COMMON] unsigned int 
  3569 ;; Registers used:
  3570 ;;		wreg, status,2, status,0
  3571 ;; Tracked objects:
  3572 ;;		On entry : 0/0
  3573 ;;		On exit  : 0/0
  3574 ;;		Unchanged: 0/0
  3575 ;; Data sizes:     COMMON   BANK0   BANK1   BANK3   BANK2
  3576 ;;      Params:         2       0       0       0       0
  3577 ;;      Locals:         0       5       0       0       0
  3578 ;;      Temps:          2       0       0       0       0
  3579 ;;      Totals:         4       5       0       0       0
  3580 ;;Total ram usage:        9 bytes
  3581 ;; Hardware stack levels used:    1
  3582 ;; Hardware stack levels required when called:    1
  3583 ;; This function calls:
  3584 ;;		Nothing
  3585 ;; This function is called by:
  3586 ;;		___flmul
  3587 ;; This function uses a non-reentrant model
  3588 ;;
  3589                           psect	text4,local,class=CODE,delta=2,merge=1,group=1
  3590                           	file	"C:\Program Files (x86)\Microchip\xc8\v2.00\pic\sources\c90\common\Umul8_16.c"
  3591                           	line	4
  3592                           global __ptext4
  3593                           __ptext4:	;psect for function __Umul8_16
  3594  0D4C                     psect	text4
  3595                           	file	"C:\Program Files (x86)\Microchip\xc8\v2.00\pic\sources\c90\common\Umul8_16.c"
  3596                           	line	4
  3597                           	global	__size_of__Umul8_16
  3598                           	__size_of__Umul8_16	equ	__end_of__Umul8_16-__Umul8_16
  3599  002C                     	
  3600                           __Umul8_16:	
  3601  0D4C                     ;incstack = 0
  3602                           	opt	stack 5
  3603                           ; Regs used in __Umul8_16: [wreg+status,2+status,0]
  3604                           ;__Umul8_16@multiplier stored from wreg
  3605                           	bcf	status, 5	;RP0=0, select bank0
  3606  0D4C  1283               	bcf	status, 6	;RP1=0, select bank0
  3607  0D4D  1303               	movwf	(__Umul8_16@multiplier)
  3608  0D4E  00A4               	line	5
  3609                           	
  3610                           l2149:	
  3611  0D4F                     	clrf	(__Umul8_16@product)
  3612  0D4F  01A0               	clrf	(__Umul8_16@product+1)
  3613  0D50  01A1               	line	6
  3614                           	
  3615                           l2151:	
  3616  0D51                     	movf	(__Umul8_16@multiplicand),w
  3617  0D51  0873               	movwf	(??__Umul8_16+0)+0
  3618  0D52  00F5               	clrf	(??__Umul8_16+0)+0+1
  3619  0D53  01F6               	movf	0+(??__Umul8_16+0)+0,w
  3620  0D54  0875               	movwf	(__Umul8_16@word_mpld)
  3621  0D55  00A2               	movf	1+(??__Umul8_16+0)+0,w
  3622  0D56  0876               	movwf	(__Umul8_16@word_mpld+1)
  3623  0D57  00A3               	goto	l2153
  3624  0D58  2D59               	line	50
  3625                           	
  3626                           l692:	
  3627  0D59                     	line	51
  3628                           	
  3629                           l2153:	
  3630  0D59                     	btfss	(__Umul8_16@multiplier),(0)&7
  3631  0D59  1C24               	goto	u2671
  3632  0D5A  2D5C               	goto	u2670
  3633  0D5B  2D5D               u2671:
  3634  0D5C                     	goto	l693
  3635  0D5C  2D63               u2670:
  3636  0D5D                     	line	52
  3637                           	
  3638                           l2155:	
  3639  0D5D                     	movf	(__Umul8_16@word_mpld),w
  3640  0D5D  0822               	addwf	(__Umul8_16@product),f
  3641  0D5E  07A0               	skipnc
  3642  0D5F  1803               	incf	(__Umul8_16@product+1),f
  3643  0D60  0AA1               	movf	(__Umul8_16@word_mpld+1),w
  3644  0D61  0823               	addwf	(__Umul8_16@product+1),f
  3645  0D62  07A1               	line	53
  3646                           	
  3647                           l693:	
  3648  0D63                     	line	54
  3649                           	movlw	01h
  3650  0D63  3001               	
  3651                           u2685:
  3652  0D64                     	clrc
  3653  0D64  1003               	rlf	(__Umul8_16@word_mpld),f
  3654  0D65  0DA2               	rlf	(__Umul8_16@word_mpld+1),f
  3655  0D66  0DA3               	addlw	-1
  3656  0D67  3EFF               	skipz
  3657  0D68  1D03               	goto	u2685
  3658  0D69  2D64               	line	55
  3659                           	clrc
  3660  0D6A  1003               	rrf	(__Umul8_16@multiplier),f
  3661  0D6B  0CA4               
  3662                           	line	56
  3663                           	
  3664                           l2157:	
  3665  0D6C                     	movf	((__Umul8_16@multiplier)),w
  3666  0D6C  0824               	btfss	status,2
  3667  0D6D  1D03               	goto	u2691
  3668  0D6E  2D70               	goto	u2690
  3669  0D6F  2D71               u2691:
  3670  0D70                     	goto	l2153
  3671  0D70  2D59               u2690:
  3672  0D71                     	goto	l2159
  3673  0D71  2D72               	
  3674                           l694:	
  3675  0D72                     	line	59
  3676                           	
  3677                           l2159:	
  3678  0D72                     	movf	(__Umul8_16@product+1),w
  3679  0D72  0821               	movwf	(?__Umul8_16+1)
  3680  0D73  00F4               	movf	(__Umul8_16@product),w
  3681  0D74  0820               	movwf	(?__Umul8_16)
  3682  0D75  00F3               	goto	l695
  3683  0D76  2D77               	
  3684                           l2161:	
  3685  0D77                     	line	60
  3686                           	
  3687                           l695:	
  3688  0D77                     	return
  3689  0D77  0008               	opt stack 0
  3690                           GLOBAL	__end_of__Umul8_16
  3691                           	__end_of__Umul8_16:
  3692  0D78                     	signat	__Umul8_16,8314
  3693                           	global	___fladd
  3694                           
  3695 ;; *************** function ___fladd *****************
  3696 ;; Defined at:
  3697 ;;		line 10 in file "C:\Program Files (x86)\Microchip\xc8\v2.00\pic\sources\c90\common\sprcadd.c"
  3698 ;; Parameters:    Size  Location     Type
  3699 ;;  b               4   36[BANK0 ] unsigned int 
  3700 ;;  a               4   40[BANK0 ] unsigned int 
  3701 ;; Auto vars:     Size  Location     Type
  3702 ;;  grs             1   59[BANK0 ] unsigned char 
  3703 ;;  bexp            1   58[BANK0 ] unsigned char 
  3704 ;;  aexp            1   57[BANK0 ] unsigned char 
  3705 ;;  signs           1   56[BANK0 ] unsigned char 
  3706 ;; Return value:  Size  Location     Type
  3707 ;;                  4   36[BANK0 ] unsigned char 
  3708 ;; Registers used:
  3709 ;;		wreg, status,2, status,0, btemp+1
  3710 ;; Tracked objects:
  3711 ;;		On entry : 0/0
  3712 ;;		On exit  : 0/0
  3713 ;;		Unchanged: 0/0
  3714 ;; Data sizes:     COMMON   BANK0   BANK1   BANK3   BANK2
  3715 ;;      Params:         0       8       0       0       0
  3716 ;;      Locals:         0       4       0       0       0
  3717 ;;      Temps:          0      12       0       0       0
  3718 ;;      Totals:         0      24       0       0       0
  3719 ;;Total ram usage:       24 bytes
  3720 ;; Hardware stack levels used:    1
  3721 ;; Hardware stack levels required when called:    1
  3722 ;; This function calls:
  3723 ;;		Nothing
  3724 ;; This function is called by:
  3725 ;;		_main
  3726 ;; This function uses a non-reentrant model
  3727 ;;
  3728                           psect	text5,local,class=CODE,delta=2,merge=1,group=1
  3729                           	file	"C:\Program Files (x86)\Microchip\xc8\v2.00\pic\sources\c90\common\sprcadd.c"
  3730                           	line	10
  3731                           global __ptext5
  3732                           __ptext5:	;psect for function ___fladd
  3733  0390                     psect	text5
  3734                           	file	"C:\Program Files (x86)\Microchip\xc8\v2.00\pic\sources\c90\common\sprcadd.c"
  3735                           	line	10
  3736                           	global	__size_of___fladd
  3737                           	__size_of___fladd	equ	__end_of___fladd-___fladd
  3738  02BC                     	
  3739                           ___fladd:	
  3740  0390                     ;incstack = 0
  3741                           	opt	stack 6
  3742                           ; Regs used in ___fladd: [wreg+status,2+status,0+btemp+1]
  3743                           	line	21
  3744                           	
  3745                           l2339:	
  3746  0390                     	bcf	status, 5	;RP0=0, select bank0
  3747  0390  1283               	bcf	status, 6	;RP1=0, select bank0
  3748  0391  1303               	movf	0+(___fladd@b)+03h,w
  3749  0392  0847               	andlw	080h
  3750  0393  3980               	movwf	(??___fladd+0)+0
  3751  0394  00CC               	movf	(??___fladd+0)+0,w
  3752  0395  084C               	movwf	(___fladd@signs)
  3753  0396  00D8               	line	22
  3754                           	
  3755                           l2341:	
  3756  0397                     	movf	0+(___fladd@b)+03h,w
  3757  0397  0847               	movwf	(??___fladd+0)+0
  3758  0398  00CC               	addwf	(??___fladd+0)+0,w
  3759  0399  074C               	movwf	(??___fladd+1)+0
  3760  039A  00CD               	movf	(??___fladd+1)+0,w
  3761  039B  084D               	movwf	(___fladd@bexp)
  3762  039C  00DA               	line	23
  3763                           	
  3764                           l2343:	
  3765  039D                     	btfss	0+(___fladd@b)+02h,(7)&7
  3766  039D  1FC6               	goto	u2901
  3767  039E  2BA0               	goto	u2900
  3768  039F  2BA1               u2901:
  3769  03A0                     	goto	l2347
  3770  03A0  2BA3               u2900:
  3771  03A1                     	line	24
  3772                           	
  3773                           l2345:	
  3774  03A1                     	bsf	(___fladd@bexp)+(0/8),(0)&7
  3775  03A1  145A               	goto	l2347
  3776  03A2  2BA3               	line	25
  3777                           	
  3778                           l551:	
  3779  03A3                     	line	28
  3780                           	
  3781                           l2347:	
  3782  03A3                     	movf	((___fladd@bexp)),w
  3783  03A3  085A               	btfsc	status,2
  3784  03A4  1903               	goto	u2911
  3785  03A5  2BA7               	goto	u2910
  3786  03A6  2BA8               u2911:
  3787  03A7                     	goto	l2357
  3788  03A7  2BB9               u2910:
  3789  03A8                     	line	30
  3790                           	
  3791                           l2349:	
  3792  03A8                     		incf	((___fladd@bexp)),w
  3793  03A8  0A5A               	btfss	status,2
  3794  03A9  1D03               	goto	u2921
  3795  03AA  2BAC               	goto	u2920
  3796  03AB  2BAD               u2921:
  3797  03AC                     	goto	l2353
  3798  03AC  2BB6               u2920:
  3799  03AD                     	line	32
  3800                           	
  3801                           l2351:	
  3802  03AD                     	movlw	0x0
  3803  03AD  3000               	movwf	(___fladd@b+3)
  3804  03AE  00C7               	movlw	0x0
  3805  03AF  3000               	movwf	(___fladd@b+2)
  3806  03B0  00C6               	movlw	0x0
  3807  03B1  3000               	movwf	(___fladd@b+1)
  3808  03B2  00C5               	movlw	0x0
  3809  03B3  3000               	movwf	(___fladd@b)
  3810  03B4  00C4               
  3811                           	goto	l2353
  3812  03B5  2BB6               	line	33
  3813                           	
  3814                           l553:	
  3815  03B6                     	line	35
  3816                           	
  3817                           l2353:	
  3818  03B6                     	bsf	(___fladd@b)+(23/8),(23)&7
  3819  03B6  17C6               	line	37
  3820                           	
  3821                           l2355:	
  3822  03B7                     	clrf	0+(___fladd@b)+03h
  3823  03B7  01C7               	line	38
  3824                           	goto	l2359
  3825  03B8  2BC2               	line	39
  3826                           	
  3827                           l552:	
  3828  03B9                     	line	41
  3829                           	
  3830                           l2357:	
  3831  03B9                     	movlw	0x0
  3832  03B9  3000               	movwf	(___fladd@b+3)
  3833  03BA  00C7               	movlw	0x0
  3834  03BB  3000               	movwf	(___fladd@b+2)
  3835  03BC  00C6               	movlw	0x0
  3836  03BD  3000               	movwf	(___fladd@b+1)
  3837  03BE  00C5               	movlw	0x0
  3838  03BF  3000               	movwf	(___fladd@b)
  3839  03C0  00C4               
  3840                           	goto	l2359
  3841  03C1  2BC2               	line	42
  3842                           	
  3843                           l554:	
  3844  03C2                     	line	44
  3845                           	
  3846                           l2359:	
  3847  03C2                     	movf	0+(___fladd@a)+03h,w
  3848  03C2  084B               	andlw	080h
  3849  03C3  3980               	movwf	(??___fladd+0)+0
  3850  03C4  00CC               	movf	(??___fladd+0)+0,w
  3851  03C5  084C               	movwf	(___fladd@aexp)
  3852  03C6  00D9               	line	46
  3853                           	
  3854                           l2361:	
  3855  03C7                     	movf	(___fladd@aexp),w
  3856  03C7  0859               	xorwf	(___fladd@signs),w
  3857  03C8  0658               	skipnz
  3858  03C9  1903               	goto	u2931
  3859  03CA  2BCC               	goto	u2930
  3860  03CB  2BCD               u2931:
  3861  03CC                     	goto	l2365
  3862  03CC  2BCF               u2930:
  3863  03CD                     	line	47
  3864                           	
  3865                           l2363:	
  3866  03CD                     	bsf	(___fladd@signs)+(6/8),(6)&7
  3867  03CD  1758               	goto	l2365
  3868  03CE  2BCF               	line	48
  3869                           	
  3870                           l555:	
  3871  03CF                     	line	49
  3872                           	
  3873                           l2365:	
  3874  03CF                     	movf	0+(___fladd@a)+03h,w
  3875  03CF  084B               	movwf	(??___fladd+0)+0
  3876  03D0  00CC               	addwf	(??___fladd+0)+0,w
  3877  03D1  074C               	movwf	(??___fladd+1)+0
  3878  03D2  00CD               	movf	(??___fladd+1)+0,w
  3879  03D3  084D               	movwf	(___fladd@aexp)
  3880  03D4  00D9               	line	50
  3881                           	
  3882                           l2367:	
  3883  03D5                     	btfss	0+(___fladd@a)+02h,(7)&7
  3884  03D5  1FCA               	goto	u2941
  3885  03D6  2BD8               	goto	u2940
  3886  03D7  2BD9               u2941:
  3887  03D8                     	goto	l2371
  3888  03D8  2BDB               u2940:
  3889  03D9                     	line	51
  3890                           	
  3891                           l2369:	
  3892  03D9                     	bsf	(___fladd@aexp)+(0/8),(0)&7
  3893  03D9  1459               	goto	l2371
  3894  03DA  2BDB               	line	52
  3895                           	
  3896                           l556:	
  3897  03DB                     	line	55
  3898                           	
  3899                           l2371:	
  3900  03DB                     	movf	((___fladd@aexp)),w
  3901  03DB  0859               	btfsc	status,2
  3902  03DC  1903               	goto	u2951
  3903  03DD  2BDF               	goto	u2950
  3904  03DE  2BE0               u2951:
  3905  03DF                     	goto	l2381
  3906  03DF  2BF1               u2950:
  3907  03E0                     	line	57
  3908                           	
  3909                           l2373:	
  3910  03E0                     		incf	((___fladd@aexp)),w
  3911  03E0  0A59               	btfss	status,2
  3912  03E1  1D03               	goto	u2961
  3913  03E2  2BE4               	goto	u2960
  3914  03E3  2BE5               u2961:
  3915  03E4                     	goto	l2377
  3916  03E4  2BEE               u2960:
  3917  03E5                     	line	59
  3918                           	
  3919                           l2375:	
  3920  03E5                     	movlw	0x0
  3921  03E5  3000               	movwf	(___fladd@a+3)
  3922  03E6  00CB               	movlw	0x0
  3923  03E7  3000               	movwf	(___fladd@a+2)
  3924  03E8  00CA               	movlw	0x0
  3925  03E9  3000               	movwf	(___fladd@a+1)
  3926  03EA  00C9               	movlw	0x0
  3927  03EB  3000               	movwf	(___fladd@a)
  3928  03EC  00C8               
  3929                           	goto	l2377
  3930  03ED  2BEE               	line	60
  3931                           	
  3932                           l558:	
  3933  03EE                     	line	62
  3934                           	
  3935                           l2377:	
  3936  03EE                     	bsf	(___fladd@a)+(23/8),(23)&7
  3937  03EE  17CA               	line	64
  3938                           	
  3939                           l2379:	
  3940  03EF                     	clrf	0+(___fladd@a)+03h
  3941  03EF  01CB               	line	65
  3942                           	goto	l559
  3943  03F0  2BF9               	line	66
  3944                           	
  3945                           l557:	
  3946  03F1                     	line	68
  3947                           	
  3948                           l2381:	
  3949  03F1                     	movlw	0x0
  3950  03F1  3000               	movwf	(___fladd@a+3)
  3951  03F2  00CB               	movlw	0x0
  3952  03F3  3000               	movwf	(___fladd@a+2)
  3953  03F4  00CA               	movlw	0x0
  3954  03F5  3000               	movwf	(___fladd@a+1)
  3955  03F6  00C9               	movlw	0x0
  3956  03F7  3000               	movwf	(___fladd@a)
  3957  03F8  00C8               
  3958                           	line	69
  3959                           	
  3960                           l559:	
  3961  03F9                     	line	75
  3962                           	movf	(___fladd@bexp),w
  3963  03F9  085A               	subwf	(___fladd@aexp),w
  3964  03FA  0259               	skipnc
  3965  03FB  1803               	goto	u2971
  3966  03FC  2BFE               	goto	u2970
  3967  03FD  2BFF               u2971:
  3968  03FE                     	goto	l2417
  3969  03FE  2C45               u2970:
  3970  03FF                     	line	77
  3971                           	
  3972                           l2383:	
  3973  03FF                     	btfss	(___fladd@signs),(6)&7
  3974  03FF  1F58               	goto	u2981
  3975  0400  2C02               	goto	u2980
  3976  0401  2C03               u2981:
  3977  0402                     	goto	l2387
  3978  0402  2C08               u2980:
  3979  0403                     	line	78
  3980                           	
  3981                           l2385:	
  3982  0403                     	movlw	low(080h)
  3983  0403  3080               	movwf	(??___fladd+0)+0
  3984  0404  00CC               	movf	(??___fladd+0)+0,w
  3985  0405  084C               	xorwf	(___fladd@signs),f
  3986  0406  06D8               	goto	l2387
  3987  0407  2C08               	line	79
  3988                           	
  3989                           l561:	
  3990  0408                     	line	81
  3991                           	
  3992                           l2387:	
  3993  0408                     	movf	(___fladd@bexp),w
  3994  0408  085A               	movwf	(??___fladd+0)+0
  3995  0409  00CC               	movf	(??___fladd+0)+0,w
  3996  040A  084C               	movwf	(___fladd@grs)
  3997  040B  00DB               	line	82
  3998                           	
  3999                           l2389:	
  4000  040C                     	movf	(___fladd@aexp),w
  4001  040C  0859               	movwf	(??___fladd+0)+0
  4002  040D  00CC               	movf	(??___fladd+0)+0,w
  4003  040E  084C               	movwf	(___fladd@bexp)
  4004  040F  00DA               	line	83
  4005                           	
  4006                           l2391:	
  4007  0410                     	movf	(___fladd@grs),w
  4008  0410  085B               	movwf	(??___fladd+0)+0
  4009  0411  00CC               	movf	(??___fladd+0)+0,w
  4010  0412  084C               	movwf	(___fladd@aexp)
  4011  0413  00D9               	line	84
  4012                           	
  4013                           l2393:	
  4014  0414                     	movf	(___fladd@b),w
  4015  0414  0844               	movwf	(??___fladd+0)+0
  4016  0415  00CC               	movf	(??___fladd+0)+0,w
  4017  0416  084C               	movwf	(___fladd@grs)
  4018  0417  00DB               	line	85
  4019                           	
  4020                           l2395:	
  4021  0418                     	movf	(___fladd@a),w
  4022  0418  0848               	movwf	(??___fladd+0)+0
  4023  0419  00CC               	movf	(??___fladd+0)+0,w
  4024  041A  084C               	movwf	(___fladd@b)
  4025  041B  00C4               	line	86
  4026                           	
  4027                           l2397:	
  4028  041C                     	movf	(___fladd@grs),w
  4029  041C  085B               	movwf	(??___fladd+0)+0
  4030  041D  00CC               	movf	(??___fladd+0)+0,w
  4031  041E  084C               	movwf	(___fladd@a)
  4032  041F  00C8               	line	87
  4033                           	
  4034                           l2399:	
  4035  0420                     	movf	0+(___fladd@b)+01h,w
  4036  0420  0845               	movwf	(??___fladd+0)+0
  4037  0421  00CC               	movf	(??___fladd+0)+0,w
  4038  0422  084C               	movwf	(___fladd@grs)
  4039  0423  00DB               	line	88
  4040                           	
  4041                           l2401:	
  4042  0424                     	movf	0+(___fladd@a)+01h,w
  4043  0424  0849               	movwf	(??___fladd+0)+0
  4044  0425  00CC               	movf	(??___fladd+0)+0,w
  4045  0426  084C               	movwf	0+(___fladd@b)+01h
  4046  0427  00C5               	line	89
  4047                           	
  4048                           l2403:	
  4049  0428                     	movf	(___fladd@grs),w
  4050  0428  085B               	movwf	(??___fladd+0)+0
  4051  0429  00CC               	movf	(??___fladd+0)+0,w
  4052  042A  084C               	movwf	0+(___fladd@a)+01h
  4053  042B  00C9               	line	90
  4054                           	
  4055                           l2405:	
  4056  042C                     	movf	0+(___fladd@b)+02h,w
  4057  042C  0846               	movwf	(??___fladd+0)+0
  4058  042D  00CC               	movf	(??___fladd+0)+0,w
  4059  042E  084C               	movwf	(___fladd@grs)
  4060  042F  00DB               	line	91
  4061                           	
  4062                           l2407:	
  4063  0430                     	movf	0+(___fladd@a)+02h,w
  4064  0430  084A               	movwf	(??___fladd+0)+0
  4065  0431  00CC               	movf	(??___fladd+0)+0,w
  4066  0432  084C               	movwf	0+(___fladd@b)+02h
  4067  0433  00C6               	line	92
  4068                           	
  4069                           l2409:	
  4070  0434                     	movf	(___fladd@grs),w
  4071  0434  085B               	movwf	(??___fladd+0)+0
  4072  0435  00CC               	movf	(??___fladd+0)+0,w
  4073  0436  084C               	movwf	0+(___fladd@a)+02h
  4074  0437  00CA               	line	93
  4075                           	
  4076                           l2411:	
  4077  0438                     	movf	0+(___fladd@b)+03h,w
  4078  0438  0847               	movwf	(??___fladd+0)+0
  4079  0439  00CC               	movf	(??___fladd+0)+0,w
  4080  043A  084C               	movwf	(___fladd@grs)
  4081  043B  00DB               	line	94
  4082                           	
  4083                           l2413:	
  4084  043C                     	movf	0+(___fladd@a)+03h,w
  4085  043C  084B               	movwf	(??___fladd+0)+0
  4086  043D  00CC               	movf	(??___fladd+0)+0,w
  4087  043E  084C               	movwf	0+(___fladd@b)+03h
  4088  043F  00C7               	line	95
  4089                           	
  4090                           l2415:	
  4091  0440                     	movf	(___fladd@grs),w
  4092  0440  085B               	movwf	(??___fladd+0)+0
  4093  0441  00CC               	movf	(??___fladd+0)+0,w
  4094  0442  084C               	movwf	0+(___fladd@a)+03h
  4095  0443  00CB               	goto	l2417
  4096  0444  2C45               	line	96
  4097                           	
  4098                           l560:	
  4099  0445                     	line	98
  4100                           	
  4101                           l2417:	
  4102  0445                     	clrf	(___fladd@grs)
  4103  0445  01DB               	line	100
  4104                           	
  4105                           l2419:	
  4106  0446                     	movf	(___fladd@bexp),w
  4107  0446  085A               	movwf	(??___fladd+0)+0
  4108  0447  00CC               	clrf	(??___fladd+0)+0+1
  4109  0448  01CD               	comf	(??___fladd+0)+0,f
  4110  0449  09CC               	comf	(??___fladd+0)+1,f
  4111  044A  09CD               	incf	(??___fladd+0)+0,f
  4112  044B  0ACC               	skipnz
  4113  044C  1903               	incf	(??___fladd+0)+1,f
  4114  044D  0ACD               	movf	(___fladd@aexp),w
  4115  044E  0859               	addwf	0+(??___fladd+0)+0,w
  4116  044F  074C               	movwf	(??___fladd+2)+0
  4117  0450  00CE               	movf	1+(??___fladd+0)+0,w
  4118  0451  084D               	skipnc
  4119  0452  1803               	incf	1+(??___fladd+0)+0,w
  4120  0453  0A4D               	movwf	((??___fladd+2)+0)+1
  4121  0454  00CF               	movf	1+(??___fladd+2)+0,w
  4122  0455  084F               	xorlw	80h
  4123  0456  3A80               	movwf	btemp+1
  4124  0457  00FF               	movlw	(0)^80h
  4125  0458  3080               	subwf	btemp+1,w
  4126  0459  027F               	skipz
  4127  045A  1D03               	goto	u2995
  4128  045B  2C5E               	movlw	01Ah
  4129  045C  301A               	subwf	0+(??___fladd+2)+0,w
  4130  045D  024E               u2995:
  4131  045E                     
  4132                           	skipc
  4133  045E  1C03               	goto	u2991
  4134  045F  2C61               	goto	u2990
  4135  0460  2C62               u2991:
  4136  0461                     	goto	l2435
  4137  0461  2CA3               u2990:
  4138  0462                     	line	101
  4139                           	
  4140                           l2421:	
  4141  0462                     	bcf	status, 5	;RP0=0, select bank0
  4142  0462  1283               	bcf	status, 6	;RP1=0, select bank0
  4143  0463  1303               	movf	(___fladd@b+3),w
  4144  0464  0847               	iorwf	(___fladd@b+2),w
  4145  0465  0446               	iorwf	(___fladd@b+1),w
  4146  0466  0445               	iorwf	(___fladd@b),w
  4147  0467  0444               	skipz
  4148  0468  1D03               	goto	u3001
  4149  0469  2C6B               	goto	u3000
  4150  046A  2C6D               u3001:
  4151  046B                     	movlw	1
  4152  046B  3001               	goto	u3010
  4153  046C  2C6E               u3000:
  4154  046D                     	movlw	0
  4155  046D  3000               u3010:
  4156  046E                     	movwf	(??___fladd+0)+0
  4157  046E  00CC               	movf	(??___fladd+0)+0,w
  4158  046F  084C               	movwf	(___fladd@grs)
  4159  0470  00DB               	line	102
  4160                           	movlw	high highword(0)
  4161  0471  3000               	movwf	(___fladd@b+3)
  4162  0472  00C7               	movlw	low highword(0)
  4163  0473  3000               	movwf	(___fladd@b+2)
  4164  0474  00C6               	movlw	high(0)
  4165  0475  3000               	movwf	(___fladd@b+1)
  4166  0476  00C5               	movlw	low(0)
  4167  0477  3000               	movwf	(___fladd@b)
  4168  0478  00C4               
  4169                           	line	103
  4170                           	movf	(___fladd@aexp),w
  4171  0479  0859               	movwf	(??___fladd+0)+0
  4172  047A  00CC               	movf	(??___fladd+0)+0,w
  4173  047B  084C               	movwf	(___fladd@bexp)
  4174  047C  00DA               	line	104
  4175                           	goto	l563
  4176  047D  2CAC               	line	105
  4177                           	
  4178                           l562:	
  4179  047E                     	line	106
  4180                           	goto	l2435
  4181  047E  2CA3               	
  4182                           l565:	
  4183  047F                     	line	109
  4184                           	btfss	(___fladd@grs),(0)&7
  4185  047F  1C5B               	goto	u3021
  4186  0480  2C82               	goto	u3020
  4187  0481  2C83               u3021:
  4188  0482                     	goto	l2425
  4189  0482  2C8C               u3020:
  4190  0483                     	line	110
  4191                           	
  4192                           l2423:	
  4193  0483                     	movf	(___fladd@grs),w
  4194  0483  085B               	movwf	(??___fladd+0)+0
  4195  0484  00CC               	clrc
  4196  0485  1003               	rrf	(??___fladd+0)+0,w
  4197  0486  0C4C               	iorlw	01h
  4198  0487  3801               	movwf	(??___fladd+1)+0
  4199  0488  00CD               	movf	(??___fladd+1)+0,w
  4200  0489  084D               	movwf	(___fladd@grs)
  4201  048A  00DB               	line	111
  4202                           	goto	l2427
  4203  048B  2C8F               	line	112
  4204                           	
  4205                           l566:	
  4206  048C                     	line	113
  4207                           	
  4208                           l2425:	
  4209  048C                     	clrc
  4210  048C  1003               	rrf	(___fladd@grs),f
  4211  048D  0CDB               
  4212                           	goto	l2427
  4213  048E  2C8F               	line	114
  4214                           	
  4215                           l567:	
  4216  048F                     	line	115
  4217                           	
  4218                           l2427:	
  4219  048F                     	btfss	(___fladd@b),(0)&7
  4220  048F  1C44               	goto	u3031
  4221  0490  2C92               	goto	u3030
  4222  0491  2C93               u3031:
  4223  0492                     	goto	l2431
  4224  0492  2C95               u3030:
  4225  0493                     	line	116
  4226                           	
  4227                           l2429:	
  4228  0493                     	bsf	(___fladd@grs)+(7/8),(7)&7
  4229  0493  17DB               	goto	l2431
  4230  0494  2C95               	line	117
  4231                           	
  4232                           l568:	
  4233  0495                     	line	118
  4234                           	
  4235                           l2431:	
  4236  0495                     	movlw	01h
  4237  0495  3001               	movwf	(??___fladd+0)+0
  4238  0496  00CC               u3045:
  4239  0497                     	rlf	(___fladd@b+3),w
  4240  0497  0D47               	rrf	(___fladd@b+3),f
  4241  0498  0CC7               	rrf	(___fladd@b+2),f
  4242  0499  0CC6               	rrf	(___fladd@b+1),f
  4243  049A  0CC5               	rrf	(___fladd@b),f
  4244  049B  0CC4               	decfsz	(??___fladd+0)+0&07fh,f
  4245  049C  0BCC               	goto	u3045
  4246  049D  2C97               
  4247                           	line	119
  4248                           	
  4249                           l2433:	
  4250  049E                     	movlw	low(01h)
  4251  049E  3001               	movwf	(??___fladd+0)+0
  4252  049F  00CC               	movf	(??___fladd+0)+0,w
  4253  04A0  084C               	addwf	(___fladd@bexp),f
  4254  04A1  07DA               	goto	l2435
  4255  04A2  2CA3               	line	120
  4256                           	
  4257                           l564:	
  4258  04A3                     	line	106
  4259                           	
  4260                           l2435:	
  4261  04A3                     	bcf	status, 5	;RP0=0, select bank0
  4262  04A3  1283               	bcf	status, 6	;RP1=0, select bank0
  4263  04A4  1303               	movf	(___fladd@aexp),w
  4264  04A5  0859               	subwf	(___fladd@bexp),w
  4265  04A6  025A               	skipc
  4266  04A7  1C03               	goto	u3051
  4267  04A8  2CAA               	goto	u3050
  4268  04A9  2CAB               u3051:
  4269  04AA                     	goto	l565
  4270  04AA  2C7F               u3050:
  4271  04AB                     	goto	l563
  4272  04AB  2CAC               	
  4273                           l569:	
  4274  04AC                     	line	121
  4275                           	
  4276                           l563:	
  4277  04AC                     	line	124
  4278                           	btfsc	(___fladd@signs),(6)&7
  4279  04AC  1B58               	goto	u3061
  4280  04AD  2CAF               	goto	u3060
  4281  04AE  2CB0               u3061:
  4282  04AF                     	goto	l2461
  4283  04AF  2CFF               u3060:
  4284  04B0                     	line	127
  4285                           	
  4286                           l2437:	
  4287  04B0                     	movf	((___fladd@bexp)),w
  4288  04B0  085A               	btfss	status,2
  4289  04B1  1D03               	goto	u3071
  4290  04B2  2CB4               	goto	u3070
  4291  04B3  2CB5               u3071:
  4292  04B4                     	goto	l2443
  4293  04B4  2CBF               u3070:
  4294  04B5                     	line	128
  4295                           	
  4296                           l2439:	
  4297  04B5                     	movlw	0x0
  4298  04B5  3000               	movwf	(?___fladd+3)
  4299  04B6  00C7               	movlw	0x0
  4300  04B7  3000               	movwf	(?___fladd+2)
  4301  04B8  00C6               	movlw	0x0
  4302  04B9  3000               	movwf	(?___fladd+1)
  4303  04BA  00C5               	movlw	0x0
  4304  04BB  3000               	movwf	(?___fladd)
  4305  04BC  00C4               
  4306                           	goto	l572
  4307  04BD  2E4B               	
  4308                           l2441:	
  4309  04BE                     	goto	l572
  4310  04BE  2E4B               	line	129
  4311                           	
  4312                           l571:	
  4313  04BF                     	line	132
  4314                           	
  4315                           l2443:	
  4316  04BF                     	movf	(___fladd@a),w
  4317  04BF  0848               	addwf	(___fladd@b),f
  4318  04C0  07C4               	movf	(___fladd@a+1),w
  4319  04C1  0849               	clrz
  4320  04C2  1103               	skipnc
  4321  04C3  1803               	addlw	1
  4322  04C4  3E01               	skipnz
  4323  04C5  1903               	goto	u3081
  4324  04C6  2CC8               	addwf	(___fladd@b+1),f
  4325  04C7  07C5               u3081:
  4326  04C8                     	movf	(___fladd@a+2),w
  4327  04C8  084A               	clrz
  4328  04C9  1103               	skipnc
  4329  04CA  1803               	addlw	1
  4330  04CB  3E01               	skipnz
  4331  04CC  1903               	goto	u3082
  4332  04CD  2CCF               	addwf	(___fladd@b+2),f
  4333  04CE  07C6               u3082:
  4334  04CF                     	movf	(___fladd@a+3),w
  4335  04CF  084B               	clrz
  4336  04D0  1103               	skipnc
  4337  04D1  1803               	addlw	1
  4338  04D2  3E01               	skipnz
  4339  04D3  1903               	goto	u3083
  4340  04D4  2CD6               	addwf	(___fladd@b+3),f
  4341  04D5  07C7               u3083:
  4342  04D6                     
  4343                           	line	134
  4344                           	
  4345                           l2445:	
  4346  04D6                     	btfss	(___fladd@b+3),(24)&7
  4347  04D6  1C47               	goto	u3091
  4348  04D7  2CD9               	goto	u3090
  4349  04D8  2CDA               u3091:
  4350  04D9                     	goto	l2495
  4351  04D9  2DC8               u3090:
  4352  04DA                     	line	135
  4353                           	
  4354                           l2447:	
  4355  04DA                     	btfss	(___fladd@grs),(0)&7
  4356  04DA  1C5B               	goto	u3101
  4357  04DB  2CDD               	goto	u3100
  4358  04DC  2CDE               u3101:
  4359  04DD                     	goto	l2451
  4360  04DD  2CE7               u3100:
  4361  04DE                     	line	136
  4362                           	
  4363                           l2449:	
  4364  04DE                     	movf	(___fladd@grs),w
  4365  04DE  085B               	movwf	(??___fladd+0)+0
  4366  04DF  00CC               	clrc
  4367  04E0  1003               	rrf	(??___fladd+0)+0,w
  4368  04E1  0C4C               	iorlw	01h
  4369  04E2  3801               	movwf	(??___fladd+1)+0
  4370  04E3  00CD               	movf	(??___fladd+1)+0,w
  4371  04E4  084D               	movwf	(___fladd@grs)
  4372  04E5  00DB               	line	137
  4373                           	goto	l2453
  4374  04E6  2CEA               	line	138
  4375                           	
  4376                           l574:	
  4377  04E7                     	line	139
  4378                           	
  4379                           l2451:	
  4380  04E7                     	clrc
  4381  04E7  1003               	rrf	(___fladd@grs),f
  4382  04E8  0CDB               
  4383                           	goto	l2453
  4384  04E9  2CEA               	line	140
  4385                           	
  4386                           l575:	
  4387  04EA                     	line	141
  4388                           	
  4389                           l2453:	
  4390  04EA                     	btfss	(___fladd@b),(0)&7
  4391  04EA  1C44               	goto	u3111
  4392  04EB  2CED               	goto	u3110
  4393  04EC  2CEE               u3111:
  4394  04ED                     	goto	l2457
  4395  04ED  2CF0               u3110:
  4396  04EE                     	line	142
  4397                           	
  4398                           l2455:	
  4399  04EE                     	bsf	(___fladd@grs)+(7/8),(7)&7
  4400  04EE  17DB               	goto	l2457
  4401  04EF  2CF0               	line	143
  4402                           	
  4403                           l576:	
  4404  04F0                     	line	144
  4405                           	
  4406                           l2457:	
  4407  04F0                     	movlw	01h
  4408  04F0  3001               	movwf	(??___fladd+0)+0
  4409  04F1  00CC               u3125:
  4410  04F2                     	rlf	(___fladd@b+3),w
  4411  04F2  0D47               	rrf	(___fladd@b+3),f
  4412  04F3  0CC7               	rrf	(___fladd@b+2),f
  4413  04F4  0CC6               	rrf	(___fladd@b+1),f
  4414  04F5  0CC5               	rrf	(___fladd@b),f
  4415  04F6  0CC4               	decfsz	(??___fladd+0)+0&07fh,f
  4416  04F7  0BCC               	goto	u3125
  4417  04F8  2CF2               
  4418                           	line	145
  4419                           	
  4420                           l2459:	
  4421  04F9                     	movlw	low(01h)
  4422  04F9  3001               	movwf	(??___fladd+0)+0
  4423  04FA  00CC               	movf	(??___fladd+0)+0,w
  4424  04FB  084C               	addwf	(___fladd@bexp),f
  4425  04FC  07DA               	goto	l2495
  4426  04FD  2DC8               	line	146
  4427                           	
  4428                           l573:	
  4429  04FE                     	line	148
  4430                           	goto	l2495
  4431  04FE  2DC8               	line	149
  4432                           	
  4433                           l570:	
  4434  04FF                     	line	153
  4435                           	
  4436                           l2461:	
  4437  04FF                     	movf	(___fladd@b+3),w
  4438  04FF  0847               	xorlw	80h
  4439  0500  3A80               	movwf	btemp+1
  4440  0501  00FF               	movf	(___fladd@a+3),w
  4441  0502  084B               	xorlw	80h
  4442  0503  3A80               	subwf	btemp+1,w
  4443  0504  027F               	
  4444                           	skipz
  4445  0505  1D03               	goto	u3133
  4446  0506  2D11               	movf	(___fladd@a+2),w
  4447  0507  084A               	subwf	(___fladd@b+2),w
  4448  0508  0246               	skipz
  4449  0509  1D03               	goto	u3133
  4450  050A  2D11               	movf	(___fladd@a+1),w
  4451  050B  0849               	subwf	(___fladd@b+1),w
  4452  050C  0245               	skipz
  4453  050D  1D03               	goto	u3133
  4454  050E  2D11               	movf	(___fladd@a),w
  4455  050F  0848               	subwf	(___fladd@b),w
  4456  0510  0244               u3133:
  4457  0511                     	skipnc
  4458  0511  1803               	goto	u3131
  4459  0512  2D14               	goto	u3130
  4460  0513  2D15               u3131:
  4461  0514                     	goto	l2471
  4462  0514  2D7B               u3130:
  4463  0515                     	line	154
  4464                           	
  4465                           l2463:	
  4466  0515                     	movlw	0FFh
  4467  0515  30FF               	movwf	((??___fladd+0)+0)
  4468  0516  00CC               	movlw	0FFh
  4469  0517  30FF               	movwf	((??___fladd+0)+0+1)
  4470  0518  00CD               	movlw	0FFh
  4471  0519  30FF               	movwf	((??___fladd+0)+0+2)
  4472  051A  00CE               	movlw	0FFh
  4473  051B  30FF               	movwf	((??___fladd+0)+0+3)
  4474  051C  00CF               	movf	(___fladd@a),w
  4475  051D  0848               	movwf	(??___fladd+4)+0
  4476  051E  00D0               	movf	(___fladd@a+1),w
  4477  051F  0849               	movwf	((??___fladd+4)+0+1)
  4478  0520  00D1               	movf	(___fladd@a+2),w
  4479  0521  084A               	movwf	((??___fladd+4)+0+2)
  4480  0522  00D2               	movf	(___fladd@a+3),w
  4481  0523  084B               	movwf	((??___fladd+4)+0+3)
  4482  0524  00D3               	comf	(___fladd@b),w
  4483  0525  0944               	movwf	(??___fladd+8)+0
  4484  0526  00D4               	comf	(___fladd@b+1),w
  4485  0527  0945               	movwf	((??___fladd+8)+0+1)
  4486  0528  00D5               	comf	(___fladd@b+2),w
  4487  0529  0946               	movwf	((??___fladd+8)+0+2)
  4488  052A  00D6               	comf	(___fladd@b+3),w
  4489  052B  0947               	movwf	((??___fladd+8)+0+3)
  4490  052C  00D7               	incf	(??___fladd+8)+0,f
  4491  052D  0AD4               	skipnz
  4492  052E  1903               	incf	((??___fladd+8)+0+1),f
  4493  052F  0AD5               	skipnz
  4494  0530  1903               	incf	((??___fladd+8)+0+2),f
  4495  0531  0AD6               	skipnz
  4496  0532  1903               	incf	((??___fladd+8)+0+3),f
  4497  0533  0AD7               	movf	0+(??___fladd+8)+0,w
  4498  0534  0854               	addwf	(??___fladd+4)+0,f
  4499  0535  07D0               	movf	1+(??___fladd+8)+0,w
  4500  0536  0855               	skipnc
  4501  0537  1803               	incfsz	1+(??___fladd+8)+0,w
  4502  0538  0F55               	goto	u3140
  4503  0539  2D3B               	goto	u3141
  4504  053A  2D3C               u3140:
  4505  053B                     	addwf	(??___fladd+4)+1,f
  4506  053B  07D1               u3141:
  4507  053C                     	movf	2+(??___fladd+8)+0,w
  4508  053C  0856               	skipnc
  4509  053D  1803               	incfsz	2+(??___fladd+8)+0,w
  4510  053E  0F56               	goto	u3142
  4511  053F  2D41               	goto	u3143
  4512  0540  2D42               u3142:
  4513  0541                     	addwf	(??___fladd+4)+2,f
  4514  0541  07D2               u3143:
  4515  0542                     	movf	3+(??___fladd+8)+0,w
  4516  0542  0857               	skipnc
  4517  0543  1803               	incf	3+(??___fladd+8)+0,w
  4518  0544  0A57               	addwf	(??___fladd+4)+3,f
  4519  0545  07D3               	movf	0+(??___fladd+4)+0,w
  4520  0546  0850               	addwf	(??___fladd+0)+0,f
  4521  0547  07CC               	movf	1+(??___fladd+4)+0,w
  4522  0548  0851               	skipnc
  4523  0549  1803               	incfsz	1+(??___fladd+4)+0,w
  4524  054A  0F51               	goto	u3150
  4525  054B  2D4D               	goto	u3151
  4526  054C  2D4E               u3150:
  4527  054D                     	addwf	(??___fladd+0)+1,f
  4528  054D  07CD               u3151:
  4529  054E                     	movf	2+(??___fladd+4)+0,w
  4530  054E  0852               	skipnc
  4531  054F  1803               	incfsz	2+(??___fladd+4)+0,w
  4532  0550  0F52               	goto	u3152
  4533  0551  2D53               	goto	u3153
  4534  0552  2D54               u3152:
  4535  0553                     	addwf	(??___fladd+0)+2,f
  4536  0553  07CE               u3153:
  4537  0554                     	movf	3+(??___fladd+4)+0,w
  4538  0554  0853               	skipnc
  4539  0555  1803               	incf	3+(??___fladd+4)+0,w
  4540  0556  0A53               	addwf	(??___fladd+0)+3,f
  4541  0557  07CF               	movf	3+(??___fladd+0)+0,w
  4542  0558  084F               	movwf	(___fladd@b+3)
  4543  0559  00C7               	movf	2+(??___fladd+0)+0,w
  4544  055A  084E               	movwf	(___fladd@b+2)
  4545  055B  00C6               	movf	1+(??___fladd+0)+0,w
  4546  055C  084D               	movwf	(___fladd@b+1)
  4547  055D  00C5               	movf	0+(??___fladd+0)+0,w
  4548  055E  084C               	movwf	(___fladd@b)
  4549  055F  00C4               
  4550                           	line	155
  4551                           	movlw	low(080h)
  4552  0560  3080               	movwf	(??___fladd+0)+0
  4553  0561  00CC               	movf	(??___fladd+0)+0,w
  4554  0562  084C               	xorwf	(___fladd@signs),f
  4555  0563  06D8               	line	156
  4556                           	
  4557                           l2465:	
  4558  0564                     	comf	(___fladd@grs),f
  4559  0564  09DB               	incf	(___fladd@grs),f
  4560  0565  0ADB               	line	157
  4561                           	
  4562                           l2467:	
  4563  0566                     	movf	((___fladd@grs)),w
  4564  0566  085B               	btfss	status,2
  4565  0567  1D03               	goto	u3161
  4566  0568  2D6A               	goto	u3160
  4567  0569  2D6B               u3161:
  4568  056A                     	goto	l580
  4569  056A  2D89               u3160:
  4570  056B                     	line	158
  4571                           	
  4572                           l2469:	
  4573  056B                     	movlw	01h
  4574  056B  3001               	addwf	(___fladd@b),f
  4575  056C  07C4               	movlw	0
  4576  056D  3000               	skipnc
  4577  056E  1803               movlw 1
  4578  056F  3001               	addwf	(___fladd@b+1),f
  4579  0570  07C5               	movlw	0
  4580  0571  3000               	skipnc
  4581  0572  1803               movlw 1
  4582  0573  3001               	addwf	(___fladd@b+2),f
  4583  0574  07C6               	movlw	0
  4584  0575  3000               	skipnc
  4585  0576  1803               movlw 1
  4586  0577  3001               	addwf	(___fladd@b+3),f
  4587  0578  07C7               	goto	l580
  4588  0579  2D89               	line	159
  4589                           	
  4590                           l579:	
  4591  057A                     	line	160
  4592                           	goto	l580
  4593  057A  2D89               	line	161
  4594                           	
  4595                           l578:	
  4596  057B                     	line	162
  4597                           	
  4598                           l2471:	
  4599  057B                     	movf	(___fladd@a),w
  4600  057B  0848               	subwf	(___fladd@b),f
  4601  057C  02C4               	movf	(___fladd@a+1),w
  4602  057D  0849               	skipc
  4603  057E  1C03               	incfsz	(___fladd@a+1),w
  4604  057F  0F49               	subwf	(___fladd@b+1),f
  4605  0580  02C5               	movf	(___fladd@a+2),w
  4606  0581  084A               	skipc
  4607  0582  1C03               	incfsz	(___fladd@a+2),w
  4608  0583  0F4A               	subwf	(___fladd@b+2),f
  4609  0584  02C6               	movf	(___fladd@a+3),w
  4610  0585  084B               	skipc
  4611  0586  1C03               	incfsz	(___fladd@a+3),w
  4612  0587  0F4B               	subwf	(___fladd@b+3),f
  4613  0588  02C7               	line	163
  4614                           	
  4615                           l580:	
  4616  0589                     	line	166
  4617                           	movf	(___fladd@b+3),w
  4618  0589  0847               	iorwf	(___fladd@b+2),w
  4619  058A  0446               	iorwf	(___fladd@b+1),w
  4620  058B  0445               	iorwf	(___fladd@b),w
  4621  058C  0444               	skipz
  4622  058D  1D03               	goto	u3171
  4623  058E  2D90               	goto	u3170
  4624  058F  2D91               u3171:
  4625  0590                     	goto	l2493
  4626  0590  2DC2               u3170:
  4627  0591                     	
  4628                           l2473:	
  4629  0591                     	movf	((___fladd@grs)),w
  4630  0591  085B               	btfss	status,2
  4631  0592  1D03               	goto	u3181
  4632  0593  2D95               	goto	u3180
  4633  0594  2D96               u3181:
  4634  0595                     	goto	l2493
  4635  0595  2DC2               u3180:
  4636  0596                     	line	167
  4637                           	
  4638                           l2475:	
  4639  0596                     	movlw	0x0
  4640  0596  3000               	movwf	(?___fladd+3)
  4641  0597  00C7               	movlw	0x0
  4642  0598  3000               	movwf	(?___fladd+2)
  4643  0599  00C6               	movlw	0x0
  4644  059A  3000               	movwf	(?___fladd+1)
  4645  059B  00C5               	movlw	0x0
  4646  059C  3000               	movwf	(?___fladd)
  4647  059D  00C4               
  4648                           	goto	l572
  4649  059E  2E4B               	
  4650                           l2477:	
  4651  059F                     	goto	l572
  4652  059F  2E4B               	line	168
  4653                           	
  4654                           l581:	
  4655  05A0                     	line	171
  4656                           	goto	l2493
  4657  05A0  2DC2               	
  4658                           l583:	
  4659  05A1                     	line	172
  4660                           	
  4661                           l2479:	
  4662  05A1                     	movlw	01h
  4663  05A1  3001               	movwf	(??___fladd+0)+0
  4664  05A2  00CC               u3195:
  4665  05A3                     	clrc
  4666  05A3  1003               	rlf	(___fladd@b),f
  4667  05A4  0DC4               	rlf	(___fladd@b+1),f
  4668  05A5  0DC5               	rlf	(___fladd@b+2),f
  4669  05A6  0DC6               	rlf	(___fladd@b+3),f
  4670  05A7  0DC7               	decfsz	(??___fladd+0)+0
  4671  05A8  0BCC               	goto	u3195
  4672  05A9  2DA3               	line	173
  4673                           	
  4674                           l2481:	
  4675  05AA                     	btfss	(___fladd@grs),(7)&7
  4676  05AA  1FDB               	goto	u3201
  4677  05AB  2DAD               	goto	u3200
  4678  05AC  2DAE               u3201:
  4679  05AD                     	goto	l584
  4680  05AD  2DAF               u3200:
  4681  05AE                     	line	174
  4682                           	
  4683                           l2483:	
  4684  05AE                     	bsf	(___fladd@b)+(0/8),(0)&7
  4685  05AE  1444               	line	175
  4686                           	
  4687                           l584:	
  4688  05AF                     	line	176
  4689                           	btfss	(___fladd@grs),(0)&7
  4690  05AF  1C5B               	goto	u3211
  4691  05B0  2DB2               	goto	u3210
  4692  05B1  2DB3               u3211:
  4693  05B2                     	goto	l2487
  4694  05B2  2DB6               u3210:
  4695  05B3                     	line	177
  4696                           	
  4697                           l2485:	
  4698  05B3                     	setc
  4699  05B3  1403               	rlf	(___fladd@grs),f
  4700  05B4  0DDB               	line	178
  4701                           	goto	l2489
  4702  05B5  2DB9               	line	179
  4703                           	
  4704                           l585:	
  4705  05B6                     	line	180
  4706                           	
  4707                           l2487:	
  4708  05B6                     	clrc
  4709  05B6  1003               	rlf	(___fladd@grs),f
  4710  05B7  0DDB               
  4711                           	goto	l2489
  4712  05B8  2DB9               	line	181
  4713                           	
  4714                           l586:	
  4715  05B9                     	line	182
  4716                           	
  4717                           l2489:	
  4718  05B9                     	movf	((___fladd@bexp)),w
  4719  05B9  085A               	btfsc	status,2
  4720  05BA  1903               	goto	u3221
  4721  05BB  2DBD               	goto	u3220
  4722  05BC  2DBE               u3221:
  4723  05BD                     	goto	l2493
  4724  05BD  2DC2               u3220:
  4725  05BE                     	line	183
  4726                           	
  4727                           l2491:	
  4728  05BE                     	movlw	01h
  4729  05BE  3001               	subwf	(___fladd@bexp),f
  4730  05BF  02DA               	goto	l2493
  4731  05C0  2DC2               	line	184
  4732                           	
  4733                           l587:	
  4734  05C1                     	goto	l2493
  4735  05C1  2DC2               	line	185
  4736                           	
  4737                           l582:	
  4738  05C2                     	line	171
  4739                           	
  4740                           l2493:	
  4741  05C2                     	btfss	(___fladd@b+2),(23)&7
  4742  05C2  1FC6               	goto	u3231
  4743  05C3  2DC5               	goto	u3230
  4744  05C4  2DC6               u3231:
  4745  05C5                     	goto	l2479
  4746  05C5  2DA1               u3230:
  4747  05C6                     	goto	l2495
  4748  05C6  2DC8               	
  4749                           l588:	
  4750  05C7                     	goto	l2495
  4751  05C7  2DC8               	line	186
  4752                           	
  4753                           l577:	
  4754  05C8                     	line	192
  4755                           	
  4756                           l2495:	
  4757  05C8                     	clrf	(___fladd@aexp)
  4758  05C8  01D9               	line	193
  4759                           	
  4760                           l2497:	
  4761  05C9                     	btfss	(___fladd@grs),(7)&7
  4762  05C9  1FDB               	goto	u3241
  4763  05CA  2DCC               	goto	u3240
  4764  05CB  2DCD               u3241:
  4765  05CC                     	goto	l2505
  4766  05CC  2DDF               u3240:
  4767  05CD                     	line	194
  4768                           	
  4769                           l2499:	
  4770  05CD                     	movf	(___fladd@grs),w
  4771  05CD  085B               	andlw	07Fh
  4772  05CE  397F               	btfsc	status,2
  4773  05CF  1903               	goto	u3251
  4774  05D0  2DD2               	goto	u3250
  4775  05D1  2DD3               u3251:
  4776  05D2                     	goto	l590
  4777  05D2  2DD6               u3250:
  4778  05D3                     	line	195
  4779                           	
  4780                           l2501:	
  4781  05D3                     	clrf	(___fladd@aexp)
  4782  05D3  01D9               	incf	(___fladd@aexp),f
  4783  05D4  0AD9               	line	196
  4784                           	goto	l2505
  4785  05D5  2DDF               	line	197
  4786                           	
  4787                           l590:	
  4788  05D6                     	line	198
  4789                           	btfss	(___fladd@b),(0)&7
  4790  05D6  1C44               	goto	u3261
  4791  05D7  2DD9               	goto	u3260
  4792  05D8  2DDA               u3261:
  4793  05D9                     	goto	l2505
  4794  05D9  2DDF               u3260:
  4795  05DA                     	line	199
  4796                           	
  4797                           l2503:	
  4798  05DA                     	clrf	(___fladd@aexp)
  4799  05DA  01D9               	incf	(___fladd@aexp),f
  4800  05DB  0AD9               	goto	l2505
  4801  05DC  2DDF               	line	200
  4802                           	
  4803                           l592:	
  4804  05DD                     	goto	l2505
  4805  05DD  2DDF               	line	201
  4806                           	
  4807                           l591:	
  4808  05DE                     	goto	l2505
  4809  05DE  2DDF               	line	202
  4810                           	
  4811                           l589:	
  4812  05DF                     	line	203
  4813                           	
  4814                           l2505:	
  4815  05DF                     	movf	((___fladd@aexp)),w
  4816  05DF  0859               	btfsc	status,2
  4817  05E0  1903               	goto	u3271
  4818  05E1  2DE3               	goto	u3270
  4819  05E2  2DE4               u3271:
  4820  05E3                     	goto	l593
  4821  05E3  2E1A               u3270:
  4822  05E4                     	line	204
  4823                           	
  4824                           l2507:	
  4825  05E4                     	movlw	01h
  4826  05E4  3001               	addwf	(___fladd@b),f
  4827  05E5  07C4               	movlw	0
  4828  05E6  3000               	skipnc
  4829  05E7  1803               movlw 1
  4830  05E8  3001               	addwf	(___fladd@b+1),f
  4831  05E9  07C5               	movlw	0
  4832  05EA  3000               	skipnc
  4833  05EB  1803               movlw 1
  4834  05EC  3001               	addwf	(___fladd@b+2),f
  4835  05ED  07C6               	movlw	0
  4836  05EE  3000               	skipnc
  4837  05EF  1803               movlw 1
  4838  05F0  3001               	addwf	(___fladd@b+3),f
  4839  05F1  07C7               	line	205
  4840                           	
  4841                           l2509:	
  4842  05F2                     	btfss	(___fladd@b+3),(24)&7
  4843  05F2  1C47               	goto	u3281
  4844  05F3  2DF5               	goto	u3280
  4845  05F4  2DF6               u3281:
  4846  05F5                     	goto	l593
  4847  05F5  2E1A               u3280:
  4848  05F6                     	line	206
  4849                           	
  4850                           l2511:	
  4851  05F6                     	movf	(___fladd@b),w
  4852  05F6  0844               	movwf	(??___fladd+0)+0
  4853  05F7  00CC               	movf	(___fladd@b+1),w
  4854  05F8  0845               	movwf	((??___fladd+0)+0+1)
  4855  05F9  00CD               	movf	(___fladd@b+2),w
  4856  05FA  0846               	movwf	((??___fladd+0)+0+2)
  4857  05FB  00CE               	movf	(___fladd@b+3),w
  4858  05FC  0847               	movwf	((??___fladd+0)+0+3)
  4859  05FD  00CF               	movlw	01h
  4860  05FE  3001               	movwf	(??___fladd+4)+0
  4861  05FF  00D0               u3295:
  4862  0600                     	rlf	(??___fladd+0)+3,w
  4863  0600  0D4F               	rrf	(??___fladd+0)+3,f
  4864  0601  0CCF               	rrf	(??___fladd+0)+2,f
  4865  0602  0CCE               	rrf	(??___fladd+0)+1,f
  4866  0603  0CCD               	rrf	(??___fladd+0)+0,f
  4867  0604  0CCC               u3290:
  4868  0605                     	decfsz	(??___fladd+4)+0,f
  4869  0605  0BD0               	goto	u3295
  4870  0606  2E00               	movf	3+(??___fladd+0)+0,w
  4871  0607  084F               	movwf	(___fladd@b+3)
  4872  0608  00C7               	movf	2+(??___fladd+0)+0,w
  4873  0609  084E               	movwf	(___fladd@b+2)
  4874  060A  00C6               	movf	1+(??___fladd+0)+0,w
  4875  060B  084D               	movwf	(___fladd@b+1)
  4876  060C  00C5               	movf	0+(??___fladd+0)+0,w
  4877  060D  084C               	movwf	(___fladd@b)
  4878  060E  00C4               
  4879                           	line	207
  4880                           		incf	((___fladd@bexp)),w
  4881  060F  0A5A               	btfsc	status,2
  4882  0610  1903               	goto	u3301
  4883  0611  2E13               	goto	u3300
  4884  0612  2E14               u3301:
  4885  0613                     	goto	l593
  4886  0613  2E1A               u3300:
  4887  0614                     	line	208
  4888                           	
  4889                           l2513:	
  4890  0614                     	movlw	low(01h)
  4891  0614  3001               	movwf	(??___fladd+0)+0
  4892  0615  00CC               	movf	(??___fladd+0)+0,w
  4893  0616  084C               	addwf	(___fladd@bexp),f
  4894  0617  07DA               	goto	l593
  4895  0618  2E1A               	line	209
  4896                           	
  4897                           l595:	
  4898  0619                     	goto	l593
  4899  0619  2E1A               	line	210
  4900                           	
  4901                           l594:	
  4902  061A                     	line	211
  4903                           	
  4904                           l593:	
  4905  061A                     	line	215
  4906                           		incf	((___fladd@bexp)),w
  4907  061A  0A5A               	btfsc	status,2
  4908  061B  1903               	goto	u3311
  4909  061C  2E1E               	goto	u3310
  4910  061D  2E1F               u3311:
  4911  061E                     	goto	l2517
  4912  061E  2E25               u3310:
  4913  061F                     	
  4914                           l2515:	
  4915  061F                     	movf	((___fladd@bexp)),w
  4916  061F  085A               	btfss	status,2
  4917  0620  1D03               	goto	u3321
  4918  0621  2E23               	goto	u3320
  4919  0622  2E24               u3321:
  4920  0623                     	goto	l2523
  4921  0623  2E35               u3320:
  4922  0624                     	goto	l2517
  4923  0624  2E25               	
  4924                           l598:	
  4925  0625                     	line	216
  4926                           	
  4927                           l2517:	
  4928  0625                     	movlw	high highword(0)
  4929  0625  3000               	movwf	(___fladd@b+3)
  4930  0626  00C7               	movlw	low highword(0)
  4931  0627  3000               	movwf	(___fladd@b+2)
  4932  0628  00C6               	movlw	high(0)
  4933  0629  3000               	movwf	(___fladd@b+1)
  4934  062A  00C5               	movlw	low(0)
  4935  062B  3000               	movwf	(___fladd@b)
  4936  062C  00C4               
  4937                           	line	218
  4938                           	
  4939                           l2519:	
  4940  062D                     	movf	((___fladd@bexp)),w
  4941  062D  085A               	btfss	status,2
  4942  062E  1D03               	goto	u3331
  4943  062F  2E31               	goto	u3330
  4944  0630  2E32               u3331:
  4945  0631                     	goto	l2523
  4946  0631  2E35               u3330:
  4947  0632                     	line	219
  4948                           	
  4949                           l2521:	
  4950  0632                     	clrf	(___fladd@signs)
  4951  0632  01D8               	goto	l2523
  4952  0633  2E35               	line	220
  4953                           	
  4954                           l599:	
  4955  0634                     	goto	l2523
  4956  0634  2E35               	line	221
  4957                           	
  4958                           l596:	
  4959  0635                     	line	225
  4960                           	
  4961                           l2523:	
  4962  0635                     	btfss	(___fladd@bexp),(0)&7
  4963  0635  1C5A               	goto	u3341
  4964  0636  2E38               	goto	u3340
  4965  0637  2E39               u3341:
  4966  0638                     	goto	l2527
  4967  0638  2E3B               u3340:
  4968  0639                     	line	226
  4969                           	
  4970                           l2525:	
  4971  0639                     	bsf	0+(___fladd@b)+02h+(7/8),(7)&7
  4972  0639  17C6               	line	227
  4973                           	goto	l601
  4974  063A  2E3F               	line	229
  4975                           	
  4976                           l600:	
  4977  063B                     	line	230
  4978                           	
  4979                           l2527:	
  4980  063B                     	movlw	low(07Fh)
  4981  063B  307F               	movwf	(??___fladd+0)+0
  4982  063C  00CC               	movf	(??___fladd+0)+0,w
  4983  063D  084C               	andwf	0+(___fladd@b)+02h,f
  4984  063E  05C6               	line	231
  4985                           	
  4986                           l601:	
  4987  063F                     	line	232
  4988                           	movf	(___fladd@bexp),w
  4989  063F  085A               	movwf	(??___fladd+0)+0
  4990  0640  00CC               	clrc
  4991  0641  1003               	rrf	(??___fladd+0)+0,w
  4992  0642  0C4C               	movwf	(??___fladd+1)+0
  4993  0643  00CD               	movf	(??___fladd+1)+0,w
  4994  0644  084D               	movwf	0+(___fladd@b)+03h
  4995  0645  00C7               	line	233
  4996                           	
  4997                           l2529:	
  4998  0646                     	btfss	(___fladd@signs),(7)&7
  4999  0646  1FD8               	goto	u3351
  5000  0647  2E49               	goto	u3350
  5001  0648  2E4A               u3351:
  5002  0649                     	goto	l602
  5003  0649  2E4B               u3350:
  5004  064A                     	line	234
  5005                           	
  5006                           l2531:	
  5007  064A                     	bsf	0+(___fladd@b)+03h+(7/8),(7)&7
  5008  064A  17C7               	line	235
  5009                           	
  5010                           l602:	
  5011  064B                     	line	236
  5012                           	line	237
  5013                           	
  5014                           l572:	
  5015  064B                     	return
  5016  064B  0008               	opt stack 0
  5017                           GLOBAL	__end_of___fladd
  5018                           	__end_of___fladd:
  5019  064C                     	signat	___fladd,8316
  5020                           	global	___awdiv
  5021                           
  5022 ;; *************** function ___awdiv *****************
  5023 ;; Defined at:
  5024 ;;		line 5 in file "C:\Program Files (x86)\Microchip\xc8\v2.00\pic\sources\c90\common\awdiv.c"
  5025 ;; Parameters:    Size  Location     Type
  5026 ;;  divisor         2    3[COMMON] int 
  5027 ;;  dividend        2    5[COMMON] int 
  5028 ;; Auto vars:     Size  Location     Type
  5029 ;;  quotient        2    2[BANK0 ] int 
  5030 ;;  sign            1    1[BANK0 ] unsigned char 
  5031 ;;  counter         1    0[BANK0 ] unsigned char 
  5032 ;; Return value:  Size  Location     Type
  5033 ;;                  2    3[COMMON] int 
  5034 ;; Registers used:
  5035 ;;		wreg, status,2, status,0
  5036 ;; Tracked objects:
  5037 ;;		On entry : 0/0
  5038 ;;		On exit  : 0/0
  5039 ;;		Unchanged: 0/0
  5040 ;; Data sizes:     COMMON   BANK0   BANK1   BANK3   BANK2
  5041 ;;      Params:         4       0       0       0       0
  5042 ;;      Locals:         0       4       0       0       0
  5043 ;;      Temps:          1       0       0       0       0
  5044 ;;      Totals:         5       4       0       0       0
  5045 ;;Total ram usage:        9 bytes
  5046 ;; Hardware stack levels used:    1
  5047 ;; Hardware stack levels required when called:    1
  5048 ;; This function calls:
  5049 ;;		Nothing
  5050 ;; This function is called by:
  5051 ;;		_main
  5052 ;; This function uses a non-reentrant model
  5053 ;;
  5054                           psect	text6,local,class=CODE,delta=2,merge=1,group=1
  5055                           	file	"C:\Program Files (x86)\Microchip\xc8\v2.00\pic\sources\c90\common\awdiv.c"
  5056                           	line	5
  5057                           global __ptext6
  5058                           __ptext6:	;psect for function ___awdiv
  5059  0D78                     psect	text6
  5060                           	file	"C:\Program Files (x86)\Microchip\xc8\v2.00\pic\sources\c90\common\awdiv.c"
  5061                           	line	5
  5062                           	global	__size_of___awdiv
  5063                           	__size_of___awdiv	equ	__end_of___awdiv-___awdiv
  5064  0073                     	
  5065                           ___awdiv:	
  5066  0D78                     ;incstack = 0
  5067                           	opt	stack 6
  5068                           ; Regs used in ___awdiv: [wreg+status,2+status,0]
  5069                           	line	13
  5070                           	
  5071                           l2259:	
  5072  0D78                     	bcf	status, 5	;RP0=0, select bank0
  5073  0D78  1283               	bcf	status, 6	;RP1=0, select bank0
  5074  0D79  1303               	clrf	(___awdiv@sign)
  5075  0D7A  01A1               	line	14
  5076                           	
  5077                           l2261:	
  5078  0D7B                     	btfss	(___awdiv@divisor+1),7
  5079  0D7B  1FF4               	goto	u2701
  5080  0D7C  2D7E               	goto	u2700
  5081  0D7D  2D7F               u2701:
  5082  0D7E                     	goto	l2267
  5083  0D7E  2D87               u2700:
  5084  0D7F                     	line	15
  5085                           	
  5086                           l2263:	
  5087  0D7F                     	comf	(___awdiv@divisor),f
  5088  0D7F  09F3               	comf	(___awdiv@divisor+1),f
  5089  0D80  09F4               	incf	(___awdiv@divisor),f
  5090  0D81  0AF3               	skipnz
  5091  0D82  1903               	incf	(___awdiv@divisor+1),f
  5092  0D83  0AF4               	line	16
  5093                           	
  5094                           l2265:	
  5095  0D84                     	clrf	(___awdiv@sign)
  5096  0D84  01A1               	incf	(___awdiv@sign),f
  5097  0D85  0AA1               	goto	l2267
  5098  0D86  2D87               	line	17
  5099                           	
  5100                           l409:	
  5101  0D87                     	line	18
  5102                           	
  5103                           l2267:	
  5104  0D87                     	btfss	(___awdiv@dividend+1),7
  5105  0D87  1FF6               	goto	u2711
  5106  0D88  2D8A               	goto	u2710
  5107  0D89  2D8B               u2711:
  5108  0D8A                     	goto	l2273
  5109  0D8A  2D95               u2710:
  5110  0D8B                     	line	19
  5111                           	
  5112                           l2269:	
  5113  0D8B                     	comf	(___awdiv@dividend),f
  5114  0D8B  09F5               	comf	(___awdiv@dividend+1),f
  5115  0D8C  09F6               	incf	(___awdiv@dividend),f
  5116  0D8D  0AF5               	skipnz
  5117  0D8E  1903               	incf	(___awdiv@dividend+1),f
  5118  0D8F  0AF6               	line	20
  5119                           	
  5120                           l2271:	
  5121  0D90                     	movlw	low(01h)
  5122  0D90  3001               	movwf	(??___awdiv+0)+0
  5123  0D91  00F7               	movf	(??___awdiv+0)+0,w
  5124  0D92  0877               	xorwf	(___awdiv@sign),f
  5125  0D93  06A1               	goto	l2273
  5126  0D94  2D95               	line	21
  5127                           	
  5128                           l410:	
  5129  0D95                     	line	22
  5130                           	
  5131                           l2273:	
  5132  0D95                     	clrf	(___awdiv@quotient)
  5133  0D95  01A2               	clrf	(___awdiv@quotient+1)
  5134  0D96  01A3               	line	23
  5135                           	
  5136                           l2275:	
  5137  0D97                     	movf	((___awdiv@divisor)),w
  5138  0D97  0873               iorwf	((___awdiv@divisor+1)),w
  5139  0D98  0474               	btfsc	status,2
  5140  0D99  1903               	goto	u2721
  5141  0D9A  2D9C               	goto	u2720
  5142  0D9B  2D9D               u2721:
  5143  0D9C                     	goto	l2295
  5144  0D9C  2DDA               u2720:
  5145  0D9D                     	line	24
  5146                           	
  5147                           l2277:	
  5148  0D9D                     	clrf	(___awdiv@counter)
  5149  0D9D  01A0               	incf	(___awdiv@counter),f
  5150  0D9E  0AA0               	line	25
  5151                           	goto	l2283
  5152  0D9F  2DAC               	
  5153                           l413:	
  5154  0DA0                     	line	26
  5155                           	
  5156                           l2279:	
  5157  0DA0                     	movlw	01h
  5158  0DA0  3001               	
  5159                           u2735:
  5160  0DA1                     	clrc
  5161  0DA1  1003               	rlf	(___awdiv@divisor),f
  5162  0DA2  0DF3               	rlf	(___awdiv@divisor+1),f
  5163  0DA3  0DF4               	addlw	-1
  5164  0DA4  3EFF               	skipz
  5165  0DA5  1D03               	goto	u2735
  5166  0DA6  2DA1               	line	27
  5167                           	
  5168                           l2281:	
  5169  0DA7                     	movlw	low(01h)
  5170  0DA7  3001               	movwf	(??___awdiv+0)+0
  5171  0DA8  00F7               	movf	(??___awdiv+0)+0,w
  5172  0DA9  0877               	addwf	(___awdiv@counter),f
  5173  0DAA  07A0               	goto	l2283
  5174  0DAB  2DAC               	line	28
  5175                           	
  5176                           l412:	
  5177  0DAC                     	line	25
  5178                           	
  5179                           l2283:	
  5180  0DAC                     	btfss	(___awdiv@divisor+1),(15)&7
  5181  0DAC  1FF4               	goto	u2741
  5182  0DAD  2DAF               	goto	u2740
  5183  0DAE  2DB0               u2741:
  5184  0DAF                     	goto	l2279
  5185  0DAF  2DA0               u2740:
  5186  0DB0                     	goto	l2285
  5187  0DB0  2DB2               	
  5188                           l414:	
  5189  0DB1                     	goto	l2285
  5190  0DB1  2DB2               	line	29
  5191                           	
  5192                           l415:	
  5193  0DB2                     	line	30
  5194                           	
  5195                           l2285:	
  5196  0DB2                     	movlw	01h
  5197  0DB2  3001               	
  5198                           u2755:
  5199  0DB3                     	clrc
  5200  0DB3  1003               	rlf	(___awdiv@quotient),f
  5201  0DB4  0DA2               	rlf	(___awdiv@quotient+1),f
  5202  0DB5  0DA3               	addlw	-1
  5203  0DB6  3EFF               	skipz
  5204  0DB7  1D03               	goto	u2755
  5205  0DB8  2DB3               	line	31
  5206                           	movf	(___awdiv@divisor+1),w
  5207  0DB9  0874               	subwf	(___awdiv@dividend+1),w
  5208  0DBA  0276               	skipz
  5209  0DBB  1D03               	goto	u2765
  5210  0DBC  2DBF               	movf	(___awdiv@divisor),w
  5211  0DBD  0873               	subwf	(___awdiv@dividend),w
  5212  0DBE  0275               u2765:
  5213  0DBF                     	skipc
  5214  0DBF  1C03               	goto	u2761
  5215  0DC0  2DC2               	goto	u2760
  5216  0DC1  2DC3               u2761:
  5217  0DC2                     	goto	l2291
  5218  0DC2  2DCB               u2760:
  5219  0DC3                     	line	32
  5220                           	
  5221                           l2287:	
  5222  0DC3                     	movf	(___awdiv@divisor),w
  5223  0DC3  0873               	subwf	(___awdiv@dividend),f
  5224  0DC4  02F5               	movf	(___awdiv@divisor+1),w
  5225  0DC5  0874               	skipc
  5226  0DC6  1C03               	decf	(___awdiv@dividend+1),f
  5227  0DC7  03F6               	subwf	(___awdiv@dividend+1),f
  5228  0DC8  02F6               	line	33
  5229                           	
  5230                           l2289:	
  5231  0DC9                     	bsf	(___awdiv@quotient)+(0/8),(0)&7
  5232  0DC9  1422               	goto	l2291
  5233  0DCA  2DCB               	line	34
  5234                           	
  5235                           l416:	
  5236  0DCB                     	line	35
  5237                           	
  5238                           l2291:	
  5239  0DCB                     	movlw	01h
  5240  0DCB  3001               	
  5241                           u2775:
  5242  0DCC                     	clrc
  5243  0DCC  1003               	rrf	(___awdiv@divisor+1),f
  5244  0DCD  0CF4               	rrf	(___awdiv@divisor),f
  5245  0DCE  0CF3               	addlw	-1
  5246  0DCF  3EFF               	skipz
  5247  0DD0  1D03               	goto	u2775
  5248  0DD1  2DCC               	line	36
  5249                           	
  5250                           l2293:	
  5251  0DD2                     	movlw	01h
  5252  0DD2  3001               	subwf	(___awdiv@counter),f
  5253  0DD3  02A0               	btfss	status,2
  5254  0DD4  1D03               	goto	u2781
  5255  0DD5  2DD7               	goto	u2780
  5256  0DD6  2DD8               u2781:
  5257  0DD7                     	goto	l2285
  5258  0DD7  2DB2               u2780:
  5259  0DD8                     	goto	l2295
  5260  0DD8  2DDA               	
  5261                           l417:	
  5262  0DD9                     	goto	l2295
  5263  0DD9  2DDA               	line	37
  5264                           	
  5265                           l411:	
  5266  0DDA                     	line	38
  5267                           	
  5268                           l2295:	
  5269  0DDA                     	movf	((___awdiv@sign)),w
  5270  0DDA  0821               	btfsc	status,2
  5271  0DDB  1903               	goto	u2791
  5272  0DDC  2DDE               	goto	u2790
  5273  0DDD  2DDF               u2791:
  5274  0DDE                     	goto	l2299
  5275  0DDE  2DE5               u2790:
  5276  0DDF                     	line	39
  5277                           	
  5278                           l2297:	
  5279  0DDF                     	comf	(___awdiv@quotient),f
  5280  0DDF  09A2               	comf	(___awdiv@quotient+1),f
  5281  0DE0  09A3               	incf	(___awdiv@quotient),f
  5282  0DE1  0AA2               	skipnz
  5283  0DE2  1903               	incf	(___awdiv@quotient+1),f
  5284  0DE3  0AA3               	goto	l2299
  5285  0DE4  2DE5               	
  5286                           l418:	
  5287  0DE5                     	line	40
  5288                           	
  5289                           l2299:	
  5290  0DE5                     	movf	(___awdiv@quotient+1),w
  5291  0DE5  0823               	movwf	(?___awdiv+1)
  5292  0DE6  00F4               	movf	(___awdiv@quotient),w
  5293  0DE7  0822               	movwf	(?___awdiv)
  5294  0DE8  00F3               	goto	l419
  5295  0DE9  2DEA               	
  5296                           l2301:	
  5297  0DEA                     	line	41
  5298                           	
  5299                           l419:	
  5300  0DEA                     	return
  5301  0DEA  0008               	opt stack 0
  5302                           GLOBAL	__end_of___awdiv
  5303                           	__end_of___awdiv:
  5304  0DEB                     	signat	___awdiv,8314
  5305                           	global	_I2C_Slave_Init
  5306                           
  5307 ;; *************** function _I2C_Slave_Init *****************
  5308 ;; Defined at:
  5309 ;;		line 90 in file "I2C.c"
  5310 ;; Parameters:    Size  Location     Type
  5311 ;;  address         1    wreg     unsigned char 
  5312 ;; Auto vars:     Size  Location     Type
  5313 ;;  address         1    3[COMMON] unsigned char 
  5314 ;; Return value:  Size  Location     Type
  5315 ;;                  1    wreg      void 
  5316 ;; Registers used:
  5317 ;;		wreg
  5318 ;; Tracked objects:
  5319 ;;		On entry : 0/0
  5320 ;;		On exit  : 0/0
  5321 ;;		Unchanged: 0/0
  5322 ;; Data sizes:     COMMON   BANK0   BANK1   BANK3   BANK2
  5323 ;;      Params:         0       0       0       0       0
  5324 ;;      Locals:         1       0       0       0       0
  5325 ;;      Temps:          0       0       0       0       0
  5326 ;;      Totals:         1       0       0       0       0
  5327 ;;Total ram usage:        1 bytes
  5328 ;; Hardware stack levels used:    1
  5329 ;; Hardware stack levels required when called:    1
  5330 ;; This function calls:
  5331 ;;		Nothing
  5332 ;; This function is called by:
  5333 ;;		_main
  5334 ;; This function uses a non-reentrant model
  5335 ;;
  5336                           psect	text7,local,class=CODE,delta=2,merge=1,group=0
  5337                           	file	"I2C.c"
  5338                           	line	90
  5339                           global __ptext7
  5340                           __ptext7:	;psect for function _I2C_Slave_Init
  5341  0D32                     psect	text7
  5342                           	file	"I2C.c"
  5343                           	line	90
  5344                           	global	__size_of_I2C_Slave_Init
  5345                           	__size_of_I2C_Slave_Init	equ	__end_of_I2C_Slave_Init-_I2C_Slave_Init
  5346  001A                     	
  5347                           _I2C_Slave_Init:	
  5348  0D32                     ;incstack = 0
  5349                           	opt	stack 6
  5350                           ; Regs used in _I2C_Slave_Init: [wreg]
  5351                           ;I2C_Slave_Init@address stored from wreg
  5352                           	movwf	(I2C_Slave_Init@address)
  5353  0D32  00F3               	line	92
  5354                           	
  5355                           l2245:	
  5356  0D33                     ;I2C.c: 90: void I2C_Slave_Init(uint8_t address);I2C.c: 91: {;I2C.c: 92:     SSPADD = ad
                                 dress;
  5357                           	movf	(I2C_Slave_Init@address),w
  5358  0D33  0873               	bsf	status, 5	;RP0=1, select bank1
  5359  0D34  1683               	bcf	status, 6	;RP1=0, select bank1
  5360  0D35  1303               	movwf	(147)^080h	;volatile
  5361  0D36  0093               	line	93
  5362                           ;I2C.c: 93:     SSPCON = 0x36;
  5363                           	movlw	low(036h)
  5364  0D37  3036               	bcf	status, 5	;RP0=0, select bank0
  5365  0D38  1283               	bcf	status, 6	;RP1=0, select bank0
  5366  0D39  1303               	movwf	(20)	;volatile
  5367  0D3A  0094               	line	94
  5368                           ;I2C.c: 94:     SSPSTAT = 0x80;
  5369                           	movlw	low(080h)
  5370  0D3B  3080               	bsf	status, 5	;RP0=1, select bank1
  5371  0D3C  1683               	bcf	status, 6	;RP1=0, select bank1
  5372  0D3D  1303               	movwf	(148)^080h	;volatile
  5373  0D3E  0094               	line	95
  5374                           ;I2C.c: 95:     SSPCON2 = 0x01;
  5375                           	movlw	low(01h)
  5376  0D3F  3001               	movwf	(145)^080h	;volatile
  5377  0D40  0091               	line	96
  5378                           	
  5379                           l2247:	
  5380  0D41                     ;I2C.c: 96:     TRISC3 = 1;
  5381                           	bsf	(1083/8)^080h,(1083)&7	;volatile
  5382  0D41  1587               	line	97
  5383                           	
  5384                           l2249:	
  5385  0D42                     ;I2C.c: 97:     TRISC4 = 1;
  5386                           	bsf	(1084/8)^080h,(1084)&7	;volatile
  5387  0D42  1607               	line	98
  5388                           	
  5389                           l2251:	
  5390  0D43                     ;I2C.c: 98:     GIE = 1;
  5391                           	bsf	(95/8),(95)&7	;volatile
  5392  0D43  178B               	line	99
  5393                           	
  5394                           l2253:	
  5395  0D44                     ;I2C.c: 99:     PEIE = 1;
  5396                           	bsf	(94/8),(94)&7	;volatile
  5397  0D44  170B               	line	100
  5398                           	
  5399                           l2255:	
  5400  0D45                     ;I2C.c: 100:     SSPIF = 0;
  5401                           	bcf	status, 5	;RP0=0, select bank0
  5402  0D45  1283               	bcf	status, 6	;RP1=0, select bank0
  5403  0D46  1303               	bcf	(99/8),(99)&7	;volatile
  5404  0D47  118C               	line	101
  5405                           	
  5406                           l2257:	
  5407  0D48                     ;I2C.c: 101:     SSPIE = 1;
  5408                           	bsf	status, 5	;RP0=1, select bank1
  5409  0D48  1683               	bcf	status, 6	;RP1=0, select bank1
  5410  0D49  1303               	bsf	(1123/8)^080h,(1123)&7	;volatile
  5411  0D4A  158C               	line	102
  5412                           	
  5413                           l101:	
  5414  0D4B                     	return
  5415  0D4B  0008               	opt stack 0
  5416                           GLOBAL	__end_of_I2C_Slave_Init
  5417                           	__end_of_I2C_Slave_Init:
  5418  0D4C                     	signat	_I2C_Slave_Init,4217
  5419                           	global	_ADC_INTERRUPT
  5420                           
  5421 ;; *************** function _ADC_INTERRUPT *****************
  5422 ;; Defined at:
  5423 ;;		line 114 in file "ADC.c"
  5424 ;; Parameters:    Size  Location     Type
  5425 ;;		None
  5426 ;; Auto vars:     Size  Location     Type
  5427 ;;		None
  5428 ;; Return value:  Size  Location     Type
  5429 ;;                  1    wreg      void 
  5430 ;; Registers used:
  5431 ;;		None
  5432 ;; Tracked objects:
  5433 ;;		On entry : 0/0
  5434 ;;		On exit  : 0/0
  5435 ;;		Unchanged: 0/0
  5436 ;; Data sizes:     COMMON   BANK0   BANK1   BANK3   BANK2
  5437 ;;      Params:         0       0       0       0       0
  5438 ;;      Locals:         0       0       0       0       0
  5439 ;;      Temps:          0       0       0       0       0
  5440 ;;      Totals:         0       0       0       0       0
  5441 ;;Total ram usage:        0 bytes
  5442 ;; Hardware stack levels used:    1
  5443 ;; Hardware stack levels required when called:    1
  5444 ;; This function calls:
  5445 ;;		Nothing
  5446 ;; This function is called by:
  5447 ;;		_main
  5448 ;; This function uses a non-reentrant model
  5449 ;;
  5450                           psect	text8,local,class=CODE,delta=2,merge=1,group=0
  5451                           	file	"ADC.c"
  5452                           	line	114
  5453                           global __ptext8
  5454                           __ptext8:	;psect for function _ADC_INTERRUPT
  5455  07F6                     psect	text8
  5456                           	file	"ADC.c"
  5457                           	line	114
  5458                           	global	__size_of_ADC_INTERRUPT
  5459                           	__size_of_ADC_INTERRUPT	equ	__end_of_ADC_INTERRUPT-_ADC_INTERRUPT
  5460  0009                     	
  5461                           _ADC_INTERRUPT:	
  5462  07F6                     ;incstack = 0
  5463                           	opt	stack 6
  5464                           ; Regs used in _ADC_INTERRUPT: []
  5465                           	line	115
  5466                           	
  5467                           l2243:	
  5468  07F6                     ;ADC.c: 115:     PIR1bits.ADIF = 0;
  5469                           	bcf	status, 5	;RP0=0, select bank0
  5470  07F6  1283               	bcf	status, 6	;RP1=0, select bank0
  5471  07F7  1303               	bcf	(12),6	;volatile
  5472  07F8  130C               	line	116
  5473                           ;ADC.c: 116:     PIE1bits.ADIE = 1;
  5474                           	bsf	status, 5	;RP0=1, select bank1
  5475  07F9  1683               	bcf	status, 6	;RP1=0, select bank1
  5476  07FA  1303               	bsf	(140)^080h,6	;volatile
  5477  07FB  170C               	line	117
  5478                           ;ADC.c: 117:     INTCONbits.GIE = 1;
  5479                           	bsf	(11),7	;volatile
  5480  07FC  178B               	line	118
  5481                           ;ADC.c: 118:     INTCONbits.PEIE = 1;
  5482                           	bsf	(11),6	;volatile
  5483  07FD  170B               	line	119
  5484                           	
  5485                           l46:	
  5486  07FE                     	return
  5487  07FE  0008               	opt stack 0
  5488                           GLOBAL	__end_of_ADC_INTERRUPT
  5489                           	__end_of_ADC_INTERRUPT:
  5490  07FF                     	signat	_ADC_INTERRUPT,89
  5491                           	global	_ADC_CONFIG
  5492                           
  5493 ;; *************** function _ADC_CONFIG *****************
  5494 ;; Defined at:
  5495 ;;		line 12 in file "ADC.c"
  5496 ;; Parameters:    Size  Location     Type
  5497 ;;  canal           1    wreg     unsigned char 
  5498 ;;  justif          1    3[COMMON] unsigned char 
  5499 ;; Auto vars:     Size  Location     Type
  5500 ;;  canal           1    6[COMMON] unsigned char 
  5501 ;; Return value:  Size  Location     Type
  5502 ;;                  1    wreg      void 
  5503 ;; Registers used:
  5504 ;;		wreg, fsr0l, fsr0h, status,2, status,0
  5505 ;; Tracked objects:
  5506 ;;		On entry : 0/0
  5507 ;;		On exit  : 0/0
  5508 ;;		Unchanged: 0/0
  5509 ;; Data sizes:     COMMON   BANK0   BANK1   BANK3   BANK2
  5510 ;;      Params:         1       0       0       0       0
  5511 ;;      Locals:         1       0       0       0       0
  5512 ;;      Temps:          2       0       0       0       0
  5513 ;;      Totals:         4       0       0       0       0
  5514 ;;Total ram usage:        4 bytes
  5515 ;; Hardware stack levels used:    1
  5516 ;; Hardware stack levels required when called:    1
  5517 ;; This function calls:
  5518 ;;		Nothing
  5519 ;; This function is called by:
  5520 ;;		_main
  5521 ;; This function uses a non-reentrant model
  5522 ;;
  5523                           psect	text9,local,class=CODE,delta=2,merge=1,group=0
  5524                           	line	12
  5525                           global __ptext9
  5526                           __ptext9:	;psect for function _ADC_CONFIG
  5527  064C                     psect	text9
  5528                           	file	"ADC.c"
  5529                           	line	12
  5530                           	global	__size_of_ADC_CONFIG
  5531                           	__size_of_ADC_CONFIG	equ	__end_of_ADC_CONFIG-_ADC_CONFIG
  5532  010E                     	
  5533                           _ADC_CONFIG:	
  5534  064C                     ;incstack = 0
  5535                           	opt	stack 6
  5536                           ; Regs used in _ADC_CONFIG: [wreg-fsr0h+status,2+status,0]
  5537                           ;ADC_CONFIG@canal stored from wreg
  5538                           	movwf	(ADC_CONFIG@canal)
  5539  064C  00F6               	line	13
  5540                           	
  5541                           l2163:	
  5542  064D                     ;ADC.c: 13:     ADCON0bits.ADON = 1;
  5543                           	bcf	status, 5	;RP0=0, select bank0
  5544  064D  1283               	bcf	status, 6	;RP1=0, select bank0
  5545  064E  1303               	bsf	(31),0	;volatile
  5546  064F  141F               	line	14
  5547                           ;ADC.c: 14:     ADCON0bits.GO = 1;
  5548                           	bsf	(31),1	;volatile
  5549  0650  149F               	line	15
  5550                           	
  5551                           l2165:	
  5552  0651                     ;ADC.c: 15:     ADCON0bits.ADCS = 1;
  5553                           	movf	(31),w	;volatile
  5554  0651  081F               	andlw	not (((1<<2)-1)<<6)
  5555  0652  393F               	iorlw	(01h & ((1<<2)-1))<<6
  5556  0653  3840               	movwf	(31)	;volatile
  5557  0654  009F               	line	16
  5558                           	
  5559                           l2167:	
  5560  0655                     ;ADC.c: 16:     ADCON1bits.VCFG0 = 0;
  5561                           	bsf	status, 5	;RP0=1, select bank1
  5562  0655  1683               	bcf	status, 6	;RP1=0, select bank1
  5563  0656  1303               	bcf	(159)^080h,4	;volatile
  5564  0657  121F               	line	17
  5565                           	
  5566                           l2169:	
  5567  0658                     ;ADC.c: 17:     ADCON1bits.VCFG1 = 0;
  5568                           	bcf	(159)^080h,5	;volatile
  5569  0658  129F               	line	19
  5570                           ;ADC.c: 19:     switch(canal){
  5571                           	goto	l2229
  5572  0659  2F0F               	line	20
  5573                           ;ADC.c: 20:         case 0:
  5574                           	
  5575                           l24:	
  5576  065A                     	line	21
  5577                           ;ADC.c: 21:             ANSELbits.ANS0 = 1;
  5578                           	bsf	status, 5	;RP0=1, select bank3
  5579  065A  1683               	bsf	status, 6	;RP1=1, select bank3
  5580  065B  1703               	bsf	(392)^0180h,0	;volatile
  5581  065C  1408               	line	22
  5582                           	
  5583                           l2171:	
  5584  065D                     ;ADC.c: 22:             ADCON0bits.CHS = 0;
  5585                           	movlw	((0 & ((1<<4)-1))<<2)|not (((1<<4)-1)<<2)
  5586  065D  30C3               	bcf	status, 5	;RP0=0, select bank0
  5587  065E  1283               	bcf	status, 6	;RP1=0, select bank0
  5588  065F  1303               	andwf	(31),f	;volatile
  5589  0660  059F               	line	23
  5590                           	
  5591                           l2173:	
  5592  0661                     ;ADC.c: 23:             TRISAbits.TRISA0 = 1;
  5593                           	bsf	status, 5	;RP0=1, select bank1
  5594  0661  1683               	bcf	status, 6	;RP1=0, select bank1
  5595  0662  1303               	bsf	(133)^080h,0	;volatile
  5596  0663  1405               	line	24
  5597                           ;ADC.c: 24:             break;
  5598                           	goto	l2233
  5599  0664  2F49               	line	26
  5600                           ;ADC.c: 26:         case 1:
  5601                           	
  5602                           l26:	
  5603  0665                     	line	27
  5604                           ;ADC.c: 27:             ANSELbits.ANS1 = 1;
  5605                           	bsf	status, 5	;RP0=1, select bank3
  5606  0665  1683               	bsf	status, 6	;RP1=1, select bank3
  5607  0666  1703               	bsf	(392)^0180h,1	;volatile
  5608  0667  1488               	line	28
  5609                           	
  5610                           l2175:	
  5611  0668                     ;ADC.c: 28:             ADCON0bits.CHS = 1;
  5612                           	bcf	status, 5	;RP0=0, select bank0
  5613  0668  1283               	bcf	status, 6	;RP1=0, select bank0
  5614  0669  1303               	movf	(31),w	;volatile
  5615  066A  081F               	andlw	not (((1<<4)-1)<<2)
  5616  066B  39C3               	iorlw	(01h & ((1<<4)-1))<<2
  5617  066C  3804               	movwf	(31)	;volatile
  5618  066D  009F               	line	29
  5619                           	
  5620                           l2177:	
  5621  066E                     ;ADC.c: 29:             TRISAbits.TRISA1 = 1;
  5622                           	bsf	status, 5	;RP0=1, select bank1
  5623  066E  1683               	bcf	status, 6	;RP1=0, select bank1
  5624  066F  1303               	bsf	(133)^080h,1	;volatile
  5625  0670  1485               	line	30
  5626                           ;ADC.c: 30:             break;
  5627                           	goto	l2233
  5628  0671  2F49               	line	32
  5629                           ;ADC.c: 32:         case 2:
  5630                           	
  5631                           l27:	
  5632  0672                     	line	33
  5633                           ;ADC.c: 33:             ANSELbits.ANS2 = 1;
  5634                           	bsf	status, 5	;RP0=1, select bank3
  5635  0672  1683               	bsf	status, 6	;RP1=1, select bank3
  5636  0673  1703               	bsf	(392)^0180h,2	;volatile
  5637  0674  1508               	line	34
  5638                           	
  5639                           l2179:	
  5640  0675                     ;ADC.c: 34:             ADCON0bits.CHS = 2;
  5641                           	bcf	status, 5	;RP0=0, select bank0
  5642  0675  1283               	bcf	status, 6	;RP1=0, select bank0
  5643  0676  1303               	movf	(31),w	;volatile
  5644  0677  081F               	andlw	not (((1<<4)-1)<<2)
  5645  0678  39C3               	iorlw	(02h & ((1<<4)-1))<<2
  5646  0679  3808               	movwf	(31)	;volatile
  5647  067A  009F               	line	35
  5648                           	
  5649                           l2181:	
  5650  067B                     ;ADC.c: 35:             TRISAbits.TRISA2 = 1;
  5651                           	bsf	status, 5	;RP0=1, select bank1
  5652  067B  1683               	bcf	status, 6	;RP1=0, select bank1
  5653  067C  1303               	bsf	(133)^080h,2	;volatile
  5654  067D  1505               	line	36
  5655                           ;ADC.c: 36:             break;
  5656                           	goto	l2233
  5657  067E  2F49               	line	38
  5658                           ;ADC.c: 38:         case 3:
  5659                           	
  5660                           l28:	
  5661  067F                     	line	39
  5662                           ;ADC.c: 39:             ANSELbits.ANS3 = 1;
  5663                           	bsf	status, 5	;RP0=1, select bank3
  5664  067F  1683               	bsf	status, 6	;RP1=1, select bank3
  5665  0680  1703               	bsf	(392)^0180h,3	;volatile
  5666  0681  1588               	line	40
  5667                           	
  5668                           l2183:	
  5669  0682                     ;ADC.c: 40:             ADCON0bits.CHS = 3;
  5670                           	bcf	status, 5	;RP0=0, select bank0
  5671  0682  1283               	bcf	status, 6	;RP1=0, select bank0
  5672  0683  1303               	movf	(31),w	;volatile
  5673  0684  081F               	andlw	not (((1<<4)-1)<<2)
  5674  0685  39C3               	iorlw	(03h & ((1<<4)-1))<<2
  5675  0686  380C               	movwf	(31)	;volatile
  5676  0687  009F               	line	41
  5677                           	
  5678                           l2185:	
  5679  0688                     ;ADC.c: 41:             TRISAbits.TRISA3 = 1;
  5680                           	bsf	status, 5	;RP0=1, select bank1
  5681  0688  1683               	bcf	status, 6	;RP1=0, select bank1
  5682  0689  1303               	bsf	(133)^080h,3	;volatile
  5683  068A  1585               	line	42
  5684                           ;ADC.c: 42:             break;
  5685                           	goto	l2233
  5686  068B  2F49               	line	44
  5687                           ;ADC.c: 44:         case 4:
  5688                           	
  5689                           l29:	
  5690  068C                     	line	45
  5691                           ;ADC.c: 45:             ANSELbits.ANS4 = 1;
  5692                           	bsf	status, 5	;RP0=1, select bank3
  5693  068C  1683               	bsf	status, 6	;RP1=1, select bank3
  5694  068D  1703               	bsf	(392)^0180h,4	;volatile
  5695  068E  1608               	line	46
  5696                           	
  5697                           l2187:	
  5698  068F                     ;ADC.c: 46:             ADCON0bits.CHS = 4;
  5699                           	bcf	status, 5	;RP0=0, select bank0
  5700  068F  1283               	bcf	status, 6	;RP1=0, select bank0
  5701  0690  1303               	movf	(31),w	;volatile
  5702  0691  081F               	andlw	not (((1<<4)-1)<<2)
  5703  0692  39C3               	iorlw	(04h & ((1<<4)-1))<<2
  5704  0693  3810               	movwf	(31)	;volatile
  5705  0694  009F               	line	47
  5706                           	
  5707                           l2189:	
  5708  0695                     ;ADC.c: 47:             TRISAbits.TRISA5 = 1;
  5709                           	bsf	status, 5	;RP0=1, select bank1
  5710  0695  1683               	bcf	status, 6	;RP1=0, select bank1
  5711  0696  1303               	bsf	(133)^080h,5	;volatile
  5712  0697  1685               	line	48
  5713                           ;ADC.c: 48:             break;
  5714                           	goto	l2233
  5715  0698  2F49               	line	50
  5716                           ;ADC.c: 50:         case 5:
  5717                           	
  5718                           l30:	
  5719  0699                     	line	51
  5720                           ;ADC.c: 51:             ANSELbits.ANS5 = 1;
  5721                           	bsf	status, 5	;RP0=1, select bank3
  5722  0699  1683               	bsf	status, 6	;RP1=1, select bank3
  5723  069A  1703               	bsf	(392)^0180h,5	;volatile
  5724  069B  1688               	line	52
  5725                           	
  5726                           l2191:	
  5727  069C                     ;ADC.c: 52:             ADCON0bits.CHS = 5;
  5728                           	bcf	status, 5	;RP0=0, select bank0
  5729  069C  1283               	bcf	status, 6	;RP1=0, select bank0
  5730  069D  1303               	movf	(31),w	;volatile
  5731  069E  081F               	andlw	not (((1<<4)-1)<<2)
  5732  069F  39C3               	iorlw	(05h & ((1<<4)-1))<<2
  5733  06A0  3814               	movwf	(31)	;volatile
  5734  06A1  009F               	line	53
  5735                           	
  5736                           l2193:	
  5737  06A2                     ;ADC.c: 53:             TRISEbits.TRISE0 = 1;
  5738                           	bsf	status, 5	;RP0=1, select bank1
  5739  06A2  1683               	bcf	status, 6	;RP1=0, select bank1
  5740  06A3  1303               	bsf	(137)^080h,0	;volatile
  5741  06A4  1409               	line	54
  5742                           ;ADC.c: 54:             break;
  5743                           	goto	l2233
  5744  06A5  2F49               	line	56
  5745                           ;ADC.c: 56:         case 6:
  5746                           	
  5747                           l31:	
  5748  06A6                     	line	57
  5749                           ;ADC.c: 57:             ANSELbits.ANS6 = 1;
  5750                           	bsf	status, 5	;RP0=1, select bank3
  5751  06A6  1683               	bsf	status, 6	;RP1=1, select bank3
  5752  06A7  1703               	bsf	(392)^0180h,6	;volatile
  5753  06A8  1708               	line	58
  5754                           	
  5755                           l2195:	
  5756  06A9                     ;ADC.c: 58:             ADCON0bits.CHS = 6;
  5757                           	bcf	status, 5	;RP0=0, select bank0
  5758  06A9  1283               	bcf	status, 6	;RP1=0, select bank0
  5759  06AA  1303               	movf	(31),w	;volatile
  5760  06AB  081F               	andlw	not (((1<<4)-1)<<2)
  5761  06AC  39C3               	iorlw	(06h & ((1<<4)-1))<<2
  5762  06AD  3818               	movwf	(31)	;volatile
  5763  06AE  009F               	line	59
  5764                           	
  5765                           l2197:	
  5766  06AF                     ;ADC.c: 59:             TRISEbits.TRISE1 = 1;
  5767                           	bsf	status, 5	;RP0=1, select bank1
  5768  06AF  1683               	bcf	status, 6	;RP1=0, select bank1
  5769  06B0  1303               	bsf	(137)^080h,1	;volatile
  5770  06B1  1489               	line	60
  5771                           ;ADC.c: 60:             break;
  5772                           	goto	l2233
  5773  06B2  2F49               	line	62
  5774                           ;ADC.c: 62:         case 7:
  5775                           	
  5776                           l32:	
  5777  06B3                     	line	63
  5778                           ;ADC.c: 63:             ANSELbits.ANS7 = 1;
  5779                           	bsf	status, 5	;RP0=1, select bank3
  5780  06B3  1683               	bsf	status, 6	;RP1=1, select bank3
  5781  06B4  1703               	bsf	(392)^0180h,7	;volatile
  5782  06B5  1788               	line	64
  5783                           	
  5784                           l2199:	
  5785  06B6                     ;ADC.c: 64:             ADCON0bits.CHS = 7;
  5786                           	bcf	status, 5	;RP0=0, select bank0
  5787  06B6  1283               	bcf	status, 6	;RP1=0, select bank0
  5788  06B7  1303               	movf	(31),w	;volatile
  5789  06B8  081F               	andlw	not (((1<<4)-1)<<2)
  5790  06B9  39C3               	iorlw	(07h & ((1<<4)-1))<<2
  5791  06BA  381C               	movwf	(31)	;volatile
  5792  06BB  009F               	line	65
  5793                           	
  5794                           l2201:	
  5795  06BC                     ;ADC.c: 65:             TRISEbits.TRISE2 = 1;
  5796                           	bsf	status, 5	;RP0=1, select bank1
  5797  06BC  1683               	bcf	status, 6	;RP1=0, select bank1
  5798  06BD  1303               	bsf	(137)^080h,2	;volatile
  5799  06BE  1509               	line	66
  5800                           ;ADC.c: 66:             break;
  5801                           	goto	l2233
  5802  06BF  2F49               	line	68
  5803                           ;ADC.c: 68:         case 8:
  5804                           	
  5805                           l33:	
  5806  06C0                     	line	69
  5807                           ;ADC.c: 69:             ANSELHbits.ANS8 = 1;
  5808                           	bsf	status, 5	;RP0=1, select bank3
  5809  06C0  1683               	bsf	status, 6	;RP1=1, select bank3
  5810  06C1  1703               	bsf	(393)^0180h,0	;volatile
  5811  06C2  1409               	line	70
  5812                           	
  5813                           l2203:	
  5814  06C3                     ;ADC.c: 70:             ADCON0bits.CHS = 8;
  5815                           	bcf	status, 5	;RP0=0, select bank0
  5816  06C3  1283               	bcf	status, 6	;RP1=0, select bank0
  5817  06C4  1303               	movf	(31),w	;volatile
  5818  06C5  081F               	andlw	not (((1<<4)-1)<<2)
  5819  06C6  39C3               	iorlw	(08h & ((1<<4)-1))<<2
  5820  06C7  3820               	movwf	(31)	;volatile
  5821  06C8  009F               	line	71
  5822                           	
  5823                           l2205:	
  5824  06C9                     ;ADC.c: 71:             TRISBbits.TRISB2 = 1;
  5825                           	bsf	status, 5	;RP0=1, select bank1
  5826  06C9  1683               	bcf	status, 6	;RP1=0, select bank1
  5827  06CA  1303               	bsf	(134)^080h,2	;volatile
  5828  06CB  1506               	line	72
  5829                           ;ADC.c: 72:             break;
  5830                           	goto	l2233
  5831  06CC  2F49               	line	74
  5832                           ;ADC.c: 74:         case 9:
  5833                           	
  5834                           l34:	
  5835  06CD                     	line	75
  5836                           ;ADC.c: 75:             ANSELHbits.ANS9 = 1;
  5837                           	bsf	status, 5	;RP0=1, select bank3
  5838  06CD  1683               	bsf	status, 6	;RP1=1, select bank3
  5839  06CE  1703               	bsf	(393)^0180h,1	;volatile
  5840  06CF  1489               	line	76
  5841                           	
  5842                           l2207:	
  5843  06D0                     ;ADC.c: 76:             ADCON0bits.CHS = 9;
  5844                           	bcf	status, 5	;RP0=0, select bank0
  5845  06D0  1283               	bcf	status, 6	;RP1=0, select bank0
  5846  06D1  1303               	movf	(31),w	;volatile
  5847  06D2  081F               	andlw	not (((1<<4)-1)<<2)
  5848  06D3  39C3               	iorlw	(09h & ((1<<4)-1))<<2
  5849  06D4  3824               	movwf	(31)	;volatile
  5850  06D5  009F               	line	77
  5851                           	
  5852                           l2209:	
  5853  06D6                     ;ADC.c: 77:             TRISBbits.TRISB3 = 1;
  5854                           	bsf	status, 5	;RP0=1, select bank1
  5855  06D6  1683               	bcf	status, 6	;RP1=0, select bank1
  5856  06D7  1303               	bsf	(134)^080h,3	;volatile
  5857  06D8  1586               	line	78
  5858                           ;ADC.c: 78:             break;
  5859                           	goto	l2233
  5860  06D9  2F49               	line	80
  5861                           ;ADC.c: 80:         case 10:
  5862                           	
  5863                           l35:	
  5864  06DA                     	line	81
  5865                           ;ADC.c: 81:             ANSELHbits.ANS10 = 1;
  5866                           	bsf	status, 5	;RP0=1, select bank3
  5867  06DA  1683               	bsf	status, 6	;RP1=1, select bank3
  5868  06DB  1703               	bsf	(393)^0180h,2	;volatile
  5869  06DC  1509               	line	82
  5870                           	
  5871                           l2211:	
  5872  06DD                     ;ADC.c: 82:             ADCON0bits.CHS = 10;
  5873                           	bcf	status, 5	;RP0=0, select bank0
  5874  06DD  1283               	bcf	status, 6	;RP1=0, select bank0
  5875  06DE  1303               	movf	(31),w	;volatile
  5876  06DF  081F               	andlw	not (((1<<4)-1)<<2)
  5877  06E0  39C3               	iorlw	(0Ah & ((1<<4)-1))<<2
  5878  06E1  3828               	movwf	(31)	;volatile
  5879  06E2  009F               	line	83
  5880                           	
  5881                           l2213:	
  5882  06E3                     ;ADC.c: 83:             TRISBbits.TRISB1 = 1;
  5883                           	bsf	status, 5	;RP0=1, select bank1
  5884  06E3  1683               	bcf	status, 6	;RP1=0, select bank1
  5885  06E4  1303               	bsf	(134)^080h,1	;volatile
  5886  06E5  1486               	line	84
  5887                           ;ADC.c: 84:             break;
  5888                           	goto	l2233
  5889  06E6  2F49               	line	86
  5890                           ;ADC.c: 86:         case 11:
  5891                           	
  5892                           l36:	
  5893  06E7                     	line	87
  5894                           ;ADC.c: 87:             ANSELHbits.ANS11 = 1;
  5895                           	bsf	status, 5	;RP0=1, select bank3
  5896  06E7  1683               	bsf	status, 6	;RP1=1, select bank3
  5897  06E8  1703               	bsf	(393)^0180h,3	;volatile
  5898  06E9  1589               	line	88
  5899                           	
  5900                           l2215:	
  5901  06EA                     ;ADC.c: 88:             ADCON0bits.CHS = 11;
  5902                           	bcf	status, 5	;RP0=0, select bank0
  5903  06EA  1283               	bcf	status, 6	;RP1=0, select bank0
  5904  06EB  1303               	movf	(31),w	;volatile
  5905  06EC  081F               	andlw	not (((1<<4)-1)<<2)
  5906  06ED  39C3               	iorlw	(0Bh & ((1<<4)-1))<<2
  5907  06EE  382C               	movwf	(31)	;volatile
  5908  06EF  009F               	line	89
  5909                           	
  5910                           l2217:	
  5911  06F0                     ;ADC.c: 89:             TRISBbits.TRISB4 = 1;
  5912                           	bsf	status, 5	;RP0=1, select bank1
  5913  06F0  1683               	bcf	status, 6	;RP1=0, select bank1
  5914  06F1  1303               	bsf	(134)^080h,4	;volatile
  5915  06F2  1606               	line	90
  5916                           ;ADC.c: 90:             break;
  5917                           	goto	l2233
  5918  06F3  2F49               	line	92
  5919                           ;ADC.c: 92:         case 12:
  5920                           	
  5921                           l37:	
  5922  06F4                     	line	93
  5923                           ;ADC.c: 93:             ANSELHbits.ANS12 = 1;
  5924                           	bsf	status, 5	;RP0=1, select bank3
  5925  06F4  1683               	bsf	status, 6	;RP1=1, select bank3
  5926  06F5  1703               	bsf	(393)^0180h,4	;volatile
  5927  06F6  1609               	line	94
  5928                           	
  5929                           l2219:	
  5930  06F7                     ;ADC.c: 94:             ADCON0bits.CHS = 12;
  5931                           	bcf	status, 5	;RP0=0, select bank0
  5932  06F7  1283               	bcf	status, 6	;RP1=0, select bank0
  5933  06F8  1303               	movf	(31),w	;volatile
  5934  06F9  081F               	andlw	not (((1<<4)-1)<<2)
  5935  06FA  39C3               	iorlw	(0Ch & ((1<<4)-1))<<2
  5936  06FB  3830               	movwf	(31)	;volatile
  5937  06FC  009F               	line	95
  5938                           	
  5939                           l2221:	
  5940  06FD                     ;ADC.c: 95:             TRISBbits.TRISB0 = 1;
  5941                           	bsf	status, 5	;RP0=1, select bank1
  5942  06FD  1683               	bcf	status, 6	;RP1=0, select bank1
  5943  06FE  1303               	bsf	(134)^080h,0	;volatile
  5944  06FF  1406               	line	96
  5945                           ;ADC.c: 96:             break;
  5946                           	goto	l2233
  5947  0700  2F49               	line	98
  5948                           ;ADC.c: 98:         case 13:
  5949                           	
  5950                           l38:	
  5951  0701                     	line	99
  5952                           ;ADC.c: 99:             ANSELHbits.ANS13 = 1;
  5953                           	bsf	status, 5	;RP0=1, select bank3
  5954  0701  1683               	bsf	status, 6	;RP1=1, select bank3
  5955  0702  1703               	bsf	(393)^0180h,5	;volatile
  5956  0703  1689               	line	100
  5957                           	
  5958                           l2223:	
  5959  0704                     ;ADC.c: 100:             ADCON0bits.CHS = 13;
  5960                           	bcf	status, 5	;RP0=0, select bank0
  5961  0704  1283               	bcf	status, 6	;RP1=0, select bank0
  5962  0705  1303               	movf	(31),w	;volatile
  5963  0706  081F               	andlw	not (((1<<4)-1)<<2)
  5964  0707  39C3               	iorlw	(0Dh & ((1<<4)-1))<<2
  5965  0708  3834               	movwf	(31)	;volatile
  5966  0709  009F               	line	101
  5967                           	
  5968                           l2225:	
  5969  070A                     ;ADC.c: 101:             TRISBbits.TRISB5 = 1;
  5970                           	bsf	status, 5	;RP0=1, select bank1
  5971  070A  1683               	bcf	status, 6	;RP1=0, select bank1
  5972  070B  1303               	bsf	(134)^080h,5	;volatile
  5973  070C  1686               	line	102
  5974                           ;ADC.c: 102:             break;
  5975                           	goto	l2233
  5976  070D  2F49               	line	103
  5977                           	
  5978                           l2227:	
  5979  070E                     ;ADC.c: 103:     }
  5980                           	goto	l2233
  5981  070E  2F49               	
  5982                           l23:	
  5983  070F                     	
  5984                           l2229:	
  5985  070F                     	movf	(ADC_CONFIG@canal),w
  5986  070F  0876               	movwf	(??_ADC_CONFIG+0)+0
  5987  0710  00F4               	clrf	(??_ADC_CONFIG+0)+0+1
  5988  0711  01F5               	; Switch on 2 bytes has been partitioned into a top level switch of size 1, and 1 sub-s
                                 witches
  5989                           ; Switch size 1, requested type "space"
  5990                           ; Number of cases is 1, Range of values is 0 to 0
  5991                           ; switch strategies available:
  5992                           ; Name         Instructions Cycles
  5993                           ; simple_byte            4     3 (average)
  5994                           ; direct_byte           11     8 (fixed)
  5995                           ; jumptable            260     6 (fixed)
  5996                           ;	Chosen strategy is simple_byte
  5997                           
  5998                           	movf 1+(??_ADC_CONFIG+0)+0,w
  5999  0712  0875               	opt asmopt_push
  6000                           	opt asmopt_off
  6001                           	xorlw	0^0	; case 0
  6002  0713  3A00               	skipnz
  6003  0714  1903               	goto	l2783
  6004  0715  2F17               	goto	l2233
  6005  0716  2F49               	opt asmopt_pop
  6006                           	
  6007                           l2783:	
  6008  0717                     ; Switch size 1, requested type "space"
  6009                           ; Number of cases is 14, Range of values is 0 to 13
  6010                           ; switch strategies available:
  6011                           ; Name         Instructions Cycles
  6012                           ; simple_byte           43    22 (average)
  6013                           ; direct_byte           50     8 (fixed)
  6014                           ; jumptable            260     6 (fixed)
  6015                           ;	Chosen strategy is simple_byte
  6016                           
  6017                           	movf 0+(??_ADC_CONFIG+0)+0,w
  6018  0717  0874               	opt asmopt_push
  6019                           	opt asmopt_off
  6020                           	xorlw	0^0	; case 0
  6021  0718  3A00               	skipnz
  6022  0719  1903               	goto	l24
  6023  071A  2E5A               	xorlw	1^0	; case 1
  6024  071B  3A01               	skipnz
  6025  071C  1903               	goto	l26
  6026  071D  2E65               	xorlw	2^1	; case 2
  6027  071E  3A03               	skipnz
  6028  071F  1903               	goto	l27
  6029  0720  2E72               	xorlw	3^2	; case 3
  6030  0721  3A01               	skipnz
  6031  0722  1903               	goto	l28
  6032  0723  2E7F               	xorlw	4^3	; case 4
  6033  0724  3A07               	skipnz
  6034  0725  1903               	goto	l29
  6035  0726  2E8C               	xorlw	5^4	; case 5
  6036  0727  3A01               	skipnz
  6037  0728  1903               	goto	l30
  6038  0729  2E99               	xorlw	6^5	; case 6
  6039  072A  3A03               	skipnz
  6040  072B  1903               	goto	l31
  6041  072C  2EA6               	xorlw	7^6	; case 7
  6042  072D  3A01               	skipnz
  6043  072E  1903               	goto	l32
  6044  072F  2EB3               	xorlw	8^7	; case 8
  6045  0730  3A0F               	skipnz
  6046  0731  1903               	goto	l33
  6047  0732  2EC0               	xorlw	9^8	; case 9
  6048  0733  3A01               	skipnz
  6049  0734  1903               	goto	l34
  6050  0735  2ECD               	xorlw	10^9	; case 10
  6051  0736  3A03               	skipnz
  6052  0737  1903               	goto	l35
  6053  0738  2EDA               	xorlw	11^10	; case 11
  6054  0739  3A01               	skipnz
  6055  073A  1903               	goto	l36
  6056  073B  2EE7               	xorlw	12^11	; case 12
  6057  073C  3A07               	skipnz
  6058  073D  1903               	goto	l37
  6059  073E  2EF4               	xorlw	13^12	; case 13
  6060  073F  3A01               	skipnz
  6061  0740  1903               	goto	l38
  6062  0741  2F01               	goto	l2233
  6063  0742  2F49               	opt asmopt_pop
  6064                           
  6065                           	
  6066                           l25:	
  6067  0743                     	line	104
  6068                           ;ADC.c: 104:     switch(justif){
  6069                           	goto	l2233
  6070  0743  2F49               	line	105
  6071                           ;ADC.c: 105:         case 0:
  6072                           	
  6073                           l40:	
  6074  0744                     	line	106
  6075                           ;ADC.c: 106:             ADCON1bits.ADFM = 0;
  6076                           	bcf	(159)^080h,7	;volatile
  6077  0744  139F               	line	107
  6078                           ;ADC.c: 107:             break;
  6079                           	goto	l43
  6080  0745  2F59               	line	108
  6081                           ;ADC.c: 108:         case 1:
  6082                           	
  6083                           l42:	
  6084  0746                     	line	109
  6085                           ;ADC.c: 109:             ADCON1bits.ADFM = 1;
  6086                           	bsf	(159)^080h,7	;volatile
  6087  0746  179F               	line	110
  6088                           ;ADC.c: 110:             break;
  6089                           	goto	l43
  6090  0747  2F59               	line	111
  6091                           	
  6092                           l2231:	
  6093  0748                     ;ADC.c: 111:     }
  6094                           	goto	l43
  6095  0748  2F59               	
  6096                           l39:	
  6097  0749                     	
  6098                           l2233:	
  6099  0749                     	movf	(ADC_CONFIG@justif),w
  6100  0749  0873               	movwf	(??_ADC_CONFIG+0)+0
  6101  074A  00F4               	clrf	(??_ADC_CONFIG+0)+0+1
  6102  074B  01F5               	; Switch on 2 bytes has been partitioned into a top level switch of size 1, and 1 sub-s
                                 witches
  6103                           ; Switch size 1, requested type "space"
  6104                           ; Number of cases is 1, Range of values is 0 to 0
  6105                           ; switch strategies available:
  6106                           ; Name         Instructions Cycles
  6107                           ; simple_byte            4     3 (average)
  6108                           ; direct_byte           11     8 (fixed)
  6109                           ; jumptable            260     6 (fixed)
  6110                           ;	Chosen strategy is simple_byte
  6111                           
  6112                           	movf 1+(??_ADC_CONFIG+0)+0,w
  6113  074C  0875               	opt asmopt_push
  6114                           	opt asmopt_off
  6115                           	xorlw	0^0	; case 0
  6116  074D  3A00               	skipnz
  6117  074E  1903               	goto	l2785
  6118  074F  2F51               	goto	l43
  6119  0750  2F59               	opt asmopt_pop
  6120                           	
  6121                           l2785:	
  6122  0751                     ; Switch size 1, requested type "space"
  6123                           ; Number of cases is 2, Range of values is 0 to 1
  6124                           ; switch strategies available:
  6125                           ; Name         Instructions Cycles
  6126                           ; simple_byte            7     4 (average)
  6127                           ; direct_byte           14     8 (fixed)
  6128                           ; jumptable            260     6 (fixed)
  6129                           ;	Chosen strategy is simple_byte
  6130                           
  6131                           	movf 0+(??_ADC_CONFIG+0)+0,w
  6132  0751  0874               	opt asmopt_push
  6133                           	opt asmopt_off
  6134                           	xorlw	0^0	; case 0
  6135  0752  3A00               	skipnz
  6136  0753  1903               	goto	l40
  6137  0754  2F44               	xorlw	1^0	; case 1
  6138  0755  3A01               	skipnz
  6139  0756  1903               	goto	l42
  6140  0757  2F46               	goto	l43
  6141  0758  2F59               	opt asmopt_pop
  6142                           
  6143                           	
  6144                           l41:	
  6145  0759                     	line	112
  6146                           	
  6147                           l43:	
  6148  0759                     	return
  6149  0759  0008               	opt stack 0
  6150                           GLOBAL	__end_of_ADC_CONFIG
  6151                           	__end_of_ADC_CONFIG:
  6152  075A                     	signat	_ADC_CONFIG,8313
  6153                           	global	_ISR
  6154                           
  6155 ;; *************** function _ISR *****************
  6156 ;; Defined at:
  6157 ;;		line 37 in file "Slave_Temperatura.c"
  6158 ;; Parameters:    Size  Location     Type
  6159 ;;		None
  6160 ;; Auto vars:     Size  Location     Type
  6161 ;;		None
  6162 ;; Return value:  Size  Location     Type
  6163 ;;                  1    wreg      void 
  6164 ;; Registers used:
  6165 ;;		wreg
  6166 ;; Tracked objects:
  6167 ;;		On entry : 0/0
  6168 ;;		On exit  : 0/0
  6169 ;;		Unchanged: 0/0
  6170 ;; Data sizes:     COMMON   BANK0   BANK1   BANK3   BANK2
  6171 ;;      Params:         0       0       0       0       0
  6172 ;;      Locals:         0       0       0       0       0
  6173 ;;      Temps:          3       0       0       0       0
  6174 ;;      Totals:         3       0       0       0       0
  6175 ;;Total ram usage:        3 bytes
  6176 ;; Hardware stack levels used:    1
  6177 ;; This function calls:
  6178 ;;		Nothing
  6179 ;; This function is called by:
  6180 ;;		Interrupt level 1
  6181 ;; This function uses a non-reentrant model
  6182 ;;
  6183                           psect	text10,local,class=CODE,delta=2,merge=1,group=0
  6184                           	file	"Slave_Temperatura.c"
  6185                           	line	37
  6186                           global __ptext10
  6187                           __ptext10:	;psect for function _ISR
  6188  0DEB                     psect	text10
  6189                           	file	"Slave_Temperatura.c"
  6190                           	line	37
  6191                           	global	__size_of_ISR
  6192                           	__size_of_ISR	equ	__end_of_ISR-_ISR
  6193  0078                     	
  6194                           _ISR:	
  6195  0DEB                     ;incstack = 0
  6196                           	opt	stack 5
  6197                           ; Regs used in _ISR: [wreg]
  6198                           psect	intentry,class=CODE,delta=2
  6199                           global __pintentry
  6200                           __pintentry:
  6201  0004                     global interrupt_function
  6202                           interrupt_function:
  6203  0004                     	global saved_w
  6204                           	saved_w	set	btemp+0
  6205  007E                     	movwf	saved_w
  6206  0004  00FE               	swapf	status,w
  6207  0005  0E03               	movwf	(??_ISR+1)
  6208  0006  00F1               	movf	pclath,w
  6209  0007  080A               	movwf	(??_ISR+2)
  6210  0008  00F2               	ljmp	_ISR
  6211  0009  120A  158A  2DEB   psect	text10
  6212                           	line	38
  6213                           	
  6214                           i1l2041:	
  6215  0DEB                     ;Slave_Temperatura.c: 38:     if(PIR1bits.ADIF == 1){
  6216                           	bcf	status, 5	;RP0=0, select bank0
  6217  0DEB  1283               	bcf	status, 6	;RP1=0, select bank0
  6218  0DEC  1303               	btfss	(12),6	;volatile
  6219  0DED  1F0C               	goto	u256_21
  6220  0DEE  2DF0               	goto	u256_20
  6221  0DEF  2DF1               u256_21:
  6222  0DF0                     	goto	i1l2049
  6223  0DF0  2DF8               u256_20:
  6224  0DF1                     	line	39
  6225                           	
  6226                           i1l2043:	
  6227  0DF1                     ;Slave_Temperatura.c: 39:         adc1 = ADRESH;
  6228                           	movf	(30),w	;volatile
  6229  0DF1  081E               	movwf	(??_ISR+0)+0
  6230  0DF2  00F0               	movf	(??_ISR+0)+0,w
  6231  0DF3  0870               	movwf	(_adc1)
  6232  0DF4  00ED               	line	40
  6233                           	
  6234                           i1l2045:	
  6235  0DF5                     ;Slave_Temperatura.c: 40:         ADIF = 0;
  6236                           	bcf	(102/8),(102)&7	;volatile
  6237  0DF5  130C               	line	41
  6238                           	
  6239                           i1l2047:	
  6240  0DF6                     ;Slave_Temperatura.c: 41:         ADCON0bits.GO = 1;
  6241                           	bsf	(31),1	;volatile
  6242  0DF6  149F               	goto	i1l2049
  6243  0DF7  2DF8               	line	42
  6244                           ;Slave_Temperatura.c: 42:     }
  6245                           	
  6246                           i1l156:	
  6247  0DF8                     	line	43
  6248                           	
  6249                           i1l2049:	
  6250  0DF8                     ;Slave_Temperatura.c: 43:     if(PIR1bits.SSPIF == 1){
  6251                           	btfss	(12),3	;volatile
  6252  0DF8  1D8C               	goto	u257_21
  6253  0DF9  2DFB               	goto	u257_20
  6254  0DFA  2DFC               u257_21:
  6255  0DFB                     	goto	i1l170
  6256  0DFB  2E5C               u257_20:
  6257  0DFC                     	line	45
  6258                           	
  6259                           i1l2051:	
  6260  0DFC                     ;Slave_Temperatura.c: 45:         SSPCONbits.CKP = 0;
  6261                           	bcf	(20),4	;volatile
  6262  0DFC  1214               	line	47
  6263                           ;Slave_Temperatura.c: 47:         if ((SSPCONbits.SSPOV) || (SSPCONbits.WCOL)){
  6264                           	btfsc	(20),6	;volatile
  6265  0DFD  1B14               	goto	u258_21
  6266  0DFE  2E00               	goto	u258_20
  6267  0DFF  2E01               u258_21:
  6268  0E00                     	goto	i1l2055
  6269  0E00  2E06               u258_20:
  6270  0E01                     	
  6271                           i1l2053:	
  6272  0E01                     	btfss	(20),7	;volatile
  6273  0E01  1F94               	goto	u259_21
  6274  0E02  2E04               	goto	u259_20
  6275  0E03  2E05               u259_21:
  6276  0E04                     	goto	i1l2063
  6277  0E04  2E0E               u259_20:
  6278  0E05                     	goto	i1l2055
  6279  0E05  2E06               	
  6280                           i1l160:	
  6281  0E06                     	line	48
  6282                           	
  6283                           i1l2055:	
  6284  0E06                     ;Slave_Temperatura.c: 48:             z = SSPBUF;
  6285                           	movf	(19),w	;volatile
  6286  0E06  0813               	movwf	(??_ISR+0)+0
  6287  0E07  00F0               	movf	(??_ISR+0)+0,w
  6288  0E08  0870               	movwf	(_z)
  6289  0E09  00F9               	line	49
  6290                           	
  6291                           i1l2057:	
  6292  0E0A                     ;Slave_Temperatura.c: 49:             SSPCONbits.SSPOV = 0;
  6293                           	bcf	(20),6	;volatile
  6294  0E0A  1314               	line	50
  6295                           	
  6296                           i1l2059:	
  6297  0E0B                     ;Slave_Temperatura.c: 50:             SSPCONbits.WCOL = 0;
  6298                           	bcf	(20),7	;volatile
  6299  0E0B  1394               	line	51
  6300                           	
  6301                           i1l2061:	
  6302  0E0C                     ;Slave_Temperatura.c: 51:             SSPCONbits.CKP = 1;
  6303                           	bsf	(20),4	;volatile
  6304  0E0C  1614               	goto	i1l2063
  6305  0E0D  2E0E               	line	52
  6306                           ;Slave_Temperatura.c: 52:         }
  6307                           	
  6308                           i1l158:	
  6309  0E0E                     	line	54
  6310                           	
  6311                           i1l2063:	
  6312  0E0E                     ;Slave_Temperatura.c: 54:         if(!SSPSTATbits.D_nA && !SSPSTATbits.R_nW) {
  6313                           	bsf	status, 5	;RP0=1, select bank1
  6314  0E0E  1683               	bcf	status, 6	;RP1=0, select bank1
  6315  0E0F  1303               	btfsc	(148)^080h,5	;volatile
  6316  0E10  1A94               	goto	u260_21
  6317  0E11  2E13               	goto	u260_20
  6318  0E12  2E14               u260_21:
  6319  0E13                     	goto	i1l161
  6320  0E13  2E34               u260_20:
  6321  0E14                     	
  6322                           i1l2065:	
  6323  0E14                     	btfsc	(148)^080h,2	;volatile
  6324  0E14  1914               	goto	u261_21
  6325  0E15  2E17               	goto	u261_20
  6326  0E16  2E18               u261_21:
  6327  0E17                     	goto	i1l161
  6328  0E17  2E34               u261_20:
  6329  0E18                     	line	56
  6330                           	
  6331                           i1l2067:	
  6332  0E18                     ;Slave_Temperatura.c: 56:             z = SSPBUF;
  6333                           	bcf	status, 5	;RP0=0, select bank0
  6334  0E18  1283               	bcf	status, 6	;RP1=0, select bank0
  6335  0E19  1303               	movf	(19),w	;volatile
  6336  0E1A  0813               	movwf	(??_ISR+0)+0
  6337  0E1B  00F0               	movf	(??_ISR+0)+0,w
  6338  0E1C  0870               	movwf	(_z)
  6339  0E1D  00F9               	line	58
  6340                           	
  6341                           i1l2069:	
  6342  0E1E                     ;Slave_Temperatura.c: 58:             PIR1bits.SSPIF = 0;
  6343                           	bcf	(12),3	;volatile
  6344  0E1E  118C               	line	59
  6345                           	
  6346                           i1l2071:	
  6347  0E1F                     ;Slave_Temperatura.c: 59:             SSPCONbits.CKP = 1;
  6348                           	bsf	(20),4	;volatile
  6349  0E1F  1614               	line	60
  6350                           ;Slave_Temperatura.c: 60:             while(!SSPSTATbits.BF);
  6351                           	goto	i1l162
  6352  0E20  2E21               	
  6353                           i1l163:	
  6354  0E21                     	
  6355                           i1l162:	
  6356  0E21                     	bsf	status, 5	;RP0=1, select bank1
  6357  0E21  1683               	bcf	status, 6	;RP1=0, select bank1
  6358  0E22  1303               	btfss	(148)^080h,0	;volatile
  6359  0E23  1C14               	goto	u262_21
  6360  0E24  2E26               	goto	u262_20
  6361  0E25  2E27               u262_21:
  6362  0E26                     	goto	i1l162
  6363  0E26  2E21               u262_20:
  6364  0E27                     	goto	i1l2073
  6365  0E27  2E28               	
  6366                           i1l164:	
  6367  0E28                     	line	61
  6368                           	
  6369                           i1l2073:	
  6370  0E28                     ;Slave_Temperatura.c: 61:             eleccion = SSPBUF;
  6371                           	bcf	status, 5	;RP0=0, select bank0
  6372  0E28  1283               	bcf	status, 6	;RP1=0, select bank0
  6373  0E29  1303               	movf	(19),w	;volatile
  6374  0E2A  0813               	movwf	(??_ISR+0)+0
  6375  0E2B  00F0               	movf	(??_ISR+0)+0,w
  6376  0E2C  0870               	movwf	(_eleccion)
  6377  0E2D  00F8               	line	62
  6378                           ;Slave_Temperatura.c: 62:             _delay((unsigned long)((250)*(8000000/4000000.0)))
                                 ;
  6379                           	opt asmopt_push
  6380                           opt asmopt_off
  6381                           	movlw	166
  6382  0E2E  30A6               movwf	((??_ISR+0)+0),f
  6383  0E2F  00F0               	u388_27:
  6384  0E30                     decfsz	(??_ISR+0)+0,f
  6385  0E30  0BF0               	goto	u388_27
  6386  0E31  2E30               	nop
  6387  0E32  0000               opt asmopt_pop
  6388                           
  6389                           	line	64
  6390                           ;Slave_Temperatura.c: 64:         }else if(!SSPSTATbits.D_nA && SSPSTATbits.R_nW){
  6391                           	goto	i1l165
  6392  0E33  2E58               	
  6393                           i1l161:	
  6394  0E34                     	btfsc	(148)^080h,5	;volatile
  6395  0E34  1A94               	goto	u263_21
  6396  0E35  2E37               	goto	u263_20
  6397  0E36  2E38               u263_21:
  6398  0E37                     	goto	i1l165
  6399  0E37  2E58               u263_20:
  6400  0E38                     	
  6401                           i1l2075:	
  6402  0E38                     	btfss	(148)^080h,2	;volatile
  6403  0E38  1D14               	goto	u264_21
  6404  0E39  2E3B               	goto	u264_20
  6405  0E3A  2E3C               u264_21:
  6406  0E3B                     	goto	i1l165
  6407  0E3B  2E58               u264_20:
  6408  0E3C                     	line	65
  6409                           	
  6410                           i1l2077:	
  6411  0E3C                     ;Slave_Temperatura.c: 65:             z = SSPBUF;
  6412                           	bcf	status, 5	;RP0=0, select bank0
  6413  0E3C  1283               	bcf	status, 6	;RP1=0, select bank0
  6414  0E3D  1303               	movf	(19),w	;volatile
  6415  0E3E  0813               	movwf	(??_ISR+0)+0
  6416  0E3F  00F0               	movf	(??_ISR+0)+0,w
  6417  0E40  0870               	movwf	(_z)
  6418  0E41  00F9               	line	66
  6419                           	
  6420                           i1l2079:	
  6421  0E42                     ;Slave_Temperatura.c: 66:             BF = 0;
  6422                           	bsf	status, 5	;RP0=1, select bank1
  6423  0E42  1683               	bcf	status, 6	;RP1=0, select bank1
  6424  0E43  1303               	bcf	(1184/8)^080h,(1184)&7	;volatile
  6425  0E44  1014               	line	67
  6426                           ;Slave_Temperatura.c: 67:             SSPBUF = TEMP;
  6427                           	bcf	status, 5	;RP0=0, select bank0
  6428  0E45  1283               	bcf	status, 6	;RP1=0, select bank0
  6429  0E46  1303               	movf	(_TEMP),w
  6430  0E47  086C               	movwf	(19)	;volatile
  6431  0E48  0093               	line	68
  6432                           	
  6433                           i1l2081:	
  6434  0E49                     ;Slave_Temperatura.c: 68:             SSPCONbits.CKP = 1;
  6435                           	bsf	(20),4	;volatile
  6436  0E49  1614               	line	69
  6437                           ;Slave_Temperatura.c: 69:             _delay((unsigned long)((250)*(8000000/4000000.0)))
                                 ;
  6438                           	opt asmopt_push
  6439                           opt asmopt_off
  6440                           	movlw	166
  6441  0E4A  30A6               movwf	((??_ISR+0)+0),f
  6442  0E4B  00F0               	u389_27:
  6443  0E4C                     decfsz	(??_ISR+0)+0,f
  6444  0E4C  0BF0               	goto	u389_27
  6445  0E4D  2E4C               	nop
  6446  0E4E  0000               opt asmopt_pop
  6447                           
  6448                           	line	70
  6449                           ;Slave_Temperatura.c: 70:             while(SSPSTATbits.BF);
  6450                           	goto	i1l167
  6451  0E4F  2E50               	
  6452                           i1l168:	
  6453  0E50                     	
  6454                           i1l167:	
  6455  0E50                     	bsf	status, 5	;RP0=1, select bank1
  6456  0E50  1683               	bcf	status, 6	;RP1=0, select bank1
  6457  0E51  1303               	btfsc	(148)^080h,0	;volatile
  6458  0E52  1814               	goto	u265_21
  6459  0E53  2E55               	goto	u265_20
  6460  0E54  2E56               u265_21:
  6461  0E55                     	goto	i1l167
  6462  0E55  2E50               u265_20:
  6463  0E56                     	goto	i1l165
  6464  0E56  2E58               	
  6465                           i1l169:	
  6466  0E57                     	goto	i1l165
  6467  0E57  2E58               	line	71
  6468                           ;Slave_Temperatura.c: 71:         }
  6469                           	
  6470                           i1l166:	
  6471  0E58                     	
  6472                           i1l165:	
  6473  0E58                     	line	73
  6474                           ;Slave_Temperatura.c: 73:         PIR1bits.SSPIF = 0;
  6475                           	bcf	status, 5	;RP0=0, select bank0
  6476  0E58  1283               	bcf	status, 6	;RP1=0, select bank0
  6477  0E59  1303               	bcf	(12),3	;volatile
  6478  0E5A  118C               	goto	i1l170
  6479  0E5B  2E5C               	line	74
  6480                           ;Slave_Temperatura.c: 74:     }
  6481                           	
  6482                           i1l157:	
  6483  0E5C                     	line	75
  6484                           	
  6485                           i1l170:	
  6486  0E5C                     	movf	(??_ISR+2),w
  6487  0E5C  0872               	movwf	pclath
  6488  0E5D  008A               	swapf	(??_ISR+1)^0FFFFFF80h,w
  6489  0E5E  0E71               	movwf	status
  6490  0E5F  0083               	swapf	saved_w,f
  6491  0E60  0EFE               	swapf	saved_w,w
  6492  0E61  0E7E               	retfie
  6493  0E62  0009               	opt stack 0
  6494                           GLOBAL	__end_of_ISR
  6495                           	__end_of_ISR:
  6496  0E63                     	signat	_ISR,89
  6497                           global	___latbits
  6498                           ___latbits	equ	2
  6499  0002                     	global	btemp
  6500                           	btemp set 07Eh
  6501  007E                     
  6502                           	DABS	1,126,2	;btemp
  6503                           	global	wtemp0
  6504                           	wtemp0 set btemp+0
  6505  007E                     	end


Data Sizes:
    Strings     0
    Constant    0
    Data        0
    BSS         6
    Persistent  0
    Stack       0

Auto Spaces:
    Space          Size  Autos    Used
    COMMON           14      8      11
    BANK0            80     75      78
    BANK1            80      4       4
    BANK3            96      0       0
    BANK2            96      0       0

Pointer List with Targets:

    None.

Critical Paths under _main in COMMON

    _main->___awdiv
    ___fltol->___xxtofl
    ___flmul->__Umul8_16
    ___flmul->___xxtofl
    ___fladd->___xxtofl

Critical Paths under _ISR in COMMON

    None.

Critical Paths under _main in BANK0

    _main->___fltol
    ___fltol->___fladd
    ___flmul->___xxtofl
    ___fladd->___flmul

Critical Paths under _ISR in BANK0

    None.

Critical Paths under _main in BANK1

    None.

Critical Paths under _ISR in BANK1

    None.

Critical Paths under _main in BANK3

    None.

Critical Paths under _ISR in BANK3

    None.

Critical Paths under _main in BANK2

    None.

Critical Paths under _ISR in BANK2

    None.

Call Graph Tables:

 ---------------------------------------------------------------------------------
 (Depth) Function   	        Calls       Base Space   Used Autos Params    Refs
 ---------------------------------------------------------------------------------
 (0) _main                                                 8     8      0    8630
                                             71 BANK0      4     4      0
                                              0 BANK1      4     4      0
                         _ADC_CONFIG
                      _ADC_INTERRUPT
                     _I2C_Slave_Init
                            ___awdiv
                            ___fladd
                            ___flmul
                            ___fltol
                           ___xxtofl
 ---------------------------------------------------------------------------------
 (1) ___xxtofl                                            14    10      4     566
                                              3 COMMON     4     0      4
                                              0 BANK0     10    10      0
 ---------------------------------------------------------------------------------
 (1) ___fltol                                             11     7      4     427
                                             60 BANK0     11     7      4
                            ___fladd (ARG)
                            ___flmul (ARG)
                           ___xxtofl (ARG)
 ---------------------------------------------------------------------------------
 (1) ___flmul                                             26    18      8    3353
                                             10 BANK0     26    18      8
                          __Umul8_16
                           ___xxtofl (ARG)
 ---------------------------------------------------------------------------------
 (2) __Umul8_16                                            9     7      2     980
                                              3 COMMON     4     2      2
                                              0 BANK0      5     5      0
 ---------------------------------------------------------------------------------
 (1) ___fladd                                             24    16      8    3442
                                             36 BANK0     24    16      8
                            ___flmul (ARG)
                           ___xxtofl (ARG)
 ---------------------------------------------------------------------------------
 (1) ___awdiv                                              9     5      4     625
                                              3 COMMON     5     1      4
                                              0 BANK0      4     4      0
 ---------------------------------------------------------------------------------
 (1) _I2C_Slave_Init                                       1     1      0      31
                                              3 COMMON     1     1      0
 ---------------------------------------------------------------------------------
 (1) _ADC_INTERRUPT                                        0     0      0       0
 ---------------------------------------------------------------------------------
 (1) _ADC_CONFIG                                           4     3      1     152
                                              3 COMMON     4     3      1
 ---------------------------------------------------------------------------------
 Estimated maximum stack depth 2
 ---------------------------------------------------------------------------------
 (Depth) Function   	        Calls       Base Space   Used Autos Params    Refs
 ---------------------------------------------------------------------------------
 (3) _ISR                                                  3     3      0       0
                                              0 COMMON     3     3      0
 ---------------------------------------------------------------------------------
 Estimated maximum stack depth 3
 ---------------------------------------------------------------------------------

 Call Graph Graphs:

 _main (ROOT)
   _ADC_CONFIG
   _ADC_INTERRUPT
   _I2C_Slave_Init
   ___awdiv
   ___fladd
     ___flmul (ARG)
       __Umul8_16
       ___xxtofl (ARG)
     ___xxtofl (ARG)
   ___flmul
     __Umul8_16
     ___xxtofl (ARG)
   ___fltol
     ___fladd (ARG)
       ___flmul (ARG)
         __Umul8_16
         ___xxtofl (ARG)
       ___xxtofl (ARG)
     ___flmul (ARG)
       __Umul8_16
       ___xxtofl (ARG)
     ___xxtofl (ARG)
   ___xxtofl

 _ISR (ROOT)

 Address spaces:
Name               Size   Autos  Total    Cost      Usage
BITCOMMON            E      0       0       0        0.0%
EEDATA             100      0       0       0        0.0%
NULL                 0      0       0       0        0.0%
CODE                 0      0       0       0        0.0%
COMMON               E      8       B       1       78.6%
BITSFR0              0      0       0       1        0.0%
SFR0                 0      0       0       1        0.0%
BITSFR1              0      0       0       2        0.0%
SFR1                 0      0       0       2        0.0%
STACK                0      0       0       2        0.0%
ABS                  0      0      5D       3        0.0%
BITBANK0            50      0       0       4        0.0%
BITSFR3              0      0       0       4        0.0%
SFR3                 0      0       0       4        0.0%
BANK0               50     4B      4E       5       97.5%
BITSFR2              0      0       0       5        0.0%
SFR2                 0      0       0       5        0.0%
BITBANK1            50      0       0       6        0.0%
BANK1               50      4       4       7        5.0%
BITBANK3            60      0       0       8        0.0%
BANK3               60      0       0       9        0.0%
BITBANK2            60      0       0      10        0.0%
BANK2               60      0       0      11        0.0%
DATA                 0      0      5D      12        0.0%


Microchip Technology PIC Macro Assembler V2.00 build -1524193055 
Symbol Table                                                                                   Sat Feb 29 09:36:09 2020

     __size_of_ADC_CONFIG 010E                         _z 0079               __CFG_CP$OFF 0000  
         ADC_CONFIG@canal 0076               _SSPSTATbits 0094                        l30 0699  
                      _BF 04A0                        l23 070F                        l31 06A6  
                      l40 0744                        l32 06B3                        l24 065A  
                      l41 0759                        l25 0743                        l33 06C0  
                      l42 0746                        l34 06CD                        l26 0665  
                      l43 0759                        l35 06DA                        l27 0672  
                      l36 06E7                        l28 067F                        l37 06F4  
                      l29 068C                        l38 0701                        l46 07FE  
                      l39 0749              ___awdiv@sign 0021       __Umul8_16@word_mpld 0022  
                     l101 0D4B                       l410 0D95                       l411 0DDA  
                     l412 0DAC                       l180 0FFD                       l413 0DA0  
                     l414 0DB1                       l415 0DB2                       l175 0F48  
                     l416 0DCB                       l600 063B                       l176 0FF5  
                     l417 0DD9                       l409 0D87                       l601 063F  
                     l177 0FF7                       l418 0DE5                       l602 064B  
                     l178 0FFC                       l419 0DEA                       l451 0779  
                     l179 0FFD                       l460 07D3                       l452 07F5  
                     l461 07E4                       l453 07C2                       l462 07F5  
                     l454 07AE                       l551 03A3                       l455 07AF  
                     l560 0445                       l552 03B9                       l456 07C1  
                     l561 0408                       l553 03B6                       l457 07E5  
                     l570 04FF                       l562 047E                       l554 03C2  
                     l650 0070                       l458 07D2                       l571 04BF  
                     l563 04AC                       l555 03CF                       l651 007B  
                     l459 07DE                       l580 0589                       l572 064B  
                     l564 04A3                       l556 03DB                       l660 02FB  
                     l652 0090                       l644 002E                       l581 05A0  
                     l573 04FE                       l565 047F                       l557 03F1  
                     l661 02F2                       l645 0043                       l590 05D6  
                     l582 05C2                       l574 04E7                       l566 048C  
                     l558 03EE                       l670 037A                       l662 02FA  
                     l654 0086                       l646 0041                       l591 05DE  
                     l583 05A1                       l575 04EA                       l567 048F  
                     l559 03F9                       l663 02F9                       l655 038F  
                     l647 004C                       l592 05DD                       l584 05AF  
                     l576 04F0                       l568 0495                       l664 0333  
                     l656 02D1                       l648 005D                       l680 0ECF  
                     l593 061A                       l577 05C8                       l585 05B6  
                     l569 04AC                       l665 0332                       l657 02B2  
                     l649 0072                       l681 0EB4                       l673 0E7F  
                     l594 061A                       l586 05B9                       l578 057B  
                     l666 034B                       l658 02C1                       l682 0ED6  
                     l674 0E87                       l595 0619                       l587 05C1  
                     l579 057A                       l667 0382                       l659 02D6  
                     l683 0EE3                       l675 0E99                       l596 0635  
                     l588 05C7                       l692 0D59                       l668 0366  
                     l684 0ED7                       l676 0F26                       l589 05DF  
                     l693 0D63                       l669 0382                       l677 0EAC  
                     l598 0625                       l694 0D72                       l686 0EEE  
                     l678 0E9E                       l599 0634                       l695 0D77  
                     l687 0EEE                       l679 0EB3                       l688 0EFA  
                     l689 0F1D                       _GIE 005F                       _RD1 0041  
            __CFG_CPD$OFF 0000                       _ISR 0DEB                       _adc 007A  
        ADC_CONFIG@justif 0073              ___flmul@aexp 0038              ___flmul@bexp 003D  
            ___flmul@sign 0037              ___flmul@temp 0042              ___flmul@prod 003E  
            __CFG_LVP$OFF 0000                      ?_ISR 0070              ___fltol@exp1 0066  
                    l2201 06BC                      l2211 06DD                      l2203 06C3  
                    l2221 06FD                      l2213 06E3                      l2205 06C9  
                    l2301 0DEA                      l2231 0748                      l2223 0704  
                    l2215 06EA                      l2207 06D0                      l2151 0D51  
                    l2311 078E                      l2303 075A                      l2225 070A  
                    l2217 06F0                      l2209 06D6                      l2233 0749  
                    l2401 0424                      l2161 0D77                      l2153 0D59  
                    l2321 07A4                      l2313 078F                      l2305 076F  
                    l2227 070E                      l2219 06F7                      l2171 065D  
                    l2163 064D                      l2243 07F6                      l2251 0D43  
                    l2411 0438                      l2403 0428                      l2155 0D5D  
                    l2331 07D1                      l2323 07AD                      l2315 0797  
                    l2307 0778                      l2181 067B                      l2173 0661  
                    l2229 070F                      l2165 0651                      l2253 0D44  
                    l2245 0D33                      l2261 0D7B                      l2501 05D3  
                    l2421 0462                      l2413 043C                      l2405 042C  
                    l2341 0397                      l2157 0D6C                      l2149 0D4F  
                    l2333 07D3                      l2325 07AF                      l2317 0799  
                    l2309 0779                      l2191 069C                      l2183 0682  
                    l2175 0668                      l2167 0655                      l2255 0D45  
                    l2247 0D41                      l2271 0D90                      l2263 0D7F  
                    l2511 05F6                      l2503 05DA                      l2431 0495  
                    l2423 0483                      l2415 0440                      l2407 0430  
                    l2351 03AD                      l2343 039D                      l2159 0D72  
                    l2335 07E5                      l2319 079D                      l2327 07C2  
                    l2193 06A2                      l2185 0688                      l2177 066E  
                    l2169 0658                      l2257 0D48                      l2249 0D42  
                    l2281 0DA7                      l2273 0D95                      l2265 0D84  
                    l2521 0632                      l2513 0614                      l2505 05DF  
                    l2441 04BE                      l2433 049E                      l2425 048C  
                    l2409 0434                      l2417 0445                      l2361 03C7  
                    l2353 03B6                      l2345 03A1                      l2601 01AD  
                    l2337 07EA                      l2329 07C8                      l2195 06A9  
                    l2187 068F                      l2179 0675                      l2291 0DCB  
                    l2283 0DAC                      l2275 0D97                      l2267 0D87  
                    l2259 0D78                      l2531 064A                      l2523 0635  
                    l2515 061F                      l2507 05E4                      l2451 04E7  
                    l2443 04BF                      l2427 048F                      l2435 04A3  
                    l2419 0446                      l2371 03DB                      l2363 03CD  
                    l2355 03B7                      l2347 03A3                      l2339 0390  
                    l2611 024D                      l2603 01C6                      l2197 06AF  
                    l2189 0695                      l2293 0DD2                      l2285 0DB2  
                    l2277 0D9D                      l2269 0D8B                      l2525 0639  
                    l2517 0625                      l2509 05F2                      l2453 04EA  
                    l2445 04D6                      l2437 04B0                      l2461 04FF  
                    l2429 0493                      l2373 03E0                      l2381 03F1  
                    l2365 03CF                      l2349 03A8                      l2357 03B9  
                    l2621 02BB                      l2613 0273                      l2605 01E3  
                    l2541 002E                      l2533 001B                      l2701 0EE7  
                    l2199 06B6                      l2287 0DC3                      l2279 0DA0  
                    l2295 0DDA                      l2527 063B                      l2519 062D  
                    l2463 0515                      l2471 057B                      l2455 04EE  
                    l2447 04DA                      l2439 04B5                      l2391 0410  
                    l2383 03FF                      l2375 03E5                      l2367 03D5  
                    l2359 03C2                      l2631 02D6                      l2623 02BF  
                    l2615 029B                      l2607 0210                      l2551 004C  
                    l2543 0033                      l2535 0022                      l2711 0F1B  
                    l2703 0EF2                      l2297 0DDF                      l2289 0DC9  
                    l2529 0646                      l2481 05AA                      l2473 0591  
                    l2465 0564                      l2457 04F0                      l2449 04DE  
                    l2393 0414                      l2385 0403                      l2377 03EE  
                    l2369 03D9                      l2641 02FB                      l2633 02D7  
                    l2625 02C1                      l2617 02A4                      l2609 0220  
                    l2561 0062                      l2553 0051                      l2545 0038  
                    l2537 0028                      l2713 0F1D                      l2705 0EFC  
                    l2721 0F31                      l2299 0DE5                      l2491 05BE  
                    l2483 05AE                      l2475 0596                      l2467 0566  
                    l2459 04F9                      l2395 0418                      l2387 0408  
                    l2379 03EF                      l2643 0300                      l2651 0333  
                    l2635 02DB                      l2627 02CA                      l2619 02B2  
                    l2571 0080                      l2563 0067                      l2555 0057  
                    l2547 0041                      l2539 002C                      l2715 0F26  
                    l2707 0F12                      l2731 0F48                      l2723 0F32  
                    l2485 05B3                      l2477 059F                      l2493 05C2  
                    l2469 056B                      l2397 041C                      l2389 040C  
                    l2661 0366                      l2653 0340                      l2645 030E  
                    l2637 02EF                      l2629 02D1                      l2581 00AD  
                    l2573 0086                      l2565 0070                      l2557 005B  
                    l2549 0043                      l2709 0F17                      l2741 0FF7  
                    l2733 0FA1                      l2725 0F38                      l2717 0F27  
                    l2487 05B6                      l2479 05A1                      l2495 05C8  
                    l2399 0420                      l2671 038F                      l2663 0374  
                    l2655 034B                      l2647 0312                      l2639 02F6  
                    l2591 014A                      l2583 00CA                      l2575 008F  
                    l2567 0072                      l2559 005D                      l2735 0FD9  
                    l2727 0F3F                      l2719 0F2F                      l2497 05C9  
                    l2489 05B9                      l2665 0378                      l2657 035A  
                    l2649 032B                      l2593 0153                      l2585 00E6  
                    l2577 0090                      l2569 007B                      l2681 0E8F  
                    l2673 0E66                      l2737 0FED                      l2729 0F44  
                    l2499 05CD                      l2667 037A                      l2659 0364  
                    l2595 0163                      l2587 0112                      l2579 00A0  
                    l2691 0EB4                      l2683 0E98                      l2675 0E6B  
                    l2739 0FF3                      l2669 0386                      l2597 0180  
                    l2589 012E                      l2693 0EB8                      l2685 0E99  
                    l2677 0E6F                      l2783 0717                      l2599 0190  
                    l2695 0EC6                      l2687 0E9E                      l2679 0E7F  
                    l2785 0751                      l2697 0ED7                      l2689 0EAC  
                    l2699 0EE3                      _ADIF 0066                      u3000 046D  
                    u3001 046B                      u3010 046E                      u3100 04DE  
                    u3020 0483                      u3101 04DD                      u3021 0482  
                    u3110 04EE                      u3030 0493                      u3111 04ED  
                    u3031 0492                      u3200 05AE                      u3201 05AD  
                    u3210 05B3                      u3130 0515                      u3050 04AB  
                    u3211 05B2                      u3131 0514                      u3051 04AA  
                    u3300 0614                      u3220 05BE                      u3140 053B  
                    u3060 04B0                      u3301 0613                      u3221 05BD  
                    u3141 053C                      u3133 0511                      u3125 04F2  
                    u3061 04AF                      u3045 0497                      u3310 061F  
                    u3230 05C6                      u3150 054D                      u3142 0541  
                    u3070 04B5                      u3311 061E                      u3231 05C5  
                    u3151 054E                      u3143 0542                      u3071 04B4  
                    u3320 0624                      u3240 05CD                      u3160 056B  
                    u3152 0553                      u3400 0062                      u3321 0623  
                    u3241 05CC                      u3161 056A                      u3153 0554  
                    u3081 04C8                      u3401 0061                      u3330 0632  
                    u3250 05D3                      u3170 0591                      u3090 04DA  
                    u3082 04CF                      u3410 0067                      u3331 0631  
                    u3251 05D2                      u3171 0590                      u3091 04D9  
                    u3083 04D6                      u3411 0066                      u2700 0D7F  
                    u3340 0639                      u3260 05DA                      u3180 0596  
                    u3420 0080                      u2701 0D7E                      u3341 0638  
                    u3261 05D9                      u3181 0595                      u3501 019F  
                    u3421 007F                      u2710 0D8B                      u3350 064A  
                    u3270 05E4                      u3502 01A6                      u3430 0085  
                    u2711 0D8A                      u3351 0649                      u3271 05E3  
                    u3503 01AD                      u3431 0084                      u2720 0D9D  
                    u3280 05F6                      u3360 002C                      u2800 076F  
                    u2721 0D9C                      u3281 05F5                      u3521 01D5  
                    u3441 00D8                      u3361 002B                      u2801 076E  
                    u3290 0605                      u3610 02BF                      u3522 01DC  
                    u3442 00DF                      u3370 0033                      u2810 0787  
                    u3195 05A3                      u3611 02BE                      u3531 0202  
                    u3523 01E3                      u3515 01AF                      u3451 00F4  
                    u3443 00E6                      u3371 0032                      u2740 0DB0  
                    u2900 03A1                      u3700 0340                      u3532 0209  
                    u3452 00FB                      u3380 0038                      u2820 079D  
                    u2741 0DAF                      u2901 03A0                      u3701 033F  
                    u3605 02B4                      u3541 022F                      u3533 0210  
                    u3461 0120                      u3453 0102                      u3381 0037  
                    u2821 079C                      u2910 03A8                      u2670 0D5D  
                    u3710 035A                      u3630 02D5                      u3550 0259  
                    u3542 0236                      u3462 0127                      u3390 005B  
                    u2830 07A4                      u2735 0DA1                      u3295 0600  
                    u2911 03A7                      u2671 0D5C                      u3711 0359  
                    u3631 02D4                      u3543 023D                      u3471 013C  
                    u3463 012E                      u3391 005A                      u2831 07A3  
                    u2815 0782                      u2760 0DC3                      u2920 03AD  
                    u3720 0378                      u3640 02DB                      u3472 0143  
                    u2761 0DC2                      u2921 03AC                      u3721 0377  
                    u3705 033C                      u3641 02DA                      u3625 02C3  
                    u3561 0265                      u3473 014A                      u2930 03CD  
                    u2690 0D71                      u3650 02EF                      u3570 0281  
                    u3562 026C                      u2850 07C0                      u3810 0EE7  
                    u3730 0E6B                      u2755 0DB3                      u2931 03CC  
                    u2691 0D70                      u3715 0356                      u3651 02EE  
                    u3563 0273                      u3555 0254                      u3491 0172  
                    u2851 07BF                      u3811 0EE6                      u3731 0E6A  
                    _PEIE 005E                      u2780 0DD8                      u2940 03D9  
                    u3660 02F6                      u3492 0179                      u2860 07C8  
                    u3820 0EED                      u3740 0E6F                      u2781 0DD7  
                    u2765 0DBF                      u2941 03D8                      u2685 0D64  
                    u3661 02F5                      u3581 028D                      u3493 0180  
                    u3485 014C                      u2861 07C7                      u2845 07B0  
                    u3821 0EEC                      u3805 0EDB                      u3741 0E6E  
                    u2790 0DDF                      u2950 03E0                      u3670 0300  
                    u3582 0294                      u3830 0EF2                      u3750 0E8F  
                    u2791 0DDE                      u2775 0DCC                      u2951 03DF  
                    u3671 02FF                      u3583 029B                      u3575 027C  
                    u3831 0EF1                      u3751 0E8E                      u2960 03E5  
                    u3680 0312                      u2880 07E3                      u3840 0F07  
                    u2961 03E4                      u3681 0311                      u2881 07E2  
                    u2970 03FF                      u3690 0321                      u2890 07EA  
                    u3850 0F17                      u3770 0EB2                      u2971 03FE  
                    u3595 029D                      u2891 07E9                      u2875 07D5  
                    u3851 0F16                      u3771 0EB1                      u2980 0403  
                    u3860 0F1B                      u2981 0402                      u3861 0F1A  
                    u3845 0F02                      u3765 0EA3                      u2990 0462  
                    u3790 0ED5                      u3870 0FF3                      u2991 0461  
                    u3695 031C                      u3791 0ED4                      u3871 0FF2  
                    u3785 0EC7                      u2995 045E                      _TEMP 006C  
            __CFG_WRT$OFF 0000                      _adc1 006D    __size_of_ADC_INTERRUPT 0009  
                    _main 0F27                      btemp 007E                      start 000C  
           __CFG_IESO$OFF 0000                     ??_ISR 0070             ___fltol@sign1 0065  
         __end_of___fladd 064C                     ?_main 0070           __end_of___awdiv 0DEB  
           __CFG_WDTE$OFF 0000           __end_of___flmul 0390           __end_of___fltol 07F6  
                   _ANSEL 0188           ___awdiv@divisor 0073                     i1l160 0E06  
                   i1l161 0E34                     i1l162 0E21                     i1l170 0E5C  
                   i1l163 0E21                     i1l164 0E28                     i1l156 0DF8  
                   i1l157 0E5C                     i1l165 0E58                     i1l166 0E58  
                   i1l158 0E0E                     i1l167 0E50                     i1l168 0E50  
                   i1l169 0E57           ___awdiv@counter 0020                     _TEMPA 006B  
                   _TRISA 0085                     _TRISB 0086                     _TRISC 0087  
                   _TRISD 0088                     _SSPIE 0463                     _SSPIF 0063  
          __CFG_FCMEN$OFF 0000            __CFG_BOREN$OFF 0000                     pclath 000A  
                   status 0003                     wtemp0 007E            __CFG_MCLRE$OFF 0000  
         __initialization 000F              __end_of_main 1000             _ADC_INTERRUPT 07F6  
                  ??_main 0067              ??_ADC_CONFIG 0074                    _ADRESH 001E  
        ___awdiv@dividend 0075                    _ANSELH 0189                    i1l2041 0DEB  
                  i1l2051 0DFC                    i1l2043 0DF1                    i1l2061 0E0C  
                  i1l2053 0E01                    i1l2045 0DF5                    i1l2071 0E1F  
                  i1l2063 0E0E                    i1l2055 0E06                    i1l2047 0DF6  
                  i1l2081 0E49                    i1l2073 0E28                    i1l2065 0E14  
                  i1l2057 0E0A                    i1l2049 0DF8                    i1l2075 0E38  
                  i1l2067 0E18                    i1l2059 0E0B                    i1l2077 0E3C  
                  i1l2069 0E1E                    i1l2079 0E42                    u260_20 0E14  
                  u260_21 0E13                    u261_20 0E18                    u261_21 0E17  
                  u262_20 0E27                    u262_21 0E26                    u263_20 0E38  
                  u263_21 0E37                    u264_20 0E3C                    u256_20 0DF1  
                  u264_21 0E3B                    u256_21 0DF0                    u265_20 0E56  
                  u257_20 0DFC                    u265_21 0E55                    u257_21 0DFB  
                  u258_20 0E01                    u258_21 0E00                    u259_20 0E05  
                  u259_21 0E04                    u388_27 0E30                    u389_27 0E4C  
                  _SSPADD 0093                    _TRISC3 043B                    _TRISC4 043C  
                  _SSPCON 0014                    _SSPBUF 0013          __end_of___xxtofl 0F27  
          __CFG_PWRTE$OFF 0000                 ??___fladd 004C        __end_of_ADC_CONFIG 075A  
               ??___awdiv 0077                 ??___flmul 0032                 ??___fltol 0060  
          ?_ADC_INTERRUPT 0070          ___awdiv@quotient 0022        __size_of__Umul8_16 002C  
                  saved_w 007E              ___xxtofl@arg 0026              ___xxtofl@exp 0025  
            ___xxtofl@val 0073   __end_of__initialization 0017                ___fltol@f1 005C  
          __pcstackCOMMON 0070   __size_of_I2C_Slave_Init 001A     I2C_Slave_Init@address 0073  
              __pbssBANK0 006B         __end_of__Umul8_16 0D78                __pmaintext 0F27  
         ??_ADC_INTERRUPT 0073                __pintentry 0004                 ?___xxtofl 0073  
                 _SSPCON2 0091                   _SSPSTAT 0094                   ___fladd 0390  
                 ___awdiv 0D78                   ___flmul 001B                   ___fltol 075A  
               _ANSELbits 0188                   __ptext1 0E63                   __ptext2 075A  
                 __ptext3 001B                   __ptext4 0D4C                   __ptext5 0390  
                 __ptext6 0D78                   __ptext7 0D32                   __ptext8 07F6  
                 __ptext9 064C              __size_of_ISR 0078                ??___xxtofl 0020  
    end_of_initialization 0017            _I2C_Slave_Init 0D32               ___fladd@grs 005B  
           ___xxtofl@sign 0024                 _TRISAbits 0085                 _TRISBbits 0086  
               _TRISCbits 0087                 _TRISEbits 0089               ___flmul@grs 0039  
  __end_of_I2C_Slave_Init 0D4C       start_initialization 000F               __end_of_ISR 0E63  
__CFG_FOSC$INTRC_NOCLKOUT 0000           ?_I2C_Slave_Init 0070                 __Umul8_16 0D4C  
               ___fladd@a 0048                 ___fladd@b 0044                 ___flmul@a 002E  
               ___flmul@b 002A               __pbssCOMMON 0078                 ___latbits 0002  
           __pcstackBANK0 0020             __pcstackBANK1 00A0         __size_of___xxtofl 00C4  
               _main$1209 00A0                  ?___fladd 0044                  ?___awdiv 0073  
                ?___flmul 002A                  ?___fltol 005C                ?__Umul8_16 0073  
   __end_of_ADC_INTERRUPT 07FF         interrupt_function 0004                  _PIE1bits 008C  
                _PIR1bits 000C                _ADCON0bits 001F                _ADCON1bits 009F  
              _ADC_CONFIG 064C               ??__Umul8_16 0075          __size_of___fladd 02BC  
        __size_of___awdiv 0073          __size_of___flmul 0375          __size_of___fltol 009C  
              _ANSELHbits 0189                  ___xxtofl 0E63                  _eleccion 0078  
                __ptext10 0DEB         __CFG_BOR4V$BOR40V 0000          ??_I2C_Slave_Init 0073  
           __size_of_main 00D9                _INTCONbits 000B               ?_ADC_CONFIG 0073  
                intlevel1 0000    __Umul8_16@multiplicand 0073               _SSPCON2bits 0091  
           ___fladd@signs 0058              ___fladd@aexp 0059              ___fladd@bexp 005A  
    __Umul8_16@multiplier 0024                _SSPCONbits 0014         __Umul8_16@product 0020  
