

Microchip Technology PIC LITE Macro Assembler V2.00 build -1524193055 
                                                                                               Sat Feb 29 11:34:53 2020

Microchip Technology Omniscient Code Generator v2.00 (Free mode) build 20180527130849
     1  0000                     
      + 0000                     
     2                           ; Version 2.00
     3                           ; Generated 27/05/2018 GMT
     4                           
     5                           ; 
     6                           ; Copyright © 2018, Microchip Technology Inc. and its subsidiaries ("Microchip")
     7                           ; All rights reserved.
     8                           ; 
     9                           ; This software is developed by Microchip Technology Inc. and its subsidiaries ("Microch
                                 ip").
    10                           ; 
    11                           ; Redistribution and use in source and binary forms, with or without modification, are
    12                           ; permitted provided that the following conditions are met:
    13                           ; 
    14                           ;     1. Redistributions of source code must retain the above copyright notice, this lis
                                 t of
    15                           ;        conditions and the following disclaimer.
    16                           ; 
    17                           ;     2. Redistributions in binary form must reproduce the above copyright notice, this 
                                 list
    18                           ;        of conditions and the following disclaimer in the documentation and/or other
    19                           ;        materials provided with the distribution.
    20                           ; 
    21                           ;     3. Microchip's name may not be used to endorse or promote products derived from th
                                 is
    22                           ;        software without specific prior written permission.
    23                           ; 
    24                           ; THIS SOFTWARE IS PROVIDED BY MICROCHIP "AS IS" AND ANY EXPRESS OR IMPLIED WARRANTIES,

    25                           ; INCLUDING, BUT NOT LIMITED TO, THE IMPLIED WARRANTIES OF MERCHANTABILITY AND FITNESS F
                                 OR
    26                           ; PURPOSE ARE DISCLAIMED.  IN NO EVENT SHALL MICROCHIP BE LIABLE FOR ANY DIRECT, INDIREC
                                 T,
    27                           ; INCIDENTAL, SPECIAL, EXEMPLARY, OR CONSEQUENTIAL DAMAGES (INCLUDING BUT NOT LIMITED TO
                                 
    28                           ; PROCUREMENT OF SUBSTITUTE GOODS OR SERVICES; LOSS OF USE, DATA OR PROFITS; OR BUSINESS
                                 
    29                           ; INTERRUPTION) HOWSOEVER CAUSED AND ON ANY THEORY OF LIABILITY, WHETHER IN CONTRACT, ST
                                 RICT
    30                           ; LIABILITY, OR TORT (INCLUDING NEGLIGENCE OR OTHERWISE) ARISING IN ANY WAY OUT OF THE U
                                 SE OF
    31                           ; THIS SOFTWARE, EVEN IF ADVISED OF THE POSSIBILITY OF SUCH DAMAGE.
    32                           ; 
    33                           
    34                           
    35                           ; 
    36                           ; Code-generator required, PIC16F887 Definitions
    37                           ; 
    38  0004                     fsr0 equ 04h
    39  0004                     indf equ 00h
    40  0000                     indf0 equ 00h
    41  0000                     pc equ 02h
    42  0002                     pcl equ 02h
    43  0002                     pclath equ 0Ah
    44  000A                     status equ 03h
    45  0003                     
     2                           opt pagewidth 120
     3  0000                     byte0	macro	val
     4                           	(getbyte(val,0))
     5                           endm
     6  0000                     byte1	macro	val
     7                           	(getbyte(val,1))
     8                           endm
     9  0000                     byte2	macro	val
    10                           	(getbyte(val,2))
    11                           endm
    12  0000                     byte3	macro	val
    13                           	(getbyte(val,3))
    14                           endm
    15  0000                     byte4	macro	val
    16                           	(getbyte(val,4))
    17                           endm
    18  0000                     byte5	macro	val
    19                           	(getbyte(val,5))
    20                           endm
    21  0000                     byte6	macro	val
    22                           	(getbyte(val,6))
    23                           endm
    24  0000                     byte7	macro	val
    25                           	(getbyte(val,7))
    26                           endm
    27  0000                     getword	macro	val,pos
    28                           	(((val) >> (8 * pos)) and 0xffff)
    29                           endm
    30  0000                     word0	macro	val
    31                           	(getword(val,0))
    32                           endm
    33  0000                     word1	macro	val
    34                           	(getword(val,2))
    35                           endm
    36  0000                     word2	macro	val
    37                           	(getword(val,4))
    38                           endm
    39  0000                     word3	macro	val
    40                           	(getword(val,6))
    41                           endm
    42  0000                     gettword	macro	val,pos
    43                           	(((val) >> (8 * pos)) and 0xffffff)
    44                           endm
    45  0000                     tword0	macro	val
    46                           	(gettword(val,0))
    47                           endm
    48  0000                     tword1	macro	val
    49                           	(gettword(val,3))
    50                           endm
    51  0000                     tword2	macro	val
    52                           	(gettword(val,6))
    53                           endm
    54  0000                     getdword	macro	val,pos
    55                           	(((val) >> (8 * pos)) and 0xffffffff)
    56                           endm
    57  0000                     dword0	macro	val
    58                           	(getdword(val,0))
    59                           endm
    60  0000                     dword1	macro	val
    61                           	(getdword(val,4))
    62                           endm
    63  0000                     clrc	macro
    64                           	bcf	3,0
    65                           	endm
    66  0000                     clrz	macro
    67                           	bcf	3,2
    68                           	endm
    69  0000                     setc	macro
    70                           	bsf	3,0
    71                           	endm
    72  0000                     setz	macro
    73                           	bsf	3,2
    74                           	endm
    75  0000                     skipc	macro
    76                           	btfss	3,0
    77                           	endm
    78  0000                     skipz	macro
    79                           	btfss	3,2
    80                           	endm
    81  0000                     skipnc	macro
    82                           	btfsc	3,0
    83                           	endm
    84  0000                     skipnz	macro
    85                           	btfsc	3,2
    86                           	endm
    87  0000                     # 54 "C:\Program Files (x86)\Microchip\xc8\v2.00\pic\include\pic16f887.h"
    88                           INDF equ 00h ;# 
    89  0000                     # 61 "C:\Program Files (x86)\Microchip\xc8\v2.00\pic\include\pic16f887.h"
    90                           TMR0 equ 01h ;# 
    91  0001                     # 68 "C:\Program Files (x86)\Microchip\xc8\v2.00\pic\include\pic16f887.h"
    92                           PCL equ 02h ;# 
    93  0002                     # 75 "C:\Program Files (x86)\Microchip\xc8\v2.00\pic\include\pic16f887.h"
    94                           STATUS equ 03h ;# 
    95  0003                     # 161 "C:\Program Files (x86)\Microchip\xc8\v2.00\pic\include\pic16f887.h"
    96                           FSR equ 04h ;# 
    97  0004                     # 168 "C:\Program Files (x86)\Microchip\xc8\v2.00\pic\include\pic16f887.h"
    98                           PORTA equ 05h ;# 
    99  0005                     # 230 "C:\Program Files (x86)\Microchip\xc8\v2.00\pic\include\pic16f887.h"
   100                           PORTB equ 06h ;# 
   101  0006                     # 292 "C:\Program Files (x86)\Microchip\xc8\v2.00\pic\include\pic16f887.h"
   102                           PORTC equ 07h ;# 
   103  0007                     # 354 "C:\Program Files (x86)\Microchip\xc8\v2.00\pic\include\pic16f887.h"
   104                           PORTD equ 08h ;# 
   105  0008                     # 416 "C:\Program Files (x86)\Microchip\xc8\v2.00\pic\include\pic16f887.h"
   106                           PORTE equ 09h ;# 
   107  0009                     # 454 "C:\Program Files (x86)\Microchip\xc8\v2.00\pic\include\pic16f887.h"
   108                           PCLATH equ 0Ah ;# 
   109  000A                     # 461 "C:\Program Files (x86)\Microchip\xc8\v2.00\pic\include\pic16f887.h"
   110                           INTCON equ 0Bh ;# 
   111  000B                     # 539 "C:\Program Files (x86)\Microchip\xc8\v2.00\pic\include\pic16f887.h"
   112                           PIR1 equ 0Ch ;# 
   113  000C                     # 595 "C:\Program Files (x86)\Microchip\xc8\v2.00\pic\include\pic16f887.h"
   114                           PIR2 equ 0Dh ;# 
   115  000D                     # 652 "C:\Program Files (x86)\Microchip\xc8\v2.00\pic\include\pic16f887.h"
   116                           TMR1 equ 0Eh ;# 
   117  000E                     # 659 "C:\Program Files (x86)\Microchip\xc8\v2.00\pic\include\pic16f887.h"
   118                           TMR1L equ 0Eh ;# 
   119  000E                     # 666 "C:\Program Files (x86)\Microchip\xc8\v2.00\pic\include\pic16f887.h"
   120                           TMR1H equ 0Fh ;# 
   121  000F                     # 673 "C:\Program Files (x86)\Microchip\xc8\v2.00\pic\include\pic16f887.h"
   122                           T1CON equ 010h ;# 
   123  0010                     # 767 "C:\Program Files (x86)\Microchip\xc8\v2.00\pic\include\pic16f887.h"
   124                           TMR2 equ 011h ;# 
   125  0011                     # 774 "C:\Program Files (x86)\Microchip\xc8\v2.00\pic\include\pic16f887.h"
   126                           T2CON equ 012h ;# 
   127  0012                     # 845 "C:\Program Files (x86)\Microchip\xc8\v2.00\pic\include\pic16f887.h"
   128                           SSPBUF equ 013h ;# 
   129  0013                     # 852 "C:\Program Files (x86)\Microchip\xc8\v2.00\pic\include\pic16f887.h"
   130                           SSPCON equ 014h ;# 
   131  0014                     # 922 "C:\Program Files (x86)\Microchip\xc8\v2.00\pic\include\pic16f887.h"
   132                           CCPR1 equ 015h ;# 
   133  0015                     # 929 "C:\Program Files (x86)\Microchip\xc8\v2.00\pic\include\pic16f887.h"
   134                           CCPR1L equ 015h ;# 
   135  0015                     # 936 "C:\Program Files (x86)\Microchip\xc8\v2.00\pic\include\pic16f887.h"
   136                           CCPR1H equ 016h ;# 
   137  0016                     # 943 "C:\Program Files (x86)\Microchip\xc8\v2.00\pic\include\pic16f887.h"
   138                           CCP1CON equ 017h ;# 
   139  0017                     # 1040 "C:\Program Files (x86)\Microchip\xc8\v2.00\pic\include\pic16f887.h"
   140                           RCSTA equ 018h ;# 
   141  0018                     # 1135 "C:\Program Files (x86)\Microchip\xc8\v2.00\pic\include\pic16f887.h"
   142                           TXREG equ 019h ;# 
   143  0019                     # 1142 "C:\Program Files (x86)\Microchip\xc8\v2.00\pic\include\pic16f887.h"
   144                           RCREG equ 01Ah ;# 
   145  001A                     # 1149 "C:\Program Files (x86)\Microchip\xc8\v2.00\pic\include\pic16f887.h"
   146                           CCPR2 equ 01Bh ;# 
   147  001B                     # 1156 "C:\Program Files (x86)\Microchip\xc8\v2.00\pic\include\pic16f887.h"
   148                           CCPR2L equ 01Bh ;# 
   149  001B                     # 1163 "C:\Program Files (x86)\Microchip\xc8\v2.00\pic\include\pic16f887.h"
   150                           CCPR2H equ 01Ch ;# 
   151  001C                     # 1170 "C:\Program Files (x86)\Microchip\xc8\v2.00\pic\include\pic16f887.h"
   152                           CCP2CON equ 01Dh ;# 
   153  001D                     # 1240 "C:\Program Files (x86)\Microchip\xc8\v2.00\pic\include\pic16f887.h"
   154                           ADRESH equ 01Eh ;# 
   155  001E                     # 1247 "C:\Program Files (x86)\Microchip\xc8\v2.00\pic\include\pic16f887.h"
   156                           ADCON0 equ 01Fh ;# 
   157  001F                     # 1348 "C:\Program Files (x86)\Microchip\xc8\v2.00\pic\include\pic16f887.h"
   158                           OPTION_REG equ 081h ;# 
   159  0081                     # 1418 "C:\Program Files (x86)\Microchip\xc8\v2.00\pic\include\pic16f887.h"
   160                           TRISA equ 085h ;# 
   161  0085                     # 1480 "C:\Program Files (x86)\Microchip\xc8\v2.00\pic\include\pic16f887.h"
   162                           TRISB equ 086h ;# 
   163  0086                     # 1542 "C:\Program Files (x86)\Microchip\xc8\v2.00\pic\include\pic16f887.h"
   164                           TRISC equ 087h ;# 
   165  0087                     # 1604 "C:\Program Files (x86)\Microchip\xc8\v2.00\pic\include\pic16f887.h"
   166                           TRISD equ 088h ;# 
   167  0088                     # 1666 "C:\Program Files (x86)\Microchip\xc8\v2.00\pic\include\pic16f887.h"
   168                           TRISE equ 089h ;# 
   169  0089                     # 1704 "C:\Program Files (x86)\Microchip\xc8\v2.00\pic\include\pic16f887.h"
   170                           PIE1 equ 08Ch ;# 
   171  008C                     # 1760 "C:\Program Files (x86)\Microchip\xc8\v2.00\pic\include\pic16f887.h"
   172                           PIE2 equ 08Dh ;# 
   173  008D                     # 1817 "C:\Program Files (x86)\Microchip\xc8\v2.00\pic\include\pic16f887.h"
   174                           PCON equ 08Eh ;# 
   175  008E                     # 1864 "C:\Program Files (x86)\Microchip\xc8\v2.00\pic\include\pic16f887.h"
   176                           OSCCON equ 08Fh ;# 
   177  008F                     # 1929 "C:\Program Files (x86)\Microchip\xc8\v2.00\pic\include\pic16f887.h"
   178                           OSCTUNE equ 090h ;# 
   179  0090                     # 1981 "C:\Program Files (x86)\Microchip\xc8\v2.00\pic\include\pic16f887.h"
   180                           SSPCON2 equ 091h ;# 
   181  0091                     # 2043 "C:\Program Files (x86)\Microchip\xc8\v2.00\pic\include\pic16f887.h"
   182                           PR2 equ 092h ;# 
   183  0092                     # 2050 "C:\Program Files (x86)\Microchip\xc8\v2.00\pic\include\pic16f887.h"
   184                           SSPADD equ 093h ;# 
   185  0093                     # 2057 "C:\Program Files (x86)\Microchip\xc8\v2.00\pic\include\pic16f887.h"
   186                           SSPMSK equ 093h ;# 
   187  0093                     # 2062 "C:\Program Files (x86)\Microchip\xc8\v2.00\pic\include\pic16f887.h"
   188                           MSK equ 093h ;# 
   189  0093                     # 2179 "C:\Program Files (x86)\Microchip\xc8\v2.00\pic\include\pic16f887.h"
   190                           SSPSTAT equ 094h ;# 
   191  0094                     # 2348 "C:\Program Files (x86)\Microchip\xc8\v2.00\pic\include\pic16f887.h"
   192                           WPUB equ 095h ;# 
   193  0095                     # 2418 "C:\Program Files (x86)\Microchip\xc8\v2.00\pic\include\pic16f887.h"
   194                           IOCB equ 096h ;# 
   195  0096                     # 2488 "C:\Program Files (x86)\Microchip\xc8\v2.00\pic\include\pic16f887.h"
   196                           VRCON equ 097h ;# 
   197  0097                     # 2558 "C:\Program Files (x86)\Microchip\xc8\v2.00\pic\include\pic16f887.h"
   198                           TXSTA equ 098h ;# 
   199  0098                     # 2644 "C:\Program Files (x86)\Microchip\xc8\v2.00\pic\include\pic16f887.h"
   200                           SPBRG equ 099h ;# 
   201  0099                     # 2706 "C:\Program Files (x86)\Microchip\xc8\v2.00\pic\include\pic16f887.h"
   202                           SPBRGH equ 09Ah ;# 
   203  009A                     # 2776 "C:\Program Files (x86)\Microchip\xc8\v2.00\pic\include\pic16f887.h"
   204                           PWM1CON equ 09Bh ;# 
   205  009B                     # 2846 "C:\Program Files (x86)\Microchip\xc8\v2.00\pic\include\pic16f887.h"
   206                           ECCPAS equ 09Ch ;# 
   207  009C                     # 2928 "C:\Program Files (x86)\Microchip\xc8\v2.00\pic\include\pic16f887.h"
   208                           PSTRCON equ 09Dh ;# 
   209  009D                     # 2972 "C:\Program Files (x86)\Microchip\xc8\v2.00\pic\include\pic16f887.h"
   210                           ADRESL equ 09Eh ;# 
   211  009E                     # 2979 "C:\Program Files (x86)\Microchip\xc8\v2.00\pic\include\pic16f887.h"
   212                           ADCON1 equ 09Fh ;# 
   213  009F                     # 3013 "C:\Program Files (x86)\Microchip\xc8\v2.00\pic\include\pic16f887.h"
   214                           WDTCON equ 0105h ;# 
   215  0105                     # 3066 "C:\Program Files (x86)\Microchip\xc8\v2.00\pic\include\pic16f887.h"
   216                           CM1CON0 equ 0107h ;# 
   217  0107                     # 3131 "C:\Program Files (x86)\Microchip\xc8\v2.00\pic\include\pic16f887.h"
   218                           CM2CON0 equ 0108h ;# 
   219  0108                     # 3196 "C:\Program Files (x86)\Microchip\xc8\v2.00\pic\include\pic16f887.h"
   220                           CM2CON1 equ 0109h ;# 
   221  0109                     # 3247 "C:\Program Files (x86)\Microchip\xc8\v2.00\pic\include\pic16f887.h"
   222                           EEDATA equ 010Ch ;# 
   223  010C                     # 3252 "C:\Program Files (x86)\Microchip\xc8\v2.00\pic\include\pic16f887.h"
   224                           EEDAT equ 010Ch ;# 
   225  010C                     # 3259 "C:\Program Files (x86)\Microchip\xc8\v2.00\pic\include\pic16f887.h"
   226                           EEADR equ 010Dh ;# 
   227  010D                     # 3266 "C:\Program Files (x86)\Microchip\xc8\v2.00\pic\include\pic16f887.h"
   228                           EEDATH equ 010Eh ;# 
   229  010E                     # 3273 "C:\Program Files (x86)\Microchip\xc8\v2.00\pic\include\pic16f887.h"
   230                           EEADRH equ 010Fh ;# 
   231  010F                     # 3280 "C:\Program Files (x86)\Microchip\xc8\v2.00\pic\include\pic16f887.h"
   232                           SRCON equ 0185h ;# 
   233  0185                     # 3337 "C:\Program Files (x86)\Microchip\xc8\v2.00\pic\include\pic16f887.h"
   234                           BAUDCTL equ 0187h ;# 
   235  0187                     # 3389 "C:\Program Files (x86)\Microchip\xc8\v2.00\pic\include\pic16f887.h"
   236                           ANSEL equ 0188h ;# 
   237  0188                     # 3451 "C:\Program Files (x86)\Microchip\xc8\v2.00\pic\include\pic16f887.h"
   238                           ANSELH equ 0189h ;# 
   239  0189                     # 3501 "C:\Program Files (x86)\Microchip\xc8\v2.00\pic\include\pic16f887.h"
   240                           EECON1 equ 018Ch ;# 
   241  018C                     # 3546 "C:\Program Files (x86)\Microchip\xc8\v2.00\pic\include\pic16f887.h"
   242                           EECON2 equ 018Dh ;# 
   243  018D                     # 54 "C:\Program Files (x86)\Microchip\xc8\v2.00\pic\include\pic16f887.h"
   244                           INDF equ 00h ;# 
   245  0000                     # 61 "C:\Program Files (x86)\Microchip\xc8\v2.00\pic\include\pic16f887.h"
   246                           TMR0 equ 01h ;# 
   247  0001                     # 68 "C:\Program Files (x86)\Microchip\xc8\v2.00\pic\include\pic16f887.h"
   248                           PCL equ 02h ;# 
   249  0002                     # 75 "C:\Program Files (x86)\Microchip\xc8\v2.00\pic\include\pic16f887.h"
   250                           STATUS equ 03h ;# 
   251  0003                     # 161 "C:\Program Files (x86)\Microchip\xc8\v2.00\pic\include\pic16f887.h"
   252                           FSR equ 04h ;# 
   253  0004                     # 168 "C:\Program Files (x86)\Microchip\xc8\v2.00\pic\include\pic16f887.h"
   254                           PORTA equ 05h ;# 
   255  0005                     # 230 "C:\Program Files (x86)\Microchip\xc8\v2.00\pic\include\pic16f887.h"
   256                           PORTB equ 06h ;# 
   257  0006                     # 292 "C:\Program Files (x86)\Microchip\xc8\v2.00\pic\include\pic16f887.h"
   258                           PORTC equ 07h ;# 
   259  0007                     # 354 "C:\Program Files (x86)\Microchip\xc8\v2.00\pic\include\pic16f887.h"
   260                           PORTD equ 08h ;# 
   261  0008                     # 416 "C:\Program Files (x86)\Microchip\xc8\v2.00\pic\include\pic16f887.h"
   262                           PORTE equ 09h ;# 
   263  0009                     # 454 "C:\Program Files (x86)\Microchip\xc8\v2.00\pic\include\pic16f887.h"
   264                           PCLATH equ 0Ah ;# 
   265  000A                     # 461 "C:\Program Files (x86)\Microchip\xc8\v2.00\pic\include\pic16f887.h"
   266                           INTCON equ 0Bh ;# 
   267  000B                     # 539 "C:\Program Files (x86)\Microchip\xc8\v2.00\pic\include\pic16f887.h"
   268                           PIR1 equ 0Ch ;# 
   269  000C                     # 595 "C:\Program Files (x86)\Microchip\xc8\v2.00\pic\include\pic16f887.h"
   270                           PIR2 equ 0Dh ;# 
   271  000D                     # 652 "C:\Program Files (x86)\Microchip\xc8\v2.00\pic\include\pic16f887.h"
   272                           TMR1 equ 0Eh ;# 
   273  000E                     # 659 "C:\Program Files (x86)\Microchip\xc8\v2.00\pic\include\pic16f887.h"
   274                           TMR1L equ 0Eh ;# 
   275  000E                     # 666 "C:\Program Files (x86)\Microchip\xc8\v2.00\pic\include\pic16f887.h"
   276                           TMR1H equ 0Fh ;# 
   277  000F                     # 673 "C:\Program Files (x86)\Microchip\xc8\v2.00\pic\include\pic16f887.h"
   278                           T1CON equ 010h ;# 
   279  0010                     # 767 "C:\Program Files (x86)\Microchip\xc8\v2.00\pic\include\pic16f887.h"
   280                           TMR2 equ 011h ;# 
   281  0011                     # 774 "C:\Program Files (x86)\Microchip\xc8\v2.00\pic\include\pic16f887.h"
   282                           T2CON equ 012h ;# 
   283  0012                     # 845 "C:\Program Files (x86)\Microchip\xc8\v2.00\pic\include\pic16f887.h"
   284                           SSPBUF equ 013h ;# 
   285  0013                     # 852 "C:\Program Files (x86)\Microchip\xc8\v2.00\pic\include\pic16f887.h"
   286                           SSPCON equ 014h ;# 
   287  0014                     # 922 "C:\Program Files (x86)\Microchip\xc8\v2.00\pic\include\pic16f887.h"
   288                           CCPR1 equ 015h ;# 
   289  0015                     # 929 "C:\Program Files (x86)\Microchip\xc8\v2.00\pic\include\pic16f887.h"
   290                           CCPR1L equ 015h ;# 
   291  0015                     # 936 "C:\Program Files (x86)\Microchip\xc8\v2.00\pic\include\pic16f887.h"
   292                           CCPR1H equ 016h ;# 
   293  0016                     # 943 "C:\Program Files (x86)\Microchip\xc8\v2.00\pic\include\pic16f887.h"
   294                           CCP1CON equ 017h ;# 
   295  0017                     # 1040 "C:\Program Files (x86)\Microchip\xc8\v2.00\pic\include\pic16f887.h"
   296                           RCSTA equ 018h ;# 
   297  0018                     # 1135 "C:\Program Files (x86)\Microchip\xc8\v2.00\pic\include\pic16f887.h"
   298                           TXREG equ 019h ;# 
   299  0019                     # 1142 "C:\Program Files (x86)\Microchip\xc8\v2.00\pic\include\pic16f887.h"
   300                           RCREG equ 01Ah ;# 
   301  001A                     # 1149 "C:\Program Files (x86)\Microchip\xc8\v2.00\pic\include\pic16f887.h"
   302                           CCPR2 equ 01Bh ;# 
   303  001B                     # 1156 "C:\Program Files (x86)\Microchip\xc8\v2.00\pic\include\pic16f887.h"
   304                           CCPR2L equ 01Bh ;# 
   305  001B                     # 1163 "C:\Program Files (x86)\Microchip\xc8\v2.00\pic\include\pic16f887.h"
   306                           CCPR2H equ 01Ch ;# 
   307  001C                     # 1170 "C:\Program Files (x86)\Microchip\xc8\v2.00\pic\include\pic16f887.h"
   308                           CCP2CON equ 01Dh ;# 
   309  001D                     # 1240 "C:\Program Files (x86)\Microchip\xc8\v2.00\pic\include\pic16f887.h"
   310                           ADRESH equ 01Eh ;# 
   311  001E                     # 1247 "C:\Program Files (x86)\Microchip\xc8\v2.00\pic\include\pic16f887.h"
   312                           ADCON0 equ 01Fh ;# 
   313  001F                     # 1348 "C:\Program Files (x86)\Microchip\xc8\v2.00\pic\include\pic16f887.h"
   314                           OPTION_REG equ 081h ;# 
   315  0081                     # 1418 "C:\Program Files (x86)\Microchip\xc8\v2.00\pic\include\pic16f887.h"
   316                           TRISA equ 085h ;# 
   317  0085                     # 1480 "C:\Program Files (x86)\Microchip\xc8\v2.00\pic\include\pic16f887.h"
   318                           TRISB equ 086h ;# 
   319  0086                     # 1542 "C:\Program Files (x86)\Microchip\xc8\v2.00\pic\include\pic16f887.h"
   320                           TRISC equ 087h ;# 
   321  0087                     # 1604 "C:\Program Files (x86)\Microchip\xc8\v2.00\pic\include\pic16f887.h"
   322                           TRISD equ 088h ;# 
   323  0088                     # 1666 "C:\Program Files (x86)\Microchip\xc8\v2.00\pic\include\pic16f887.h"
   324                           TRISE equ 089h ;# 
   325  0089                     # 1704 "C:\Program Files (x86)\Microchip\xc8\v2.00\pic\include\pic16f887.h"
   326                           PIE1 equ 08Ch ;# 
   327  008C                     # 1760 "C:\Program Files (x86)\Microchip\xc8\v2.00\pic\include\pic16f887.h"
   328                           PIE2 equ 08Dh ;# 
   329  008D                     # 1817 "C:\Program Files (x86)\Microchip\xc8\v2.00\pic\include\pic16f887.h"
   330                           PCON equ 08Eh ;# 
   331  008E                     # 1864 "C:\Program Files (x86)\Microchip\xc8\v2.00\pic\include\pic16f887.h"
   332                           OSCCON equ 08Fh ;# 
   333  008F                     # 1929 "C:\Program Files (x86)\Microchip\xc8\v2.00\pic\include\pic16f887.h"
   334                           OSCTUNE equ 090h ;# 
   335  0090                     # 1981 "C:\Program Files (x86)\Microchip\xc8\v2.00\pic\include\pic16f887.h"
   336                           SSPCON2 equ 091h ;# 
   337  0091                     # 2043 "C:\Program Files (x86)\Microchip\xc8\v2.00\pic\include\pic16f887.h"
   338                           PR2 equ 092h ;# 
   339  0092                     # 2050 "C:\Program Files (x86)\Microchip\xc8\v2.00\pic\include\pic16f887.h"
   340                           SSPADD equ 093h ;# 
   341  0093                     # 2057 "C:\Program Files (x86)\Microchip\xc8\v2.00\pic\include\pic16f887.h"
   342                           SSPMSK equ 093h ;# 
   343  0093                     # 2062 "C:\Program Files (x86)\Microchip\xc8\v2.00\pic\include\pic16f887.h"
   344                           MSK equ 093h ;# 
   345  0093                     # 2179 "C:\Program Files (x86)\Microchip\xc8\v2.00\pic\include\pic16f887.h"
   346                           SSPSTAT equ 094h ;# 
   347  0094                     # 2348 "C:\Program Files (x86)\Microchip\xc8\v2.00\pic\include\pic16f887.h"
   348                           WPUB equ 095h ;# 
   349  0095                     # 2418 "C:\Program Files (x86)\Microchip\xc8\v2.00\pic\include\pic16f887.h"
   350                           IOCB equ 096h ;# 
   351  0096                     # 2488 "C:\Program Files (x86)\Microchip\xc8\v2.00\pic\include\pic16f887.h"
   352                           VRCON equ 097h ;# 
   353  0097                     # 2558 "C:\Program Files (x86)\Microchip\xc8\v2.00\pic\include\pic16f887.h"
   354                           TXSTA equ 098h ;# 
   355  0098                     # 2644 "C:\Program Files (x86)\Microchip\xc8\v2.00\pic\include\pic16f887.h"
   356                           SPBRG equ 099h ;# 
   357  0099                     # 2706 "C:\Program Files (x86)\Microchip\xc8\v2.00\pic\include\pic16f887.h"
   358                           SPBRGH equ 09Ah ;# 
   359  009A                     # 2776 "C:\Program Files (x86)\Microchip\xc8\v2.00\pic\include\pic16f887.h"
   360                           PWM1CON equ 09Bh ;# 
   361  009B                     # 2846 "C:\Program Files (x86)\Microchip\xc8\v2.00\pic\include\pic16f887.h"
   362                           ECCPAS equ 09Ch ;# 
   363  009C                     # 2928 "C:\Program Files (x86)\Microchip\xc8\v2.00\pic\include\pic16f887.h"
   364                           PSTRCON equ 09Dh ;# 
   365  009D                     # 2972 "C:\Program Files (x86)\Microchip\xc8\v2.00\pic\include\pic16f887.h"
   366                           ADRESL equ 09Eh ;# 
   367  009E                     # 2979 "C:\Program Files (x86)\Microchip\xc8\v2.00\pic\include\pic16f887.h"
   368                           ADCON1 equ 09Fh ;# 
   369  009F                     # 3013 "C:\Program Files (x86)\Microchip\xc8\v2.00\pic\include\pic16f887.h"
   370                           WDTCON equ 0105h ;# 
   371  0105                     # 3066 "C:\Program Files (x86)\Microchip\xc8\v2.00\pic\include\pic16f887.h"
   372                           CM1CON0 equ 0107h ;# 
   373  0107                     # 3131 "C:\Program Files (x86)\Microchip\xc8\v2.00\pic\include\pic16f887.h"
   374                           CM2CON0 equ 0108h ;# 
   375  0108                     # 3196 "C:\Program Files (x86)\Microchip\xc8\v2.00\pic\include\pic16f887.h"
   376                           CM2CON1 equ 0109h ;# 
   377  0109                     # 3247 "C:\Program Files (x86)\Microchip\xc8\v2.00\pic\include\pic16f887.h"
   378                           EEDATA equ 010Ch ;# 
   379  010C                     # 3252 "C:\Program Files (x86)\Microchip\xc8\v2.00\pic\include\pic16f887.h"
   380                           EEDAT equ 010Ch ;# 
   381  010C                     # 3259 "C:\Program Files (x86)\Microchip\xc8\v2.00\pic\include\pic16f887.h"
   382                           EEADR equ 010Dh ;# 
   383  010D                     # 3266 "C:\Program Files (x86)\Microchip\xc8\v2.00\pic\include\pic16f887.h"
   384                           EEDATH equ 010Eh ;# 
   385  010E                     # 3273 "C:\Program Files (x86)\Microchip\xc8\v2.00\pic\include\pic16f887.h"
   386                           EEADRH equ 010Fh ;# 
   387  010F                     # 3280 "C:\Program Files (x86)\Microchip\xc8\v2.00\pic\include\pic16f887.h"
   388                           SRCON equ 0185h ;# 
   389  0185                     # 3337 "C:\Program Files (x86)\Microchip\xc8\v2.00\pic\include\pic16f887.h"
   390                           BAUDCTL equ 0187h ;# 
   391  0187                     # 3389 "C:\Program Files (x86)\Microchip\xc8\v2.00\pic\include\pic16f887.h"
   392                           ANSEL equ 0188h ;# 
   393  0188                     # 3451 "C:\Program Files (x86)\Microchip\xc8\v2.00\pic\include\pic16f887.h"
   394                           ANSELH equ 0189h ;# 
   395  0189                     # 3501 "C:\Program Files (x86)\Microchip\xc8\v2.00\pic\include\pic16f887.h"
   396                           EECON1 equ 018Ch ;# 
   397  018C                     # 3546 "C:\Program Files (x86)\Microchip\xc8\v2.00\pic\include\pic16f887.h"
   398                           EECON2 equ 018Dh ;# 
   399  018D                     # 54 "C:\Program Files (x86)\Microchip\xc8\v2.00\pic\include\pic16f887.h"
   400                           INDF equ 00h ;# 
   401  0000                     # 61 "C:\Program Files (x86)\Microchip\xc8\v2.00\pic\include\pic16f887.h"
   402                           TMR0 equ 01h ;# 
   403  0001                     # 68 "C:\Program Files (x86)\Microchip\xc8\v2.00\pic\include\pic16f887.h"
   404                           PCL equ 02h ;# 
   405  0002                     # 75 "C:\Program Files (x86)\Microchip\xc8\v2.00\pic\include\pic16f887.h"
   406                           STATUS equ 03h ;# 
   407  0003                     # 161 "C:\Program Files (x86)\Microchip\xc8\v2.00\pic\include\pic16f887.h"
   408                           FSR equ 04h ;# 
   409  0004                     # 168 "C:\Program Files (x86)\Microchip\xc8\v2.00\pic\include\pic16f887.h"
   410                           PORTA equ 05h ;# 
   411  0005                     # 230 "C:\Program Files (x86)\Microchip\xc8\v2.00\pic\include\pic16f887.h"
   412                           PORTB equ 06h ;# 
   413  0006                     # 292 "C:\Program Files (x86)\Microchip\xc8\v2.00\pic\include\pic16f887.h"
   414                           PORTC equ 07h ;# 
   415  0007                     # 354 "C:\Program Files (x86)\Microchip\xc8\v2.00\pic\include\pic16f887.h"
   416                           PORTD equ 08h ;# 
   417  0008                     # 416 "C:\Program Files (x86)\Microchip\xc8\v2.00\pic\include\pic16f887.h"
   418                           PORTE equ 09h ;# 
   419  0009                     # 454 "C:\Program Files (x86)\Microchip\xc8\v2.00\pic\include\pic16f887.h"
   420                           PCLATH equ 0Ah ;# 
   421  000A                     # 461 "C:\Program Files (x86)\Microchip\xc8\v2.00\pic\include\pic16f887.h"
   422                           INTCON equ 0Bh ;# 
   423  000B                     # 539 "C:\Program Files (x86)\Microchip\xc8\v2.00\pic\include\pic16f887.h"
   424                           PIR1 equ 0Ch ;# 
   425  000C                     # 595 "C:\Program Files (x86)\Microchip\xc8\v2.00\pic\include\pic16f887.h"
   426                           PIR2 equ 0Dh ;# 
   427  000D                     # 652 "C:\Program Files (x86)\Microchip\xc8\v2.00\pic\include\pic16f887.h"
   428                           TMR1 equ 0Eh ;# 
   429  000E                     # 659 "C:\Program Files (x86)\Microchip\xc8\v2.00\pic\include\pic16f887.h"
   430                           TMR1L equ 0Eh ;# 
   431  000E                     # 666 "C:\Program Files (x86)\Microchip\xc8\v2.00\pic\include\pic16f887.h"
   432                           TMR1H equ 0Fh ;# 
   433  000F                     # 673 "C:\Program Files (x86)\Microchip\xc8\v2.00\pic\include\pic16f887.h"
   434                           T1CON equ 010h ;# 
   435  0010                     # 767 "C:\Program Files (x86)\Microchip\xc8\v2.00\pic\include\pic16f887.h"
   436                           TMR2 equ 011h ;# 
   437  0011                     # 774 "C:\Program Files (x86)\Microchip\xc8\v2.00\pic\include\pic16f887.h"
   438                           T2CON equ 012h ;# 
   439  0012                     # 845 "C:\Program Files (x86)\Microchip\xc8\v2.00\pic\include\pic16f887.h"
   440                           SSPBUF equ 013h ;# 
   441  0013                     # 852 "C:\Program Files (x86)\Microchip\xc8\v2.00\pic\include\pic16f887.h"
   442                           SSPCON equ 014h ;# 
   443  0014                     # 922 "C:\Program Files (x86)\Microchip\xc8\v2.00\pic\include\pic16f887.h"
   444                           CCPR1 equ 015h ;# 
   445  0015                     # 929 "C:\Program Files (x86)\Microchip\xc8\v2.00\pic\include\pic16f887.h"
   446                           CCPR1L equ 015h ;# 
   447  0015                     # 936 "C:\Program Files (x86)\Microchip\xc8\v2.00\pic\include\pic16f887.h"
   448                           CCPR1H equ 016h ;# 
   449  0016                     # 943 "C:\Program Files (x86)\Microchip\xc8\v2.00\pic\include\pic16f887.h"
   450                           CCP1CON equ 017h ;# 
   451  0017                     # 1040 "C:\Program Files (x86)\Microchip\xc8\v2.00\pic\include\pic16f887.h"
   452                           RCSTA equ 018h ;# 
   453  0018                     # 1135 "C:\Program Files (x86)\Microchip\xc8\v2.00\pic\include\pic16f887.h"
   454                           TXREG equ 019h ;# 
   455  0019                     # 1142 "C:\Program Files (x86)\Microchip\xc8\v2.00\pic\include\pic16f887.h"
   456                           RCREG equ 01Ah ;# 
   457  001A                     # 1149 "C:\Program Files (x86)\Microchip\xc8\v2.00\pic\include\pic16f887.h"
   458                           CCPR2 equ 01Bh ;# 
   459  001B                     # 1156 "C:\Program Files (x86)\Microchip\xc8\v2.00\pic\include\pic16f887.h"
   460                           CCPR2L equ 01Bh ;# 
   461  001B                     # 1163 "C:\Program Files (x86)\Microchip\xc8\v2.00\pic\include\pic16f887.h"
   462                           CCPR2H equ 01Ch ;# 
   463  001C                     # 1170 "C:\Program Files (x86)\Microchip\xc8\v2.00\pic\include\pic16f887.h"
   464                           CCP2CON equ 01Dh ;# 
   465  001D                     # 1240 "C:\Program Files (x86)\Microchip\xc8\v2.00\pic\include\pic16f887.h"
   466                           ADRESH equ 01Eh ;# 
   467  001E                     # 1247 "C:\Program Files (x86)\Microchip\xc8\v2.00\pic\include\pic16f887.h"
   468                           ADCON0 equ 01Fh ;# 
   469  001F                     # 1348 "C:\Program Files (x86)\Microchip\xc8\v2.00\pic\include\pic16f887.h"
   470                           OPTION_REG equ 081h ;# 
   471  0081                     # 1418 "C:\Program Files (x86)\Microchip\xc8\v2.00\pic\include\pic16f887.h"
   472                           TRISA equ 085h ;# 
   473  0085                     # 1480 "C:\Program Files (x86)\Microchip\xc8\v2.00\pic\include\pic16f887.h"
   474                           TRISB equ 086h ;# 
   475  0086                     # 1542 "C:\Program Files (x86)\Microchip\xc8\v2.00\pic\include\pic16f887.h"
   476                           TRISC equ 087h ;# 
   477  0087                     # 1604 "C:\Program Files (x86)\Microchip\xc8\v2.00\pic\include\pic16f887.h"
   478                           TRISD equ 088h ;# 
   479  0088                     # 1666 "C:\Program Files (x86)\Microchip\xc8\v2.00\pic\include\pic16f887.h"
   480                           TRISE equ 089h ;# 
   481  0089                     # 1704 "C:\Program Files (x86)\Microchip\xc8\v2.00\pic\include\pic16f887.h"
   482                           PIE1 equ 08Ch ;# 
   483  008C                     # 1760 "C:\Program Files (x86)\Microchip\xc8\v2.00\pic\include\pic16f887.h"
   484                           PIE2 equ 08Dh ;# 
   485  008D                     # 1817 "C:\Program Files (x86)\Microchip\xc8\v2.00\pic\include\pic16f887.h"
   486                           PCON equ 08Eh ;# 
   487  008E                     # 1864 "C:\Program Files (x86)\Microchip\xc8\v2.00\pic\include\pic16f887.h"
   488                           OSCCON equ 08Fh ;# 
   489  008F                     # 1929 "C:\Program Files (x86)\Microchip\xc8\v2.00\pic\include\pic16f887.h"
   490                           OSCTUNE equ 090h ;# 
   491  0090                     # 1981 "C:\Program Files (x86)\Microchip\xc8\v2.00\pic\include\pic16f887.h"
   492                           SSPCON2 equ 091h ;# 
   493  0091                     # 2043 "C:\Program Files (x86)\Microchip\xc8\v2.00\pic\include\pic16f887.h"
   494                           PR2 equ 092h ;# 
   495  0092                     # 2050 "C:\Program Files (x86)\Microchip\xc8\v2.00\pic\include\pic16f887.h"
   496                           SSPADD equ 093h ;# 
   497  0093                     # 2057 "C:\Program Files (x86)\Microchip\xc8\v2.00\pic\include\pic16f887.h"
   498                           SSPMSK equ 093h ;# 
   499  0093                     # 2062 "C:\Program Files (x86)\Microchip\xc8\v2.00\pic\include\pic16f887.h"
   500                           MSK equ 093h ;# 
   501  0093                     # 2179 "C:\Program Files (x86)\Microchip\xc8\v2.00\pic\include\pic16f887.h"
   502                           SSPSTAT equ 094h ;# 
   503  0094                     # 2348 "C:\Program Files (x86)\Microchip\xc8\v2.00\pic\include\pic16f887.h"
   504                           WPUB equ 095h ;# 
   505  0095                     # 2418 "C:\Program Files (x86)\Microchip\xc8\v2.00\pic\include\pic16f887.h"
   506                           IOCB equ 096h ;# 
   507  0096                     # 2488 "C:\Program Files (x86)\Microchip\xc8\v2.00\pic\include\pic16f887.h"
   508                           VRCON equ 097h ;# 
   509  0097                     # 2558 "C:\Program Files (x86)\Microchip\xc8\v2.00\pic\include\pic16f887.h"
   510                           TXSTA equ 098h ;# 
   511  0098                     # 2644 "C:\Program Files (x86)\Microchip\xc8\v2.00\pic\include\pic16f887.h"
   512                           SPBRG equ 099h ;# 
   513  0099                     # 2706 "C:\Program Files (x86)\Microchip\xc8\v2.00\pic\include\pic16f887.h"
   514                           SPBRGH equ 09Ah ;# 
   515  009A                     # 2776 "C:\Program Files (x86)\Microchip\xc8\v2.00\pic\include\pic16f887.h"
   516                           PWM1CON equ 09Bh ;# 
   517  009B                     # 2846 "C:\Program Files (x86)\Microchip\xc8\v2.00\pic\include\pic16f887.h"
   518                           ECCPAS equ 09Ch ;# 
   519  009C                     # 2928 "C:\Program Files (x86)\Microchip\xc8\v2.00\pic\include\pic16f887.h"
   520                           PSTRCON equ 09Dh ;# 
   521  009D                     # 2972 "C:\Program Files (x86)\Microchip\xc8\v2.00\pic\include\pic16f887.h"
   522                           ADRESL equ 09Eh ;# 
   523  009E                     # 2979 "C:\Program Files (x86)\Microchip\xc8\v2.00\pic\include\pic16f887.h"
   524                           ADCON1 equ 09Fh ;# 
   525  009F                     # 3013 "C:\Program Files (x86)\Microchip\xc8\v2.00\pic\include\pic16f887.h"
   526                           WDTCON equ 0105h ;# 
   527  0105                     # 3066 "C:\Program Files (x86)\Microchip\xc8\v2.00\pic\include\pic16f887.h"
   528                           CM1CON0 equ 0107h ;# 
   529  0107                     # 3131 "C:\Program Files (x86)\Microchip\xc8\v2.00\pic\include\pic16f887.h"
   530                           CM2CON0 equ 0108h ;# 
   531  0108                     # 3196 "C:\Program Files (x86)\Microchip\xc8\v2.00\pic\include\pic16f887.h"
   532                           CM2CON1 equ 0109h ;# 
   533  0109                     # 3247 "C:\Program Files (x86)\Microchip\xc8\v2.00\pic\include\pic16f887.h"
   534                           EEDATA equ 010Ch ;# 
   535  010C                     # 3252 "C:\Program Files (x86)\Microchip\xc8\v2.00\pic\include\pic16f887.h"
   536                           EEDAT equ 010Ch ;# 
   537  010C                     # 3259 "C:\Program Files (x86)\Microchip\xc8\v2.00\pic\include\pic16f887.h"
   538                           EEADR equ 010Dh ;# 
   539  010D                     # 3266 "C:\Program Files (x86)\Microchip\xc8\v2.00\pic\include\pic16f887.h"
   540                           EEDATH equ 010Eh ;# 
   541  010E                     # 3273 "C:\Program Files (x86)\Microchip\xc8\v2.00\pic\include\pic16f887.h"
   542                           EEADRH equ 010Fh ;# 
   543  010F                     # 3280 "C:\Program Files (x86)\Microchip\xc8\v2.00\pic\include\pic16f887.h"
   544                           SRCON equ 0185h ;# 
   545  0185                     # 3337 "C:\Program Files (x86)\Microchip\xc8\v2.00\pic\include\pic16f887.h"
   546                           BAUDCTL equ 0187h ;# 
   547  0187                     # 3389 "C:\Program Files (x86)\Microchip\xc8\v2.00\pic\include\pic16f887.h"
   548                           ANSEL equ 0188h ;# 
   549  0188                     # 3451 "C:\Program Files (x86)\Microchip\xc8\v2.00\pic\include\pic16f887.h"
   550                           ANSELH equ 0189h ;# 
   551  0189                     # 3501 "C:\Program Files (x86)\Microchip\xc8\v2.00\pic\include\pic16f887.h"
   552                           EECON1 equ 018Ch ;# 
   553  018C                     # 3546 "C:\Program Files (x86)\Microchip\xc8\v2.00\pic\include\pic16f887.h"
   554                           EECON2 equ 018Dh ;# 
   555  018D                     # 54 "C:\Program Files (x86)\Microchip\xc8\v2.00\pic\include\pic16f887.h"
   556                           INDF equ 00h ;# 
   557  0000                     # 61 "C:\Program Files (x86)\Microchip\xc8\v2.00\pic\include\pic16f887.h"
   558                           TMR0 equ 01h ;# 
   559  0001                     # 68 "C:\Program Files (x86)\Microchip\xc8\v2.00\pic\include\pic16f887.h"
   560                           PCL equ 02h ;# 
   561  0002                     # 75 "C:\Program Files (x86)\Microchip\xc8\v2.00\pic\include\pic16f887.h"
   562                           STATUS equ 03h ;# 
   563  0003                     # 161 "C:\Program Files (x86)\Microchip\xc8\v2.00\pic\include\pic16f887.h"
   564                           FSR equ 04h ;# 
   565  0004                     # 168 "C:\Program Files (x86)\Microchip\xc8\v2.00\pic\include\pic16f887.h"
   566                           PORTA equ 05h ;# 
   567  0005                     # 230 "C:\Program Files (x86)\Microchip\xc8\v2.00\pic\include\pic16f887.h"
   568                           PORTB equ 06h ;# 
   569  0006                     # 292 "C:\Program Files (x86)\Microchip\xc8\v2.00\pic\include\pic16f887.h"
   570                           PORTC equ 07h ;# 
   571  0007                     # 354 "C:\Program Files (x86)\Microchip\xc8\v2.00\pic\include\pic16f887.h"
   572                           PORTD equ 08h ;# 
   573  0008                     # 416 "C:\Program Files (x86)\Microchip\xc8\v2.00\pic\include\pic16f887.h"
   574                           PORTE equ 09h ;# 
   575  0009                     # 454 "C:\Program Files (x86)\Microchip\xc8\v2.00\pic\include\pic16f887.h"
   576                           PCLATH equ 0Ah ;# 
   577  000A                     # 461 "C:\Program Files (x86)\Microchip\xc8\v2.00\pic\include\pic16f887.h"
   578                           INTCON equ 0Bh ;# 
   579  000B                     # 539 "C:\Program Files (x86)\Microchip\xc8\v2.00\pic\include\pic16f887.h"
   580                           PIR1 equ 0Ch ;# 
   581  000C                     # 595 "C:\Program Files (x86)\Microchip\xc8\v2.00\pic\include\pic16f887.h"
   582                           PIR2 equ 0Dh ;# 
   583  000D                     # 652 "C:\Program Files (x86)\Microchip\xc8\v2.00\pic\include\pic16f887.h"
   584                           TMR1 equ 0Eh ;# 
   585  000E                     # 659 "C:\Program Files (x86)\Microchip\xc8\v2.00\pic\include\pic16f887.h"
   586                           TMR1L equ 0Eh ;# 
   587  000E                     # 666 "C:\Program Files (x86)\Microchip\xc8\v2.00\pic\include\pic16f887.h"
   588                           TMR1H equ 0Fh ;# 
   589  000F                     # 673 "C:\Program Files (x86)\Microchip\xc8\v2.00\pic\include\pic16f887.h"
   590                           T1CON equ 010h ;# 
   591  0010                     # 767 "C:\Program Files (x86)\Microchip\xc8\v2.00\pic\include\pic16f887.h"
   592                           TMR2 equ 011h ;# 
   593  0011                     # 774 "C:\Program Files (x86)\Microchip\xc8\v2.00\pic\include\pic16f887.h"
   594                           T2CON equ 012h ;# 
   595  0012                     # 845 "C:\Program Files (x86)\Microchip\xc8\v2.00\pic\include\pic16f887.h"
   596                           SSPBUF equ 013h ;# 
   597  0013                     # 852 "C:\Program Files (x86)\Microchip\xc8\v2.00\pic\include\pic16f887.h"
   598                           SSPCON equ 014h ;# 
   599  0014                     # 922 "C:\Program Files (x86)\Microchip\xc8\v2.00\pic\include\pic16f887.h"
   600                           CCPR1 equ 015h ;# 
   601  0015                     # 929 "C:\Program Files (x86)\Microchip\xc8\v2.00\pic\include\pic16f887.h"
   602                           CCPR1L equ 015h ;# 
   603  0015                     # 936 "C:\Program Files (x86)\Microchip\xc8\v2.00\pic\include\pic16f887.h"
   604                           CCPR1H equ 016h ;# 
   605  0016                     # 943 "C:\Program Files (x86)\Microchip\xc8\v2.00\pic\include\pic16f887.h"
   606                           CCP1CON equ 017h ;# 
   607  0017                     # 1040 "C:\Program Files (x86)\Microchip\xc8\v2.00\pic\include\pic16f887.h"
   608                           RCSTA equ 018h ;# 
   609  0018                     # 1135 "C:\Program Files (x86)\Microchip\xc8\v2.00\pic\include\pic16f887.h"
   610                           TXREG equ 019h ;# 
   611  0019                     # 1142 "C:\Program Files (x86)\Microchip\xc8\v2.00\pic\include\pic16f887.h"
   612                           RCREG equ 01Ah ;# 
   613  001A                     # 1149 "C:\Program Files (x86)\Microchip\xc8\v2.00\pic\include\pic16f887.h"
   614                           CCPR2 equ 01Bh ;# 
   615  001B                     # 1156 "C:\Program Files (x86)\Microchip\xc8\v2.00\pic\include\pic16f887.h"
   616                           CCPR2L equ 01Bh ;# 
   617  001B                     # 1163 "C:\Program Files (x86)\Microchip\xc8\v2.00\pic\include\pic16f887.h"
   618                           CCPR2H equ 01Ch ;# 
   619  001C                     # 1170 "C:\Program Files (x86)\Microchip\xc8\v2.00\pic\include\pic16f887.h"
   620                           CCP2CON equ 01Dh ;# 
   621  001D                     # 1240 "C:\Program Files (x86)\Microchip\xc8\v2.00\pic\include\pic16f887.h"
   622                           ADRESH equ 01Eh ;# 
   623  001E                     # 1247 "C:\Program Files (x86)\Microchip\xc8\v2.00\pic\include\pic16f887.h"
   624                           ADCON0 equ 01Fh ;# 
   625  001F                     # 1348 "C:\Program Files (x86)\Microchip\xc8\v2.00\pic\include\pic16f887.h"
   626                           OPTION_REG equ 081h ;# 
   627  0081                     # 1418 "C:\Program Files (x86)\Microchip\xc8\v2.00\pic\include\pic16f887.h"
   628                           TRISA equ 085h ;# 
   629  0085                     # 1480 "C:\Program Files (x86)\Microchip\xc8\v2.00\pic\include\pic16f887.h"
   630                           TRISB equ 086h ;# 
   631  0086                     # 1542 "C:\Program Files (x86)\Microchip\xc8\v2.00\pic\include\pic16f887.h"
   632                           TRISC equ 087h ;# 
   633  0087                     # 1604 "C:\Program Files (x86)\Microchip\xc8\v2.00\pic\include\pic16f887.h"
   634                           TRISD equ 088h ;# 
   635  0088                     # 1666 "C:\Program Files (x86)\Microchip\xc8\v2.00\pic\include\pic16f887.h"
   636                           TRISE equ 089h ;# 
   637  0089                     # 1704 "C:\Program Files (x86)\Microchip\xc8\v2.00\pic\include\pic16f887.h"
   638                           PIE1 equ 08Ch ;# 
   639  008C                     # 1760 "C:\Program Files (x86)\Microchip\xc8\v2.00\pic\include\pic16f887.h"
   640                           PIE2 equ 08Dh ;# 
   641  008D                     # 1817 "C:\Program Files (x86)\Microchip\xc8\v2.00\pic\include\pic16f887.h"
   642                           PCON equ 08Eh ;# 
   643  008E                     # 1864 "C:\Program Files (x86)\Microchip\xc8\v2.00\pic\include\pic16f887.h"
   644                           OSCCON equ 08Fh ;# 
   645  008F                     # 1929 "C:\Program Files (x86)\Microchip\xc8\v2.00\pic\include\pic16f887.h"
   646                           OSCTUNE equ 090h ;# 
   647  0090                     # 1981 "C:\Program Files (x86)\Microchip\xc8\v2.00\pic\include\pic16f887.h"
   648                           SSPCON2 equ 091h ;# 
   649  0091                     # 2043 "C:\Program Files (x86)\Microchip\xc8\v2.00\pic\include\pic16f887.h"
   650                           PR2 equ 092h ;# 
   651  0092                     # 2050 "C:\Program Files (x86)\Microchip\xc8\v2.00\pic\include\pic16f887.h"
   652                           SSPADD equ 093h ;# 
   653  0093                     # 2057 "C:\Program Files (x86)\Microchip\xc8\v2.00\pic\include\pic16f887.h"
   654                           SSPMSK equ 093h ;# 
   655  0093                     # 2062 "C:\Program Files (x86)\Microchip\xc8\v2.00\pic\include\pic16f887.h"
   656                           MSK equ 093h ;# 
   657  0093                     # 2179 "C:\Program Files (x86)\Microchip\xc8\v2.00\pic\include\pic16f887.h"
   658                           SSPSTAT equ 094h ;# 
   659  0094                     # 2348 "C:\Program Files (x86)\Microchip\xc8\v2.00\pic\include\pic16f887.h"
   660                           WPUB equ 095h ;# 
   661  0095                     # 2418 "C:\Program Files (x86)\Microchip\xc8\v2.00\pic\include\pic16f887.h"
   662                           IOCB equ 096h ;# 
   663  0096                     # 2488 "C:\Program Files (x86)\Microchip\xc8\v2.00\pic\include\pic16f887.h"
   664                           VRCON equ 097h ;# 
   665  0097                     # 2558 "C:\Program Files (x86)\Microchip\xc8\v2.00\pic\include\pic16f887.h"
   666                           TXSTA equ 098h ;# 
   667  0098                     # 2644 "C:\Program Files (x86)\Microchip\xc8\v2.00\pic\include\pic16f887.h"
   668                           SPBRG equ 099h ;# 
   669  0099                     # 2706 "C:\Program Files (x86)\Microchip\xc8\v2.00\pic\include\pic16f887.h"
   670                           SPBRGH equ 09Ah ;# 
   671  009A                     # 2776 "C:\Program Files (x86)\Microchip\xc8\v2.00\pic\include\pic16f887.h"
   672                           PWM1CON equ 09Bh ;# 
   673  009B                     # 2846 "C:\Program Files (x86)\Microchip\xc8\v2.00\pic\include\pic16f887.h"
   674                           ECCPAS equ 09Ch ;# 
   675  009C                     # 2928 "C:\Program Files (x86)\Microchip\xc8\v2.00\pic\include\pic16f887.h"
   676                           PSTRCON equ 09Dh ;# 
   677  009D                     # 2972 "C:\Program Files (x86)\Microchip\xc8\v2.00\pic\include\pic16f887.h"
   678                           ADRESL equ 09Eh ;# 
   679  009E                     # 2979 "C:\Program Files (x86)\Microchip\xc8\v2.00\pic\include\pic16f887.h"
   680                           ADCON1 equ 09Fh ;# 
   681  009F                     # 3013 "C:\Program Files (x86)\Microchip\xc8\v2.00\pic\include\pic16f887.h"
   682                           WDTCON equ 0105h ;# 
   683  0105                     # 3066 "C:\Program Files (x86)\Microchip\xc8\v2.00\pic\include\pic16f887.h"
   684                           CM1CON0 equ 0107h ;# 
   685  0107                     # 3131 "C:\Program Files (x86)\Microchip\xc8\v2.00\pic\include\pic16f887.h"
   686                           CM2CON0 equ 0108h ;# 
   687  0108                     # 3196 "C:\Program Files (x86)\Microchip\xc8\v2.00\pic\include\pic16f887.h"
   688                           CM2CON1 equ 0109h ;# 
   689  0109                     # 3247 "C:\Program Files (x86)\Microchip\xc8\v2.00\pic\include\pic16f887.h"
   690                           EEDATA equ 010Ch ;# 
   691  010C                     # 3252 "C:\Program Files (x86)\Microchip\xc8\v2.00\pic\include\pic16f887.h"
   692                           EEDAT equ 010Ch ;# 
   693  010C                     # 3259 "C:\Program Files (x86)\Microchip\xc8\v2.00\pic\include\pic16f887.h"
   694                           EEADR equ 010Dh ;# 
   695  010D                     # 3266 "C:\Program Files (x86)\Microchip\xc8\v2.00\pic\include\pic16f887.h"
   696                           EEDATH equ 010Eh ;# 
   697  010E                     # 3273 "C:\Program Files (x86)\Microchip\xc8\v2.00\pic\include\pic16f887.h"
   698                           EEADRH equ 010Fh ;# 
   699  010F                     # 3280 "C:\Program Files (x86)\Microchip\xc8\v2.00\pic\include\pic16f887.h"
   700                           SRCON equ 0185h ;# 
   701  0185                     # 3337 "C:\Program Files (x86)\Microchip\xc8\v2.00\pic\include\pic16f887.h"
   702                           BAUDCTL equ 0187h ;# 
   703  0187                     # 3389 "C:\Program Files (x86)\Microchip\xc8\v2.00\pic\include\pic16f887.h"
   704                           ANSEL equ 0188h ;# 
   705  0188                     # 3451 "C:\Program Files (x86)\Microchip\xc8\v2.00\pic\include\pic16f887.h"
   706                           ANSELH equ 0189h ;# 
   707  0189                     # 3501 "C:\Program Files (x86)\Microchip\xc8\v2.00\pic\include\pic16f887.h"
   708                           EECON1 equ 018Ch ;# 
   709  018C                     # 3546 "C:\Program Files (x86)\Microchip\xc8\v2.00\pic\include\pic16f887.h"
   710                           EECON2 equ 018Dh ;# 
   711  018D                     # 54 "C:\Program Files (x86)\Microchip\xc8\v2.00\pic\include\pic16f887.h"
   712                           INDF equ 00h ;# 
   713  0000                     # 61 "C:\Program Files (x86)\Microchip\xc8\v2.00\pic\include\pic16f887.h"
   714                           TMR0 equ 01h ;# 
   715  0001                     # 68 "C:\Program Files (x86)\Microchip\xc8\v2.00\pic\include\pic16f887.h"
   716                           PCL equ 02h ;# 
   717  0002                     # 75 "C:\Program Files (x86)\Microchip\xc8\v2.00\pic\include\pic16f887.h"
   718                           STATUS equ 03h ;# 
   719  0003                     # 161 "C:\Program Files (x86)\Microchip\xc8\v2.00\pic\include\pic16f887.h"
   720                           FSR equ 04h ;# 
   721  0004                     # 168 "C:\Program Files (x86)\Microchip\xc8\v2.00\pic\include\pic16f887.h"
   722                           PORTA equ 05h ;# 
   723  0005                     # 230 "C:\Program Files (x86)\Microchip\xc8\v2.00\pic\include\pic16f887.h"
   724                           PORTB equ 06h ;# 
   725  0006                     # 292 "C:\Program Files (x86)\Microchip\xc8\v2.00\pic\include\pic16f887.h"
   726                           PORTC equ 07h ;# 
   727  0007                     # 354 "C:\Program Files (x86)\Microchip\xc8\v2.00\pic\include\pic16f887.h"
   728                           PORTD equ 08h ;# 
   729  0008                     # 416 "C:\Program Files (x86)\Microchip\xc8\v2.00\pic\include\pic16f887.h"
   730                           PORTE equ 09h ;# 
   731  0009                     # 454 "C:\Program Files (x86)\Microchip\xc8\v2.00\pic\include\pic16f887.h"
   732                           PCLATH equ 0Ah ;# 
   733  000A                     # 461 "C:\Program Files (x86)\Microchip\xc8\v2.00\pic\include\pic16f887.h"
   734                           INTCON equ 0Bh ;# 
   735  000B                     # 539 "C:\Program Files (x86)\Microchip\xc8\v2.00\pic\include\pic16f887.h"
   736                           PIR1 equ 0Ch ;# 
   737  000C                     # 595 "C:\Program Files (x86)\Microchip\xc8\v2.00\pic\include\pic16f887.h"
   738                           PIR2 equ 0Dh ;# 
   739  000D                     # 652 "C:\Program Files (x86)\Microchip\xc8\v2.00\pic\include\pic16f887.h"
   740                           TMR1 equ 0Eh ;# 
   741  000E                     # 659 "C:\Program Files (x86)\Microchip\xc8\v2.00\pic\include\pic16f887.h"
   742                           TMR1L equ 0Eh ;# 
   743  000E                     # 666 "C:\Program Files (x86)\Microchip\xc8\v2.00\pic\include\pic16f887.h"
   744                           TMR1H equ 0Fh ;# 
   745  000F                     # 673 "C:\Program Files (x86)\Microchip\xc8\v2.00\pic\include\pic16f887.h"
   746                           T1CON equ 010h ;# 
   747  0010                     # 767 "C:\Program Files (x86)\Microchip\xc8\v2.00\pic\include\pic16f887.h"
   748                           TMR2 equ 011h ;# 
   749  0011                     # 774 "C:\Program Files (x86)\Microchip\xc8\v2.00\pic\include\pic16f887.h"
   750                           T2CON equ 012h ;# 
   751  0012                     # 845 "C:\Program Files (x86)\Microchip\xc8\v2.00\pic\include\pic16f887.h"
   752                           SSPBUF equ 013h ;# 
   753  0013                     # 852 "C:\Program Files (x86)\Microchip\xc8\v2.00\pic\include\pic16f887.h"
   754                           SSPCON equ 014h ;# 
   755  0014                     # 922 "C:\Program Files (x86)\Microchip\xc8\v2.00\pic\include\pic16f887.h"
   756                           CCPR1 equ 015h ;# 
   757  0015                     # 929 "C:\Program Files (x86)\Microchip\xc8\v2.00\pic\include\pic16f887.h"
   758                           CCPR1L equ 015h ;# 
   759  0015                     # 936 "C:\Program Files (x86)\Microchip\xc8\v2.00\pic\include\pic16f887.h"
   760                           CCPR1H equ 016h ;# 
   761  0016                     # 943 "C:\Program Files (x86)\Microchip\xc8\v2.00\pic\include\pic16f887.h"
   762                           CCP1CON equ 017h ;# 
   763  0017                     # 1040 "C:\Program Files (x86)\Microchip\xc8\v2.00\pic\include\pic16f887.h"
   764                           RCSTA equ 018h ;# 
   765  0018                     # 1135 "C:\Program Files (x86)\Microchip\xc8\v2.00\pic\include\pic16f887.h"
   766                           TXREG equ 019h ;# 
   767  0019                     # 1142 "C:\Program Files (x86)\Microchip\xc8\v2.00\pic\include\pic16f887.h"
   768                           RCREG equ 01Ah ;# 
   769  001A                     # 1149 "C:\Program Files (x86)\Microchip\xc8\v2.00\pic\include\pic16f887.h"
   770                           CCPR2 equ 01Bh ;# 
   771  001B                     # 1156 "C:\Program Files (x86)\Microchip\xc8\v2.00\pic\include\pic16f887.h"
   772                           CCPR2L equ 01Bh ;# 
   773  001B                     # 1163 "C:\Program Files (x86)\Microchip\xc8\v2.00\pic\include\pic16f887.h"
   774                           CCPR2H equ 01Ch ;# 
   775  001C                     # 1170 "C:\Program Files (x86)\Microchip\xc8\v2.00\pic\include\pic16f887.h"
   776                           CCP2CON equ 01Dh ;# 
   777  001D                     # 1240 "C:\Program Files (x86)\Microchip\xc8\v2.00\pic\include\pic16f887.h"
   778                           ADRESH equ 01Eh ;# 
   779  001E                     # 1247 "C:\Program Files (x86)\Microchip\xc8\v2.00\pic\include\pic16f887.h"
   780                           ADCON0 equ 01Fh ;# 
   781  001F                     # 1348 "C:\Program Files (x86)\Microchip\xc8\v2.00\pic\include\pic16f887.h"
   782                           OPTION_REG equ 081h ;# 
   783  0081                     # 1418 "C:\Program Files (x86)\Microchip\xc8\v2.00\pic\include\pic16f887.h"
   784                           TRISA equ 085h ;# 
   785  0085                     # 1480 "C:\Program Files (x86)\Microchip\xc8\v2.00\pic\include\pic16f887.h"
   786                           TRISB equ 086h ;# 
   787  0086                     # 1542 "C:\Program Files (x86)\Microchip\xc8\v2.00\pic\include\pic16f887.h"
   788                           TRISC equ 087h ;# 
   789  0087                     # 1604 "C:\Program Files (x86)\Microchip\xc8\v2.00\pic\include\pic16f887.h"
   790                           TRISD equ 088h ;# 
   791  0088                     # 1666 "C:\Program Files (x86)\Microchip\xc8\v2.00\pic\include\pic16f887.h"
   792                           TRISE equ 089h ;# 
   793  0089                     # 1704 "C:\Program Files (x86)\Microchip\xc8\v2.00\pic\include\pic16f887.h"
   794                           PIE1 equ 08Ch ;# 
   795  008C                     # 1760 "C:\Program Files (x86)\Microchip\xc8\v2.00\pic\include\pic16f887.h"
   796                           PIE2 equ 08Dh ;# 
   797  008D                     # 1817 "C:\Program Files (x86)\Microchip\xc8\v2.00\pic\include\pic16f887.h"
   798                           PCON equ 08Eh ;# 
   799  008E                     # 1864 "C:\Program Files (x86)\Microchip\xc8\v2.00\pic\include\pic16f887.h"
   800                           OSCCON equ 08Fh ;# 
   801  008F                     # 1929 "C:\Program Files (x86)\Microchip\xc8\v2.00\pic\include\pic16f887.h"
   802                           OSCTUNE equ 090h ;# 
   803  0090                     # 1981 "C:\Program Files (x86)\Microchip\xc8\v2.00\pic\include\pic16f887.h"
   804                           SSPCON2 equ 091h ;# 
   805  0091                     # 2043 "C:\Program Files (x86)\Microchip\xc8\v2.00\pic\include\pic16f887.h"
   806                           PR2 equ 092h ;# 
   807  0092                     # 2050 "C:\Program Files (x86)\Microchip\xc8\v2.00\pic\include\pic16f887.h"
   808                           SSPADD equ 093h ;# 
   809  0093                     # 2057 "C:\Program Files (x86)\Microchip\xc8\v2.00\pic\include\pic16f887.h"
   810                           SSPMSK equ 093h ;# 
   811  0093                     # 2062 "C:\Program Files (x86)\Microchip\xc8\v2.00\pic\include\pic16f887.h"
   812                           MSK equ 093h ;# 
   813  0093                     # 2179 "C:\Program Files (x86)\Microchip\xc8\v2.00\pic\include\pic16f887.h"
   814                           SSPSTAT equ 094h ;# 
   815  0094                     # 2348 "C:\Program Files (x86)\Microchip\xc8\v2.00\pic\include\pic16f887.h"
   816                           WPUB equ 095h ;# 
   817  0095                     # 2418 "C:\Program Files (x86)\Microchip\xc8\v2.00\pic\include\pic16f887.h"
   818                           IOCB equ 096h ;# 
   819  0096                     # 2488 "C:\Program Files (x86)\Microchip\xc8\v2.00\pic\include\pic16f887.h"
   820                           VRCON equ 097h ;# 
   821  0097                     # 2558 "C:\Program Files (x86)\Microchip\xc8\v2.00\pic\include\pic16f887.h"
   822                           TXSTA equ 098h ;# 
   823  0098                     # 2644 "C:\Program Files (x86)\Microchip\xc8\v2.00\pic\include\pic16f887.h"
   824                           SPBRG equ 099h ;# 
   825  0099                     # 2706 "C:\Program Files (x86)\Microchip\xc8\v2.00\pic\include\pic16f887.h"
   826                           SPBRGH equ 09Ah ;# 
   827  009A                     # 2776 "C:\Program Files (x86)\Microchip\xc8\v2.00\pic\include\pic16f887.h"
   828                           PWM1CON equ 09Bh ;# 
   829  009B                     # 2846 "C:\Program Files (x86)\Microchip\xc8\v2.00\pic\include\pic16f887.h"
   830                           ECCPAS equ 09Ch ;# 
   831  009C                     # 2928 "C:\Program Files (x86)\Microchip\xc8\v2.00\pic\include\pic16f887.h"
   832                           PSTRCON equ 09Dh ;# 
   833  009D                     # 2972 "C:\Program Files (x86)\Microchip\xc8\v2.00\pic\include\pic16f887.h"
   834                           ADRESL equ 09Eh ;# 
   835  009E                     # 2979 "C:\Program Files (x86)\Microchip\xc8\v2.00\pic\include\pic16f887.h"
   836                           ADCON1 equ 09Fh ;# 
   837  009F                     # 3013 "C:\Program Files (x86)\Microchip\xc8\v2.00\pic\include\pic16f887.h"
   838                           WDTCON equ 0105h ;# 
   839  0105                     # 3066 "C:\Program Files (x86)\Microchip\xc8\v2.00\pic\include\pic16f887.h"
   840                           CM1CON0 equ 0107h ;# 
   841  0107                     # 3131 "C:\Program Files (x86)\Microchip\xc8\v2.00\pic\include\pic16f887.h"
   842                           CM2CON0 equ 0108h ;# 
   843  0108                     # 3196 "C:\Program Files (x86)\Microchip\xc8\v2.00\pic\include\pic16f887.h"
   844                           CM2CON1 equ 0109h ;# 
   845  0109                     # 3247 "C:\Program Files (x86)\Microchip\xc8\v2.00\pic\include\pic16f887.h"
   846                           EEDATA equ 010Ch ;# 
   847  010C                     # 3252 "C:\Program Files (x86)\Microchip\xc8\v2.00\pic\include\pic16f887.h"
   848                           EEDAT equ 010Ch ;# 
   849  010C                     # 3259 "C:\Program Files (x86)\Microchip\xc8\v2.00\pic\include\pic16f887.h"
   850                           EEADR equ 010Dh ;# 
   851  010D                     # 3266 "C:\Program Files (x86)\Microchip\xc8\v2.00\pic\include\pic16f887.h"
   852                           EEDATH equ 010Eh ;# 
   853  010E                     # 3273 "C:\Program Files (x86)\Microchip\xc8\v2.00\pic\include\pic16f887.h"
   854                           EEADRH equ 010Fh ;# 
   855  010F                     # 3280 "C:\Program Files (x86)\Microchip\xc8\v2.00\pic\include\pic16f887.h"
   856                           SRCON equ 0185h ;# 
   857  0185                     # 3337 "C:\Program Files (x86)\Microchip\xc8\v2.00\pic\include\pic16f887.h"
   858                           BAUDCTL equ 0187h ;# 
   859  0187                     # 3389 "C:\Program Files (x86)\Microchip\xc8\v2.00\pic\include\pic16f887.h"
   860                           ANSEL equ 0188h ;# 
   861  0188                     # 3451 "C:\Program Files (x86)\Microchip\xc8\v2.00\pic\include\pic16f887.h"
   862                           ANSELH equ 0189h ;# 
   863  0189                     # 3501 "C:\Program Files (x86)\Microchip\xc8\v2.00\pic\include\pic16f887.h"
   864                           EECON1 equ 018Ch ;# 
   865  018C                     # 3546 "C:\Program Files (x86)\Microchip\xc8\v2.00\pic\include\pic16f887.h"
   866                           EECON2 equ 018Dh ;# 
   867  018D                     	FNCALL	_main,_I2C_Master_Init
   868                           	FNCALL	_main,_Set_Time_Date
   869                           	FNCALL	_main,_Update_Current_Date_Time
   870                           	FNCALL	_main,_apagar_luces
   871                           	FNCALL	_main,_boton_lcd
   872                           	FNCALL	_main,_check_infrarrojo
   873                           	FNCALL	_main,_configInterrupciones
   874                           	FNCALL	_main,_configPorts
   875                           	FNCALL	_main,_initOsci8MHZ
   876                           	FNCALL	_main,_lcd_clear
   877                           	FNCALL	_main,_lcd_init
   878                           	FNCALL	_main,_lcd_set_cursor
   879                           	FNCALL	_main,_lcd_write_string
   880                           	FNCALL	_main,_primera_llamada
   881                           	FNCALL	_main,_segunda_llamada
   882                           	FNCALL	_main,_tercera_llamada
   883                           	FNCALL	_lcd_init,_lcd_cmd
   884                           	FNCALL	_lcd_init,_lcd_port
   885                           	FNCALL	_boton_lcd,_lcd_set_cursor
   886                           	FNCALL	_boton_lcd,_lcd_write_char
   887                           	FNCALL	_boton_lcd,_lcd_write_string
   888                           	FNCALL	_boton_lcd,_mostrar_lcd
   889                           	FNCALL	_boton_lcd,_separa_digitos_rtc
   890                           	FNCALL	_boton_lcd,_slave_1
   891                           	FNCALL	_boton_lcd,_slave_2
   892                           	FNCALL	_slave_2,_I2C_Master_Read
   893                           	FNCALL	_slave_2,_I2C_Master_Start
   894                           	FNCALL	_slave_2,_I2C_Master_Stop
   895                           	FNCALL	_slave_2,_I2C_Master_Write
   896                           	FNCALL	_slave_2,_lcd_clear
   897                           	FNCALL	_slave_2,_lcd_set_cursor
   898                           	FNCALL	_slave_2,_lcd_write_string
   899                           	FNCALL	_lcd_clear,_lcd_cmd
   900                           	FNCALL	_slave_1,_I2C_Master_Read
   901                           	FNCALL	_slave_1,_I2C_Master_Start
   902                           	FNCALL	_slave_1,_I2C_Master_Stop
   903                           	FNCALL	_slave_1,_I2C_Master_Write
   904                           	FNCALL	_slave_1,___xxtofl
   905                           	FNCALL	_slave_1,_b0
   906                           	FNCALL	_slave_1,_b1
   907                           	FNCALL	_slave_1,_b2
   908                           	FNCALL	_slave_1,_lcd_set_cursor
   909                           	FNCALL	_slave_1,_lcd_write_char
   910                           	FNCALL	_slave_1,_lcd_write_string
   911                           	FNCALL	_b2,___fldiv
   912                           	FNCALL	_b2,___fltol
   913                           	FNCALL	_b2,_num_case
   914                           	FNCALL	_b1,___awdiv
   915                           	FNCALL	_b1,___fladd
   916                           	FNCALL	_b1,___fldiv
   917                           	FNCALL	_b1,___flneg
   918                           	FNCALL	_b1,___fltol
   919                           	FNCALL	_b1,___wmul
   920                           	FNCALL	_b1,___xxtofl
   921                           	FNCALL	_b1,_num_case
   922                           	FNCALL	_b0,___awdiv
   923                           	FNCALL	_b0,___bmul
   924                           	FNCALL	_b0,___fladd
   925                           	FNCALL	_b0,___fldiv
   926                           	FNCALL	_b0,___flneg
   927                           	FNCALL	_b0,___fltol
   928                           	FNCALL	_b0,___wmul
   929                           	FNCALL	_b0,___xxtofl
   930                           	FNCALL	_b0,_num_case
   931                           	FNCALL	_separa_digitos_rtc,___awdiv
   932                           	FNCALL	_separa_digitos_rtc,___awmod
   933                           	FNCALL	_mostrar_lcd,_lcd_set_cursor
   934                           	FNCALL	_mostrar_lcd,_lcd_write_char
   935                           	FNCALL	_mostrar_lcd,_lcd_write_string
   936                           	FNCALL	_lcd_write_string,_lcd_write_char
   937                           	FNCALL	_lcd_write_char,_lcd_port
   938                           	FNCALL	_lcd_set_cursor,_lcd_cmd
   939                           	FNCALL	_lcd_cmd,_lcd_port
   940                           	FNCALL	_Update_Current_Date_Time,_BCD_2_DEC
   941                           	FNCALL	_Update_Current_Date_Time,_I2C_Master_Read
   942                           	FNCALL	_Update_Current_Date_Time,_I2C_Master_Start
   943                           	FNCALL	_Update_Current_Date_Time,_I2C_Master_Stop
   944                           	FNCALL	_Update_Current_Date_Time,_I2C_Master_Write
   945                           	FNCALL	_I2C_Master_Read,_I2C_Master_Wait
   946                           	FNCALL	_BCD_2_DEC,___wmul
   947                           	FNCALL	_Set_Time_Date,_DEC_2_BCD
   948                           	FNCALL	_Set_Time_Date,_I2C_Master_Start
   949                           	FNCALL	_Set_Time_Date,_I2C_Master_Stop
   950                           	FNCALL	_Set_Time_Date,_I2C_Master_Write
   951                           	FNCALL	_I2C_Master_Write,_I2C_Master_Wait
   952                           	FNCALL	_I2C_Master_Stop,_I2C_Master_Wait
   953                           	FNCALL	_I2C_Master_Start,_I2C_Master_Wait
   954                           	FNCALL	_DEC_2_BCD,___awdiv
   955                           	FNCALL	_DEC_2_BCD,___awmod
   956                           	FNCALL	_I2C_Master_Init,___lldiv
   957                           	FNROOT	_main
   958                           	FNCALL	_isr,i1_lcd_clear
   959                           	FNCALL	i1_lcd_clear,i1_lcd_cmd
   960                           	FNCALL	i1_lcd_cmd,i1_lcd_port
   961                           	FNCALL	intlevel1,_isr
   962                           	global	intlevel1
   963                           	FNROOT	intlevel1
   964                           	global	_hour
   965                           	global	_min
   966                           	global	_year
   967                           	global	_month
   968                           	global	_date
   969                           psect	idataCOMMON,class=CODE,space=0,delta=2,noexec
   970                           global __pidataCOMMON
   971                           __pidataCOMMON:
   972  07FB                     	file	"Proyecto1_master.c"
   973                           	line	86
   974                           
   975                           ;initializer for _hour
   976                           	retlw	0Ah
   977  07FB  340A               	retlw	0
   978  07FC  3400               
   979                           	line	85
   980                           
   981                           ;initializer for _min
   982                           	retlw	037h
   983  07FD  3437               	retlw	0
   984  07FE  3400               
   985                           psect	idataBANK1,class=CODE,space=0,delta=2,noexec
   986                           global __pidataBANK1
   987                           __pidataBANK1:
   988  12B5                     	line	90
   989                           
   990                           ;initializer for _year
   991                           	retlw	014h
   992  12B5  3414               	retlw	0
   993  12B6  3400               
   994                           	line	89
   995                           
   996                           ;initializer for _month
   997                           	retlw	02h
   998  12B7  3402               	retlw	0
   999  12B8  3400               
  1000                           	line	88
  1001                           
  1002                           ;initializer for _day
  1003                           	retlw	01h
  1004  12B9  3401               	retlw	0
  1005  12BA  3400               
  1006                           	line	87
  1007                           
  1008                           ;initializer for _date
  1009                           	retlw	018h
  1010  12BB  3418               	retlw	0
  1011  12BC  3400               
  1012                           	global	_sec_0
  1013                           	global	_sec
  1014                           	global	_s_temblor
  1015                           	global	_s_humo
  1016                           	global	_AR1
  1017                           	global	_sens
  1018                           	global	_sismo
  1019                           	global	_temperatura
  1020                           	global	_limpiar_lcd
  1021                           	global	_modo
  1022                           	global	_year_1
  1023                           	global	_year_0
  1024                           	global	_month_1
  1025                           	global	_month_0
  1026                           	global	_date_1
  1027                           	global	_date_0
  1028                           	global	_hour_1
  1029                           	global	_hour_0
  1030                           	global	_min_1
  1031                           	global	_min_0
  1032                           	global	_sec_1
  1033                           	global	_s1
  1034                           	global	_SSPBUF
  1035                           _SSPBUF	set	0x13
  1036  0013                     	global	_SSPCON
  1037                           _SSPCON	set	0x14
  1038  0014                     	global	_PORTDbits
  1039                           _PORTDbits	set	0x8
  1040  0008                     	global	_PORTB
  1041                           _PORTB	set	0x6
  1042  0006                     	global	_PORTE
  1043                           _PORTE	set	0x9
  1044  0009                     	global	_PORTD
  1045                           _PORTD	set	0x8
  1046  0008                     	global	_PORTA
  1047                           _PORTA	set	0x5
  1048  0005                     	global	_PORTBbits
  1049                           _PORTBbits	set	0x6
  1050  0006                     	global	_INTCONbits
  1051                           _INTCONbits	set	0xB
  1052  000B                     	global	_RD7
  1053                           _RD7	set	0x47
  1054  0047                     	global	_RB7
  1055                           _RB7	set	0x37
  1056  0037                     	global	_RA7
  1057                           _RA7	set	0x2F
  1058  002F                     	global	_RA6
  1059                           _RA6	set	0x2E
  1060  002E                     	global	_RA5
  1061                           _RA5	set	0x2D
  1062  002D                     	global	_RA4
  1063                           _RA4	set	0x2C
  1064  002C                     	global	_RA3
  1065                           _RA3	set	0x2B
  1066  002B                     	global	_RA2
  1067                           _RA2	set	0x2A
  1068  002A                     	global	_RA1
  1069                           _RA1	set	0x29
  1070  0029                     	global	_RA0
  1071                           _RA0	set	0x28
  1072  0028                     	global	_SSPIF
  1073                           _SSPIF	set	0x63
  1074  0063                     	global	_PEIE
  1075                           _PEIE	set	0x5E
  1076  005E                     	global	_GIE
  1077                           _GIE	set	0x5F
  1078  005F                     	global	_SSPCON2bits
  1079                           _SSPCON2bits	set	0x91
  1080  0091                     	global	_TRISCbits
  1081                           _TRISCbits	set	0x87
  1082  0087                     	global	_SSPSTAT
  1083                           _SSPSTAT	set	0x94
  1084  0094                     	global	_SSPADD
  1085                           _SSPADD	set	0x93
  1086  0093                     	global	_SSPCON2
  1087                           _SSPCON2	set	0x91
  1088  0091                     	global	_OSCCONbits
  1089                           _OSCCONbits	set	0x8F
  1090  008F                     	global	_IOCBbits
  1091                           _IOCBbits	set	0x96
  1092  0096                     	global	_TRISB
  1093                           _TRISB	set	0x86
  1094  0086                     	global	_TRISE
  1095                           _TRISE	set	0x89
  1096  0089                     	global	_TRISD
  1097                           _TRISD	set	0x88
  1098  0088                     	global	_TRISA
  1099                           _TRISA	set	0x85
  1100  0085                     	global	_SSPIE
  1101                           _SSPIE	set	0x463
  1102  0463                     	global	_TRISC4
  1103                           _TRISC4	set	0x43C
  1104  043C                     	global	_TRISC3
  1105                           _TRISC3	set	0x43B
  1106  043B                     	global	_ANSELH
  1107                           _ANSELH	set	0x189
  1108  0189                     	global	_ANSEL
  1109                           _ANSEL	set	0x188
  1110  0188                     psect	strings,class=STRING,delta=2,noexec
  1111                           global __pstrings
  1112                           __pstrings:
  1113  1000                     stringtab:
  1114  1000                     	global    __stringtab
  1115                           __stringtab:
  1116  1000                     ;	String table - string pointers are 1 byte each
  1117                           	btfsc	(btemp+1),7
  1118  1000  1BFF               	ljmp	stringcode
  1119  1001  280A               	bcf	status,7
  1120  1002  1383               	btfsc	(btemp+1),0
  1121  1003  187F               	bsf	status,7
  1122  1004  1783               	movf	indf,w
  1123  1005  0800               	incf fsr
  1124  1006  0A84               skipnz
  1125  1007  1903               incf btemp+1
  1126  1008  0AFF               	return
  1127  1009  0008               stringcode:stringdir:
  1128  100A                     movlw high(stringdir)
      + 100A                     stringdir:	
  1129  100A  3010               movwf pclath
  1130  100B  008A               movf fsr,w
  1131  100C  0804               incf fsr
  1132  100D  0A84               	addwf pc
  1133  100E  0782               	global __stringbase
  1134                           __stringbase:
  1135  100F                     	retlw	0
  1136  100F  3400               psect	strings
  1137                           	global    __end_of__stringtab
  1138                           __end_of__stringtab:
  1139  1010                     	
  1140                           STR_14:	
  1141  1010                     	retlw	69	;'E'
  1142  1010  3445               	retlw	115	;'s'
  1143  1011  3473               	retlw	116	;'t'
  1144  1012  3474               	retlw	97	;'a'
  1145  1013  3461               	retlw	32	;' '
  1146  1014  3420               	retlw	116	;'t'
  1147  1015  3474               	retlw	101	;'e'
  1148  1016  3465               	retlw	109	;'m'
  1149  1017  346D               	retlw	98	;'b'
  1150  1018  3462               	retlw	108	;'l'
  1151  1019  346C               	retlw	97	;'a'
  1152  101A  3461               	retlw	110	;'n'
  1153  101B  346E               	retlw	100	;'d'
  1154  101C  3464               	retlw	111	;'o'
  1155  101D  346F               	retlw	33	;'!'
  1156  101E  3421               	retlw	0
  1157  101F  3400               psect	strings
  1158                           	
  1159                           STR_15:	
  1160  1020                     	retlw	84	;'T'
  1161  1020  3454               	retlw	114	;'r'
  1162  1021  3472               	retlw	97	;'a'
  1163  1022  3461               	retlw	110	;'n'
  1164  1023  346E               	retlw	113	;'q'
  1165  1024  3471               	retlw	117	;'u'
  1166  1025  3475               	retlw	105	;'i'
  1167  1026  3469               	retlw	108	;'l'
  1168  1027  346C               	retlw	111	;'o'
  1169  1028  346F               	retlw	32	;' '
  1170  1029  3420               	retlw	112	;'p'
  1171  102A  3470               	retlw	114	;'r'
  1172  102B  3472               	retlw	114	;'r'
  1173  102C  3472               	retlw	111	;'o'
  1174  102D  346F               	retlw	0
  1175  102E  3400               psect	strings
  1176                           	
  1177                           STR_6:	
  1178  102F                     	retlw	84	;'T'
  1179  102F  3454               	retlw	101	;'e'
  1180  1030  3465               	retlw	109	;'m'
  1181  1031  346D               	retlw	112	;'p'
  1182  1032  3470               	retlw	101	;'e'
  1183  1033  3465               	retlw	114	;'r'
  1184  1034  3472               	retlw	97	;'a'
  1185  1035  3461               	retlw	116	;'t'
  1186  1036  3474               	retlw	117	;'u'
  1187  1037  3475               	retlw	114	;'r'
  1188  1038  3472               	retlw	97	;'a'
  1189  1039  3461               	retlw	58	;':'
  1190  103A  343A               	retlw	0
  1191  103B  3400               psect	strings
  1192                           	
  1193                           STR_5:	
  1194  103C                     	retlw	67	;'C'
  1195  103C  3443               	retlw	111	;'o'
  1196  103D  346F               	retlw	110	;'n'
  1197  103E  346E               	retlw	116	;'t'
  1198  103F  3474               	retlw	97	;'a'
  1199  1040  3461               	retlw	100	;'d'
  1200  1041  3464               	retlw	111	;'o'
  1201  1042  346F               	retlw	114	;'r'
  1202  1043  3472               	retlw	58	;':'
  1203  1044  343A               	retlw	0
  1204  1045  3400               psect	strings
  1205                           	
  1206                           STR_7:	
  1207  1046                     	retlw	84	;'T'
  1208  1046  3454               	retlw	101	;'e'
  1209  1047  3465               	retlw	109	;'m'
  1210  1048  346D               	retlw	98	;'b'
  1211  1049  3462               	retlw	108	;'l'
  1212  104A  346C               	retlw	111	;'o'
  1213  104B  346F               	retlw	114	;'r'
  1214  104C  3472               	retlw	58	;':'
  1215  104D  343A               	retlw	0
  1216  104E  3400               psect	strings
  1217                           	
  1218                           STR_1:	
  1219  104F                     	retlw	70	;'F'
  1220  104F  3446               	retlw	101	;'e'
  1221  1050  3465               	retlw	99	;'c'
  1222  1051  3463               	retlw	104	;'h'
  1223  1052  3468               	retlw	97	;'a'
  1224  1053  3461               	retlw	58	;':'
  1225  1054  343A               	retlw	0
  1226  1055  3400               psect	strings
  1227                           	
  1228                           STR_2:	
  1229  1056                     	retlw	72	;'H'
  1230  1056  3448               	retlw	111	;'o'
  1231  1057  346F               	retlw	114	;'r'
  1232  1058  3472               	retlw	97	;'a'
  1233  1059  3461               	retlw	58	;':'
  1234  105A  343A               	retlw	0
  1235  105B  3400               psect	strings
  1236                           	
  1237                           STR_8:	
  1238  105C                     	retlw	72	;'H'
  1239  105C  3448               	retlw	117	;'u'
  1240  105D  3475               	retlw	109	;'m'
  1241  105E  346D               	retlw	111	;'o'
  1242  105F  346F               	retlw	58	;':'
  1243  1060  343A               	retlw	0
  1244  1061  3400               psect	strings
  1245                           	
  1246                           STR_9:	
  1247  1062                     	retlw	47	;'/'
  1248  1062  342F               	retlw	0
  1249  1063  3400               psect	strings
  1250                           	
  1251                           STR_13:	
  1252  1064                     	retlw	67	;'C'
  1253  1064  3443               	retlw	0
  1254  1065  3400               psect	strings
  1255                           STR_4	equ	STR_2+0
  1256  1056                     STR_3	equ	STR_1+0
  1257  104F                     STR_11	equ	STR_1+5
  1258  1054                     STR_12	equ	STR_1+5
  1259  1054                     STR_10	equ	STR_9+0
  1260  1062                     ; #config settings
  1261                           global __CFG_FOSC$INTRC_NOCLKOUT
  1262                           __CFG_FOSC$INTRC_NOCLKOUT equ 0x0
  1263  0000                     global __CFG_WDTE$OFF
  1264                           __CFG_WDTE$OFF equ 0x0
  1265  0000                     global __CFG_PWRTE$OFF
  1266                           __CFG_PWRTE$OFF equ 0x0
  1267  0000                     global __CFG_MCLRE$OFF
  1268                           __CFG_MCLRE$OFF equ 0x0
  1269  0000                     global __CFG_CP$OFF
  1270                           __CFG_CP$OFF equ 0x0
  1271  0000                     global __CFG_CPD$OFF
  1272                           __CFG_CPD$OFF equ 0x0
  1273  0000                     global __CFG_BOREN$OFF
  1274                           __CFG_BOREN$OFF equ 0x0
  1275  0000                     global __CFG_IESO$OFF
  1276                           __CFG_IESO$OFF equ 0x0
  1277  0000                     global __CFG_FCMEN$OFF
  1278                           __CFG_FCMEN$OFF equ 0x0
  1279  0000                     global __CFG_LVP$OFF
  1280                           __CFG_LVP$OFF equ 0x0
  1281  0000                     global __CFG_BOR4V$BOR40V
  1282                           __CFG_BOR4V$BOR40V equ 0x0
  1283  0000                     global __CFG_WRT$OFF
  1284                           __CFG_WRT$OFF equ 0x0
  1285  0000                     	file	"C:\Users\JOSPEL~1\AppData\Local\Temp\s6ho."
  1286                           	line	#
  1287                           psect cinit,class=CODE,delta=2
  1288                           global start_initialization
  1289                           start_initialization:
  1290  000F                     
  1291                           global __initialization
  1292                           __initialization:
  1293  000F                     psect	bssCOMMON,class=COMMON,space=1,noexec
  1294                           global __pbssCOMMON
  1295                           __pbssCOMMON:
  1296  007D                     _sec_0:
  1297  007D                            ds      1
  1298  007D                     
  1299                           psect	dataCOMMON,class=COMMON,space=1,noexec
  1300                           global __pdataCOMMON
  1301                           __pdataCOMMON:
  1302  0079                     	file	"Proyecto1_master.c"
  1303                           	line	86
  1304                           _hour:
  1305  0079                            ds      2
  1306  0079                     
  1307                           psect	dataCOMMON
  1308                           	file	"Proyecto1_master.c"
  1309                           	line	85
  1310                           _min:
  1311  007B                            ds      2
  1312  007B                     
  1313                           psect	bssBANK0,class=BANK0,space=1,noexec
  1314                           global __pbssBANK0
  1315                           __pbssBANK0:
  1316  006E                     _sec:
  1317  006E                            ds      2
  1318  006E                     
  1319                           psect	bssBANK1,class=BANK1,space=1,noexec
  1320                           global __pbssBANK1
  1321                           __pbssBANK1:
  1322  00A0                     _pot:
  1323  00A0                            ds      4
  1324  00A0                     
  1325                           _s_temblor:
  1326  00A4                            ds      1
  1327  00A4                     
  1328                           _s_humo:
  1329  00A5                            ds      1
  1330  00A5                     
  1331                           _s_temperatura:
  1332  00A6                            ds      1
  1333  00A6                     
  1334                           _AR1:
  1335  00A7                            ds      1
  1336  00A7                     
  1337                           _sens:
  1338  00A8                            ds      1
  1339  00A8                     
  1340                           _sismo:
  1341  00A9                            ds      1
  1342  00A9                     
  1343                           _temperatura:
  1344  00AA                            ds      1
  1345  00AA                     
  1346                           _limpiar_lcd:
  1347  00AB                            ds      1
  1348  00AB                     
  1349                           _modo:
  1350  00AC                            ds      1
  1351  00AC                     
  1352                           _year_1:
  1353  00AD                            ds      1
  1354  00AD                     
  1355                           _year_0:
  1356  00AE                            ds      1
  1357  00AE                     
  1358                           _month_1:
  1359  00AF                            ds      1
  1360  00AF                     
  1361                           _month_0:
  1362  00B0                            ds      1
  1363  00B0                     
  1364                           _date_1:
  1365  00B1                            ds      1
  1366  00B1                     
  1367                           _date_0:
  1368  00B2                            ds      1
  1369  00B2                     
  1370                           _hour_1:
  1371  00B3                            ds      1
  1372  00B3                     
  1373                           _hour_0:
  1374  00B4                            ds      1
  1375  00B4                     
  1376                           _min_1:
  1377  00B5                            ds      1
  1378  00B5                     
  1379                           _min_0:
  1380  00B6                            ds      1
  1381  00B6                     
  1382                           _sec_1:
  1383  00B7                            ds      1
  1384  00B7                     
  1385                           _s1:
  1386  00B8                            ds      5
  1387  00B8                     
  1388                           psect	dataBANK1,class=BANK1,space=1,noexec
  1389                           global __pdataBANK1
  1390                           __pdataBANK1:
  1391  00BD                     	file	"Proyecto1_master.c"
  1392                           	line	90
  1393                           _year:
  1394  00BD                            ds      2
  1395  00BD                     
  1396                           psect	dataBANK1
  1397                           	file	"Proyecto1_master.c"
  1398                           	line	89
  1399                           _month:
  1400  00BF                            ds      2
  1401  00BF                     
  1402                           psect	dataBANK1
  1403                           	file	"Proyecto1_master.c"
  1404                           	line	88
  1405                           _day:
  1406  00C1                            ds      2
  1407  00C1                     
  1408                           psect	dataBANK1
  1409                           	file	"Proyecto1_master.c"
  1410                           	line	87
  1411                           _date:
  1412  00C3                            ds      2
  1413  00C3                     
  1414                           	file	"C:\Users\JOSPEL~1\AppData\Local\Temp\s6ho."
  1415                           	line	#
  1416                           global btemp
  1417                           psect inittext,class=CODE,delta=2
  1418                           global init_fetch0,btemp
  1419                           ;	Called with low address in FSR and high address in W
  1420                           init_fetch0:
  1421  130A                     	movf btemp,w
  1422  130A  087E               	movwf pclath
  1423  130B  008A               	movf btemp+1,w
  1424  130C  087F               	movwf pc
  1425  130D  0082               global init_ram0
  1426                           ;Called with:
  1427                           ;	high address of idata address in btemp 
  1428                           ;	low address of idata address in btemp+1 
  1429                           ;	low address of data in FSR
  1430                           ;	high address + 1 of data in btemp-1
  1431                           init_ram0:
  1432  130E                     	fcall init_fetch0
  1433  130E  160A  118A  230A  160A  118A  	movwf indf,f
  1434  1313  0080               	incf fsr,f
  1435  1314  0A84               	movf fsr,w
  1436  1315  0804               	xorwf btemp-1,w
  1437  1316  067D               	btfsc status,2
  1438  1317  1903               	retlw 0
  1439  1318  3400               	incf btemp+1,f
  1440  1319  0AFF               	btfsc status,2
  1441  131A  1903               	incf btemp,f
  1442  131B  0AFE               	goto init_ram0
  1443  131C  2B0E               ; Initialize objects allocated to BANK1
  1444                           psect cinit,class=CODE,delta=2,merge=1
  1445                           global init_ram0, __pidataBANK1
  1446                           	bcf	status, 7	;select IRP bank0
  1447  000F  1383               	movlw low(__pdataBANK1+8)
  1448  0010  30C5               	movwf btemp-1,f
  1449  0011  00FD               	movlw high(__pidataBANK1)
  1450  0012  3012               	movwf btemp,f
  1451  0013  00FE               	movlw low(__pidataBANK1)
  1452  0014  30B5               	movwf btemp+1,f
  1453  0015  00FF               	movlw low(__pdataBANK1)
  1454  0016  30BD               	movwf fsr,f
  1455  0017  0084               	fcall init_ram0
  1456  0018  160A  118A  230E  120A  118A  ; Initialize objects allocated to COMMON
  1457                           	global __pidataCOMMON
  1458                           psect cinit,class=CODE,delta=2,merge=1
  1459                           	fcall	__pidataCOMMON+0		;fetch initializer
  1460  001D  120A  118A  27FB  120A  118A  	movwf	__pdataCOMMON+0&07fh		
  1461  0022  00F9               	fcall	__pidataCOMMON+1		;fetch initializer
  1462  0023  120A  118A  27FC  120A  118A  	movwf	__pdataCOMMON+1&07fh		
  1463  0028  00FA               	fcall	__pidataCOMMON+2		;fetch initializer
  1464  0029  120A  118A  27FD  120A  118A  	movwf	__pdataCOMMON+2&07fh		
  1465  002E  00FB               	fcall	__pidataCOMMON+3		;fetch initializer
  1466  002F  120A  118A  27FE  120A  118A  	movwf	__pdataCOMMON+3&07fh		
  1467  0034  00FC               	line	#
  1468                           psect clrtext,class=CODE,delta=2
  1469                           global clear_ram0
  1470                           ;	Called with FSR containing the base address, and
  1471                           ;	W with the last address+1
  1472                           clear_ram0:
  1473  12AD                     	clrwdt			;clear the watchdog before getting into this loop
  1474  12AD  0064               clrloop0:
  1475  12AE                     	clrf	indf		;clear RAM location pointed to by FSR
  1476  12AE  0180               	incf	fsr,f		;increment pointer
  1477  12AF  0A84               	xorwf	fsr,w		;XOR with final address
  1478  12B0  0604               	btfsc	status,2	;have we reached the end yet?
  1479  12B1  1903               	retlw	0		;all done for this memory range, return
  1480  12B2  3400               	xorwf	fsr,w		;XOR again to restore value
  1481  12B3  0604               	goto	clrloop0		;do the next byte
  1482  12B4  2AAE               
  1483                           ; Clear objects allocated to BANK1
  1484                           psect cinit,class=CODE,delta=2,merge=1
  1485                           	movlw	low(__pbssBANK1)
  1486  0035  30A0               	movwf	fsr
  1487  0036  0084               	movlw	low((__pbssBANK1)+01Dh)
  1488  0037  30BD               	fcall	clear_ram0
  1489  0038  160A  118A  22AD  120A  118A  ; Clear objects allocated to BANK0
  1490                           psect cinit,class=CODE,delta=2,merge=1
  1491                           	clrf	((__pbssBANK0)+0)&07Fh
  1492  003D  01EE               	clrf	((__pbssBANK0)+1)&07Fh
  1493  003E  01EF               ; Clear objects allocated to COMMON
  1494                           psect cinit,class=CODE,delta=2,merge=1
  1495                           	clrf	((__pbssCOMMON)+0)&07Fh
  1496  003F  01FD               psect cinit,class=CODE,delta=2,merge=1
  1497                           global end_of_initialization,__end_of__initialization
  1498                           
  1499                           ;End of C runtime variable initialization code
  1500                           
  1501                           end_of_initialization:
  1502  0040                     __end_of__initialization:
  1503  0040                     clrf status
  1504  0040  0183               ljmp _main	;jump to C main() function
  1505  0041  120A  158A  29B0   psect	cstackBANK1,class=BANK1,space=1,noexec
  1506                           global __pcstackBANK1
  1507                           __pcstackBANK1:
  1508  00C5                     	global	_slave_1$1187
  1509                           _slave_1$1187:	; 4 bytes @ 0x0
  1510  00C5                     	ds	4
  1511  00C5                     	global	_slave_1$1188
  1512                           _slave_1$1188:	; 4 bytes @ 0x4
  1513  00C9                     	ds	4
  1514  00C9                     psect	cstackCOMMON,class=COMMON,space=1,noexec
  1515                           global __pcstackCOMMON
  1516                           __pcstackCOMMON:
  1517  0070                     ?_lcd_clear:	; 1 bytes @ 0x0
  1518  0070                     ?_initOsci8MHZ:	; 1 bytes @ 0x0
  1519  0070                     ?_configPorts:	; 1 bytes @ 0x0
  1520  0070                     ?_configInterrupciones:	; 1 bytes @ 0x0
  1521  0070                     ?_lcd_init:	; 1 bytes @ 0x0
  1522  0070                     ?_Set_Time_Date:	; 1 bytes @ 0x0
  1523  0070                     ?_Update_Current_Date_Time:	; 1 bytes @ 0x0
  1524  0070                     ?_boton_lcd:	; 1 bytes @ 0x0
  1525  0070                     ?_apagar_luces:	; 1 bytes @ 0x0
  1526  0070                     ?_check_infrarrojo:	; 1 bytes @ 0x0
  1527  0070                     ?_separa_digitos_rtc:	; 1 bytes @ 0x0
  1528  0070                     ?_mostrar_lcd:	; 1 bytes @ 0x0
  1529  0070                     ?_lcd_write_char:	; 1 bytes @ 0x0
  1530  0070                     ?_slave_1:	; 1 bytes @ 0x0
  1531  0070                     ?_slave_2:	; 1 bytes @ 0x0
  1532  0070                     ?_I2C_Master_Start:	; 1 bytes @ 0x0
  1533  0070                     ?_I2C_Master_Stop:	; 1 bytes @ 0x0
  1534  0070                     ?_isr:	; 1 bytes @ 0x0
  1535  0070                     ?_main:	; 1 bytes @ 0x0
  1536  0070                     ?_num_case:	; 1 bytes @ 0x0
  1537  0070                     ?_I2C_Master_Wait:	; 1 bytes @ 0x0
  1538  0070                     ?_lcd_port:	; 1 bytes @ 0x0
  1539  0070                     ?_lcd_cmd:	; 1 bytes @ 0x0
  1540  0070                     ?i1_lcd_port:	; 1 bytes @ 0x0
  1541  0070                     ??i1_lcd_port:	; 1 bytes @ 0x0
  1542  0070                     ?i1_lcd_cmd:	; 1 bytes @ 0x0
  1543  0070                     ?i1_lcd_clear:	; 1 bytes @ 0x0
  1544  0070                     	global	i1lcd_port@a
  1545                           i1lcd_port@a:	; 1 bytes @ 0x0
  1546  0070                     	ds	1
  1547  0070                     ??i1_lcd_cmd:	; 1 bytes @ 0x1
  1548  0071                     	ds	2
  1549  0071                     	global	i1lcd_cmd@a
  1550                           i1lcd_cmd@a:	; 1 bytes @ 0x3
  1551  0073                     	ds	1
  1552  0073                     ??_isr:	; 1 bytes @ 0x4
  1553  0074                     ??i1_lcd_clear:	; 1 bytes @ 0x4
  1554  0074                     	ds	5
  1555  0074                     psect	cstackBANK0,class=BANK0,space=1,noexec
  1556                           global __pcstackBANK0
  1557                           __pcstackBANK0:
  1558  0020                     ??_initOsci8MHZ:	; 1 bytes @ 0x0
  1559  0020                     ??_configPorts:	; 1 bytes @ 0x0
  1560  0020                     ??_configInterrupciones:	; 1 bytes @ 0x0
  1561  0020                     ?_primera_llamada:	; 1 bytes @ 0x0
  1562  0020                     ?_segunda_llamada:	; 1 bytes @ 0x0
  1563  0020                     ?_tercera_llamada:	; 1 bytes @ 0x0
  1564  0020                     ??_apagar_luces:	; 1 bytes @ 0x0
  1565  0020                     ??_check_infrarrojo:	; 1 bytes @ 0x0
  1566  0020                     ??_I2C_Master_Start:	; 1 bytes @ 0x0
  1567  0020                     ??_I2C_Master_Stop:	; 1 bytes @ 0x0
  1568  0020                     ??_num_case:	; 1 bytes @ 0x0
  1569  0020                     ??_I2C_Master_Wait:	; 1 bytes @ 0x0
  1570  0020                     ??_lcd_port:	; 1 bytes @ 0x0
  1571  0020                     ?___bmul:	; 1 bytes @ 0x0
  1572  0020                     	global	?_I2C_Master_Read
  1573                           ?_I2C_Master_Read:	; 2 bytes @ 0x0
  1574  0020                     	global	?___wmul
  1575                           ?___wmul:	; 2 bytes @ 0x0
  1576  0020                     	global	?___awdiv
  1577                           ?___awdiv:	; 2 bytes @ 0x0
  1578  0020                     	global	?___awmod
  1579                           ?___awmod:	; 2 bytes @ 0x0
  1580  0020                     	global	?___lldiv
  1581                           ?___lldiv:	; 4 bytes @ 0x0
  1582  0020                     	global	?___fldiv
  1583                           ?___fldiv:	; 4 bytes @ 0x0
  1584  0020                     	global	primera_llamada@m
  1585                           primera_llamada@m:	; 1 bytes @ 0x0
  1586  0020                     	global	segunda_llamada@m
  1587                           segunda_llamada@m:	; 1 bytes @ 0x0
  1588  0020                     	global	tercera_llamada@m
  1589                           tercera_llamada@m:	; 1 bytes @ 0x0
  1590  0020                     	global	lcd_port@a
  1591                           lcd_port@a:	; 1 bytes @ 0x0
  1592  0020                     	global	___bmul@multiplicand
  1593                           ___bmul@multiplicand:	; 1 bytes @ 0x0
  1594  0020                     	global	I2C_Master_Read@a
  1595                           I2C_Master_Read@a:	; 2 bytes @ 0x0
  1596  0020                     	global	___wmul@multiplier
  1597                           ___wmul@multiplier:	; 2 bytes @ 0x0
  1598  0020                     	global	___awdiv@divisor
  1599                           ___awdiv@divisor:	; 2 bytes @ 0x0
  1600  0020                     	global	___awmod@divisor
  1601                           ___awmod@divisor:	; 2 bytes @ 0x0
  1602  0020                     	global	___lldiv@divisor
  1603                           ___lldiv@divisor:	; 4 bytes @ 0x0
  1604  0020                     	global	___fldiv@a
  1605                           ___fldiv@a:	; 4 bytes @ 0x0
  1606  0020                     	ds	1
  1607  0020                     ??_lcd_write_char:	; 1 bytes @ 0x1
  1608  0021                     ??_lcd_cmd:	; 1 bytes @ 0x1
  1609  0021                     ??___bmul:	; 1 bytes @ 0x1
  1610  0021                     	global	primera_llamada@s
  1611                           primera_llamada@s:	; 1 bytes @ 0x1
  1612  0021                     	global	segunda_llamada@s
  1613                           segunda_llamada@s:	; 1 bytes @ 0x1
  1614  0021                     	global	tercera_llamada@s
  1615                           tercera_llamada@s:	; 1 bytes @ 0x1
  1616  0021                     	ds	1
  1617  0021                     ??_primera_llamada:	; 1 bytes @ 0x2
  1618  0022                     ??_segunda_llamada:	; 1 bytes @ 0x2
  1619  0022                     ??_tercera_llamada:	; 1 bytes @ 0x2
  1620  0022                     ??_I2C_Master_Read:	; 1 bytes @ 0x2
  1621  0022                     	global	apagar_luces@t
  1622                           apagar_luces@t:	; 1 bytes @ 0x2
  1623  0022                     	global	num_case@num
  1624                           num_case@num:	; 1 bytes @ 0x2
  1625  0022                     	global	___bmul@product
  1626                           ___bmul@product:	; 1 bytes @ 0x2
  1627  0022                     	global	___wmul@multiplicand
  1628                           ___wmul@multiplicand:	; 2 bytes @ 0x2
  1629  0022                     	global	___awdiv@dividend
  1630                           ___awdiv@dividend:	; 2 bytes @ 0x2
  1631  0022                     	global	___awmod@dividend
  1632                           ___awmod@dividend:	; 2 bytes @ 0x2
  1633  0022                     	ds	1
  1634  0022                     	global	num_case@r
  1635                           num_case@r:	; 1 bytes @ 0x3
  1636  0023                     	global	lcd_cmd@a
  1637                           lcd_cmd@a:	; 1 bytes @ 0x3
  1638  0023                     	global	lcd_write_char@a
  1639                           lcd_write_char@a:	; 1 bytes @ 0x3
  1640  0023                     	global	___bmul@multiplier
  1641                           ___bmul@multiplier:	; 1 bytes @ 0x3
  1642  0023                     	ds	1
  1643  0023                     ??_lcd_clear:	; 1 bytes @ 0x4
  1644  0024                     ??_lcd_init:	; 1 bytes @ 0x4
  1645  0024                     ?_lcd_write_string:	; 1 bytes @ 0x4
  1646  0024                     ?_lcd_set_cursor:	; 1 bytes @ 0x4
  1647  0024                     ??___wmul:	; 1 bytes @ 0x4
  1648  0024                     ??___awdiv:	; 1 bytes @ 0x4
  1649  0024                     ??___awmod:	; 1 bytes @ 0x4
  1650  0024                     	global	primera_llamada@h
  1651                           primera_llamada@h:	; 1 bytes @ 0x4
  1652  0024                     	global	segunda_llamada@h
  1653                           segunda_llamada@h:	; 1 bytes @ 0x4
  1654  0024                     	global	tercera_llamada@h
  1655                           tercera_llamada@h:	; 1 bytes @ 0x4
  1656  0024                     	global	lcd_set_cursor@b
  1657                           lcd_set_cursor@b:	; 1 bytes @ 0x4
  1658  0024                     	global	I2C_Master_Read@temp
  1659                           I2C_Master_Read@temp:	; 2 bytes @ 0x4
  1660  0024                     	global	lcd_write_string@a
  1661                           lcd_write_string@a:	; 2 bytes @ 0x4
  1662  0024                     	global	___wmul@product
  1663                           ___wmul@product:	; 2 bytes @ 0x4
  1664  0024                     	global	___lldiv@dividend
  1665                           ___lldiv@dividend:	; 4 bytes @ 0x4
  1666  0024                     	global	___fldiv@b
  1667                           ___fldiv@b:	; 4 bytes @ 0x4
  1668  0024                     	ds	1
  1669  0024                     ??_lcd_set_cursor:	; 1 bytes @ 0x5
  1670  0025                     	global	lcd_set_cursor@a
  1671                           lcd_set_cursor@a:	; 1 bytes @ 0x5
  1672  0025                     	global	___awdiv@counter
  1673                           ___awdiv@counter:	; 1 bytes @ 0x5
  1674  0025                     	global	___awmod@counter
  1675                           ___awmod@counter:	; 1 bytes @ 0x5
  1676  0025                     	ds	1
  1677  0025                     ??_lcd_write_string:	; 1 bytes @ 0x6
  1678  0026                     	global	?_BCD_2_DEC
  1679                           ?_BCD_2_DEC:	; 2 bytes @ 0x6
  1680  0026                     	global	?___xxtofl
  1681                           ?___xxtofl:	; 4 bytes @ 0x6
  1682  0026                     	global	___awdiv@sign
  1683                           ___awdiv@sign:	; 1 bytes @ 0x6
  1684  0026                     	global	___awmod@sign
  1685                           ___awmod@sign:	; 1 bytes @ 0x6
  1686  0026                     	global	BCD_2_DEC@to_convert
  1687                           BCD_2_DEC@to_convert:	; 2 bytes @ 0x6
  1688  0026                     	global	___xxtofl@val
  1689                           ___xxtofl@val:	; 4 bytes @ 0x6
  1690  0026                     	ds	1
  1691  0026                     	global	___awdiv@quotient
  1692                           ___awdiv@quotient:	; 2 bytes @ 0x7
  1693  0027                     	ds	1
  1694  0027                     ??_BCD_2_DEC:	; 1 bytes @ 0x8
  1695  0028                     ??___lldiv:	; 1 bytes @ 0x8
  1696  0028                     ??___fldiv:	; 1 bytes @ 0x8
  1697  0028                     	ds	1
  1698  0028                     ??_separa_digitos_rtc:	; 1 bytes @ 0x9
  1699  0029                     	global	?_DEC_2_BCD
  1700                           ?_DEC_2_BCD:	; 2 bytes @ 0x9
  1701  0029                     	global	DEC_2_BCD@to_convert
  1702                           DEC_2_BCD@to_convert:	; 2 bytes @ 0x9
  1703  0029                     	global	lcd_write_string@i
  1704                           lcd_write_string@i:	; 2 bytes @ 0x9
  1705  0029                     	global	___lldiv@quotient
  1706                           ___lldiv@quotient:	; 4 bytes @ 0x9
  1707  0029                     	ds	1
  1708  0029                     ??___xxtofl:	; 1 bytes @ 0xA
  1709  002A                     	ds	1
  1710  002A                     ??_mostrar_lcd:	; 1 bytes @ 0xB
  1711  002B                     ??_DEC_2_BCD:	; 1 bytes @ 0xB
  1712  002B                     	ds	2
  1713  002B                     ?_I2C_Master_Write:	; 1 bytes @ 0xD
  1714  002D                     	global	___lldiv@counter
  1715                           ___lldiv@counter:	; 1 bytes @ 0xD
  1716  002D                     	global	I2C_Master_Write@d
  1717                           I2C_Master_Write@d:	; 2 bytes @ 0xD
  1718  002D                     	global	___fldiv@rem
  1719                           ___fldiv@rem:	; 4 bytes @ 0xD
  1720  002D                     	ds	1
  1721  002D                     ?_I2C_Master_Init:	; 1 bytes @ 0xE
  1722  002E                     	global	___xxtofl@sign
  1723                           ___xxtofl@sign:	; 1 bytes @ 0xE
  1724  002E                     	global	I2C_Master_Init@c
  1725                           I2C_Master_Init@c:	; 4 bytes @ 0xE
  1726  002E                     	ds	1
  1727  002E                     ??_Set_Time_Date:	; 1 bytes @ 0xF
  1728  002F                     ??_Update_Current_Date_Time:	; 1 bytes @ 0xF
  1729  002F                     ??_slave_2:	; 1 bytes @ 0xF
  1730  002F                     ??_I2C_Master_Write:	; 1 bytes @ 0xF
  1731  002F                     	global	___xxtofl@exp
  1732                           ___xxtofl@exp:	; 1 bytes @ 0xF
  1733  002F                     	ds	1
  1734  002F                     	global	___xxtofl@arg
  1735                           ___xxtofl@arg:	; 4 bytes @ 0x10
  1736  0030                     	ds	1
  1737  0030                     	global	___fldiv@sign
  1738                           ___fldiv@sign:	; 1 bytes @ 0x11
  1739  0031                     	ds	1
  1740  0031                     ??_I2C_Master_Init:	; 1 bytes @ 0x12
  1741  0032                     	global	___fldiv@new_exp
  1742                           ___fldiv@new_exp:	; 2 bytes @ 0x12
  1743  0032                     	ds	2
  1744  0032                     	global	?___flneg
  1745                           ?___flneg:	; 4 bytes @ 0x14
  1746  0034                     	global	___flneg@f1
  1747                           ___flneg@f1:	; 4 bytes @ 0x14
  1748  0034                     	global	___fldiv@grs
  1749                           ___fldiv@grs:	; 4 bytes @ 0x14
  1750  0034                     	ds	4
  1751  0034                     ??___flneg:	; 1 bytes @ 0x18
  1752  0038                     	global	?___fladd
  1753                           ?___fladd:	; 4 bytes @ 0x18
  1754  0038                     	global	___fldiv@bexp
  1755                           ___fldiv@bexp:	; 1 bytes @ 0x18
  1756  0038                     	global	___fladd@b
  1757                           ___fladd@b:	; 4 bytes @ 0x18
  1758  0038                     	ds	1
  1759  0038                     	global	___fldiv@aexp
  1760                           ___fldiv@aexp:	; 1 bytes @ 0x19
  1761  0039                     	ds	3
  1762  0039                     	global	___fladd@a
  1763                           ___fladd@a:	; 4 bytes @ 0x1C
  1764  003C                     	ds	4
  1765  003C                     ??___fladd:	; 1 bytes @ 0x20
  1766  0040                     	ds	12
  1767  0040                     	global	___fladd@signs
  1768                           ___fladd@signs:	; 1 bytes @ 0x2C
  1769  004C                     	ds	1
  1770  004C                     	global	___fladd@aexp
  1771                           ___fladd@aexp:	; 1 bytes @ 0x2D
  1772  004D                     	ds	1
  1773  004D                     	global	___fladd@bexp
  1774                           ___fladd@bexp:	; 1 bytes @ 0x2E
  1775  004E                     	ds	1
  1776  004E                     	global	___fladd@grs
  1777                           ___fladd@grs:	; 1 bytes @ 0x2F
  1778  004F                     	ds	1
  1779  004F                     	global	?___fltol
  1780                           ?___fltol:	; 4 bytes @ 0x30
  1781  0050                     	global	___fltol@f1
  1782                           ___fltol@f1:	; 4 bytes @ 0x30
  1783  0050                     	ds	4
  1784  0050                     ??___fltol:	; 1 bytes @ 0x34
  1785  0054                     	ds	5
  1786  0054                     	global	___fltol@sign1
  1787                           ___fltol@sign1:	; 1 bytes @ 0x39
  1788  0059                     	ds	1
  1789  0059                     	global	___fltol@exp1
  1790                           ___fltol@exp1:	; 1 bytes @ 0x3A
  1791  005A                     	ds	1
  1792  005A                     ?_b0:	; 1 bytes @ 0x3B
  1793  005B                     ?_b1:	; 1 bytes @ 0x3B
  1794  005B                     ?_b2:	; 1 bytes @ 0x3B
  1795  005B                     	global	b2@m
  1796                           b2@m:	; 4 bytes @ 0x3B
  1797  005B                     	global	b1@m
  1798                           b1@m:	; 4 bytes @ 0x3B
  1799  005B                     	global	b0@m
  1800                           b0@m:	; 4 bytes @ 0x3B
  1801  005B                     	ds	4
  1802  005B                     ??_b0:	; 1 bytes @ 0x3F
  1803  005F                     ??_b1:	; 1 bytes @ 0x3F
  1804  005F                     ??_b2:	; 1 bytes @ 0x3F
  1805  005F                     	ds	1
  1806  005F                     	global	b2@bb2
  1807                           b2@bb2:	; 1 bytes @ 0x40
  1808  0060                     	ds	1
  1809  0060                     	global	b2@p2
  1810                           b2@p2:	; 1 bytes @ 0x41
  1811  0061                     	ds	1
  1812  0061                     	global	b1@bb2
  1813                           b1@bb2:	; 1 bytes @ 0x42
  1814  0062                     	global	b0@bb2
  1815                           b0@bb2:	; 1 bytes @ 0x42
  1816  0062                     	ds	1
  1817  0062                     	global	b1@bb1
  1818                           b1@bb1:	; 1 bytes @ 0x43
  1819  0063                     	global	b0@bb1
  1820                           b0@bb1:	; 1 bytes @ 0x43
  1821  0063                     	ds	1
  1822  0063                     	global	b1@local
  1823                           b1@local:	; 1 bytes @ 0x44
  1824  0064                     	global	b0@bb0
  1825                           b0@bb0:	; 1 bytes @ 0x44
  1826  0064                     	ds	1
  1827  0064                     	global	b1@p1
  1828                           b1@p1:	; 1 bytes @ 0x45
  1829  0065                     	global	b0@p0
  1830                           b0@p0:	; 1 bytes @ 0x45
  1831  0065                     	ds	1
  1832  0065                     	global	b0@local
  1833                           b0@local:	; 1 bytes @ 0x46
  1834  0066                     	ds	1
  1835  0066                     ??_slave_1:	; 1 bytes @ 0x47
  1836  0067                     	ds	5
  1837  0067                     ??_boton_lcd:	; 1 bytes @ 0x4C
  1838  006C                     ??_main:	; 1 bytes @ 0x4C
  1839  006C                     	ds	2
  1840  006C                     ;!
  1841                           ;!Data Sizes:
  1842                           ;!    Strings     86
  1843                           ;!    Constant    0
  1844                           ;!    Data        12
  1845                           ;!    BSS         32
  1846                           ;!    Persistent  0
  1847                           ;!    Stack       0
  1848                           ;!
  1849                           ;!Auto Spaces:
  1850                           ;!    Space          Size  Autos    Used
  1851                           ;!    COMMON           14      9      14
  1852                           ;!    BANK0            80     78      80
  1853                           ;!    BANK1            80      8      45
  1854                           ;!    BANK3            96      0       0
  1855                           ;!    BANK2            96      0       0
  1856                           
  1857                           ;!
  1858                           ;!Pointer List with Targets:
  1859                           ;!
  1860                           ;!    lcd_write_string@a	PTR unsigned char  size(2) Largest target is 16
  1861                           ;!		 -> STR_15(CODE[15]), STR_14(CODE[16]), STR_13(CODE[2]), s1(BANK1[5]), 
  1862                           ;!		 -> STR_12(CODE[2]), STR_11(CODE[2]), STR_10(CODE[2]), STR_9(CODE[2]), 
  1863                           ;!		 -> STR_8(CODE[6]), STR_7(CODE[9]), STR_6(CODE[13]), STR_5(CODE[10]), 
  1864                           ;!		 -> STR_4(CODE[6]), STR_3(CODE[7]), STR_2(CODE[6]), STR_1(CODE[7]), 
  1865                           ;!
  1866                           
  1867                           
  1868                           ;!
  1869                           ;!Critical Paths under _main in COMMON
  1870                           ;!
  1871                           ;!    None.
  1872                           ;!
  1873                           ;!Critical Paths under _isr in COMMON
  1874                           ;!
  1875                           ;!    i1_lcd_clear->i1_lcd_cmd
  1876                           ;!    i1_lcd_cmd->i1_lcd_port
  1877                           ;!
  1878                           ;!Critical Paths under _main in BANK0
  1879                           ;!
  1880                           ;!    _lcd_init->_lcd_cmd
  1881                           ;!    _boton_lcd->_slave_1
  1882                           ;!    _slave_2->_I2C_Master_Write
  1883                           ;!    _lcd_clear->_lcd_cmd
  1884                           ;!    _slave_1->_b0
  1885                           ;!    _b2->___fltol
  1886                           ;!    _b1->___fltol
  1887                           ;!    _b0->___fltol
  1888                           ;!    ___xxtofl->___wmul
  1889                           ;!    ___fltol->___fladd
  1890                           ;!    ___flneg->___xxtofl
  1891                           ;!    ___fladd->___flneg
  1892                           ;!    _separa_digitos_rtc->___awdiv
  1893                           ;!    _mostrar_lcd->_lcd_write_string
  1894                           ;!    _lcd_write_string->_lcd_write_char
  1895                           ;!    _lcd_write_char->_lcd_port
  1896                           ;!    _lcd_set_cursor->_lcd_cmd
  1897                           ;!    _lcd_cmd->_lcd_port
  1898                           ;!    _Update_Current_Date_Time->_I2C_Master_Write
  1899                           ;!    _BCD_2_DEC->_I2C_Master_Read
  1900                           ;!    _BCD_2_DEC->___wmul
  1901                           ;!    _Set_Time_Date->_I2C_Master_Write
  1902                           ;!    _I2C_Master_Write->_DEC_2_BCD
  1903                           ;!    _DEC_2_BCD->___awdiv
  1904                           ;!    _I2C_Master_Init->___lldiv
  1905                           ;!
  1906                           ;!Critical Paths under _isr in BANK0
  1907                           ;!
  1908                           ;!    None.
  1909                           ;!
  1910                           ;!Critical Paths under _main in BANK1
  1911                           ;!
  1912                           ;!    _boton_lcd->_slave_1
  1913                           ;!
  1914                           ;!Critical Paths under _isr in BANK1
  1915                           ;!
  1916                           ;!    None.
  1917                           ;!
  1918                           ;!Critical Paths under _main in BANK3
  1919                           ;!
  1920                           ;!    None.
  1921                           ;!
  1922                           ;!Critical Paths under _isr in BANK3
  1923                           ;!
  1924                           ;!    None.
  1925                           ;!
  1926                           ;!Critical Paths under _main in BANK2
  1927                           ;!
  1928                           ;!    None.
  1929                           ;!
  1930                           ;!Critical Paths under _isr in BANK2
  1931                           ;!
  1932                           ;!    None.
  1933                           
  1934 ;;
  1935 ;;Main: autosize = 0, tempsize = 2, incstack = 0, save=0
  1936 ;;
  1937                           
  1938                           ;!
  1939                           ;!Call Graph Tables:
  1940                           ;!
  1941                           ;! ---------------------------------------------------------------------------------
  1942                           ;! (Depth) Function   	        Calls       Base Space   Used Autos Params    Refs
  1943                           ;! ---------------------------------------------------------------------------------
  1944                           ;! (0) _main                                                 2     2      0   52140
  1945                           ;!                                             76 BANK0      2     2      0
  1946                           ;!                    _I2C_Master_Init
  1947                           ;!                      _Set_Time_Date
  1948                           ;!           _Update_Current_Date_Time
  1949                           ;!                       _apagar_luces
  1950                           ;!                          _boton_lcd
  1951                           ;!                   _check_infrarrojo
  1952                           ;!               _configInterrupciones
  1953                           ;!                        _configPorts
  1954                           ;!                       _initOsci8MHZ
  1955                           ;!                          _lcd_clear
  1956                           ;!                           _lcd_init
  1957                           ;!                     _lcd_set_cursor
  1958                           ;!                   _lcd_write_string
  1959                           ;!                    _primera_llamada
  1960                           ;!                    _segunda_llamada
  1961                           ;!                    _tercera_llamada
  1962                           ;! ---------------------------------------------------------------------------------
  1963                           ;! (1) _tercera_llamada                                      5     3      2     218
  1964                           ;!                                              0 BANK0      5     3      2
  1965                           ;! ---------------------------------------------------------------------------------
  1966                           ;! (1) _segunda_llamada                                      5     3      2     218
  1967                           ;!                                              0 BANK0      5     3      2
  1968                           ;! ---------------------------------------------------------------------------------
  1969                           ;! (1) _primera_llamada                                      5     3      2     218
  1970                           ;!                                              0 BANK0      5     3      2
  1971                           ;! ---------------------------------------------------------------------------------
  1972                           ;! (1) _lcd_init                                             2     2      0     374
  1973                           ;!                                              4 BANK0      2     2      0
  1974                           ;!                            _lcd_cmd
  1975                           ;!                           _lcd_port
  1976                           ;! ---------------------------------------------------------------------------------
  1977                           ;! (1) _initOsci8MHZ                                         0     0      0       0
  1978                           ;! ---------------------------------------------------------------------------------
  1979                           ;! (1) _configPorts                                          0     0      0       0
  1980                           ;! ---------------------------------------------------------------------------------
  1981                           ;! (1) _configInterrupciones                                 0     0      0       0
  1982                           ;! ---------------------------------------------------------------------------------
  1983                           ;! (1) _check_infrarrojo                                     2     2      0       0
  1984                           ;!                                              0 BANK0      2     2      0
  1985                           ;! ---------------------------------------------------------------------------------
  1986                           ;! (1) _boton_lcd                                            0     0      0   39085
  1987                           ;!                     _lcd_set_cursor
  1988                           ;!                     _lcd_write_char
  1989                           ;!                   _lcd_write_string
  1990                           ;!                        _mostrar_lcd
  1991                           ;!                 _separa_digitos_rtc
  1992                           ;!                            _slave_1
  1993                           ;!                            _slave_2
  1994                           ;! ---------------------------------------------------------------------------------
  1995                           ;! (2) _slave_2                                              3     3      0    5399
  1996                           ;!                                             15 BANK0      3     3      0
  1997                           ;!                    _I2C_Master_Read
  1998                           ;!                   _I2C_Master_Start
  1999                           ;!                    _I2C_Master_Stop
  2000                           ;!                   _I2C_Master_Write
  2001                           ;!                          _lcd_clear
  2002                           ;!                     _lcd_set_cursor
  2003                           ;!                   _lcd_write_string
  2004                           ;! ---------------------------------------------------------------------------------
  2005                           ;! (1) _lcd_clear                                            0     0      0     198
  2006                           ;!                            _lcd_cmd
  2007                           ;! ---------------------------------------------------------------------------------
  2008                           ;! (2) _slave_1                                             13    13      0   24706
  2009                           ;!                                             71 BANK0      5     5      0
  2010                           ;!                                              0 BANK1      8     8      0
  2011                           ;!                    _I2C_Master_Read
  2012                           ;!                   _I2C_Master_Start
  2013                           ;!                    _I2C_Master_Stop
  2014                           ;!                   _I2C_Master_Write
  2015                           ;!                           ___xxtofl
  2016                           ;!                                 _b0
  2017                           ;!                                 _b1
  2018                           ;!                                 _b2
  2019                           ;!                     _lcd_set_cursor
  2020                           ;!                     _lcd_write_char
  2021                           ;!                   _lcd_write_string
  2022                           ;! ---------------------------------------------------------------------------------
  2023                           ;! (3) _b2                                                  11     7      4    2384
  2024                           ;!                                             59 BANK0      7     3      4
  2025                           ;!                            ___fldiv
  2026                           ;!                            ___fltol
  2027                           ;!                           ___xxtofl (ARG)
  2028                           ;!                           _num_case
  2029                           ;! ---------------------------------------------------------------------------------
  2030                           ;! (3) _b1                                                  11     7      4    7981
  2031                           ;!                                             59 BANK0     11     7      4
  2032                           ;!                            ___awdiv
  2033                           ;!                            ___fladd
  2034                           ;!                            ___fldiv
  2035                           ;!                            ___flneg
  2036                           ;!                            ___fltol
  2037                           ;!                             ___wmul
  2038                           ;!                           ___xxtofl
  2039                           ;!                           _num_case
  2040                           ;! ---------------------------------------------------------------------------------
  2041                           ;! (3) _b0                                                  12     8      4    8194
  2042                           ;!                                             59 BANK0     12     8      4
  2043                           ;!                            ___awdiv
  2044                           ;!                             ___bmul
  2045                           ;!                            ___fladd
  2046                           ;!                            ___fldiv
  2047                           ;!                            ___flneg
  2048                           ;!                            ___fltol
  2049                           ;!                             ___wmul
  2050                           ;!                           ___xxtofl
  2051                           ;!                           _num_case
  2052                           ;! ---------------------------------------------------------------------------------
  2053                           ;! (4) _num_case                                             4     4      0      54
  2054                           ;!                                              0 BANK0      4     4      0
  2055                           ;! ---------------------------------------------------------------------------------
  2056                           ;! (4) ___xxtofl                                            14    10      4     702
  2057                           ;!                                              6 BANK0     14    10      4
  2058                           ;!                             ___wmul (ARG)
  2059                           ;! ---------------------------------------------------------------------------------
  2060                           ;! (4) ___fltol                                             11     7      4     609
  2061                           ;!                                             48 BANK0     11     7      4
  2062                           ;!                            ___fladd (ARG)
  2063                           ;!                            ___fldiv (ARG)
  2064                           ;!                            ___flneg (ARG)
  2065                           ;!                             ___wmul (ARG)
  2066                           ;!                           ___xxtofl (ARG)
  2067                           ;! ---------------------------------------------------------------------------------
  2068                           ;! (4) ___flneg                                              4     0      4     197
  2069                           ;!                                             20 BANK0      4     0      4
  2070                           ;!                             ___wmul (ARG)
  2071                           ;!                           ___xxtofl (ARG)
  2072                           ;! ---------------------------------------------------------------------------------
  2073                           ;! (4) ___fldiv                                             26    18      8    1577
  2074                           ;!                                              0 BANK0     26    18      8
  2075                           ;! ---------------------------------------------------------------------------------
  2076                           ;! (4) ___fladd                                             24    16      8    2414
  2077                           ;!                                             24 BANK0     24    16      8
  2078                           ;!                            ___flneg (ARG)
  2079                           ;!                             ___wmul (ARG)
  2080                           ;!                           ___xxtofl (ARG)
  2081                           ;! ---------------------------------------------------------------------------------
  2082                           ;! (4) ___bmul                                               4     3      1     168
  2083                           ;!                                              0 BANK0      4     3      1
  2084                           ;! ---------------------------------------------------------------------------------
  2085                           ;! (2) _separa_digitos_rtc                                   1     1      0    3028
  2086                           ;!                                              9 BANK0      1     1      0
  2087                           ;!                            ___awdiv
  2088                           ;!                            ___awmod
  2089                           ;! ---------------------------------------------------------------------------------
  2090                           ;! (2) _mostrar_lcd                                          1     1      0    2976
  2091                           ;!                                             11 BANK0      1     1      0
  2092                           ;!                     _lcd_set_cursor
  2093                           ;!                     _lcd_write_char
  2094                           ;!                   _lcd_write_string
  2095                           ;! ---------------------------------------------------------------------------------
  2096                           ;! (1) _lcd_write_string                                     7     5      2    1504
  2097                           ;!                                              4 BANK0      7     5      2
  2098                           ;!                     _lcd_write_char
  2099                           ;! ---------------------------------------------------------------------------------
  2100                           ;! (2) _lcd_write_char                                       3     3      0     198
  2101                           ;!                                              1 BANK0      3     3      0
  2102                           ;!                           _lcd_port
  2103                           ;! ---------------------------------------------------------------------------------
  2104                           ;! (1) _lcd_set_cursor                                       2     1      1    1274
  2105                           ;!                                              4 BANK0      2     1      1
  2106                           ;!                            _lcd_cmd
  2107                           ;! ---------------------------------------------------------------------------------
  2108                           ;! (2) _lcd_cmd                                              3     3      0     198
  2109                           ;!                                              1 BANK0      3     3      0
  2110                           ;!                           _lcd_port
  2111                           ;! ---------------------------------------------------------------------------------
  2112                           ;! (3) _lcd_port                                             1     1      0     176
  2113                           ;!                                              0 BANK0      1     1      0
  2114                           ;! ---------------------------------------------------------------------------------
  2115                           ;! (1) _apagar_luces                                         3     3      0      22
  2116                           ;!                                              0 BANK0      3     3      0
  2117                           ;! ---------------------------------------------------------------------------------
  2118                           ;! (1) _Update_Current_Date_Time                             0     0      0    3471
  2119                           ;!                          _BCD_2_DEC
  2120                           ;!                    _I2C_Master_Read
  2121                           ;!                   _I2C_Master_Start
  2122                           ;!                    _I2C_Master_Stop
  2123                           ;!                   _I2C_Master_Write
  2124                           ;! ---------------------------------------------------------------------------------
  2125                           ;! (3) _I2C_Master_Read                                      6     4      2     805
  2126                           ;!                                              0 BANK0      6     4      2
  2127                           ;!                    _I2C_Master_Wait
  2128                           ;! ---------------------------------------------------------------------------------
  2129                           ;! (2) _BCD_2_DEC                                            4     2      2    1048
  2130                           ;!                                              6 BANK0      4     2      2
  2131                           ;!                    _I2C_Master_Read (ARG)
  2132                           ;!                             ___wmul
  2133                           ;! ---------------------------------------------------------------------------------
  2134                           ;! (4) ___wmul                                               6     2      4     548
  2135                           ;!                                              0 BANK0      6     2      4
  2136                           ;! ---------------------------------------------------------------------------------
  2137                           ;! (1) _Set_Time_Date                                        0     0      0    5146
  2138                           ;!                          _DEC_2_BCD
  2139                           ;!                   _I2C_Master_Start
  2140                           ;!                    _I2C_Master_Stop
  2141                           ;!                   _I2C_Master_Write
  2142                           ;! ---------------------------------------------------------------------------------
  2143                           ;! (3) _I2C_Master_Write                                     2     0      2    1618
  2144                           ;!                                             13 BANK0      2     0      2
  2145                           ;!                          _DEC_2_BCD (ARG)
  2146                           ;!                    _I2C_Master_Wait
  2147                           ;! ---------------------------------------------------------------------------------
  2148                           ;! (3) _I2C_Master_Stop                                      0     0      0       0
  2149                           ;!                    _I2C_Master_Wait
  2150                           ;! ---------------------------------------------------------------------------------
  2151                           ;! (3) _I2C_Master_Start                                     0     0      0       0
  2152                           ;!                    _I2C_Master_Wait
  2153                           ;! ---------------------------------------------------------------------------------
  2154                           ;! (4) _I2C_Master_Wait                                      0     0      0       0
  2155                           ;! ---------------------------------------------------------------------------------
  2156                           ;! (2) _DEC_2_BCD                                            4     2      2    3528
  2157                           ;!                                              9 BANK0      4     2      2
  2158                           ;!                            ___awdiv
  2159                           ;!                            ___awmod
  2160                           ;! ---------------------------------------------------------------------------------
  2161                           ;! (3) ___awmod                                              7     3      4    1360
  2162                           ;!                                              0 BANK0      7     3      4
  2163                           ;! ---------------------------------------------------------------------------------
  2164                           ;! (4) ___awdiv                                              9     5      4    1668
  2165                           ;!                                              0 BANK0      9     5      4
  2166                           ;! ---------------------------------------------------------------------------------
  2167                           ;! (1) _I2C_Master_Init                                      8     4      4     412
  2168                           ;!                                             14 BANK0      8     4      4
  2169                           ;!                            ___lldiv
  2170                           ;! ---------------------------------------------------------------------------------
  2171                           ;! (2) ___lldiv                                             14     6      8     314
  2172                           ;!                                              0 BANK0     14     6      8
  2173                           ;! ---------------------------------------------------------------------------------
  2174                           ;! Estimated maximum stack depth 4
  2175                           ;! ---------------------------------------------------------------------------------
  2176                           ;! (Depth) Function   	        Calls       Base Space   Used Autos Params    Refs
  2177                           ;! ---------------------------------------------------------------------------------
  2178                           ;! (6) _isr                                                  5     5      0     198
  2179                           ;!                                              4 COMMON     5     5      0
  2180                           ;!                        i1_lcd_clear
  2181                           ;! ---------------------------------------------------------------------------------
  2182                           ;! (7) i1_lcd_clear                                          0     0      0     198
  2183                           ;!                          i1_lcd_cmd
  2184                           ;! ---------------------------------------------------------------------------------
  2185                           ;! (8) i1_lcd_cmd                                            3     3      0     198
  2186                           ;!                                              1 COMMON     3     3      0
  2187                           ;!                         i1_lcd_port
  2188                           ;! ---------------------------------------------------------------------------------
  2189                           ;! (9) i1_lcd_port                                           1     1      0     176
  2190                           ;!                                              0 COMMON     1     1      0
  2191                           ;! ---------------------------------------------------------------------------------
  2192                           ;! Estimated maximum stack depth 9
  2193                           ;! ---------------------------------------------------------------------------------
  2194                           ;!
  2195                           ;! Call Graph Graphs:
  2196                           ;!
  2197                           ;! _main (ROOT)
  2198                           ;!   _I2C_Master_Init
  2199                           ;!     ___lldiv
  2200                           ;!   _Set_Time_Date
  2201                           ;!     _DEC_2_BCD
  2202                           ;!       ___awdiv
  2203                           ;!       ___awmod
  2204                           ;!     _I2C_Master_Start
  2205                           ;!       _I2C_Master_Wait
  2206                           ;!     _I2C_Master_Stop
  2207                           ;!       _I2C_Master_Wait
  2208                           ;!     _I2C_Master_Write
  2209                           ;!       _DEC_2_BCD (ARG)
  2210                           ;!         ___awdiv
  2211                           ;!         ___awmod
  2212                           ;!       _I2C_Master_Wait (ARG)
  2213                           ;!   _Update_Current_Date_Time
  2214                           ;!     _BCD_2_DEC
  2215                           ;!       _I2C_Master_Read (ARG)
  2216                           ;!         _I2C_Master_Wait
  2217                           ;!       ___wmul (ARG)
  2218                           ;!     _I2C_Master_Read
  2219                           ;!       _I2C_Master_Wait
  2220                           ;!     _I2C_Master_Start
  2221                           ;!       _I2C_Master_Wait
  2222                           ;!     _I2C_Master_Stop
  2223                           ;!       _I2C_Master_Wait
  2224                           ;!     _I2C_Master_Write
  2225                           ;!       _DEC_2_BCD (ARG)
  2226                           ;!         ___awdiv
  2227                           ;!         ___awmod
  2228                           ;!       _I2C_Master_Wait (ARG)
  2229                           ;!   _apagar_luces
  2230                           ;!   _boton_lcd
  2231                           ;!     _lcd_set_cursor
  2232                           ;!       _lcd_cmd
  2233                           ;!         _lcd_port
  2234                           ;!     _lcd_write_char
  2235                           ;!       _lcd_port
  2236                           ;!     _lcd_write_string
  2237                           ;!       _lcd_write_char
  2238                           ;!         _lcd_port
  2239                           ;!     _mostrar_lcd
  2240                           ;!       _lcd_set_cursor
  2241                           ;!         _lcd_cmd
  2242                           ;!           _lcd_port
  2243                           ;!       _lcd_write_char
  2244                           ;!         _lcd_port
  2245                           ;!       _lcd_write_string
  2246                           ;!         _lcd_write_char
  2247                           ;!           _lcd_port
  2248                           ;!     _separa_digitos_rtc
  2249                           ;!       ___awdiv
  2250                           ;!       ___awmod
  2251                           ;!     _slave_1
  2252                           ;!       _I2C_Master_Read
  2253                           ;!         _I2C_Master_Wait
  2254                           ;!       _I2C_Master_Start
  2255                           ;!         _I2C_Master_Wait
  2256                           ;!       _I2C_Master_Stop
  2257                           ;!         _I2C_Master_Wait
  2258                           ;!       _I2C_Master_Write
  2259                           ;!         _DEC_2_BCD (ARG)
  2260                           ;!           ___awdiv
  2261                           ;!           ___awmod
  2262                           ;!         _I2C_Master_Wait (ARG)
  2263                           ;!       ___xxtofl
  2264                           ;!         ___wmul (ARG)
  2265                           ;!       _b0
  2266                           ;!         ___awdiv
  2267                           ;!         ___bmul
  2268                           ;!         ___fladd
  2269                           ;!           ___flneg (ARG)
  2270                           ;!             ___wmul (ARG)
  2271                           ;!             ___xxtofl (ARG)
  2272                           ;!               ___wmul (ARG)
  2273                           ;!           ___wmul (ARG)
  2274                           ;!           ___xxtofl (ARG)
  2275                           ;!             ___wmul (ARG)
  2276                           ;!         ___fldiv
  2277                           ;!         ___flneg
  2278                           ;!           ___wmul (ARG)
  2279                           ;!           ___xxtofl (ARG)
  2280                           ;!             ___wmul (ARG)
  2281                           ;!         ___fltol
  2282                           ;!           ___fladd (ARG)
  2283                           ;!             ___flneg (ARG)
  2284                           ;!               ___wmul (ARG)
  2285                           ;!               ___xxtofl (ARG)
  2286                           ;!                 ___wmul (ARG)
  2287                           ;!             ___wmul (ARG)
  2288                           ;!             ___xxtofl (ARG)
  2289                           ;!               ___wmul (ARG)
  2290                           ;!           ___fldiv (ARG)
  2291                           ;!           ___flneg (ARG)
  2292                           ;!             ___wmul (ARG)
  2293                           ;!             ___xxtofl (ARG)
  2294                           ;!               ___wmul (ARG)
  2295                           ;!           ___wmul (ARG)
  2296                           ;!           ___xxtofl (ARG)
  2297                           ;!             ___wmul (ARG)
  2298                           ;!         ___wmul
  2299                           ;!         ___xxtofl
  2300                           ;!           ___wmul (ARG)
  2301                           ;!         _num_case
  2302                           ;!       _b1
  2303                           ;!         ___awdiv
  2304                           ;!         ___fladd
  2305                           ;!           ___flneg (ARG)
  2306                           ;!             ___wmul (ARG)
  2307                           ;!             ___xxtofl (ARG)
  2308                           ;!               ___wmul (ARG)
  2309                           ;!           ___wmul (ARG)
  2310                           ;!           ___xxtofl (ARG)
  2311                           ;!             ___wmul (ARG)
  2312                           ;!         ___fldiv
  2313                           ;!         ___flneg
  2314                           ;!           ___wmul (ARG)
  2315                           ;!           ___xxtofl (ARG)
  2316                           ;!             ___wmul (ARG)
  2317                           ;!         ___fltol
  2318                           ;!           ___fladd (ARG)
  2319                           ;!             ___flneg (ARG)
  2320                           ;!               ___wmul (ARG)
  2321                           ;!               ___xxtofl (ARG)
  2322                           ;!                 ___wmul (ARG)
  2323                           ;!             ___wmul (ARG)
  2324                           ;!             ___xxtofl (ARG)
  2325                           ;!               ___wmul (ARG)
  2326                           ;!           ___fldiv (ARG)
  2327                           ;!           ___flneg (ARG)
  2328                           ;!             ___wmul (ARG)
  2329                           ;!             ___xxtofl (ARG)
  2330                           ;!               ___wmul (ARG)
  2331                           ;!           ___wmul (ARG)
  2332                           ;!           ___xxtofl (ARG)
  2333                           ;!             ___wmul (ARG)
  2334                           ;!         ___wmul
  2335                           ;!         ___xxtofl
  2336                           ;!           ___wmul (ARG)
  2337                           ;!         _num_case
  2338                           ;!       _b2
  2339                           ;!         ___fldiv
  2340                           ;!         ___fltol
  2341                           ;!           ___fladd (ARG)
  2342                           ;!             ___flneg (ARG)
  2343                           ;!               ___wmul (ARG)
  2344                           ;!               ___xxtofl (ARG)
  2345                           ;!                 ___wmul (ARG)
  2346                           ;!             ___wmul (ARG)
  2347                           ;!             ___xxtofl (ARG)
  2348                           ;!               ___wmul (ARG)
  2349                           ;!           ___fldiv (ARG)
  2350                           ;!           ___flneg (ARG)
  2351                           ;!             ___wmul (ARG)
  2352                           ;!             ___xxtofl (ARG)
  2353                           ;!               ___wmul (ARG)
  2354                           ;!           ___wmul (ARG)
  2355                           ;!           ___xxtofl (ARG)
  2356                           ;!             ___wmul (ARG)
  2357                           ;!         ___xxtofl (ARG)
  2358                           ;!           ___wmul (ARG)
  2359                           ;!         _num_case (ARG)
  2360                           ;!       _lcd_set_cursor
  2361                           ;!         _lcd_cmd
  2362                           ;!           _lcd_port
  2363                           ;!       _lcd_write_char
  2364                           ;!         _lcd_port
  2365                           ;!       _lcd_write_string
  2366                           ;!         _lcd_write_char
  2367                           ;!           _lcd_port
  2368                           ;!     _slave_2
  2369                           ;!       _I2C_Master_Read
  2370                           ;!         _I2C_Master_Wait
  2371                           ;!       _I2C_Master_Start
  2372                           ;!         _I2C_Master_Wait
  2373                           ;!       _I2C_Master_Stop
  2374                           ;!         _I2C_Master_Wait
  2375                           ;!       _I2C_Master_Write
  2376                           ;!         _DEC_2_BCD (ARG)
  2377                           ;!           ___awdiv
  2378                           ;!           ___awmod
  2379                           ;!         _I2C_Master_Wait (ARG)
  2380                           ;!       _lcd_clear
  2381                           ;!         _lcd_cmd
  2382                           ;!           _lcd_port
  2383                           ;!       _lcd_set_cursor
  2384                           ;!         _lcd_cmd
  2385                           ;!           _lcd_port
  2386                           ;!       _lcd_write_string
  2387                           ;!         _lcd_write_char
  2388                           ;!           _lcd_port
  2389                           ;!   _check_infrarrojo
  2390                           ;!   _configInterrupciones
  2391                           ;!   _configPorts
  2392                           ;!   _initOsci8MHZ
  2393                           ;!   _lcd_clear
  2394                           ;!     _lcd_cmd
  2395                           ;!       _lcd_port
  2396                           ;!   _lcd_init
  2397                           ;!     _lcd_cmd
  2398                           ;!       _lcd_port
  2399                           ;!     _lcd_port
  2400                           ;!   _lcd_set_cursor
  2401                           ;!     _lcd_cmd
  2402                           ;!       _lcd_port
  2403                           ;!   _lcd_write_string
  2404                           ;!     _lcd_write_char
  2405                           ;!       _lcd_port
  2406                           ;!   _primera_llamada
  2407                           ;!   _segunda_llamada
  2408                           ;!   _tercera_llamada
  2409                           ;!
  2410                           ;! _isr (ROOT)
  2411                           ;!   i1_lcd_clear
  2412                           ;!     i1_lcd_cmd
  2413                           ;!       i1_lcd_port
  2414                           ;!
  2415                           
  2416                           ;! Address spaces:
  2417                           
  2418                           ;!Name               Size   Autos  Total    Cost      Usage
  2419                           ;!BANK3               60      0       0       9        0.0%
  2420                           ;!BITBANK3            60      0       0       8        0.0%
  2421                           ;!SFR3                 0      0       0       4        0.0%
  2422                           ;!BITSFR3              0      0       0       4        0.0%
  2423                           ;!BANK2               60      0       0      11        0.0%
  2424                           ;!BITBANK2            60      0       0      10        0.0%
  2425                           ;!SFR2                 0      0       0       5        0.0%
  2426                           ;!BITSFR2              0      0       0       5        0.0%
  2427                           ;!BANK1               50      8      2D       7       56.3%
  2428                           ;!BITBANK1            50      0       0       6        0.0%
  2429                           ;!SFR1                 0      0       0       2        0.0%
  2430                           ;!BITSFR1              0      0       0       2        0.0%
  2431                           ;!BANK0               50     4E      50       5      100.0%
  2432                           ;!BITBANK0            50      0       0       4        0.0%
  2433                           ;!SFR0                 0      0       0       1        0.0%
  2434                           ;!BITSFR0              0      0       0       1        0.0%
  2435                           ;!COMMON               E      9       E       1      100.0%
  2436                           ;!BITCOMMON            E      0       0       0        0.0%
  2437                           ;!CODE                 0      0       0       0        0.0%
  2438                           ;!DATA                 0      0      8B      12        0.0%
  2439                           ;!ABS                  0      0      8B       3        0.0%
  2440                           ;!NULL                 0      0       0       0        0.0%
  2441                           ;!STACK                0      0       0       2        0.0%
  2442                           ;!EEDATA             100      0       0       0        0.0%
  2443                           
  2444                           	global	_main
  2445                           
  2446 ;; *************** function _main *****************
  2447 ;; Defined at:
  2448 ;;		line 111 in file "Proyecto1_master.c"
  2449 ;; Parameters:    Size  Location     Type
  2450 ;;		None
  2451 ;; Auto vars:     Size  Location     Type
  2452 ;;		None
  2453 ;; Return value:  Size  Location     Type
  2454 ;;                  1    wreg      void 
  2455 ;; Registers used:
  2456 ;;		wreg, fsr0l, fsr0h, status,2, status,0, btemp+1, pclath, cstack
  2457 ;; Tracked objects:
  2458 ;;		On entry : B00/0
  2459 ;;		On exit  : 0/0
  2460 ;;		Unchanged: 0/0
  2461 ;; Data sizes:     COMMON   BANK0   BANK1   BANK3   BANK2
  2462 ;;      Params:         0       0       0       0       0
  2463 ;;      Locals:         0       0       0       0       0
  2464 ;;      Temps:          0       2       0       0       0
  2465 ;;      Totals:         0       2       0       0       0
  2466 ;;Total ram usage:        2 bytes
  2467 ;; Hardware stack levels required when called:    9
  2468 ;; This function calls:
  2469 ;;		_I2C_Master_Init
  2470 ;;		_Set_Time_Date
  2471 ;;		_Update_Current_Date_Time
  2472 ;;		_apagar_luces
  2473 ;;		_boton_lcd
  2474 ;;		_check_infrarrojo
  2475 ;;		_configInterrupciones
  2476 ;;		_configPorts
  2477 ;;		_initOsci8MHZ
  2478 ;;		_lcd_clear
  2479 ;;		_lcd_init
  2480 ;;		_lcd_set_cursor
  2481 ;;		_lcd_write_string
  2482 ;;		_primera_llamada
  2483 ;;		_segunda_llamada
  2484 ;;		_tercera_llamada
  2485 ;; This function is called by:
  2486 ;;		Startup code after reset
  2487 ;; This function uses a non-reentrant model
  2488 ;;
  2489                           psect	maintext,global,class=CODE,delta=2,split=1,group=0
  2490                           	file	"Proyecto1_master.c"
  2491                           	line	111
  2492                           global __pmaintext
  2493                           __pmaintext:	;psect for function _main
  2494  09B0                     psect	maintext
  2495                           	file	"Proyecto1_master.c"
  2496                           	line	111
  2497                           	global	__size_of_main
  2498                           	__size_of_main	equ	__end_of_main-_main
  2499  00AA                     	
  2500                           _main:	
  2501  09B0                     ;incstack = 0
  2502 ;; hardware stack exceeded
  2503                           	opt	stack 0
  2504                           ; Regs used in _main: [wreg-fsr0h+status,2+status,0+btemp+1+pclath+cstack]
  2505                           	line	112
  2506                           	
  2507                           l3034:	
  2508  09B0                     ;Proyecto1_master.c: 112:     initOsci8MHZ();
  2509                           	fcall	_initOsci8MHZ
  2510  09B0  160A  118A  229E  120A  158A  	line	113
  2511                           	
  2512                           l3036:	
  2513  09B5                     ;Proyecto1_master.c: 113:     configPorts();
  2514                           	fcall	_configPorts
  2515  09B5  160A  118A  22F7  120A  158A  	line	114
  2516                           	
  2517                           l3038:	
  2518  09BA                     ;Proyecto1_master.c: 114:     configInterrupciones();
  2519                           	fcall	_configInterrupciones
  2520  09BA  160A  118A  22A5  120A  158A  	line	115
  2521                           ;Proyecto1_master.c: 115:     lcd_init();
  2522                           	fcall	_lcd_init
  2523  09BF  160A  118A  266D  120A  158A  	line	116
  2524                           ;Proyecto1_master.c: 116:     I2C_Master_Init(100000);
  2525                           	movlw	0
  2526  09C4  3000               	bcf	status, 5	;RP0=0, select bank0
  2527  09C5  1283               	bcf	status, 6	;RP1=0, select bank0
  2528  09C6  1303               	movwf	(I2C_Master_Init@c+3)
  2529  09C7  00B1               	movlw	01h
  2530  09C8  3001               	movwf	(I2C_Master_Init@c+2)
  2531  09C9  00B0               	movlw	086h
  2532  09CA  3086               	movwf	(I2C_Master_Init@c+1)
  2533  09CB  00AF               	movlw	0A0h
  2534  09CC  30A0               	movwf	(I2C_Master_Init@c)
  2535  09CD  00AE               
  2536                           	fcall	_I2C_Master_Init
  2537  09CE  160A  118A  2535  120A  158A  	line	119
  2538                           	
  2539                           l3040:	
  2540  09D3                     ;Proyecto1_master.c: 119:     lcd_write_string("Fecha:");
  2541                           	movlw	(low((((STR_1)-__stringbase)|8000h)))&0ffh
  2542  09D3  3040               	bcf	status, 5	;RP0=0, select bank0
  2543  09D4  1283               	bcf	status, 6	;RP1=0, select bank0
  2544  09D5  1303               	movwf	(lcd_write_string@a)
  2545  09D6  00A4               	movlw	80h
  2546  09D7  3080               	movwf	(lcd_write_string@a+1)
  2547  09D8  00A5               	fcall	_lcd_write_string
  2548  09D9  160A  118A  2625  120A  158A  	line	120
  2549                           	
  2550                           l3042:	
  2551  09DE                     ;Proyecto1_master.c: 120:     lcd_set_cursor(2, 1);
  2552                           	bcf	status, 5	;RP0=0, select bank0
  2553  09DE  1283               	bcf	status, 6	;RP1=0, select bank0
  2554  09DF  1303               	clrf	(lcd_set_cursor@b)
  2555  09E0  01A4               	incf	(lcd_set_cursor@b),f
  2556  09E1  0AA4               	movlw	low(02h)
  2557  09E2  3002               	fcall	_lcd_set_cursor
  2558  09E3  160A  118A  236E  120A  158A  	line	121
  2559                           ;Proyecto1_master.c: 121:     lcd_write_string("Hora:");
  2560                           	movlw	(low((((STR_2)-__stringbase)|8000h)))&0ffh
  2561  09E8  3047               	bcf	status, 5	;RP0=0, select bank0
  2562  09E9  1283               	bcf	status, 6	;RP1=0, select bank0
  2563  09EA  1303               	movwf	(lcd_write_string@a)
  2564  09EB  00A4               	movlw	80h
  2565  09EC  3080               	movwf	(lcd_write_string@a+1)
  2566  09ED  00A5               	fcall	_lcd_write_string
  2567  09EE  160A  118A  2625  120A  158A  	line	124
  2568                           	
  2569                           l3044:	
  2570  09F3                     ;Proyecto1_master.c: 124:     Set_Time_Date();
  2571                           	fcall	_Set_Time_Date
  2572  09F3  120A  158A  2473  120A  158A  	line	126
  2573                           	
  2574                           l3046:	
  2575  09F8                     ;Proyecto1_master.c: 126:     s_humo = 0;
  2576                           	bsf	status, 5	;RP0=1, select bank1
  2577  09F8  1683               	bcf	status, 6	;RP1=0, select bank1
  2578  09F9  1303               	clrf	(_s_humo)^080h
  2579  09FA  01A5               	line	127
  2580                           	
  2581                           l3048:	
  2582  09FB                     ;Proyecto1_master.c: 127:     s_temblor = 0;
  2583                           	clrf	(_s_temblor)^080h
  2584  09FB  01A4               	line	128
  2585                           	
  2586                           l3050:	
  2587  09FC                     ;Proyecto1_master.c: 128:     modo=0;
  2588                           	clrf	(_modo)^080h
  2589  09FC  01AC               	goto	l3052
  2590  09FD  29FE               	line	130
  2591                           ;Proyecto1_master.c: 130:     while(1){
  2592                           	
  2593                           l158:	
  2594  09FE                     	line	132
  2595                           	
  2596                           l3052:	
  2597  09FE                     ;Proyecto1_master.c: 132:         Update_Current_Date_Time();
  2598                           	fcall	_Update_Current_Date_Time
  2599  09FE  120A  118A  2509  120A  158A  	line	133
  2600                           	
  2601                           l3054:	
  2602  0A03                     ;Proyecto1_master.c: 133:         boton_lcd();
  2603                           	fcall	_boton_lcd
  2604  0A03  120A  158A  25F8  120A  158A  	line	136
  2605                           	
  2606                           l3056:	
  2607  0A08                     ;Proyecto1_master.c: 136:         primera_llamada(10, 55, 5);
  2608                           	movlw	low(037h)
  2609  0A08  3037               	bcf	status, 5	;RP0=0, select bank0
  2610  0A09  1283               	bcf	status, 6	;RP1=0, select bank0
  2611  0A0A  1303               	movwf	(??_main+0)+0
  2612  0A0B  00EC               	movf	(??_main+0)+0,w
  2613  0A0C  086C               	movwf	(primera_llamada@m)
  2614  0A0D  00A0               	movlw	low(05h)
  2615  0A0E  3005               	movwf	(??_main+1)+0
  2616  0A0F  00ED               	movf	(??_main+1)+0,w
  2617  0A10  086D               	movwf	(primera_llamada@s)
  2618  0A11  00A1               	movlw	low(0Ah)
  2619  0A12  300A               	fcall	_primera_llamada
  2620  0A13  160A  118A  23E4  120A  158A  	line	137
  2621                           	
  2622                           l3058:	
  2623  0A18                     ;Proyecto1_master.c: 137:         segunda_llamada(10, 55, 10);
  2624                           	movlw	low(037h)
  2625  0A18  3037               	bcf	status, 5	;RP0=0, select bank0
  2626  0A19  1283               	bcf	status, 6	;RP1=0, select bank0
  2627  0A1A  1303               	movwf	(??_main+0)+0
  2628  0A1B  00EC               	movf	(??_main+0)+0,w
  2629  0A1C  086C               	movwf	(segunda_llamada@m)
  2630  0A1D  00A0               	movlw	low(0Ah)
  2631  0A1E  300A               	movwf	(??_main+1)+0
  2632  0A1F  00ED               	movf	(??_main+1)+0,w
  2633  0A20  086D               	movwf	(segunda_llamada@s)
  2634  0A21  00A1               	movlw	low(0Ah)
  2635  0A22  300A               	fcall	_segunda_llamada
  2636  0A23  160A  118A  2411  120A  158A  	line	138
  2637                           	
  2638                           l3060:	
  2639  0A28                     ;Proyecto1_master.c: 138:         tercera_llamada(10, 55, 15);
  2640                           	movlw	low(037h)
  2641  0A28  3037               	bcf	status, 5	;RP0=0, select bank0
  2642  0A29  1283               	bcf	status, 6	;RP1=0, select bank0
  2643  0A2A  1303               	movwf	(??_main+0)+0
  2644  0A2B  00EC               	movf	(??_main+0)+0,w
  2645  0A2C  086C               	movwf	(tercera_llamada@m)
  2646  0A2D  00A0               	movlw	low(0Fh)
  2647  0A2E  300F               	movwf	(??_main+1)+0
  2648  0A2F  00ED               	movf	(??_main+1)+0,w
  2649  0A30  086D               	movwf	(tercera_llamada@s)
  2650  0A31  00A1               	movlw	low(0Ah)
  2651  0A32  300A               	fcall	_tercera_llamada
  2652  0A33  160A  118A  243E  120A  158A  	line	139
  2653                           	
  2654                           l3062:	
  2655  0A38                     ;Proyecto1_master.c: 139:         apagar_luces(5);
  2656                           	movlw	low(05h)
  2657  0A38  3005               	fcall	_apagar_luces
  2658  0A39  120A  158A  2002  120A  158A  	line	140
  2659                           	
  2660                           l3064:	
  2661  0A3E                     ;Proyecto1_master.c: 140:         check_infrarrojo();
  2662                           	fcall	_check_infrarrojo
  2663  0A3E  160A  118A  249A  120A  158A  	line	150
  2664                           	
  2665                           l3066:	
  2666  0A43                     ;Proyecto1_master.c: 150:         if(limpiar_lcd==1){
  2667                           	bsf	status, 5	;RP0=1, select bank1
  2668  0A43  1683               	bcf	status, 6	;RP1=0, select bank1
  2669  0A44  1303               		decf	((_limpiar_lcd)^080h),w
  2670  0A45  032B               	btfss	status,2
  2671  0A46  1D03               	goto	u3651
  2672  0A47  2A49               	goto	u3650
  2673  0A48  2A4A               u3651:
  2674  0A49                     	goto	l3072
  2675  0A49  2A53               u3650:
  2676  0A4A                     	line	151
  2677                           	
  2678                           l3068:	
  2679  0A4A                     ;Proyecto1_master.c: 151:             lcd_clear();
  2680                           	fcall	_lcd_clear
  2681  0A4A  160A  118A  2297  120A  158A  	line	152
  2682                           	
  2683                           l3070:	
  2684  0A4F                     ;Proyecto1_master.c: 152:             limpiar_lcd=0;
  2685                           	bsf	status, 5	;RP0=1, select bank1
  2686  0A4F  1683               	bcf	status, 6	;RP1=0, select bank1
  2687  0A50  1303               	clrf	(_limpiar_lcd)^080h
  2688  0A51  01AB               	line	153
  2689                           ;Proyecto1_master.c: 153:         }else
  2690                           	goto	l3052
  2691  0A52  29FE               	
  2692                           l159:	
  2693  0A53                     	line	154
  2694                           	
  2695                           l3072:	
  2696  0A53                     ;Proyecto1_master.c: 154:             limpiar_lcd=0;
  2697                           	clrf	(_limpiar_lcd)^080h
  2698  0A53  01AB               	goto	l3052
  2699  0A54  29FE               	
  2700                           l160:	
  2701  0A55                     	goto	l3052
  2702  0A55  29FE               	line	157
  2703                           ;Proyecto1_master.c: 157:     }
  2704                           	
  2705                           l161:	
  2706  0A56                     	goto	l3052
  2707  0A56  29FE               	
  2708                           l162:	
  2709  0A57                     	line	159
  2710                           ;Proyecto1_master.c: 158:     return;
  2711                           	
  2712                           l163:	
  2713  0A57                     	global	start
  2714                           	ljmp	start
  2715  0A57  120A  118A  280C   	opt stack 0
  2716                           GLOBAL	__end_of_main
  2717                           	__end_of_main:
  2718  0A5A                     	signat	_main,89
  2719                           	global	_tercera_llamada
  2720                           
  2721 ;; *************** function _tercera_llamada *****************
  2722 ;; Defined at:
  2723 ;;		line 249 in file "Proyecto1_master.c"
  2724 ;; Parameters:    Size  Location     Type
  2725 ;;  h               1    wreg     unsigned char 
  2726 ;;  m               1    0[BANK0 ] unsigned char 
  2727 ;;  s               1    1[BANK0 ] unsigned char 
  2728 ;; Auto vars:     Size  Location     Type
  2729 ;;  h               1    4[BANK0 ] unsigned char 
  2730 ;; Return value:  Size  Location     Type
  2731 ;;                  1    wreg      void 
  2732 ;; Registers used:
  2733 ;;		wreg
  2734 ;; Tracked objects:
  2735 ;;		On entry : 0/0
  2736 ;;		On exit  : 0/0
  2737 ;;		Unchanged: 0/0
  2738 ;; Data sizes:     COMMON   BANK0   BANK1   BANK3   BANK2
  2739 ;;      Params:         0       2       0       0       0
  2740 ;;      Locals:         0       1       0       0       0
  2741 ;;      Temps:          0       2       0       0       0
  2742 ;;      Totals:         0       5       0       0       0
  2743 ;;Total ram usage:        5 bytes
  2744 ;; Hardware stack levels used:    1
  2745 ;; Hardware stack levels required when called:    4
  2746 ;; This function calls:
  2747 ;;		Nothing
  2748 ;; This function is called by:
  2749 ;;		_main
  2750 ;; This function uses a non-reentrant model
  2751 ;;
  2752                           psect	text1,local,class=CODE,delta=2,merge=1,group=0
  2753                           	line	249
  2754                           global __ptext1
  2755                           __ptext1:	;psect for function _tercera_llamada
  2756  143E                     psect	text1
  2757                           	file	"Proyecto1_master.c"
  2758                           	line	249
  2759                           	global	__size_of_tercera_llamada
  2760                           	__size_of_tercera_llamada	equ	__end_of_tercera_llamada-_tercera_llamada
  2761  002D                     	
  2762                           _tercera_llamada:	
  2763  143E                     ;incstack = 0
  2764                           	opt	stack 3
  2765                           ; Regs used in _tercera_llamada: [wreg]
  2766                           ;tercera_llamada@h stored from wreg
  2767                           	bcf	status, 5	;RP0=0, select bank0
  2768  143E  1283               	bcf	status, 6	;RP1=0, select bank0
  2769  143F  1303               	movwf	(tercera_llamada@h)
  2770  1440  00A4               	line	252
  2771                           	
  2772                           l2988:	
  2773  1441                     ;Proyecto1_master.c: 252:     if(hour==h && min==m && sec==s){
  2774                           	movf	(tercera_llamada@h),w
  2775  1441  0824               	movwf	(??_tercera_llamada+0)+0
  2776  1442  00A2               	clrf	(??_tercera_llamada+0)+0+1
  2777  1443  01A3               	movf	(_hour+1),w
  2778  1444  087A               	xorwf	1+(??_tercera_llamada+0)+0,w
  2779  1445  0623               	skipz
  2780  1446  1D03               	goto	u3545
  2781  1447  2C4A               	movf	(_hour),w
  2782  1448  0879               	xorwf	0+(??_tercera_llamada+0)+0,w
  2783  1449  0622               u3545:
  2784  144A                     
  2785                           	skipz
  2786  144A  1D03               	goto	u3541
  2787  144B  2C4D               	goto	u3540
  2788  144C  2C4E               u3541:
  2789  144D                     	goto	l195
  2790  144D  2C6A               u3540:
  2791  144E                     	
  2792                           l2990:	
  2793  144E                     	movf	(tercera_llamada@m),w
  2794  144E  0820               	movwf	(??_tercera_llamada+0)+0
  2795  144F  00A2               	clrf	(??_tercera_llamada+0)+0+1
  2796  1450  01A3               	movf	(_min+1),w
  2797  1451  087C               	xorwf	1+(??_tercera_llamada+0)+0,w
  2798  1452  0623               	skipz
  2799  1453  1D03               	goto	u3555
  2800  1454  2C57               	movf	(_min),w
  2801  1455  087B               	xorwf	0+(??_tercera_llamada+0)+0,w
  2802  1456  0622               u3555:
  2803  1457                     
  2804                           	skipz
  2805  1457  1D03               	goto	u3551
  2806  1458  2C5A               	goto	u3550
  2807  1459  2C5B               u3551:
  2808  145A                     	goto	l195
  2809  145A  2C6A               u3550:
  2810  145B                     	
  2811                           l2992:	
  2812  145B                     	movf	(tercera_llamada@s),w
  2813  145B  0821               	movwf	(??_tercera_llamada+0)+0
  2814  145C  00A2               	clrf	(??_tercera_llamada+0)+0+1
  2815  145D  01A3               	movf	(_sec+1),w
  2816  145E  086F               	xorwf	1+(??_tercera_llamada+0)+0,w
  2817  145F  0623               	skipz
  2818  1460  1D03               	goto	u3565
  2819  1461  2C64               	movf	(_sec),w
  2820  1462  086E               	xorwf	0+(??_tercera_llamada+0)+0,w
  2821  1463  0622               u3565:
  2822  1464                     
  2823                           	skipz
  2824  1464  1D03               	goto	u3561
  2825  1465  2C67               	goto	u3560
  2826  1466  2C68               u3561:
  2827  1467                     	goto	l195
  2828  1467  2C6A               u3560:
  2829  1468                     	line	253
  2830                           	
  2831                           l2994:	
  2832  1468                     ;Proyecto1_master.c: 253:         PORTBbits.RB2 = 1;
  2833                           	bsf	(6),2	;volatile
  2834  1468  1506               	goto	l195
  2835  1469  2C6A               	line	254
  2836                           ;Proyecto1_master.c: 254:     }
  2837                           	
  2838                           l194:	
  2839  146A                     	line	255
  2840                           	
  2841                           l195:	
  2842  146A                     	return
  2843  146A  0008               	opt stack 0
  2844                           GLOBAL	__end_of_tercera_llamada
  2845                           	__end_of_tercera_llamada:
  2846  146B                     	signat	_tercera_llamada,12409
  2847                           	global	_segunda_llamada
  2848                           
  2849 ;; *************** function _segunda_llamada *****************
  2850 ;; Defined at:
  2851 ;;		line 241 in file "Proyecto1_master.c"
  2852 ;; Parameters:    Size  Location     Type
  2853 ;;  h               1    wreg     unsigned char 
  2854 ;;  m               1    0[BANK0 ] unsigned char 
  2855 ;;  s               1    1[BANK0 ] unsigned char 
  2856 ;; Auto vars:     Size  Location     Type
  2857 ;;  h               1    4[BANK0 ] unsigned char 
  2858 ;; Return value:  Size  Location     Type
  2859 ;;                  1    wreg      void 
  2860 ;; Registers used:
  2861 ;;		wreg
  2862 ;; Tracked objects:
  2863 ;;		On entry : 0/0
  2864 ;;		On exit  : 0/0
  2865 ;;		Unchanged: 0/0
  2866 ;; Data sizes:     COMMON   BANK0   BANK1   BANK3   BANK2
  2867 ;;      Params:         0       2       0       0       0
  2868 ;;      Locals:         0       1       0       0       0
  2869 ;;      Temps:          0       2       0       0       0
  2870 ;;      Totals:         0       5       0       0       0
  2871 ;;Total ram usage:        5 bytes
  2872 ;; Hardware stack levels used:    1
  2873 ;; Hardware stack levels required when called:    4
  2874 ;; This function calls:
  2875 ;;		Nothing
  2876 ;; This function is called by:
  2877 ;;		_main
  2878 ;; This function uses a non-reentrant model
  2879 ;;
  2880                           psect	text2,local,class=CODE,delta=2,merge=1,group=0
  2881                           	line	241
  2882                           global __ptext2
  2883                           __ptext2:	;psect for function _segunda_llamada
  2884  1411                     psect	text2
  2885                           	file	"Proyecto1_master.c"
  2886                           	line	241
  2887                           	global	__size_of_segunda_llamada
  2888                           	__size_of_segunda_llamada	equ	__end_of_segunda_llamada-_segunda_llamada
  2889  002D                     	
  2890                           _segunda_llamada:	
  2891  1411                     ;incstack = 0
  2892                           	opt	stack 3
  2893                           ; Regs used in _segunda_llamada: [wreg]
  2894                           ;segunda_llamada@h stored from wreg
  2895                           	bcf	status, 5	;RP0=0, select bank0
  2896  1411  1283               	bcf	status, 6	;RP1=0, select bank0
  2897  1412  1303               	movwf	(segunda_llamada@h)
  2898  1413  00A4               	line	244
  2899                           	
  2900                           l2980:	
  2901  1414                     ;Proyecto1_master.c: 244:     if(hour==h && min==m && sec==s){
  2902                           	movf	(segunda_llamada@h),w
  2903  1414  0824               	movwf	(??_segunda_llamada+0)+0
  2904  1415  00A2               	clrf	(??_segunda_llamada+0)+0+1
  2905  1416  01A3               	movf	(_hour+1),w
  2906  1417  087A               	xorwf	1+(??_segunda_llamada+0)+0,w
  2907  1418  0623               	skipz
  2908  1419  1D03               	goto	u3515
  2909  141A  2C1D               	movf	(_hour),w
  2910  141B  0879               	xorwf	0+(??_segunda_llamada+0)+0,w
  2911  141C  0622               u3515:
  2912  141D                     
  2913                           	skipz
  2914  141D  1D03               	goto	u3511
  2915  141E  2C20               	goto	u3510
  2916  141F  2C21               u3511:
  2917  1420                     	goto	l191
  2918  1420  2C3D               u3510:
  2919  1421                     	
  2920                           l2982:	
  2921  1421                     	movf	(segunda_llamada@m),w
  2922  1421  0820               	movwf	(??_segunda_llamada+0)+0
  2923  1422  00A2               	clrf	(??_segunda_llamada+0)+0+1
  2924  1423  01A3               	movf	(_min+1),w
  2925  1424  087C               	xorwf	1+(??_segunda_llamada+0)+0,w
  2926  1425  0623               	skipz
  2927  1426  1D03               	goto	u3525
  2928  1427  2C2A               	movf	(_min),w
  2929  1428  087B               	xorwf	0+(??_segunda_llamada+0)+0,w
  2930  1429  0622               u3525:
  2931  142A                     
  2932                           	skipz
  2933  142A  1D03               	goto	u3521
  2934  142B  2C2D               	goto	u3520
  2935  142C  2C2E               u3521:
  2936  142D                     	goto	l191
  2937  142D  2C3D               u3520:
  2938  142E                     	
  2939                           l2984:	
  2940  142E                     	movf	(segunda_llamada@s),w
  2941  142E  0821               	movwf	(??_segunda_llamada+0)+0
  2942  142F  00A2               	clrf	(??_segunda_llamada+0)+0+1
  2943  1430  01A3               	movf	(_sec+1),w
  2944  1431  086F               	xorwf	1+(??_segunda_llamada+0)+0,w
  2945  1432  0623               	skipz
  2946  1433  1D03               	goto	u3535
  2947  1434  2C37               	movf	(_sec),w
  2948  1435  086E               	xorwf	0+(??_segunda_llamada+0)+0,w
  2949  1436  0622               u3535:
  2950  1437                     
  2951                           	skipz
  2952  1437  1D03               	goto	u3531
  2953  1438  2C3A               	goto	u3530
  2954  1439  2C3B               u3531:
  2955  143A                     	goto	l191
  2956  143A  2C3D               u3530:
  2957  143B                     	line	245
  2958                           	
  2959                           l2986:	
  2960  143B                     ;Proyecto1_master.c: 245:         PORTBbits.RB1 = 1;
  2961                           	bsf	(6),1	;volatile
  2962  143B  1486               	goto	l191
  2963  143C  2C3D               	line	246
  2964                           ;Proyecto1_master.c: 246:     }
  2965                           	
  2966                           l190:	
  2967  143D                     	line	247
  2968                           	
  2969                           l191:	
  2970  143D                     	return
  2971  143D  0008               	opt stack 0
  2972                           GLOBAL	__end_of_segunda_llamada
  2973                           	__end_of_segunda_llamada:
  2974  143E                     	signat	_segunda_llamada,12409
  2975                           	global	_primera_llamada
  2976                           
  2977 ;; *************** function _primera_llamada *****************
  2978 ;; Defined at:
  2979 ;;		line 233 in file "Proyecto1_master.c"
  2980 ;; Parameters:    Size  Location     Type
  2981 ;;  h               1    wreg     unsigned char 
  2982 ;;  m               1    0[BANK0 ] unsigned char 
  2983 ;;  s               1    1[BANK0 ] unsigned char 
  2984 ;; Auto vars:     Size  Location     Type
  2985 ;;  h               1    4[BANK0 ] unsigned char 
  2986 ;; Return value:  Size  Location     Type
  2987 ;;                  1    wreg      void 
  2988 ;; Registers used:
  2989 ;;		wreg
  2990 ;; Tracked objects:
  2991 ;;		On entry : 0/0
  2992 ;;		On exit  : 0/0
  2993 ;;		Unchanged: 0/0
  2994 ;; Data sizes:     COMMON   BANK0   BANK1   BANK3   BANK2
  2995 ;;      Params:         0       2       0       0       0
  2996 ;;      Locals:         0       1       0       0       0
  2997 ;;      Temps:          0       2       0       0       0
  2998 ;;      Totals:         0       5       0       0       0
  2999 ;;Total ram usage:        5 bytes
  3000 ;; Hardware stack levels used:    1
  3001 ;; Hardware stack levels required when called:    4
  3002 ;; This function calls:
  3003 ;;		Nothing
  3004 ;; This function is called by:
  3005 ;;		_main
  3006 ;; This function uses a non-reentrant model
  3007 ;;
  3008                           psect	text3,local,class=CODE,delta=2,merge=1,group=0
  3009                           	line	233
  3010                           global __ptext3
  3011                           __ptext3:	;psect for function _primera_llamada
  3012  13E4                     psect	text3
  3013                           	file	"Proyecto1_master.c"
  3014                           	line	233
  3015                           	global	__size_of_primera_llamada
  3016                           	__size_of_primera_llamada	equ	__end_of_primera_llamada-_primera_llamada
  3017  002D                     	
  3018                           _primera_llamada:	
  3019  13E4                     ;incstack = 0
  3020                           	opt	stack 3
  3021                           ; Regs used in _primera_llamada: [wreg]
  3022                           ;primera_llamada@h stored from wreg
  3023                           	bcf	status, 5	;RP0=0, select bank0
  3024  13E4  1283               	bcf	status, 6	;RP1=0, select bank0
  3025  13E5  1303               	movwf	(primera_llamada@h)
  3026  13E6  00A4               	line	236
  3027                           	
  3028                           l2972:	
  3029  13E7                     ;Proyecto1_master.c: 236:     if(hour==h && min==m && sec==s){
  3030                           	movf	(primera_llamada@h),w
  3031  13E7  0824               	movwf	(??_primera_llamada+0)+0
  3032  13E8  00A2               	clrf	(??_primera_llamada+0)+0+1
  3033  13E9  01A3               	movf	(_hour+1),w
  3034  13EA  087A               	xorwf	1+(??_primera_llamada+0)+0,w
  3035  13EB  0623               	skipz
  3036  13EC  1D03               	goto	u3485
  3037  13ED  2BF0               	movf	(_hour),w
  3038  13EE  0879               	xorwf	0+(??_primera_llamada+0)+0,w
  3039  13EF  0622               u3485:
  3040  13F0                     
  3041                           	skipz
  3042  13F0  1D03               	goto	u3481
  3043  13F1  2BF3               	goto	u3480
  3044  13F2  2BF4               u3481:
  3045  13F3                     	goto	l187
  3046  13F3  2C10               u3480:
  3047  13F4                     	
  3048                           l2974:	
  3049  13F4                     	movf	(primera_llamada@m),w
  3050  13F4  0820               	movwf	(??_primera_llamada+0)+0
  3051  13F5  00A2               	clrf	(??_primera_llamada+0)+0+1
  3052  13F6  01A3               	movf	(_min+1),w
  3053  13F7  087C               	xorwf	1+(??_primera_llamada+0)+0,w
  3054  13F8  0623               	skipz
  3055  13F9  1D03               	goto	u3495
  3056  13FA  2BFD               	movf	(_min),w
  3057  13FB  087B               	xorwf	0+(??_primera_llamada+0)+0,w
  3058  13FC  0622               u3495:
  3059  13FD                     
  3060                           	skipz
  3061  13FD  1D03               	goto	u3491
  3062  13FE  2C00               	goto	u3490
  3063  13FF  2C01               u3491:
  3064  1400                     	goto	l187
  3065  1400  2C10               u3490:
  3066  1401                     	
  3067                           l2976:	
  3068  1401                     	movf	(primera_llamada@s),w
  3069  1401  0821               	movwf	(??_primera_llamada+0)+0
  3070  1402  00A2               	clrf	(??_primera_llamada+0)+0+1
  3071  1403  01A3               	movf	(_sec+1),w
  3072  1404  086F               	xorwf	1+(??_primera_llamada+0)+0,w
  3073  1405  0623               	skipz
  3074  1406  1D03               	goto	u3505
  3075  1407  2C0A               	movf	(_sec),w
  3076  1408  086E               	xorwf	0+(??_primera_llamada+0)+0,w
  3077  1409  0622               u3505:
  3078  140A                     
  3079                           	skipz
  3080  140A  1D03               	goto	u3501
  3081  140B  2C0D               	goto	u3500
  3082  140C  2C0E               u3501:
  3083  140D                     	goto	l187
  3084  140D  2C10               u3500:
  3085  140E                     	line	237
  3086                           	
  3087                           l2978:	
  3088  140E                     ;Proyecto1_master.c: 237:         PORTBbits.RB0 = 1;
  3089                           	bsf	(6),0	;volatile
  3090  140E  1406               	goto	l187
  3091  140F  2C10               	line	238
  3092                           ;Proyecto1_master.c: 238:     }
  3093                           	
  3094                           l186:	
  3095  1410                     	line	239
  3096                           	
  3097                           l187:	
  3098  1410                     	return
  3099  1410  0008               	opt stack 0
  3100                           GLOBAL	__end_of_primera_llamada
  3101                           	__end_of_primera_llamada:
  3102  1411                     	signat	_primera_llamada,12409
  3103                           	global	_lcd_init
  3104                           
  3105 ;; *************** function _lcd_init *****************
  3106 ;; Defined at:
  3107 ;;		line 85 in file "LCD.c"
  3108 ;; Parameters:    Size  Location     Type
  3109 ;;		None
  3110 ;; Auto vars:     Size  Location     Type
  3111 ;;		None
  3112 ;; Return value:  Size  Location     Type
  3113 ;;                  1    wreg      void 
  3114 ;; Registers used:
  3115 ;;		wreg, status,2, status,0, pclath, cstack
  3116 ;; Tracked objects:
  3117 ;;		On entry : 0/0
  3118 ;;		On exit  : 0/0
  3119 ;;		Unchanged: 0/0
  3120 ;; Data sizes:     COMMON   BANK0   BANK1   BANK3   BANK2
  3121 ;;      Params:         0       0       0       0       0
  3122 ;;      Locals:         0       0       0       0       0
  3123 ;;      Temps:          0       2       0       0       0
  3124 ;;      Totals:         0       2       0       0       0
  3125 ;;Total ram usage:        2 bytes
  3126 ;; Hardware stack levels used:    1
  3127 ;; Hardware stack levels required when called:    6
  3128 ;; This function calls:
  3129 ;;		_lcd_cmd
  3130 ;;		_lcd_port
  3131 ;; This function is called by:
  3132 ;;		_main
  3133 ;; This function uses a non-reentrant model
  3134 ;;
  3135                           psect	text4,local,class=CODE,delta=2,merge=1,group=0
  3136                           	file	"LCD.c"
  3137                           	line	85
  3138                           global __ptext4
  3139                           __ptext4:	;psect for function _lcd_init
  3140  166D                     psect	text4
  3141                           	file	"LCD.c"
  3142                           	line	85
  3143                           	global	__size_of_lcd_init
  3144                           	__size_of_lcd_init	equ	__end_of_lcd_init-_lcd_init
  3145  005D                     	
  3146                           _lcd_init:	
  3147  166D                     ;incstack = 0
  3148                           	opt	stack 1
  3149                           ; Regs used in _lcd_init: [wreg+status,2+status,0+pclath+cstack]
  3150                           	line	87
  3151                           	
  3152                           l2886:	
  3153  166D                     ;LCD.c: 87:     _delay((unsigned long)((15)*(8000000/4000.0)));
  3154                           	opt asmopt_push
  3155                           opt asmopt_off
  3156                           movlw	39
  3157  166D  3027               	bcf	status, 5	;RP0=0, select bank0
  3158  166E  1283               	bcf	status, 6	;RP1=0, select bank0
  3159  166F  1303               movwf	((??_lcd_init+0)+0+1),f
  3160  1670  00A5               	movlw	244
  3161  1671  30F4               movwf	((??_lcd_init+0)+0),f
  3162  1672  00A4               	u3667:
  3163  1673                     decfsz	((??_lcd_init+0)+0),f
  3164  1673  0BA4               	goto	u3667
  3165  1674  2E73               	decfsz	((??_lcd_init+0)+0+1),f
  3166  1675  0BA5               	goto	u3667
  3167  1676  2E73               	nop
  3168  1677  0000               opt asmopt_pop
  3169                           
  3170                           	line	88
  3171                           	
  3172                           l2888:	
  3173  1678                     ;LCD.c: 88:     lcd_port(0x00);
  3174                           	movlw	low(0)
  3175  1678  3000               	fcall	_lcd_port
  3176  1679  160A  118A  25A9  160A  118A  	line	89
  3177                           	
  3178                           l2890:	
  3179  167E                     ;LCD.c: 89:     _delay((unsigned long)((20)*(8000000/4000.0)));
  3180                           	opt asmopt_push
  3181                           opt asmopt_off
  3182                           movlw	52
  3183  167E  3034               	bcf	status, 5	;RP0=0, select bank0
  3184  167F  1283               	bcf	status, 6	;RP1=0, select bank0
  3185  1680  1303               movwf	((??_lcd_init+0)+0+1),f
  3186  1681  00A5               	movlw	241
  3187  1682  30F1               movwf	((??_lcd_init+0)+0),f
  3188  1683  00A4               	u3677:
  3189  1684                     decfsz	((??_lcd_init+0)+0),f
  3190  1684  0BA4               	goto	u3677
  3191  1685  2E84               	decfsz	((??_lcd_init+0)+0+1),f
  3192  1686  0BA5               	goto	u3677
  3193  1687  2E84               opt asmopt_pop
  3194                           
  3195                           	line	90
  3196                           ;LCD.c: 90:     lcd_cmd(0x30);
  3197                           	movlw	low(030h)
  3198  1688  3030               	fcall	_lcd_cmd
  3199  1689  160A  118A  2352  160A  118A  	line	91
  3200                           	
  3201                           l2892:	
  3202  168E                     ;LCD.c: 91:  _delay((unsigned long)((5)*(8000000/4000.0)));
  3203                           	opt asmopt_push
  3204                           opt asmopt_off
  3205                           movlw	13
  3206  168E  300D               	bcf	status, 5	;RP0=0, select bank0
  3207  168F  1283               	bcf	status, 6	;RP1=0, select bank0
  3208  1690  1303               movwf	((??_lcd_init+0)+0+1),f
  3209  1691  00A5               	movlw	251
  3210  1692  30FB               movwf	((??_lcd_init+0)+0),f
  3211  1693  00A4               	u3687:
  3212  1694                     decfsz	((??_lcd_init+0)+0),f
  3213  1694  0BA4               	goto	u3687
  3214  1695  2E94               	decfsz	((??_lcd_init+0)+0+1),f
  3215  1696  0BA5               	goto	u3687
  3216  1697  2E94               opt asmopt_pop
  3217                           
  3218                           	line	92
  3219                           	
  3220                           l2894:	
  3221  1698                     ;LCD.c: 92:     lcd_cmd(0x30);
  3222                           	movlw	low(030h)
  3223  1698  3030               	fcall	_lcd_cmd
  3224  1699  160A  118A  2352  160A  118A  	line	93
  3225                           ;LCD.c: 93:  _delay((unsigned long)((160)*(8000000/4000000.0)));
  3226                           	opt asmopt_push
  3227                           opt asmopt_off
  3228                           	movlw	105
  3229  169E  3069               	bcf	status, 5	;RP0=0, select bank0
  3230  169F  1283               	bcf	status, 6	;RP1=0, select bank0
  3231  16A0  1303               movwf	((??_lcd_init+0)+0),f
  3232  16A1  00A4               	u3697:
  3233  16A2                     decfsz	(??_lcd_init+0)+0,f
  3234  16A2  0BA4               	goto	u3697
  3235  16A3  2EA2               	nop2
  3236  16A4  2EA5               opt asmopt_pop
  3237                           
  3238                           	line	94
  3239                           	
  3240                           l2896:	
  3241  16A5                     ;LCD.c: 94:     lcd_cmd(0x30);
  3242                           	movlw	low(030h)
  3243  16A5  3030               	fcall	_lcd_cmd
  3244  16A6  160A  118A  2352  160A  118A  	line	97
  3245                           	
  3246                           l2898:	
  3247  16AB                     ;LCD.c: 97:     lcd_cmd(0x38);
  3248                           	movlw	low(038h)
  3249  16AB  3038               	fcall	_lcd_cmd
  3250  16AC  160A  118A  2352  160A  118A  	line	98
  3251                           	
  3252                           l2900:	
  3253  16B1                     ;LCD.c: 98:     lcd_cmd(0x10);
  3254                           	movlw	low(010h)
  3255  16B1  3010               	fcall	_lcd_cmd
  3256  16B2  160A  118A  2352  160A  118A  	line	99
  3257                           	
  3258                           l2902:	
  3259  16B7                     ;LCD.c: 99:     lcd_cmd(0x01);
  3260                           	movlw	low(01h)
  3261  16B7  3001               	fcall	_lcd_cmd
  3262  16B8  160A  118A  2352  160A  118A  	line	100
  3263                           	
  3264                           l2904:	
  3265  16BD                     ;LCD.c: 100:     lcd_cmd(0x06);
  3266                           	movlw	low(06h)
  3267  16BD  3006               	fcall	_lcd_cmd
  3268  16BE  160A  118A  2352  160A  118A  	line	101
  3269                           	
  3270                           l2906:	
  3271  16C3                     ;LCD.c: 101:     lcd_cmd(0x0C);
  3272                           	movlw	low(0Ch)
  3273  16C3  300C               	fcall	_lcd_cmd
  3274  16C4  160A  118A  2352  160A  118A  	line	103
  3275                           	
  3276                           l387:	
  3277  16C9                     	return
  3278  16C9  0008               	opt stack 0
  3279                           GLOBAL	__end_of_lcd_init
  3280                           	__end_of_lcd_init:
  3281  16CA                     	signat	_lcd_init,89
  3282                           	global	_initOsci8MHZ
  3283                           
  3284 ;; *************** function _initOsci8MHZ *****************
  3285 ;; Defined at:
  3286 ;;		line 58 in file "oscilador.c"
  3287 ;; Parameters:    Size  Location     Type
  3288 ;;		None
  3289 ;; Auto vars:     Size  Location     Type
  3290 ;;		None
  3291 ;; Return value:  Size  Location     Type
  3292 ;;                  1    wreg      void 
  3293 ;; Registers used:
  3294 ;;		None
  3295 ;; Tracked objects:
  3296 ;;		On entry : 0/0
  3297 ;;		On exit  : 0/0
  3298 ;;		Unchanged: 0/0
  3299 ;; Data sizes:     COMMON   BANK0   BANK1   BANK3   BANK2
  3300 ;;      Params:         0       0       0       0       0
  3301 ;;      Locals:         0       0       0       0       0
  3302 ;;      Temps:          0       0       0       0       0
  3303 ;;      Totals:         0       0       0       0       0
  3304 ;;Total ram usage:        0 bytes
  3305 ;; Hardware stack levels used:    1
  3306 ;; Hardware stack levels required when called:    4
  3307 ;; This function calls:
  3308 ;;		Nothing
  3309 ;; This function is called by:
  3310 ;;		_main
  3311 ;; This function uses a non-reentrant model
  3312 ;;
  3313                           psect	text5,local,class=CODE,delta=2,merge=1,group=0
  3314                           	file	"oscilador.c"
  3315                           	line	58
  3316                           global __ptext5
  3317                           __ptext5:	;psect for function _initOsci8MHZ
  3318  129E                     psect	text5
  3319                           	file	"oscilador.c"
  3320                           	line	58
  3321                           	global	__size_of_initOsci8MHZ
  3322                           	__size_of_initOsci8MHZ	equ	__end_of_initOsci8MHZ-_initOsci8MHZ
  3323  0007                     	
  3324                           _initOsci8MHZ:	
  3325  129E                     ;incstack = 0
  3326                           	opt	stack 3
  3327                           ; Regs used in _initOsci8MHZ: []
  3328                           	line	59
  3329                           	
  3330                           l2864:	
  3331  129E                     ;oscilador.c: 59:     OSCCONbits.IRCF0 = 1;
  3332                           	bsf	status, 5	;RP0=1, select bank1
  3333  129E  1683               	bcf	status, 6	;RP1=0, select bank1
  3334  129F  1303               	bsf	(143)^080h,4	;volatile
  3335  12A0  160F               	line	60
  3336                           ;oscilador.c: 60:     OSCCONbits.IRCF1 = 1;
  3337                           	bsf	(143)^080h,5	;volatile
  3338  12A1  168F               	line	61
  3339                           ;oscilador.c: 61:     OSCCONbits.IRCF2 = 1;
  3340                           	bsf	(143)^080h,6	;volatile
  3341  12A2  170F               	line	62
  3342                           ;oscilador.c: 62:     OSCCONbits.SCS = 1;
  3343                           	bsf	(143)^080h,0	;volatile
  3344  12A3  140F               	line	63
  3345                           	
  3346                           l285:	
  3347  12A4                     	return
  3348  12A4  0008               	opt stack 0
  3349                           GLOBAL	__end_of_initOsci8MHZ
  3350                           	__end_of_initOsci8MHZ:
  3351  12A5                     	signat	_initOsci8MHZ,89
  3352                           	global	_configPorts
  3353                           
  3354 ;; *************** function _configPorts *****************
  3355 ;; Defined at:
  3356 ;;		line 267 in file "Proyecto1_master.c"
  3357 ;; Parameters:    Size  Location     Type
  3358 ;;		None
  3359 ;; Auto vars:     Size  Location     Type
  3360 ;;		None
  3361 ;; Return value:  Size  Location     Type
  3362 ;;                  1    wreg      void 
  3363 ;; Registers used:
  3364 ;;		wreg, status,2
  3365 ;; Tracked objects:
  3366 ;;		On entry : 0/0
  3367 ;;		On exit  : 0/0
  3368 ;;		Unchanged: 0/0
  3369 ;; Data sizes:     COMMON   BANK0   BANK1   BANK3   BANK2
  3370 ;;      Params:         0       0       0       0       0
  3371 ;;      Locals:         0       0       0       0       0
  3372 ;;      Temps:          0       0       0       0       0
  3373 ;;      Totals:         0       0       0       0       0
  3374 ;;Total ram usage:        0 bytes
  3375 ;; Hardware stack levels used:    1
  3376 ;; Hardware stack levels required when called:    4
  3377 ;; This function calls:
  3378 ;;		Nothing
  3379 ;; This function is called by:
  3380 ;;		_main
  3381 ;; This function uses a non-reentrant model
  3382 ;;
  3383                           psect	text6,local,class=CODE,delta=2,merge=1,group=0
  3384                           	file	"Proyecto1_master.c"
  3385                           	line	267
  3386                           global __ptext6
  3387                           __ptext6:	;psect for function _configPorts
  3388  12F7                     psect	text6
  3389                           	file	"Proyecto1_master.c"
  3390                           	line	267
  3391                           	global	__size_of_configPorts
  3392                           	__size_of_configPorts	equ	__end_of_configPorts-_configPorts
  3393  0013                     	
  3394                           _configPorts:	
  3395  12F7                     ;incstack = 0
  3396                           	opt	stack 3
  3397                           ; Regs used in _configPorts: [wreg+status,2]
  3398                           	line	268
  3399                           	
  3400                           l2866:	
  3401  12F7                     ;Proyecto1_master.c: 268:     TRISA = 0;
  3402                           	bsf	status, 5	;RP0=1, select bank1
  3403  12F7  1683               	bcf	status, 6	;RP1=0, select bank1
  3404  12F8  1303               	clrf	(133)^080h	;volatile
  3405  12F9  0185               	line	270
  3406                           	
  3407                           l2868:	
  3408  12FA                     ;Proyecto1_master.c: 270:     TRISD = 0b00000001;
  3409                           	movlw	low(01h)
  3410  12FA  3001               	movwf	(136)^080h	;volatile
  3411  12FB  0088               	line	271
  3412                           	
  3413                           l2870:	
  3414  12FC                     ;Proyecto1_master.c: 271:     TRISE = 0;
  3415                           	clrf	(137)^080h	;volatile
  3416  12FC  0189               	line	272
  3417                           ;Proyecto1_master.c: 272:     TRISB = 0b00010000;
  3418                           	movlw	low(010h)
  3419  12FD  3010               	movwf	(134)^080h	;volatile
  3420  12FE  0086               	line	274
  3421                           	
  3422                           l2872:	
  3423  12FF                     ;Proyecto1_master.c: 274:     PORTA = 0;
  3424                           	bcf	status, 5	;RP0=0, select bank0
  3425  12FF  1283               	bcf	status, 6	;RP1=0, select bank0
  3426  1300  1303               	clrf	(5)	;volatile
  3427  1301  0185               	line	276
  3428                           	
  3429                           l2874:	
  3430  1302                     ;Proyecto1_master.c: 276:     PORTD = 0;
  3431                           	clrf	(8)	;volatile
  3432  1302  0188               	line	277
  3433                           	
  3434                           l2876:	
  3435  1303                     ;Proyecto1_master.c: 277:     PORTE = 0;
  3436                           	clrf	(9)	;volatile
  3437  1303  0189               	line	278
  3438                           	
  3439                           l2878:	
  3440  1304                     ;Proyecto1_master.c: 278:     PORTB = 0;
  3441                           	clrf	(6)	;volatile
  3442  1304  0186               	line	281
  3443                           	
  3444                           l2880:	
  3445  1305                     ;Proyecto1_master.c: 281:     ANSEL = 0;
  3446                           	bsf	status, 5	;RP0=1, select bank3
  3447  1305  1683               	bsf	status, 6	;RP1=1, select bank3
  3448  1306  1703               	clrf	(392)^0180h	;volatile
  3449  1307  0188               	line	282
  3450                           	
  3451                           l2882:	
  3452  1308                     ;Proyecto1_master.c: 282:     ANSELH = 0;
  3453                           	clrf	(393)^0180h	;volatile
  3454  1308  0189               	line	284
  3455                           	
  3456                           l202:	
  3457  1309                     	return
  3458  1309  0008               	opt stack 0
  3459                           GLOBAL	__end_of_configPorts
  3460                           	__end_of_configPorts:
  3461  130A                     	signat	_configPorts,89
  3462                           	global	_configInterrupciones
  3463                           
  3464 ;; *************** function _configInterrupciones *****************
  3465 ;; Defined at:
  3466 ;;		line 286 in file "Proyecto1_master.c"
  3467 ;; Parameters:    Size  Location     Type
  3468 ;;		None
  3469 ;; Auto vars:     Size  Location     Type
  3470 ;;		None
  3471 ;; Return value:  Size  Location     Type
  3472 ;;                  1    wreg      void 
  3473 ;; Registers used:
  3474 ;;		None
  3475 ;; Tracked objects:
  3476 ;;		On entry : 0/0
  3477 ;;		On exit  : 0/0
  3478 ;;		Unchanged: 0/0
  3479 ;; Data sizes:     COMMON   BANK0   BANK1   BANK3   BANK2
  3480 ;;      Params:         0       0       0       0       0
  3481 ;;      Locals:         0       0       0       0       0
  3482 ;;      Temps:          0       0       0       0       0
  3483 ;;      Totals:         0       0       0       0       0
  3484 ;;Total ram usage:        0 bytes
  3485 ;; Hardware stack levels used:    1
  3486 ;; Hardware stack levels required when called:    4
  3487 ;; This function calls:
  3488 ;;		Nothing
  3489 ;; This function is called by:
  3490 ;;		_main
  3491 ;; This function uses a non-reentrant model
  3492 ;;
  3493                           psect	text7,local,class=CODE,delta=2,merge=1,group=0
  3494                           	line	286
  3495                           global __ptext7
  3496                           __ptext7:	;psect for function _configInterrupciones
  3497  12A5                     psect	text7
  3498                           	file	"Proyecto1_master.c"
  3499                           	line	286
  3500                           	global	__size_of_configInterrupciones
  3501                           	__size_of_configInterrupciones	equ	__end_of_configInterrupciones-_configInterrupciones

  3502  0008                     	
  3503                           _configInterrupciones:	
  3504  12A5                     ;incstack = 0
  3505                           	opt	stack 3
  3506                           ; Regs used in _configInterrupciones: []
  3507                           	line	287
  3508                           	
  3509                           l2884:	
  3510  12A5                     ;Proyecto1_master.c: 287:     INTCONbits.GIE = 1;
  3511                           	bsf	(11),7	;volatile
  3512  12A5  178B               	line	288
  3513                           ;Proyecto1_master.c: 288:     INTCONbits.PEIE = 1;
  3514                           	bsf	(11),6	;volatile
  3515  12A6  170B               	line	290
  3516                           ;Proyecto1_master.c: 290:     INTCONbits.RBIE = 1;
  3517                           	bsf	(11),3	;volatile
  3518  12A7  158B               	line	291
  3519                           ;Proyecto1_master.c: 291:     INTCONbits.RBIF = 0;
  3520                           	bcf	(11),0	;volatile
  3521  12A8  100B               	line	292
  3522                           ;Proyecto1_master.c: 292:     IOCBbits.IOCB4 = 1;
  3523                           	bsf	status, 5	;RP0=1, select bank1
  3524  12A9  1683               	bcf	status, 6	;RP1=0, select bank1
  3525  12AA  1303               	bsf	(150)^080h,4	;volatile
  3526  12AB  1616               	line	293
  3527                           	
  3528                           l205:	
  3529  12AC                     	return
  3530  12AC  0008               	opt stack 0
  3531                           GLOBAL	__end_of_configInterrupciones
  3532                           	__end_of_configInterrupciones:
  3533  12AD                     	signat	_configInterrupciones,89
  3534                           	global	_check_infrarrojo
  3535                           
  3536 ;; *************** function _check_infrarrojo *****************
  3537 ;; Defined at:
  3538 ;;		line 380 in file "Proyecto1_master.c"
  3539 ;; Parameters:    Size  Location     Type
  3540 ;;		None
  3541 ;; Auto vars:     Size  Location     Type
  3542 ;;		None
  3543 ;; Return value:  Size  Location     Type
  3544 ;;                  1    wreg      void 
  3545 ;; Registers used:
  3546 ;;		wreg, status,2, status,0
  3547 ;; Tracked objects:
  3548 ;;		On entry : 0/0
  3549 ;;		On exit  : 0/0
  3550 ;;		Unchanged: 0/0
  3551 ;; Data sizes:     COMMON   BANK0   BANK1   BANK3   BANK2
  3552 ;;      Params:         0       0       0       0       0
  3553 ;;      Locals:         0       0       0       0       0
  3554 ;;      Temps:          0       2       0       0       0
  3555 ;;      Totals:         0       2       0       0       0
  3556 ;;Total ram usage:        2 bytes
  3557 ;; Hardware stack levels used:    1
  3558 ;; Hardware stack levels required when called:    4
  3559 ;; This function calls:
  3560 ;;		Nothing
  3561 ;; This function is called by:
  3562 ;;		_main
  3563 ;; This function uses a non-reentrant model
  3564 ;;
  3565                           psect	text8,local,class=CODE,delta=2,merge=1,group=0
  3566                           	line	380
  3567                           global __ptext8
  3568                           __ptext8:	;psect for function _check_infrarrojo
  3569  149A                     psect	text8
  3570                           	file	"Proyecto1_master.c"
  3571                           	line	380
  3572                           	global	__size_of_check_infrarrojo
  3573                           	__size_of_check_infrarrojo	equ	__end_of_check_infrarrojo-_check_infrarrojo
  3574  0031                     	
  3575                           _check_infrarrojo:	
  3576  149A                     ;incstack = 0
  3577                           	opt	stack 3
  3578                           ; Regs used in _check_infrarrojo: [wreg+status,2+status,0]
  3579                           	line	381
  3580                           	
  3581                           l3004:	
  3582  149A                     ;Proyecto1_master.c: 381:     if (PORTDbits.RD0 == 0){
  3583                           	bcf	status, 5	;RP0=0, select bank0
  3584  149A  1283               	bcf	status, 6	;RP1=0, select bank0
  3585  149B  1303               	btfsc	(8),0	;volatile
  3586  149C  1808               	goto	u3601
  3587  149D  2C9F               	goto	u3600
  3588  149E  2CA0               u3601:
  3589  149F                     	goto	l3008
  3590  149F  2CA5               u3600:
  3591  14A0                     	line	382
  3592                           	
  3593                           l3006:	
  3594  14A0                     ;Proyecto1_master.c: 382:             AR1=1;
  3595                           	bsf	status, 5	;RP0=1, select bank1
  3596  14A0  1683               	bcf	status, 6	;RP1=0, select bank1
  3597  14A1  1303               	clrf	(_AR1)^080h
  3598  14A2  01A7               	incf	(_AR1)^080h,f
  3599  14A3  0AA7               	line	383
  3600                           ;Proyecto1_master.c: 383:         }
  3601                           	goto	l3016
  3602  14A4  2CC1               	line	384
  3603                           ;Proyecto1_master.c: 384:         else {
  3604                           	
  3605                           l220:	
  3606  14A5                     	line	386
  3607                           	
  3608                           l3008:	
  3609  14A5                     ;Proyecto1_master.c: 386:             if(AR1 == 1){
  3610                           	bsf	status, 5	;RP0=1, select bank1
  3611  14A5  1683               	bcf	status, 6	;RP1=0, select bank1
  3612  14A6  1303               		decf	((_AR1)^080h),w
  3613  14A7  0327               	btfss	status,2
  3614  14A8  1D03               	goto	u3611
  3615  14A9  2CAB               	goto	u3610
  3616  14AA  2CAC               u3611:
  3617  14AB                     	goto	l3016
  3618  14AB  2CC1               u3610:
  3619  14AC                     	line	387
  3620                           	
  3621                           l3010:	
  3622  14AC                     ;Proyecto1_master.c: 387:                 sens++;
  3623                           	movlw	low(01h)
  3624  14AC  3001               	bcf	status, 5	;RP0=0, select bank0
  3625  14AD  1283               	bcf	status, 6	;RP1=0, select bank0
  3626  14AE  1303               	movwf	(??_check_infrarrojo+0)+0
  3627  14AF  00A0               	movf	(??_check_infrarrojo+0)+0,w
  3628  14B0  0820               	bsf	status, 5	;RP0=1, select bank1
  3629  14B1  1683               	bcf	status, 6	;RP1=0, select bank1
  3630  14B2  1303               	addwf	(_sens)^080h,f
  3631  14B3  07A8               	line	388
  3632                           	
  3633                           l3012:	
  3634  14B4                     ;Proyecto1_master.c: 388:                 AR1 = 0;
  3635                           	clrf	(_AR1)^080h
  3636  14B4  01A7               	line	389
  3637                           	
  3638                           l3014:	
  3639  14B5                     ;Proyecto1_master.c: 389:                 _delay((unsigned long)((5)*(8000000/4000.0)));
                                 
  3640                           	opt asmopt_push
  3641                           opt asmopt_off
  3642                           movlw	13
  3643  14B5  300D               	bcf	status, 5	;RP0=0, select bank0
  3644  14B6  1283               	bcf	status, 6	;RP1=0, select bank0
  3645  14B7  1303               movwf	((??_check_infrarrojo+0)+0+1),f
  3646  14B8  00A1               	movlw	251
  3647  14B9  30FB               movwf	((??_check_infrarrojo+0)+0),f
  3648  14BA  00A0               	u3707:
  3649  14BB                     decfsz	((??_check_infrarrojo+0)+0),f
  3650  14BB  0BA0               	goto	u3707
  3651  14BC  2CBB               	decfsz	((??_check_infrarrojo+0)+0+1),f
  3652  14BD  0BA1               	goto	u3707
  3653  14BE  2CBB               opt asmopt_pop
  3654                           
  3655                           	goto	l3016
  3656  14BF  2CC1               	line	390
  3657                           ;Proyecto1_master.c: 390:             }
  3658                           	
  3659                           l222:	
  3660  14C0                     	goto	l3016
  3661  14C0  2CC1               	line	392
  3662                           ;Proyecto1_master.c: 392:         }
  3663                           	
  3664                           l221:	
  3665  14C1                     	line	393
  3666                           	
  3667                           l3016:	
  3668  14C1                     ;Proyecto1_master.c: 393:         if (sens==255){
  3669                           	bsf	status, 5	;RP0=1, select bank1
  3670  14C1  1683               	bcf	status, 6	;RP1=0, select bank1
  3671  14C2  1303               		incf	((_sens)^080h),w
  3672  14C3  0A28               	btfss	status,2
  3673  14C4  1D03               	goto	u3621
  3674  14C5  2CC7               	goto	u3620
  3675  14C6  2CC8               u3621:
  3676  14C7                     	goto	l224
  3677  14C7  2CCA               u3620:
  3678  14C8                     	line	394
  3679                           	
  3680                           l3018:	
  3681  14C8                     ;Proyecto1_master.c: 394:                 sens = 0;
  3682                           	clrf	(_sens)^080h
  3683  14C8  01A8               	goto	l224
  3684  14C9  2CCA               	line	395
  3685                           ;Proyecto1_master.c: 395:                 }
  3686                           	
  3687                           l223:	
  3688  14CA                     	line	396
  3689                           	
  3690                           l224:	
  3691  14CA                     	return
  3692  14CA  0008               	opt stack 0
  3693                           GLOBAL	__end_of_check_infrarrojo
  3694                           	__end_of_check_infrarrojo:
  3695  14CB                     	signat	_check_infrarrojo,89
  3696                           	global	_boton_lcd
  3697                           
  3698 ;; *************** function _boton_lcd *****************
  3699 ;; Defined at:
  3700 ;;		line 161 in file "Proyecto1_master.c"
  3701 ;; Parameters:    Size  Location     Type
  3702 ;;		None
  3703 ;; Auto vars:     Size  Location     Type
  3704 ;;		None
  3705 ;; Return value:  Size  Location     Type
  3706 ;;                  1    wreg      void 
  3707 ;; Registers used:
  3708 ;;		wreg, fsr0l, fsr0h, status,2, status,0, btemp+1, pclath, cstack
  3709 ;; Tracked objects:
  3710 ;;		On entry : 0/0
  3711 ;;		On exit  : 0/0
  3712 ;;		Unchanged: 0/0
  3713 ;; Data sizes:     COMMON   BANK0   BANK1   BANK3   BANK2
  3714 ;;      Params:         0       0       0       0       0
  3715 ;;      Locals:         0       0       0       0       0
  3716 ;;      Temps:          0       0       0       0       0
  3717 ;;      Totals:         0       0       0       0       0
  3718 ;;Total ram usage:        0 bytes
  3719 ;; Hardware stack levels used:    1
  3720 ;; Hardware stack levels required when called:    8
  3721 ;; This function calls:
  3722 ;;		_lcd_set_cursor
  3723 ;;		_lcd_write_char
  3724 ;;		_lcd_write_string
  3725 ;;		_mostrar_lcd
  3726 ;;		_separa_digitos_rtc
  3727 ;;		_slave_1
  3728 ;;		_slave_2
  3729 ;; This function is called by:
  3730 ;;		_main
  3731 ;; This function uses a non-reentrant model
  3732 ;;
  3733                           psect	text9,local,class=CODE,delta=2,merge=1,group=0
  3734                           	line	161
  3735                           global __ptext9
  3736                           __ptext9:	;psect for function _boton_lcd
  3737  0DF8                     psect	text9
  3738                           	file	"Proyecto1_master.c"
  3739                           	line	161
  3740                           	global	__size_of_boton_lcd
  3741                           	__size_of_boton_lcd	equ	__end_of_boton_lcd-_boton_lcd
  3742  00E0                     	
  3743                           _boton_lcd:	
  3744  0DF8                     ;incstack = 0
  3745 ;; hardware stack exceeded
  3746                           	opt	stack 0
  3747                           ; Regs used in _boton_lcd: [wreg-fsr0h+status,2+status,0+btemp+1+pclath+cstack]
  3748                           	line	162
  3749                           	
  3750                           l2924:	
  3751  0DF8                     ;Proyecto1_master.c: 162:     if(modo==0){
  3752                           	bsf	status, 5	;RP0=1, select bank1
  3753  0DF8  1683               	bcf	status, 6	;RP1=0, select bank1
  3754  0DF9  1303               	movf	((_modo)^080h),w
  3755  0DFA  082C               	btfss	status,2
  3756  0DFB  1D03               	goto	u3421
  3757  0DFC  2DFE               	goto	u3420
  3758  0DFD  2DFF               u3421:
  3759  0DFE                     	goto	l2936
  3760  0DFE  2E34               u3420:
  3761  0DFF                     	line	163
  3762                           	
  3763                           l2926:	
  3764  0DFF                     ;Proyecto1_master.c: 163:         lcd_set_cursor(1, 1);
  3765                           	bcf	status, 5	;RP0=0, select bank0
  3766  0DFF  1283               	bcf	status, 6	;RP1=0, select bank0
  3767  0E00  1303               	clrf	(lcd_set_cursor@b)
  3768  0E01  01A4               	incf	(lcd_set_cursor@b),f
  3769  0E02  0AA4               	movlw	low(01h)
  3770  0E03  3001               	fcall	_lcd_set_cursor
  3771  0E04  160A  118A  236E  120A  158A  	line	164
  3772                           	
  3773                           l2928:	
  3774  0E09                     ;Proyecto1_master.c: 164:         lcd_write_string("Fecha:");
  3775                           	movlw	(low((((STR_3)-__stringbase)|8000h)))&0ffh
  3776  0E09  3040               	bcf	status, 5	;RP0=0, select bank0
  3777  0E0A  1283               	bcf	status, 6	;RP1=0, select bank0
  3778  0E0B  1303               	movwf	(lcd_write_string@a)
  3779  0E0C  00A4               	movlw	80h
  3780  0E0D  3080               	movwf	(lcd_write_string@a+1)
  3781  0E0E  00A5               	fcall	_lcd_write_string
  3782  0E0F  160A  118A  2625  120A  158A  	line	165
  3783                           	
  3784                           l2930:	
  3785  0E14                     ;Proyecto1_master.c: 165:         lcd_set_cursor(2, 1);
  3786                           	bcf	status, 5	;RP0=0, select bank0
  3787  0E14  1283               	bcf	status, 6	;RP1=0, select bank0
  3788  0E15  1303               	clrf	(lcd_set_cursor@b)
  3789  0E16  01A4               	incf	(lcd_set_cursor@b),f
  3790  0E17  0AA4               	movlw	low(02h)
  3791  0E18  3002               	fcall	_lcd_set_cursor
  3792  0E19  160A  118A  236E  120A  158A  	line	166
  3793                           ;Proyecto1_master.c: 166:         lcd_write_string("Hora:");
  3794                           	movlw	(low((((STR_4)-__stringbase)|8000h)))&0ffh
  3795  0E1E  3047               	bcf	status, 5	;RP0=0, select bank0
  3796  0E1F  1283               	bcf	status, 6	;RP1=0, select bank0
  3797  0E20  1303               	movwf	(lcd_write_string@a)
  3798  0E21  00A4               	movlw	80h
  3799  0E22  3080               	movwf	(lcd_write_string@a+1)
  3800  0E23  00A5               	fcall	_lcd_write_string
  3801  0E24  160A  118A  2625  120A  158A  	line	167
  3802                           	
  3803                           l2932:	
  3804  0E29                     ;Proyecto1_master.c: 167:         separa_digitos_rtc();
  3805                           	fcall	_separa_digitos_rtc
  3806  0E29  120A  118A  269E  120A  158A  	line	168
  3807                           	
  3808                           l2934:	
  3809  0E2E                     ;Proyecto1_master.c: 168:         mostrar_lcd();
  3810                           	fcall	_mostrar_lcd
  3811  0E2E  120A  158A  2306  120A  158A  	line	170
  3812                           ;Proyecto1_master.c: 170:     }else if(modo==1){
  3813                           	goto	l177
  3814  0E33  2ED7               	
  3815                           l166:	
  3816  0E34                     	
  3817                           l2936:	
  3818  0E34                     	bsf	status, 5	;RP0=1, select bank1
  3819  0E34  1683               	bcf	status, 6	;RP1=0, select bank1
  3820  0E35  1303               		decf	((_modo)^080h),w
  3821  0E36  032C               	btfss	status,2
  3822  0E37  1D03               	goto	u3431
  3823  0E38  2E3A               	goto	u3430
  3824  0E39  2E3B               u3431:
  3825  0E3A                     	goto	l2946
  3826  0E3A  2E64               u3430:
  3827  0E3B                     	line	171
  3828                           	
  3829                           l2938:	
  3830  0E3B                     ;Proyecto1_master.c: 171:         lcd_set_cursor(1, 1);
  3831                           	bcf	status, 5	;RP0=0, select bank0
  3832  0E3B  1283               	bcf	status, 6	;RP1=0, select bank0
  3833  0E3C  1303               	clrf	(lcd_set_cursor@b)
  3834  0E3D  01A4               	incf	(lcd_set_cursor@b),f
  3835  0E3E  0AA4               	movlw	low(01h)
  3836  0E3F  3001               	fcall	_lcd_set_cursor
  3837  0E40  160A  118A  236E  120A  158A  	line	172
  3838                           	
  3839                           l2940:	
  3840  0E45                     ;Proyecto1_master.c: 172:         lcd_write_string("Contador:");
  3841                           	movlw	(low((((STR_5)-__stringbase)|8000h)))&0ffh
  3842  0E45  302D               	bcf	status, 5	;RP0=0, select bank0
  3843  0E46  1283               	bcf	status, 6	;RP1=0, select bank0
  3844  0E47  1303               	movwf	(lcd_write_string@a)
  3845  0E48  00A4               	movlw	80h
  3846  0E49  3080               	movwf	(lcd_write_string@a+1)
  3847  0E4A  00A5               	fcall	_lcd_write_string
  3848  0E4B  160A  118A  2625  120A  158A  	line	173
  3849                           	
  3850                           l2942:	
  3851  0E50                     ;Proyecto1_master.c: 173:         lcd_set_cursor(2, 1);
  3852                           	bcf	status, 5	;RP0=0, select bank0
  3853  0E50  1283               	bcf	status, 6	;RP1=0, select bank0
  3854  0E51  1303               	clrf	(lcd_set_cursor@b)
  3855  0E52  01A4               	incf	(lcd_set_cursor@b),f
  3856  0E53  0AA4               	movlw	low(02h)
  3857  0E54  3002               	fcall	_lcd_set_cursor
  3858  0E55  160A  118A  236E  120A  158A  	line	174
  3859                           	
  3860                           l2944:	
  3861  0E5A                     ;Proyecto1_master.c: 174:         lcd_write_char(sens+48);
  3862                           	bsf	status, 5	;RP0=1, select bank1
  3863  0E5A  1683               	bcf	status, 6	;RP1=0, select bank1
  3864  0E5B  1303               	movf	(_sens)^080h,w
  3865  0E5C  0828               	addlw	030h
  3866  0E5D  3E30               	fcall	_lcd_write_char
  3867  0E5E  120A  118A  27DF  120A  158A  	line	176
  3868                           ;Proyecto1_master.c: 176:     }else if (modo==2){
  3869                           	goto	l177
  3870  0E63  2ED7               	
  3871                           l168:	
  3872  0E64                     	
  3873                           l2946:	
  3874  0E64                     		movlw	2
  3875  0E64  3002               	bsf	status, 5	;RP0=1, select bank1
  3876  0E65  1683               	bcf	status, 6	;RP1=0, select bank1
  3877  0E66  1303               	xorwf	((_modo)^080h),w
  3878  0E67  062C               	btfss	status,2
  3879  0E68  1D03               	goto	u3441
  3880  0E69  2E6B               	goto	u3440
  3881  0E6A  2E6C               u3441:
  3882  0E6B                     	goto	l2954
  3883  0E6B  2E87               u3440:
  3884  0E6C                     	line	177
  3885                           	
  3886                           l2948:	
  3887  0E6C                     ;Proyecto1_master.c: 177:         lcd_set_cursor(1, 1);
  3888                           	bcf	status, 5	;RP0=0, select bank0
  3889  0E6C  1283               	bcf	status, 6	;RP1=0, select bank0
  3890  0E6D  1303               	clrf	(lcd_set_cursor@b)
  3891  0E6E  01A4               	incf	(lcd_set_cursor@b),f
  3892  0E6F  0AA4               	movlw	low(01h)
  3893  0E70  3001               	fcall	_lcd_set_cursor
  3894  0E71  160A  118A  236E  120A  158A  	line	178
  3895                           	
  3896                           l2950:	
  3897  0E76                     ;Proyecto1_master.c: 178:         lcd_write_string("Temperatura:");
  3898                           	movlw	(low((((STR_6)-__stringbase)|8000h)))&0ffh
  3899  0E76  3020               	bcf	status, 5	;RP0=0, select bank0
  3900  0E77  1283               	bcf	status, 6	;RP1=0, select bank0
  3901  0E78  1303               	movwf	(lcd_write_string@a)
  3902  0E79  00A4               	movlw	80h
  3903  0E7A  3080               	movwf	(lcd_write_string@a+1)
  3904  0E7B  00A5               	fcall	_lcd_write_string
  3905  0E7C  160A  118A  2625  120A  158A  	line	179
  3906                           	
  3907                           l2952:	
  3908  0E81                     ;Proyecto1_master.c: 179:         slave_1();
  3909                           	fcall	_slave_1
  3910  0E81  120A  158A  26D8  120A  158A  	line	181
  3911                           ;Proyecto1_master.c: 181:     }else if (modo==3){
  3912                           	goto	l177
  3913  0E86  2ED7               	
  3914                           l170:	
  3915  0E87                     	
  3916                           l2954:	
  3917  0E87                     		movlw	3
  3918  0E87  3003               	bsf	status, 5	;RP0=1, select bank1
  3919  0E88  1683               	bcf	status, 6	;RP1=0, select bank1
  3920  0E89  1303               	xorwf	((_modo)^080h),w
  3921  0E8A  062C               	btfss	status,2
  3922  0E8B  1D03               	goto	u3451
  3923  0E8C  2E8E               	goto	u3450
  3924  0E8D  2E8F               u3451:
  3925  0E8E                     	goto	l2962
  3926  0E8E  2EAA               u3450:
  3927  0E8F                     	line	182
  3928                           	
  3929                           l2956:	
  3930  0E8F                     ;Proyecto1_master.c: 182:         lcd_set_cursor(1, 1);
  3931                           	bcf	status, 5	;RP0=0, select bank0
  3932  0E8F  1283               	bcf	status, 6	;RP1=0, select bank0
  3933  0E90  1303               	clrf	(lcd_set_cursor@b)
  3934  0E91  01A4               	incf	(lcd_set_cursor@b),f
  3935  0E92  0AA4               	movlw	low(01h)
  3936  0E93  3001               	fcall	_lcd_set_cursor
  3937  0E94  160A  118A  236E  120A  158A  	line	183
  3938                           	
  3939                           l2958:	
  3940  0E99                     ;Proyecto1_master.c: 183:         lcd_write_string("Temblor:");
  3941                           	movlw	(low((((STR_7)-__stringbase)|8000h)))&0ffh
  3942  0E99  3037               	bcf	status, 5	;RP0=0, select bank0
  3943  0E9A  1283               	bcf	status, 6	;RP1=0, select bank0
  3944  0E9B  1303               	movwf	(lcd_write_string@a)
  3945  0E9C  00A4               	movlw	80h
  3946  0E9D  3080               	movwf	(lcd_write_string@a+1)
  3947  0E9E  00A5               	fcall	_lcd_write_string
  3948  0E9F  160A  118A  2625  120A  158A  	line	184
  3949                           	
  3950                           l2960:	
  3951  0EA4                     ;Proyecto1_master.c: 184:         slave_2();
  3952                           	fcall	_slave_2
  3953  0EA4  120A  158A  209C  120A  158A  	line	185
  3954                           ;Proyecto1_master.c: 185:     }else if (modo==4){
  3955                           	goto	l177
  3956  0EA9  2ED7               	
  3957                           l172:	
  3958  0EAA                     	
  3959                           l2962:	
  3960  0EAA                     		movlw	4
  3961  0EAA  3004               	bsf	status, 5	;RP0=1, select bank1
  3962  0EAB  1683               	bcf	status, 6	;RP1=0, select bank1
  3963  0EAC  1303               	xorwf	((_modo)^080h),w
  3964  0EAD  062C               	btfss	status,2
  3965  0EAE  1D03               	goto	u3461
  3966  0EAF  2EB1               	goto	u3460
  3967  0EB0  2EB2               u3461:
  3968  0EB1                     	goto	l2968
  3969  0EB1  2EC8               u3460:
  3970  0EB2                     	line	186
  3971                           	
  3972                           l2964:	
  3973  0EB2                     ;Proyecto1_master.c: 186:         lcd_set_cursor(1, 1);
  3974                           	bcf	status, 5	;RP0=0, select bank0
  3975  0EB2  1283               	bcf	status, 6	;RP1=0, select bank0
  3976  0EB3  1303               	clrf	(lcd_set_cursor@b)
  3977  0EB4  01A4               	incf	(lcd_set_cursor@b),f
  3978  0EB5  0AA4               	movlw	low(01h)
  3979  0EB6  3001               	fcall	_lcd_set_cursor
  3980  0EB7  160A  118A  236E  120A  158A  	line	187
  3981                           	
  3982                           l2966:	
  3983  0EBC                     ;Proyecto1_master.c: 187:         lcd_write_string("Humo:");
  3984                           	movlw	(low((((STR_8)-__stringbase)|8000h)))&0ffh
  3985  0EBC  304D               	bcf	status, 5	;RP0=0, select bank0
  3986  0EBD  1283               	bcf	status, 6	;RP1=0, select bank0
  3987  0EBE  1303               	movwf	(lcd_write_string@a)
  3988  0EBF  00A4               	movlw	80h
  3989  0EC0  3080               	movwf	(lcd_write_string@a+1)
  3990  0EC1  00A5               	fcall	_lcd_write_string
  3991  0EC2  160A  118A  2625  120A  158A  	line	189
  3992                           ;Proyecto1_master.c: 189:     }else if(modo>4){
  3993                           	goto	l177
  3994  0EC7  2ED7               	
  3995                           l174:	
  3996  0EC8                     	
  3997                           l2968:	
  3998  0EC8                     	movlw	low(05h)
  3999  0EC8  3005               	bsf	status, 5	;RP0=1, select bank1
  4000  0EC9  1683               	bcf	status, 6	;RP1=0, select bank1
  4001  0ECA  1303               	subwf	(_modo)^080h,w
  4002  0ECB  022C               	skipc
  4003  0ECC  1C03               	goto	u3471
  4004  0ECD  2ECF               	goto	u3470
  4005  0ECE  2ED0               u3471:
  4006  0ECF                     	goto	l177
  4007  0ECF  2ED7               u3470:
  4008  0ED0                     	line	190
  4009                           	
  4010                           l2970:	
  4011  0ED0                     ;Proyecto1_master.c: 190:         modo=0;
  4012                           	clrf	(_modo)^080h
  4013  0ED0  01AC               	goto	l177
  4014  0ED1  2ED7               	line	191
  4015                           ;Proyecto1_master.c: 191:     }
  4016                           	
  4017                           l176:	
  4018  0ED2                     	goto	l177
  4019  0ED2  2ED7               	
  4020                           l175:	
  4021  0ED3                     	goto	l177
  4022  0ED3  2ED7               	
  4023                           l173:	
  4024  0ED4                     	goto	l177
  4025  0ED4  2ED7               	
  4026                           l171:	
  4027  0ED5                     	goto	l177
  4028  0ED5  2ED7               	
  4029                           l169:	
  4030  0ED6                     	goto	l177
  4031  0ED6  2ED7               	
  4032                           l167:	
  4033  0ED7                     	line	192
  4034                           	
  4035                           l177:	
  4036  0ED7                     	return
  4037  0ED7  0008               	opt stack 0
  4038                           GLOBAL	__end_of_boton_lcd
  4039                           	__end_of_boton_lcd:
  4040  0ED8                     	signat	_boton_lcd,89
  4041                           	global	_slave_2
  4042                           
  4043 ;; *************** function _slave_2 *****************
  4044 ;; Defined at:
  4045 ;;		line 416 in file "Proyecto1_master.c"
  4046 ;; Parameters:    Size  Location     Type
  4047 ;;		None
  4048 ;; Auto vars:     Size  Location     Type
  4049 ;;		None
  4050 ;; Return value:  Size  Location     Type
  4051 ;;                  1    wreg      void 
  4052 ;; Registers used:
  4053 ;;		wreg, fsr0l, fsr0h, status,2, status,0, btemp+1, pclath, cstack
  4054 ;; Tracked objects:
  4055 ;;		On entry : 0/0
  4056 ;;		On exit  : 0/0
  4057 ;;		Unchanged: 0/0
  4058 ;; Data sizes:     COMMON   BANK0   BANK1   BANK3   BANK2
  4059 ;;      Params:         0       0       0       0       0
  4060 ;;      Locals:         0       0       0       0       0
  4061 ;;      Temps:          0       3       0       0       0
  4062 ;;      Totals:         0       3       0       0       0
  4063 ;;Total ram usage:        3 bytes
  4064 ;; Hardware stack levels used:    1
  4065 ;; Hardware stack levels required when called:    7
  4066 ;; This function calls:
  4067 ;;		_I2C_Master_Read
  4068 ;;		_I2C_Master_Start
  4069 ;;		_I2C_Master_Stop
  4070 ;;		_I2C_Master_Write
  4071 ;;		_lcd_clear
  4072 ;;		_lcd_set_cursor
  4073 ;;		_lcd_write_string
  4074 ;; This function is called by:
  4075 ;;		_boton_lcd
  4076 ;; This function uses a non-reentrant model
  4077 ;;
  4078                           psect	text10,local,class=CODE,delta=2,merge=1,group=0
  4079                           	line	416
  4080                           global __ptext10
  4081                           __ptext10:	;psect for function _slave_2
  4082  089C                     psect	text10
  4083                           	file	"Proyecto1_master.c"
  4084                           	line	416
  4085                           	global	__size_of_slave_2
  4086                           	__size_of_slave_2	equ	__end_of_slave_2-_slave_2
  4087  0078                     	
  4088                           _slave_2:	
  4089  089C                     ;incstack = 0
  4090 ;; hardware stack exceeded
  4091                           	opt	stack 0
  4092                           ; Regs used in _slave_2: [wreg-fsr0h+status,2+status,0+btemp+1+pclath+cstack]
  4093                           	line	417
  4094                           	
  4095                           l2804:	
  4096  089C                     ;Proyecto1_master.c: 417:     I2C_Master_Start();
  4097                           	fcall	_I2C_Master_Start
  4098  089C  160A  118A  22BD  120A  158A  	line	418
  4099                           ;Proyecto1_master.c: 418:     I2C_Master_Write(0x21);
  4100                           	movlw	021h
  4101  08A1  3021               	bcf	status, 5	;RP0=0, select bank0
  4102  08A2  1283               	bcf	status, 6	;RP1=0, select bank0
  4103  08A3  1303               	movwf	(I2C_Master_Write@d)
  4104  08A4  00AD               	movlw	0
  4105  08A5  3000               	movwf	((I2C_Master_Write@d))+1
  4106  08A6  00AE               	fcall	_I2C_Master_Write
  4107  08A7  160A  118A  22CF  120A  158A  	line	419
  4108                           ;Proyecto1_master.c: 419:     sismo = I2C_Master_Read(0);
  4109                           	movlw	0
  4110  08AC  3000               	bcf	status, 5	;RP0=0, select bank0
  4111  08AD  1283               	bcf	status, 6	;RP1=0, select bank0
  4112  08AE  1303               	movwf	(I2C_Master_Read@a)
  4113  08AF  00A0               	movwf	(I2C_Master_Read@a+1)
  4114  08B0  00A1               	fcall	_I2C_Master_Read
  4115  08B1  160A  118A  24CB  120A  158A  	bcf	status, 5	;RP0=0, select bank0
  4116  08B6  1283               	bcf	status, 6	;RP1=0, select bank0
  4117  08B7  1303               	movf	(0+(?_I2C_Master_Read)),w
  4118  08B8  0820               	movwf	(??_slave_2+0)+0
  4119  08B9  00AF               	movf	(??_slave_2+0)+0,w
  4120  08BA  082F               	bsf	status, 5	;RP0=1, select bank1
  4121  08BB  1683               	bcf	status, 6	;RP1=0, select bank1
  4122  08BC  1303               	movwf	(_sismo)^080h
  4123  08BD  00A9               	line	420
  4124                           ;Proyecto1_master.c: 420:     I2C_Master_Stop();
  4125                           	fcall	_I2C_Master_Stop
  4126  08BE  160A  118A  22C6  120A  158A  	line	421
  4127                           	
  4128                           l2806:	
  4129  08C3                     ;Proyecto1_master.c: 421:     _delay((unsigned long)((5)*(8000000/4000.0)));
  4130                           	opt asmopt_push
  4131                           opt asmopt_off
  4132                           movlw	13
  4133  08C3  300D               	bcf	status, 5	;RP0=0, select bank0
  4134  08C4  1283               	bcf	status, 6	;RP1=0, select bank0
  4135  08C5  1303               movwf	((??_slave_2+0)+0+1),f
  4136  08C6  00B0               	movlw	251
  4137  08C7  30FB               movwf	((??_slave_2+0)+0),f
  4138  08C8  00AF               	u3717:
  4139  08C9                     decfsz	((??_slave_2+0)+0),f
  4140  08C9  0BAF               	goto	u3717
  4141  08CA  28C9               	decfsz	((??_slave_2+0)+0+1),f
  4142  08CB  0BB0               	goto	u3717
  4143  08CC  28C9               opt asmopt_pop
  4144                           
  4145                           	line	423
  4146                           	
  4147                           l2808:	
  4148  08CD                     ;Proyecto1_master.c: 423:     if (sismo == 1){
  4149                           	bsf	status, 5	;RP0=1, select bank1
  4150  08CD  1683               	bcf	status, 6	;RP1=0, select bank1
  4151  08CE  1303               		decf	((_sismo)^080h),w
  4152  08CF  0329               	btfss	status,2
  4153  08D0  1D03               	goto	u3331
  4154  08D1  28D3               	goto	u3330
  4155  08D2  28D4               u3331:
  4156  08D3                     	goto	l2818
  4157  08D3  28FD               u3330:
  4158  08D4                     	line	424
  4159                           	
  4160                           l2810:	
  4161  08D4                     ;Proyecto1_master.c: 424:         lcd_set_cursor(2, 1);
  4162                           	bcf	status, 5	;RP0=0, select bank0
  4163  08D4  1283               	bcf	status, 6	;RP1=0, select bank0
  4164  08D5  1303               	clrf	(lcd_set_cursor@b)
  4165  08D6  01A4               	incf	(lcd_set_cursor@b),f
  4166  08D7  0AA4               	movlw	low(02h)
  4167  08D8  3002               	fcall	_lcd_set_cursor
  4168  08D9  160A  118A  236E  120A  158A  	line	425
  4169                           	
  4170                           l2812:	
  4171  08DE                     ;Proyecto1_master.c: 425:         lcd_write_string("Esta temblando!");
  4172                           	movlw	(low((((STR_14)-__stringbase)|8000h)))&0ffh
  4173  08DE  3001               	bcf	status, 5	;RP0=0, select bank0
  4174  08DF  1283               	bcf	status, 6	;RP1=0, select bank0
  4175  08E0  1303               	movwf	(lcd_write_string@a)
  4176  08E1  00A4               	movlw	80h
  4177  08E2  3080               	movwf	(lcd_write_string@a+1)
  4178  08E3  00A5               	fcall	_lcd_write_string
  4179  08E4  160A  118A  2625  120A  158A  	line	426
  4180                           	
  4181                           l2814:	
  4182  08E9                     ;Proyecto1_master.c: 426:         _delay((unsigned long)((5000)*(8000000/4000.0)));
  4183                           	opt asmopt_push
  4184                           opt asmopt_off
  4185                           movlw  51
  4186  08E9  3033               	bcf	status, 5	;RP0=0, select bank0
  4187  08EA  1283               	bcf	status, 6	;RP1=0, select bank0
  4188  08EB  1303               movwf	((??_slave_2+0)+0+2),f
  4189  08EC  00B1               movlw	187
  4190  08ED  30BB               movwf	((??_slave_2+0)+0+1),f
  4191  08EE  00B0               	movlw	223
  4192  08EF  30DF               movwf	((??_slave_2+0)+0),f
  4193  08F0  00AF               	u3727:
  4194  08F1                     decfsz	((??_slave_2+0)+0),f
  4195  08F1  0BAF               	goto	u3727
  4196  08F2  28F1               	decfsz	((??_slave_2+0)+0+1),f
  4197  08F3  0BB0               	goto	u3727
  4198  08F4  28F1               	decfsz	((??_slave_2+0)+0+2),f
  4199  08F5  0BB1               	goto	u3727
  4200  08F6  28F1               opt asmopt_pop
  4201                           
  4202                           	line	427
  4203                           	
  4204                           l2816:	
  4205  08F7                     ;Proyecto1_master.c: 427:         lcd_clear();
  4206                           	fcall	_lcd_clear
  4207  08F7  160A  118A  2297  120A  158A  	line	429
  4208                           ;Proyecto1_master.c: 429:         }
  4209                           	goto	l232
  4210  08FC  2913               	line	430
  4211                           ;Proyecto1_master.c: 430:     else {
  4212                           	
  4213                           l230:	
  4214  08FD                     	line	432
  4215                           	
  4216                           l2818:	
  4217  08FD                     ;Proyecto1_master.c: 432:         lcd_set_cursor(2, 1);
  4218                           	bcf	status, 5	;RP0=0, select bank0
  4219  08FD  1283               	bcf	status, 6	;RP1=0, select bank0
  4220  08FE  1303               	clrf	(lcd_set_cursor@b)
  4221  08FF  01A4               	incf	(lcd_set_cursor@b),f
  4222  0900  0AA4               	movlw	low(02h)
  4223  0901  3002               	fcall	_lcd_set_cursor
  4224  0902  160A  118A  236E  120A  158A  	line	433
  4225                           	
  4226                           l2820:	
  4227  0907                     ;Proyecto1_master.c: 433:         lcd_write_string("Tranquilo prro");
  4228                           	movlw	(low((((STR_15)-__stringbase)|8000h)))&0ffh
  4229  0907  3011               	bcf	status, 5	;RP0=0, select bank0
  4230  0908  1283               	bcf	status, 6	;RP1=0, select bank0
  4231  0909  1303               	movwf	(lcd_write_string@a)
  4232  090A  00A4               	movlw	80h
  4233  090B  3080               	movwf	(lcd_write_string@a+1)
  4234  090C  00A5               	fcall	_lcd_write_string
  4235  090D  160A  118A  2625  120A  158A  	goto	l232
  4236  0912  2913               	line	435
  4237                           ;Proyecto1_master.c: 435:         }
  4238                           	
  4239                           l231:	
  4240  0913                     	line	437
  4241                           	
  4242                           l232:	
  4243  0913                     	return
  4244  0913  0008               	opt stack 0
  4245                           GLOBAL	__end_of_slave_2
  4246                           	__end_of_slave_2:
  4247  0914                     	signat	_slave_2,89
  4248                           	global	_lcd_clear
  4249                           
  4250 ;; *************** function _lcd_clear *****************
  4251 ;; Defined at:
  4252 ;;		line 105 in file "LCD.c"
  4253 ;; Parameters:    Size  Location     Type
  4254 ;;		None
  4255 ;; Auto vars:     Size  Location     Type
  4256 ;;		None
  4257 ;; Return value:  Size  Location     Type
  4258 ;;                  1    wreg      void 
  4259 ;; Registers used:
  4260 ;;		wreg, status,2, status,0, pclath, cstack
  4261 ;; Tracked objects:
  4262 ;;		On entry : 0/0
  4263 ;;		On exit  : 0/0
  4264 ;;		Unchanged: 0/0
  4265 ;; Data sizes:     COMMON   BANK0   BANK1   BANK3   BANK2
  4266 ;;      Params:         0       0       0       0       0
  4267 ;;      Locals:         0       0       0       0       0
  4268 ;;      Temps:          0       0       0       0       0
  4269 ;;      Totals:         0       0       0       0       0
  4270 ;;Total ram usage:        0 bytes
  4271 ;; Hardware stack levels used:    1
  4272 ;; Hardware stack levels required when called:    6
  4273 ;; This function calls:
  4274 ;;		_lcd_cmd
  4275 ;; This function is called by:
  4276 ;;		_main
  4277 ;;		_slave_2
  4278 ;; This function uses a non-reentrant model
  4279 ;;
  4280                           psect	text11,local,class=CODE,delta=2,merge=1,group=0
  4281                           	file	"LCD.c"
  4282                           	line	105
  4283                           global __ptext11
  4284                           __ptext11:	;psect for function _lcd_clear
  4285  1297                     psect	text11
  4286                           	file	"LCD.c"
  4287                           	line	105
  4288                           	global	__size_of_lcd_clear
  4289                           	__size_of_lcd_clear	equ	__end_of_lcd_clear-_lcd_clear
  4290  0007                     	
  4291                           _lcd_clear:	
  4292  1297                     ;incstack = 0
  4293                           	opt	stack 1
  4294                           ; Regs used in _lcd_clear: [wreg+status,2+status,0+pclath+cstack]
  4295                           	line	107
  4296                           	
  4297                           l2630:	
  4298  1297                     ;LCD.c: 107:     lcd_cmd(0x01);
  4299                           	movlw	low(01h)
  4300  1297  3001               	fcall	_lcd_cmd
  4301  1298  160A  118A  2352  160A  118A  	line	108
  4302                           	
  4303                           l390:	
  4304  129D                     	return
  4305  129D  0008               	opt stack 0
  4306                           GLOBAL	__end_of_lcd_clear
  4307                           	__end_of_lcd_clear:
  4308  129E                     	signat	_lcd_clear,89
  4309                           	global	_slave_1
  4310                           
  4311 ;; *************** function _slave_1 *****************
  4312 ;; Defined at:
  4313 ;;		line 400 in file "Proyecto1_master.c"
  4314 ;; Parameters:    Size  Location     Type
  4315 ;;		None
  4316 ;; Auto vars:     Size  Location     Type
  4317 ;;		None
  4318 ;; Return value:  Size  Location     Type
  4319 ;;                  1    wreg      void 
  4320 ;; Registers used:
  4321 ;;		wreg, fsr0l, fsr0h, status,2, status,0, btemp+1, pclath, cstack
  4322 ;; Tracked objects:
  4323 ;;		On entry : 0/0
  4324 ;;		On exit  : 0/0
  4325 ;;		Unchanged: 0/0
  4326 ;; Data sizes:     COMMON   BANK0   BANK1   BANK3   BANK2
  4327 ;;      Params:         0       0       0       0       0
  4328 ;;      Locals:         0       0       8       0       0
  4329 ;;      Temps:          0       5       0       0       0
  4330 ;;      Totals:         0       5       8       0       0
  4331 ;;Total ram usage:       13 bytes
  4332 ;; Hardware stack levels used:    1
  4333 ;; Hardware stack levels required when called:    7
  4334 ;; This function calls:
  4335 ;;		_I2C_Master_Read
  4336 ;;		_I2C_Master_Start
  4337 ;;		_I2C_Master_Stop
  4338 ;;		_I2C_Master_Write
  4339 ;;		___xxtofl
  4340 ;;		_b0
  4341 ;;		_b1
  4342 ;;		_b2
  4343 ;;		_lcd_set_cursor
  4344 ;;		_lcd_write_char
  4345 ;;		_lcd_write_string
  4346 ;; This function is called by:
  4347 ;;		_boton_lcd
  4348 ;; This function uses a non-reentrant model
  4349 ;;
  4350                           psect	text12,local,class=CODE,delta=2,merge=1,group=0
  4351                           	file	"Proyecto1_master.c"
  4352                           	line	400
  4353                           global __ptext12
  4354                           __ptext12:	;psect for function _slave_1
  4355  0ED8                     psect	text12
  4356                           	file	"Proyecto1_master.c"
  4357                           	line	400
  4358                           	global	__size_of_slave_1
  4359                           	__size_of_slave_1	equ	__end_of_slave_1-_slave_1
  4360  0128                     	
  4361                           _slave_1:	
  4362  0ED8                     ;incstack = 0
  4363 ;; hardware stack exceeded
  4364                           	opt	stack 0
  4365                           ; Regs used in _slave_1: [wreg-fsr0h+status,2+status,0+btemp+1+pclath+cstack]
  4366                           	line	401
  4367                           	
  4368                           l2782:	
  4369  0ED8                     ;Proyecto1_master.c: 401:     I2C_Master_Start();
  4370                           	fcall	_I2C_Master_Start
  4371  0ED8  160A  118A  22BD  120A  158A  	line	402
  4372                           ;Proyecto1_master.c: 402:     I2C_Master_Write(0x11);
  4373                           	movlw	011h
  4374  0EDD  3011               	bcf	status, 5	;RP0=0, select bank0
  4375  0EDE  1283               	bcf	status, 6	;RP1=0, select bank0
  4376  0EDF  1303               	movwf	(I2C_Master_Write@d)
  4377  0EE0  00AD               	movlw	0
  4378  0EE1  3000               	movwf	((I2C_Master_Write@d))+1
  4379  0EE2  00AE               	fcall	_I2C_Master_Write
  4380  0EE3  160A  118A  22CF  120A  158A  	line	403
  4381                           ;Proyecto1_master.c: 403:     temperatura = I2C_Master_Read(0);
  4382                           	movlw	0
  4383  0EE8  3000               	bcf	status, 5	;RP0=0, select bank0
  4384  0EE9  1283               	bcf	status, 6	;RP1=0, select bank0
  4385  0EEA  1303               	movwf	(I2C_Master_Read@a)
  4386  0EEB  00A0               	movwf	(I2C_Master_Read@a+1)
  4387  0EEC  00A1               	fcall	_I2C_Master_Read
  4388  0EED  160A  118A  24CB  120A  158A  	bcf	status, 5	;RP0=0, select bank0
  4389  0EF2  1283               	bcf	status, 6	;RP1=0, select bank0
  4390  0EF3  1303               	movf	(0+(?_I2C_Master_Read)),w
  4391  0EF4  0820               	movwf	(??_slave_1+0)+0
  4392  0EF5  00E7               	movf	(??_slave_1+0)+0,w
  4393  0EF6  0867               	bsf	status, 5	;RP0=1, select bank1
  4394  0EF7  1683               	bcf	status, 6	;RP1=0, select bank1
  4395  0EF8  1303               	movwf	(_temperatura)^080h
  4396  0EF9  00AA               	line	404
  4397                           ;Proyecto1_master.c: 404:     I2C_Master_Stop();
  4398                           	fcall	_I2C_Master_Stop
  4399  0EFA  160A  118A  22C6  120A  158A  	line	405
  4400                           	
  4401                           l2784:	
  4402  0EFF                     ;Proyecto1_master.c: 405:     _delay((unsigned long)((200)*(8000000/4000.0)));
  4403                           	opt asmopt_push
  4404                           opt asmopt_off
  4405                           movlw  3
  4406  0EFF  3003               	bcf	status, 5	;RP0=0, select bank0
  4407  0F00  1283               	bcf	status, 6	;RP1=0, select bank0
  4408  0F01  1303               movwf	((??_slave_1+0)+0+2),f
  4409  0F02  00E9               movlw	8
  4410  0F03  3008               movwf	((??_slave_1+0)+0+1),f
  4411  0F04  00E8               	movlw	118
  4412  0F05  3076               movwf	((??_slave_1+0)+0),f
  4413  0F06  00E7               	u3737:
  4414  0F07                     decfsz	((??_slave_1+0)+0),f
  4415  0F07  0BE7               	goto	u3737
  4416  0F08  2F07               	decfsz	((??_slave_1+0)+0+1),f
  4417  0F09  0BE8               	goto	u3737
  4418  0F0A  2F07               	decfsz	((??_slave_1+0)+0+2),f
  4419  0F0B  0BE9               	goto	u3737
  4420  0F0C  2F07               	nop
  4421  0F0D  0000               opt asmopt_pop
  4422                           
  4423                           	line	407
  4424                           	
  4425                           l2786:	
  4426  0F0E                     ;Proyecto1_master.c: 407:     lcd_set_cursor(2, 1);
  4427                           	bcf	status, 5	;RP0=0, select bank0
  4428  0F0E  1283               	bcf	status, 6	;RP1=0, select bank0
  4429  0F0F  1303               	clrf	(lcd_set_cursor@b)
  4430  0F10  01A4               	incf	(lcd_set_cursor@b),f
  4431  0F11  0AA4               	movlw	low(02h)
  4432  0F12  3002               	fcall	_lcd_set_cursor
  4433  0F13  160A  118A  236E  120A  158A  	line	408
  4434                           	
  4435                           l2788:	
  4436  0F18                     ;Proyecto1_master.c: 408:     s1[2] = b0(temperatura);
  4437                           	bsf	status, 5	;RP0=1, select bank1
  4438  0F18  1683               	bcf	status, 6	;RP1=0, select bank1
  4439  0F19  1303               	movf	(_temperatura)^080h,w
  4440  0F1A  082A               	bcf	status, 5	;RP0=0, select bank0
  4441  0F1B  1283               	bcf	status, 6	;RP1=0, select bank0
  4442  0F1C  1303               	movwf	(??_slave_1+0)+0
  4443  0F1D  00E7               	clrf	(??_slave_1+0)+0+1
  4444  0F1E  01E8               	clrf	(??_slave_1+0)+0+2
  4445  0F1F  01E9               	clrf	(??_slave_1+0)+0+3
  4446  0F20  01EA               	movf	3+(??_slave_1+0)+0,w
  4447  0F21  086A               	movwf	(___xxtofl@val+3)
  4448  0F22  00A9               	movf	2+(??_slave_1+0)+0,w
  4449  0F23  0869               	movwf	(___xxtofl@val+2)
  4450  0F24  00A8               	movf	1+(??_slave_1+0)+0,w
  4451  0F25  0868               	movwf	(___xxtofl@val+1)
  4452  0F26  00A7               	movf	0+(??_slave_1+0)+0,w
  4453  0F27  0867               	movwf	(___xxtofl@val)
  4454  0F28  00A6               
  4455                           	movlw	low(0)
  4456  0F29  3000               	fcall	___xxtofl
  4457  0F2A  120A  158A  2534  120A  158A  	bcf	status, 5	;RP0=0, select bank0
  4458  0F2F  1283               	bcf	status, 6	;RP1=0, select bank0
  4459  0F30  1303               	movf	(3+(?___xxtofl)),w
  4460  0F31  0829               	bsf	status, 5	;RP0=1, select bank1
  4461  0F32  1683               	bcf	status, 6	;RP1=0, select bank1
  4462  0F33  1303               	movwf	(_slave_1$1187+3)^080h
  4463  0F34  00C8               	bcf	status, 5	;RP0=0, select bank0
  4464  0F35  1283               	bcf	status, 6	;RP1=0, select bank0
  4465  0F36  1303               	movf	(2+(?___xxtofl)),w
  4466  0F37  0828               	bsf	status, 5	;RP0=1, select bank1
  4467  0F38  1683               	bcf	status, 6	;RP1=0, select bank1
  4468  0F39  1303               	movwf	(_slave_1$1187+2)^080h
  4469  0F3A  00C7               	bcf	status, 5	;RP0=0, select bank0
  4470  0F3B  1283               	bcf	status, 6	;RP1=0, select bank0
  4471  0F3C  1303               	movf	(1+(?___xxtofl)),w
  4472  0F3D  0827               	bsf	status, 5	;RP0=1, select bank1
  4473  0F3E  1683               	bcf	status, 6	;RP1=0, select bank1
  4474  0F3F  1303               	movwf	(_slave_1$1187+1)^080h
  4475  0F40  00C6               	bcf	status, 5	;RP0=0, select bank0
  4476  0F41  1283               	bcf	status, 6	;RP1=0, select bank0
  4477  0F42  1303               	movf	(0+(?___xxtofl)),w
  4478  0F43  0826               	bsf	status, 5	;RP0=1, select bank1
  4479  0F44  1683               	bcf	status, 6	;RP1=0, select bank1
  4480  0F45  1303               	movwf	(_slave_1$1187)^080h
  4481  0F46  00C5               
  4482                           	
  4483                           l2790:	
  4484  0F47                     ;Proyecto1_master.c: 408:     s1[2] = b0(temperatura);
  4485                           	movf	(_slave_1$1187+3)^080h,w
  4486  0F47  0848               	bcf	status, 5	;RP0=0, select bank0
  4487  0F48  1283               	bcf	status, 6	;RP1=0, select bank0
  4488  0F49  1303               	movwf	(b0@m+3)
  4489  0F4A  00DE               	bsf	status, 5	;RP0=1, select bank1
  4490  0F4B  1683               	bcf	status, 6	;RP1=0, select bank1
  4491  0F4C  1303               	movf	(_slave_1$1187+2)^080h,w
  4492  0F4D  0847               	bcf	status, 5	;RP0=0, select bank0
  4493  0F4E  1283               	bcf	status, 6	;RP1=0, select bank0
  4494  0F4F  1303               	movwf	(b0@m+2)
  4495  0F50  00DD               	bsf	status, 5	;RP0=1, select bank1
  4496  0F51  1683               	bcf	status, 6	;RP1=0, select bank1
  4497  0F52  1303               	movf	(_slave_1$1187+1)^080h,w
  4498  0F53  0846               	bcf	status, 5	;RP0=0, select bank0
  4499  0F54  1283               	bcf	status, 6	;RP1=0, select bank0
  4500  0F55  1303               	movwf	(b0@m+1)
  4501  0F56  00DC               	bsf	status, 5	;RP0=1, select bank1
  4502  0F57  1683               	bcf	status, 6	;RP1=0, select bank1
  4503  0F58  1303               	movf	(_slave_1$1187)^080h,w
  4504  0F59  0845               	bcf	status, 5	;RP0=0, select bank0
  4505  0F5A  1283               	bcf	status, 6	;RP1=0, select bank0
  4506  0F5B  1303               	movwf	(b0@m)
  4507  0F5C  00DB               
  4508                           	fcall	_b0
  4509  0F5D  120A  158A  23B5  120A  158A  	bcf	status, 5	;RP0=0, select bank0
  4510  0F62  1283               	bcf	status, 6	;RP1=0, select bank0
  4511  0F63  1303               	movwf	(??_slave_1+0)+0
  4512  0F64  00E7               	movf	(??_slave_1+0)+0,w
  4513  0F65  0867               	bsf	status, 5	;RP0=1, select bank1
  4514  0F66  1683               	bcf	status, 6	;RP1=0, select bank1
  4515  0F67  1303               	movwf	0+(_s1)^080h+02h
  4516  0F68  00BA               	line	409
  4517                           	
  4518                           l2792:	
  4519  0F69                     ;Proyecto1_master.c: 409:     s1[1] = b1(temperatura);
  4520                           	movf	(_temperatura)^080h,w
  4521  0F69  082A               	bcf	status, 5	;RP0=0, select bank0
  4522  0F6A  1283               	bcf	status, 6	;RP1=0, select bank0
  4523  0F6B  1303               	movwf	(??_slave_1+0)+0
  4524  0F6C  00E7               	clrf	(??_slave_1+0)+0+1
  4525  0F6D  01E8               	clrf	(??_slave_1+0)+0+2
  4526  0F6E  01E9               	clrf	(??_slave_1+0)+0+3
  4527  0F6F  01EA               	movf	3+(??_slave_1+0)+0,w
  4528  0F70  086A               	movwf	(___xxtofl@val+3)
  4529  0F71  00A9               	movf	2+(??_slave_1+0)+0,w
  4530  0F72  0869               	movwf	(___xxtofl@val+2)
  4531  0F73  00A8               	movf	1+(??_slave_1+0)+0,w
  4532  0F74  0868               	movwf	(___xxtofl@val+1)
  4533  0F75  00A7               	movf	0+(??_slave_1+0)+0,w
  4534  0F76  0867               	movwf	(___xxtofl@val)
  4535  0F77  00A6               
  4536                           	movlw	low(0)
  4537  0F78  3000               	fcall	___xxtofl
  4538  0F79  120A  158A  2534  120A  158A  	bcf	status, 5	;RP0=0, select bank0
  4539  0F7E  1283               	bcf	status, 6	;RP1=0, select bank0
  4540  0F7F  1303               	movf	(3+(?___xxtofl)),w
  4541  0F80  0829               	bsf	status, 5	;RP0=1, select bank1
  4542  0F81  1683               	bcf	status, 6	;RP1=0, select bank1
  4543  0F82  1303               	movwf	(_slave_1$1188+3)^080h
  4544  0F83  00CC               	bcf	status, 5	;RP0=0, select bank0
  4545  0F84  1283               	bcf	status, 6	;RP1=0, select bank0
  4546  0F85  1303               	movf	(2+(?___xxtofl)),w
  4547  0F86  0828               	bsf	status, 5	;RP0=1, select bank1
  4548  0F87  1683               	bcf	status, 6	;RP1=0, select bank1
  4549  0F88  1303               	movwf	(_slave_1$1188+2)^080h
  4550  0F89  00CB               	bcf	status, 5	;RP0=0, select bank0
  4551  0F8A  1283               	bcf	status, 6	;RP1=0, select bank0
  4552  0F8B  1303               	movf	(1+(?___xxtofl)),w
  4553  0F8C  0827               	bsf	status, 5	;RP0=1, select bank1
  4554  0F8D  1683               	bcf	status, 6	;RP1=0, select bank1
  4555  0F8E  1303               	movwf	(_slave_1$1188+1)^080h
  4556  0F8F  00CA               	bcf	status, 5	;RP0=0, select bank0
  4557  0F90  1283               	bcf	status, 6	;RP1=0, select bank0
  4558  0F91  1303               	movf	(0+(?___xxtofl)),w
  4559  0F92  0826               	bsf	status, 5	;RP0=1, select bank1
  4560  0F93  1683               	bcf	status, 6	;RP1=0, select bank1
  4561  0F94  1303               	movwf	(_slave_1$1188)^080h
  4562  0F95  00C9               
  4563                           	
  4564                           l2794:	
  4565  0F96                     ;Proyecto1_master.c: 409:     s1[1] = b1(temperatura);
  4566                           	movf	(_slave_1$1188+3)^080h,w
  4567  0F96  084C               	bcf	status, 5	;RP0=0, select bank0
  4568  0F97  1283               	bcf	status, 6	;RP1=0, select bank0
  4569  0F98  1303               	movwf	(b1@m+3)
  4570  0F99  00DE               	bsf	status, 5	;RP0=1, select bank1
  4571  0F9A  1683               	bcf	status, 6	;RP1=0, select bank1
  4572  0F9B  1303               	movf	(_slave_1$1188+2)^080h,w
  4573  0F9C  084B               	bcf	status, 5	;RP0=0, select bank0
  4574  0F9D  1283               	bcf	status, 6	;RP1=0, select bank0
  4575  0F9E  1303               	movwf	(b1@m+2)
  4576  0F9F  00DD               	bsf	status, 5	;RP0=1, select bank1
  4577  0FA0  1683               	bcf	status, 6	;RP1=0, select bank1
  4578  0FA1  1303               	movf	(_slave_1$1188+1)^080h,w
  4579  0FA2  084A               	bcf	status, 5	;RP0=0, select bank0
  4580  0FA3  1283               	bcf	status, 6	;RP1=0, select bank0
  4581  0FA4  1303               	movwf	(b1@m+1)
  4582  0FA5  00DC               	bsf	status, 5	;RP0=1, select bank1
  4583  0FA6  1683               	bcf	status, 6	;RP1=0, select bank1
  4584  0FA7  1303               	movf	(_slave_1$1188)^080h,w
  4585  0FA8  0849               	bcf	status, 5	;RP0=0, select bank0
  4586  0FA9  1283               	bcf	status, 6	;RP1=0, select bank0
  4587  0FAA  1303               	movwf	(b1@m)
  4588  0FAB  00DB               
  4589                           	fcall	_b1
  4590  0FAC  120A  158A  225A  120A  158A  	bcf	status, 5	;RP0=0, select bank0
  4591  0FB1  1283               	bcf	status, 6	;RP1=0, select bank0
  4592  0FB2  1303               	movwf	(??_slave_1+0)+0
  4593  0FB3  00E7               	movf	(??_slave_1+0)+0,w
  4594  0FB4  0867               	bsf	status, 5	;RP0=1, select bank1
  4595  0FB5  1683               	bcf	status, 6	;RP1=0, select bank1
  4596  0FB6  1303               	movwf	0+(_s1)^080h+01h
  4597  0FB7  00B9               	line	410
  4598                           	
  4599                           l2796:	
  4600  0FB8                     ;Proyecto1_master.c: 410:     s1[0] = b2(temperatura);
  4601                           	movf	(_temperatura)^080h,w
  4602  0FB8  082A               	bcf	status, 5	;RP0=0, select bank0
  4603  0FB9  1283               	bcf	status, 6	;RP1=0, select bank0
  4604  0FBA  1303               	movwf	(??_slave_1+0)+0
  4605  0FBB  00E7               	clrf	(??_slave_1+0)+0+1
  4606  0FBC  01E8               	clrf	(??_slave_1+0)+0+2
  4607  0FBD  01E9               	clrf	(??_slave_1+0)+0+3
  4608  0FBE  01EA               	movf	3+(??_slave_1+0)+0,w
  4609  0FBF  086A               	movwf	(___xxtofl@val+3)
  4610  0FC0  00A9               	movf	2+(??_slave_1+0)+0,w
  4611  0FC1  0869               	movwf	(___xxtofl@val+2)
  4612  0FC2  00A8               	movf	1+(??_slave_1+0)+0,w
  4613  0FC3  0868               	movwf	(___xxtofl@val+1)
  4614  0FC4  00A7               	movf	0+(??_slave_1+0)+0,w
  4615  0FC5  0867               	movwf	(___xxtofl@val)
  4616  0FC6  00A6               
  4617                           	movlw	low(0)
  4618  0FC7  3000               	fcall	___xxtofl
  4619  0FC8  120A  158A  2534  120A  158A  	bcf	status, 5	;RP0=0, select bank0
  4620  0FCD  1283               	bcf	status, 6	;RP1=0, select bank0
  4621  0FCE  1303               	movf	(3+(?___xxtofl)),w
  4622  0FCF  0829               	movwf	(b2@m+3)
  4623  0FD0  00DE               	movf	(2+(?___xxtofl)),w
  4624  0FD1  0828               	movwf	(b2@m+2)
  4625  0FD2  00DD               	movf	(1+(?___xxtofl)),w
  4626  0FD3  0827               	movwf	(b2@m+1)
  4627  0FD4  00DC               	movf	(0+(?___xxtofl)),w
  4628  0FD5  0826               	movwf	(b2@m)
  4629  0FD6  00DB               
  4630                           	fcall	_b2
  4631  0FD7  160A  118A  256F  120A  158A  	bcf	status, 5	;RP0=0, select bank0
  4632  0FDC  1283               	bcf	status, 6	;RP1=0, select bank0
  4633  0FDD  1303               	movwf	(??_slave_1+4)+0
  4634  0FDE  00EB               	movf	(??_slave_1+4)+0,w
  4635  0FDF  086B               	bsf	status, 5	;RP0=1, select bank1
  4636  0FE0  1683               	bcf	status, 6	;RP1=0, select bank1
  4637  0FE1  1303               	movwf	(_s1)^080h
  4638  0FE2  00B8               	line	411
  4639                           	
  4640                           l2798:	
  4641  0FE3                     ;Proyecto1_master.c: 411:     lcd_write_string(s1);
  4642                           	movlw	(low(_s1|((0x0)<<8))&0ffh)
  4643  0FE3  30B8               	bcf	status, 5	;RP0=0, select bank0
  4644  0FE4  1283               	bcf	status, 6	;RP1=0, select bank0
  4645  0FE5  1303               	movwf	(lcd_write_string@a)
  4646  0FE6  00A4               	movlw	(0x0)
  4647  0FE7  3000               	movwf	(lcd_write_string@a+1)
  4648  0FE8  00A5               	fcall	_lcd_write_string
  4649  0FE9  160A  118A  2625  120A  158A  	line	412
  4650                           	
  4651                           l2800:	
  4652  0FEE                     ;Proyecto1_master.c: 412:     lcd_write_char(223);
  4653                           	movlw	low(0DFh)
  4654  0FEE  30DF               	fcall	_lcd_write_char
  4655  0FEF  120A  118A  27DF  120A  158A  	line	413
  4656                           	
  4657                           l2802:	
  4658  0FF4                     ;Proyecto1_master.c: 413:     lcd_write_string("C");
  4659                           	movlw	(low((((STR_13)-__stringbase)|8000h)))&0ffh
  4660  0FF4  3055               	bcf	status, 5	;RP0=0, select bank0
  4661  0FF5  1283               	bcf	status, 6	;RP1=0, select bank0
  4662  0FF6  1303               	movwf	(lcd_write_string@a)
  4663  0FF7  00A4               	movlw	80h
  4664  0FF8  3080               	movwf	(lcd_write_string@a+1)
  4665  0FF9  00A5               	fcall	_lcd_write_string
  4666  0FFA  160A  118A  2625  120A  158A  	line	415
  4667                           	
  4668                           l227:	
  4669  0FFF                     	return
  4670  0FFF  0008               	opt stack 0
  4671                           GLOBAL	__end_of_slave_1
  4672                           	__end_of_slave_1:
  4673  1000                     	signat	_slave_1,89
  4674                           	global	_b2
  4675                           
  4676 ;; *************** function _b2 *****************
  4677 ;; Defined at:
  4678 ;;		line 481 in file "Proyecto1_master.c"
  4679 ;; Parameters:    Size  Location     Type
  4680 ;;  m               4   59[BANK0 ] float 
  4681 ;; Auto vars:     Size  Location     Type
  4682 ;;  local           4    0        float 
  4683 ;;  p2              1   65[BANK0 ] unsigned char 
  4684 ;;  bb2             1   64[BANK0 ] unsigned char 
  4685 ;; Return value:  Size  Location     Type
  4686 ;;                  1    wreg      unsigned char 
  4687 ;; Registers used:
  4688 ;;		wreg, fsr0l, fsr0h, status,2, status,0, btemp+1, pclath, cstack
  4689 ;; Tracked objects:
  4690 ;;		On entry : 0/0
  4691 ;;		On exit  : 0/0
  4692 ;;		Unchanged: 0/0
  4693 ;; Data sizes:     COMMON   BANK0   BANK1   BANK3   BANK2
  4694 ;;      Params:         0       4       0       0       0
  4695 ;;      Locals:         0       2       0       0       0
  4696 ;;      Temps:          0       1       0       0       0
  4697 ;;      Totals:         0       7       0       0       0
  4698 ;;Total ram usage:        7 bytes
  4699 ;; Hardware stack levels used:    1
  4700 ;; Hardware stack levels required when called:    5
  4701 ;; This function calls:
  4702 ;;		___fldiv
  4703 ;;		___fltol
  4704 ;;		_num_case
  4705 ;; This function is called by:
  4706 ;;		_slave_1
  4707 ;; This function uses a non-reentrant model
  4708 ;;
  4709                           psect	text13,local,class=CODE,delta=2,merge=1,group=0
  4710                           	line	481
  4711                           global __ptext13
  4712                           __ptext13:	;psect for function _b2
  4713  156F                     psect	text13
  4714                           	file	"Proyecto1_master.c"
  4715                           	line	481
  4716                           	global	__size_of_b2
  4717                           	__size_of_b2	equ	__end_of_b2-_b2
  4718  003A                     	
  4719                           _b2:	
  4720  156F                     ;incstack = 0
  4721                           	opt	stack 0
  4722                           ; Regs used in _b2: [wreg-fsr0h+status,2+status,0+btemp+1+pclath+cstack]
  4723                           	line	486
  4724                           	
  4725                           l2698:	
  4726  156F                     ;Proyecto1_master.c: 482:     uint8_t bb2;;Proyecto1_master.c: 483:     float local;;Pro
                                 yecto1_master.c: 484:     char p2;;Proyecto1_master.c: 486:     bb2 = m/100;
  4727                           	bcf	status, 5	;RP0=0, select bank0
  4728  156F  1283               	bcf	status, 6	;RP1=0, select bank0
  4729  1570  1303               	movf	(b2@m+3),w
  4730  1571  085E               	movwf	(___fldiv@b+3)
  4731  1572  00A7               	movf	(b2@m+2),w
  4732  1573  085D               	movwf	(___fldiv@b+2)
  4733  1574  00A6               	movf	(b2@m+1),w
  4734  1575  085C               	movwf	(___fldiv@b+1)
  4735  1576  00A5               	movf	(b2@m),w
  4736  1577  085B               	movwf	(___fldiv@b)
  4737  1578  00A4               
  4738                           	movlw	0x42
  4739  1579  3042               	movwf	(___fldiv@a+3)
  4740  157A  00A3               	movlw	0xc8
  4741  157B  30C8               	movwf	(___fldiv@a+2)
  4742  157C  00A2               	movlw	0x0
  4743  157D  3000               	movwf	(___fldiv@a+1)
  4744  157E  00A1               	movlw	0x0
  4745  157F  3000               	movwf	(___fldiv@a)
  4746  1580  00A0               
  4747                           	fcall	___fldiv
  4748  1581  120A  118A  2300  160A  118A  	bcf	status, 5	;RP0=0, select bank0
  4749  1586  1283               	bcf	status, 6	;RP1=0, select bank0
  4750  1587  1303               	movf	(3+(?___fldiv)),w
  4751  1588  0823               	movwf	(___fltol@f1+3)
  4752  1589  00D3               	movf	(2+(?___fldiv)),w
  4753  158A  0822               	movwf	(___fltol@f1+2)
  4754  158B  00D2               	movf	(1+(?___fldiv)),w
  4755  158C  0821               	movwf	(___fltol@f1+1)
  4756  158D  00D1               	movf	(0+(?___fldiv)),w
  4757  158E  0820               	movwf	(___fltol@f1)
  4758  158F  00D0               
  4759                           	fcall	___fltol
  4760  1590  120A  158A  2114  160A  118A  	bcf	status, 5	;RP0=0, select bank0
  4761  1595  1283               	bcf	status, 6	;RP1=0, select bank0
  4762  1596  1303               	movf	(0+(?___fltol)),w
  4763  1597  0850               	movwf	(??_b2+0)+0
  4764  1598  00DF               	movf	(??_b2+0)+0,w
  4765  1599  085F               	movwf	(b2@bb2)
  4766  159A  00E0               	line	487
  4767                           	
  4768                           l2700:	
  4769  159B                     ;Proyecto1_master.c: 487:     p2 = num_case(bb2);
  4770                           	movf	(b2@bb2),w
  4771  159B  0860               	fcall	_num_case
  4772  159C  160A  118A  26CA  160A  118A  	bcf	status, 5	;RP0=0, select bank0
  4773  15A1  1283               	bcf	status, 6	;RP1=0, select bank0
  4774  15A2  1303               	movwf	(??_b2+0)+0
  4775  15A3  00DF               	movf	(??_b2+0)+0,w
  4776  15A4  085F               	movwf	(b2@p2)
  4777  15A5  00E1               	line	488
  4778                           	
  4779                           l2702:	
  4780  15A6                     ;Proyecto1_master.c: 488:     return p2;
  4781                           	movf	(b2@p2),w
  4782  15A6  0861               	goto	l253
  4783  15A7  2DA8               	
  4784                           l2704:	
  4785  15A8                     	line	489
  4786                           	
  4787                           l253:	
  4788  15A8                     	return
  4789  15A8  0008               	opt stack 0
  4790                           GLOBAL	__end_of_b2
  4791                           	__end_of_b2:
  4792  15A9                     	signat	_b2,4217
  4793                           	global	_b1
  4794                           
  4795 ;; *************** function _b1 *****************
  4796 ;; Defined at:
  4797 ;;		line 491 in file "Proyecto1_master.c"
  4798 ;; Parameters:    Size  Location     Type
  4799 ;;  m               4   59[BANK0 ] float 
  4800 ;; Auto vars:     Size  Location     Type
  4801 ;;  p1              1   69[BANK0 ] unsigned char 
  4802 ;;  local           1   68[BANK0 ] unsigned char 
  4803 ;;  bb1             1   67[BANK0 ] unsigned char 
  4804 ;;  bb2             1   66[BANK0 ] unsigned char 
  4805 ;; Return value:  Size  Location     Type
  4806 ;;                  1    wreg      unsigned char 
  4807 ;; Registers used:
  4808 ;;		wreg, fsr0l, fsr0h, status,2, status,0, btemp+1, pclath, cstack
  4809 ;; Tracked objects:
  4810 ;;		On entry : 0/0
  4811 ;;		On exit  : 0/0
  4812 ;;		Unchanged: 0/0
  4813 ;; Data sizes:     COMMON   BANK0   BANK1   BANK3   BANK2
  4814 ;;      Params:         0       4       0       0       0
  4815 ;;      Locals:         0       4       0       0       0
  4816 ;;      Temps:          0       3       0       0       0
  4817 ;;      Totals:         0      11       0       0       0
  4818 ;;Total ram usage:       11 bytes
  4819 ;; Hardware stack levels used:    1
  4820 ;; Hardware stack levels required when called:    5
  4821 ;; This function calls:
  4822 ;;		___awdiv
  4823 ;;		___fladd
  4824 ;;		___fldiv
  4825 ;;		___flneg
  4826 ;;		___fltol
  4827 ;;		___wmul
  4828 ;;		___xxtofl
  4829 ;;		_num_case
  4830 ;; This function is called by:
  4831 ;;		_slave_1
  4832 ;; This function uses a non-reentrant model
  4833 ;;
  4834                           psect	text14,local,class=CODE,delta=2,merge=1,group=0
  4835                           	line	491
  4836                           global __ptext14
  4837                           __ptext14:	;psect for function _b1
  4838  0A5A                     psect	text14
  4839                           	file	"Proyecto1_master.c"
  4840                           	line	491
  4841                           	global	__size_of_b1
  4842                           	__size_of_b1	equ	__end_of_b1-_b1
  4843  00AC                     	
  4844                           _b1:	
  4845  0A5A                     ;incstack = 0
  4846                           	opt	stack 0
  4847                           ; Regs used in _b1: [wreg-fsr0h+status,2+status,0+btemp+1+pclath+cstack]
  4848                           	line	497
  4849                           	
  4850                           l2688:	
  4851  0A5A                     ;Proyecto1_master.c: 492:     uint8_t bb2;;Proyecto1_master.c: 493:     uint8_t bb1;;Pro
                                 yecto1_master.c: 494:     uint8_t local;;Proyecto1_master.c: 495:     char p1;;Proyecto1
                                 _master.c: 497:     bb2 = m/100;
  4852                           	bcf	status, 5	;RP0=0, select bank0
  4853  0A5A  1283               	bcf	status, 6	;RP1=0, select bank0
  4854  0A5B  1303               	movf	(b1@m+3),w
  4855  0A5C  085E               	movwf	(___fldiv@b+3)
  4856  0A5D  00A7               	movf	(b1@m+2),w
  4857  0A5E  085D               	movwf	(___fldiv@b+2)
  4858  0A5F  00A6               	movf	(b1@m+1),w
  4859  0A60  085C               	movwf	(___fldiv@b+1)
  4860  0A61  00A5               	movf	(b1@m),w
  4861  0A62  085B               	movwf	(___fldiv@b)
  4862  0A63  00A4               
  4863                           	movlw	0x42
  4864  0A64  3042               	movwf	(___fldiv@a+3)
  4865  0A65  00A3               	movlw	0xc8
  4866  0A66  30C8               	movwf	(___fldiv@a+2)
  4867  0A67  00A2               	movlw	0x0
  4868  0A68  3000               	movwf	(___fldiv@a+1)
  4869  0A69  00A1               	movlw	0x0
  4870  0A6A  3000               	movwf	(___fldiv@a)
  4871  0A6B  00A0               
  4872                           	fcall	___fldiv
  4873  0A6C  120A  118A  2300  120A  158A  	bcf	status, 5	;RP0=0, select bank0
  4874  0A71  1283               	bcf	status, 6	;RP1=0, select bank0
  4875  0A72  1303               	movf	(3+(?___fldiv)),w
  4876  0A73  0823               	movwf	(___fltol@f1+3)
  4877  0A74  00D3               	movf	(2+(?___fldiv)),w
  4878  0A75  0822               	movwf	(___fltol@f1+2)
  4879  0A76  00D2               	movf	(1+(?___fldiv)),w
  4880  0A77  0821               	movwf	(___fltol@f1+1)
  4881  0A78  00D1               	movf	(0+(?___fldiv)),w
  4882  0A79  0820               	movwf	(___fltol@f1)
  4883  0A7A  00D0               
  4884                           	fcall	___fltol
  4885  0A7B  120A  158A  2114  120A  158A  	bcf	status, 5	;RP0=0, select bank0
  4886  0A80  1283               	bcf	status, 6	;RP1=0, select bank0
  4887  0A81  1303               	movf	(0+(?___fltol)),w
  4888  0A82  0850               	movwf	(??_b1+0)+0
  4889  0A83  00DF               	movf	(??_b1+0)+0,w
  4890  0A84  085F               	movwf	(b1@bb2)
  4891  0A85  00E2               	line	498
  4892                           ;Proyecto1_master.c: 498:     local = m-bb2*100;
  4893                           	movlw	064h
  4894  0A86  3064               	movwf	(___wmul@multiplicand)
  4895  0A87  00A2               	movlw	0
  4896  0A88  3000               	movwf	((___wmul@multiplicand))+1
  4897  0A89  00A3               	movf	(b1@bb2),w
  4898  0A8A  0862               	movwf	(??_b1+0)+0
  4899  0A8B  00DF               	clrf	(??_b1+0)+0+1
  4900  0A8C  01E0               	movf	0+(??_b1+0)+0,w
  4901  0A8D  085F               	movwf	(___wmul@multiplier)
  4902  0A8E  00A0               	movf	1+(??_b1+0)+0,w
  4903  0A8F  0860               	movwf	(___wmul@multiplier+1)
  4904  0A90  00A1               	fcall	___wmul
  4905  0A91  160A  118A  2390  120A  158A  	bcf	status, 5	;RP0=0, select bank0
  4906  0A96  1283               	bcf	status, 6	;RP1=0, select bank0
  4907  0A97  1303               	movf	(0+(?___wmul)),w
  4908  0A98  0820               	movwf	(___xxtofl@val)
  4909  0A99  00A6               	movf	(1+(?___wmul)),w
  4910  0A9A  0821               	movwf	(___xxtofl@val+1)
  4911  0A9B  00A7               	movlw	0
  4912  0A9C  3000               	btfsc	(___xxtofl@val+1),7
  4913  0A9D  1BA7               	movlw	255
  4914  0A9E  30FF               	movwf	(___xxtofl@val+2)
  4915  0A9F  00A8               	movwf	(___xxtofl@val+3)
  4916  0AA0  00A9               	movlw	low(01h)
  4917  0AA1  3001               	fcall	___xxtofl
  4918  0AA2  120A  158A  2534  120A  158A  	bcf	status, 5	;RP0=0, select bank0
  4919  0AA7  1283               	bcf	status, 6	;RP1=0, select bank0
  4920  0AA8  1303               	movf	(3+(?___xxtofl)),w
  4921  0AA9  0829               	movwf	(___flneg@f1+3)
  4922  0AAA  00B7               	movf	(2+(?___xxtofl)),w
  4923  0AAB  0828               	movwf	(___flneg@f1+2)
  4924  0AAC  00B6               	movf	(1+(?___xxtofl)),w
  4925  0AAD  0827               	movwf	(___flneg@f1+1)
  4926  0AAE  00B5               	movf	(0+(?___xxtofl)),w
  4927  0AAF  0826               	movwf	(___flneg@f1)
  4928  0AB0  00B4               
  4929                           	fcall	___flneg
  4930  0AB1  160A  118A  22E8  120A  158A  	bcf	status, 5	;RP0=0, select bank0
  4931  0AB6  1283               	bcf	status, 6	;RP1=0, select bank0
  4932  0AB7  1303               	movf	(3+(?___flneg)),w
  4933  0AB8  0837               	movwf	(___fladd@a+3)
  4934  0AB9  00BF               	movf	(2+(?___flneg)),w
  4935  0ABA  0836               	movwf	(___fladd@a+2)
  4936  0ABB  00BE               	movf	(1+(?___flneg)),w
  4937  0ABC  0835               	movwf	(___fladd@a+1)
  4938  0ABD  00BD               	movf	(0+(?___flneg)),w
  4939  0ABE  0834               	movwf	(___fladd@a)
  4940  0ABF  00BC               
  4941                           	movf	(b1@m+3),w
  4942  0AC0  085E               	movwf	(___fladd@b+3)
  4943  0AC1  00BB               	movf	(b1@m+2),w
  4944  0AC2  085D               	movwf	(___fladd@b+2)
  4945  0AC3  00BA               	movf	(b1@m+1),w
  4946  0AC4  085C               	movwf	(___fladd@b+1)
  4947  0AC5  00B9               	movf	(b1@m),w
  4948  0AC6  085B               	movwf	(___fladd@b)
  4949  0AC7  00B8               
  4950                           	fcall	___fladd
  4951  0AC8  120A  118A  2044  120A  158A  	bcf	status, 5	;RP0=0, select bank0
  4952  0ACD  1283               	bcf	status, 6	;RP1=0, select bank0
  4953  0ACE  1303               	movf	(3+(?___fladd)),w
  4954  0ACF  083B               	movwf	(___fltol@f1+3)
  4955  0AD0  00D3               	movf	(2+(?___fladd)),w
  4956  0AD1  083A               	movwf	(___fltol@f1+2)
  4957  0AD2  00D2               	movf	(1+(?___fladd)),w
  4958  0AD3  0839               	movwf	(___fltol@f1+1)
  4959  0AD4  00D1               	movf	(0+(?___fladd)),w
  4960  0AD5  0838               	movwf	(___fltol@f1)
  4961  0AD6  00D0               
  4962                           	fcall	___fltol
  4963  0AD7  120A  158A  2114  120A  158A  	bcf	status, 5	;RP0=0, select bank0
  4964  0ADC  1283               	bcf	status, 6	;RP1=0, select bank0
  4965  0ADD  1303               	movf	(0+(?___fltol)),w
  4966  0ADE  0850               	movwf	(??_b1+2)+0
  4967  0ADF  00E1               	movf	(??_b1+2)+0,w
  4968  0AE0  0861               	movwf	(b1@local)
  4969  0AE1  00E4               	line	499
  4970                           	
  4971                           l2690:	
  4972  0AE2                     ;Proyecto1_master.c: 499:     bb1 = local/10;
  4973                           	movlw	0Ah
  4974  0AE2  300A               	movwf	(___awdiv@divisor)
  4975  0AE3  00A0               	movlw	0
  4976  0AE4  3000               	movwf	((___awdiv@divisor))+1
  4977  0AE5  00A1               	movf	(b1@local),w
  4978  0AE6  0864               	movwf	(??_b1+0)+0
  4979  0AE7  00DF               	clrf	(??_b1+0)+0+1
  4980  0AE8  01E0               	movf	0+(??_b1+0)+0,w
  4981  0AE9  085F               	movwf	(___awdiv@dividend)
  4982  0AEA  00A2               	movf	1+(??_b1+0)+0,w
  4983  0AEB  0860               	movwf	(___awdiv@dividend+1)
  4984  0AEC  00A3               	fcall	___awdiv
  4985  0AED  120A  158A  2029  120A  158A  	bcf	status, 5	;RP0=0, select bank0
  4986  0AF2  1283               	bcf	status, 6	;RP1=0, select bank0
  4987  0AF3  1303               	movf	(0+(?___awdiv)),w
  4988  0AF4  0820               	movwf	(??_b1+2)+0
  4989  0AF5  00E1               	movf	(??_b1+2)+0,w
  4990  0AF6  0861               	movwf	(b1@bb1)
  4991  0AF7  00E3               	line	500
  4992                           	
  4993                           l2692:	
  4994  0AF8                     ;Proyecto1_master.c: 500:     p1 = num_case(bb1);
  4995                           	movf	(b1@bb1),w
  4996  0AF8  0863               	fcall	_num_case
  4997  0AF9  160A  118A  26CA  120A  158A  	bcf	status, 5	;RP0=0, select bank0
  4998  0AFE  1283               	bcf	status, 6	;RP1=0, select bank0
  4999  0AFF  1303               	movwf	(??_b1+0)+0
  5000  0B00  00DF               	movf	(??_b1+0)+0,w
  5001  0B01  085F               	movwf	(b1@p1)
  5002  0B02  00E5               	line	501
  5003                           	
  5004                           l2694:	
  5005  0B03                     ;Proyecto1_master.c: 501:     return p1;
  5006                           	movf	(b1@p1),w
  5007  0B03  0865               	goto	l256
  5008  0B04  2B05               	
  5009                           l2696:	
  5010  0B05                     	line	502
  5011                           	
  5012                           l256:	
  5013  0B05                     	return
  5014  0B05  0008               	opt stack 0
  5015                           GLOBAL	__end_of_b1
  5016                           	__end_of_b1:
  5017  0B06                     	signat	_b1,4217
  5018                           	global	_b0
  5019                           
  5020 ;; *************** function _b0 *****************
  5021 ;; Defined at:
  5022 ;;		line 504 in file "Proyecto1_master.c"
  5023 ;; Parameters:    Size  Location     Type
  5024 ;;  m               4   59[BANK0 ] float 
  5025 ;; Auto vars:     Size  Location     Type
  5026 ;;  local           1   70[BANK0 ] unsigned char 
  5027 ;;  p0              1   69[BANK0 ] unsigned char 
  5028 ;;  bb0             1   68[BANK0 ] unsigned char 
  5029 ;;  bb1             1   67[BANK0 ] unsigned char 
  5030 ;;  bb2             1   66[BANK0 ] unsigned char 
  5031 ;; Return value:  Size  Location     Type
  5032 ;;                  1    wreg      unsigned char 
  5033 ;; Registers used:
  5034 ;;		wreg, fsr0l, fsr0h, status,2, status,0, btemp+1, pclath, cstack
  5035 ;; Tracked objects:
  5036 ;;		On entry : 0/0
  5037 ;;		On exit  : 0/0
  5038 ;;		Unchanged: 0/0
  5039 ;; Data sizes:     COMMON   BANK0   BANK1   BANK3   BANK2
  5040 ;;      Params:         0       4       0       0       0
  5041 ;;      Locals:         0       5       0       0       0
  5042 ;;      Temps:          0       3       0       0       0
  5043 ;;      Totals:         0      12       0       0       0
  5044 ;;Total ram usage:       12 bytes
  5045 ;; Hardware stack levels used:    1
  5046 ;; Hardware stack levels required when called:    5
  5047 ;; This function calls:
  5048 ;;		___awdiv
  5049 ;;		___bmul
  5050 ;;		___fladd
  5051 ;;		___fldiv
  5052 ;;		___flneg
  5053 ;;		___fltol
  5054 ;;		___wmul
  5055 ;;		___xxtofl
  5056 ;;		_num_case
  5057 ;; This function is called by:
  5058 ;;		_slave_1
  5059 ;; This function uses a non-reentrant model
  5060 ;;
  5061                           psect	text15,local,class=CODE,delta=2,merge=1,group=0
  5062                           	line	504
  5063                           global __ptext15
  5064                           __ptext15:	;psect for function _b0
  5065  0BB5                     psect	text15
  5066                           	file	"Proyecto1_master.c"
  5067                           	line	504
  5068                           	global	__size_of_b0
  5069                           	__size_of_b0	equ	__end_of_b0-_b0
  5070  00BE                     	
  5071                           _b0:	
  5072  0BB5                     ;incstack = 0
  5073                           	opt	stack 0
  5074                           ; Regs used in _b0: [wreg-fsr0h+status,2+status,0+btemp+1+pclath+cstack]
  5075                           	line	511
  5076                           	
  5077                           l2676:	
  5078  0BB5                     ;Proyecto1_master.c: 505:     uint8_t bb2;;Proyecto1_master.c: 506:     uint8_t bb1;;Pro
                                 yecto1_master.c: 507:     uint8_t bb0;;Proyecto1_master.c: 508:     uint8_t local;;Proye
                                 cto1_master.c: 509:     char p0;;Proyecto1_master.c: 511:     bb2 = m/100;
  5079                           	bcf	status, 5	;RP0=0, select bank0
  5080  0BB5  1283               	bcf	status, 6	;RP1=0, select bank0
  5081  0BB6  1303               	movf	(b0@m+3),w
  5082  0BB7  085E               	movwf	(___fldiv@b+3)
  5083  0BB8  00A7               	movf	(b0@m+2),w
  5084  0BB9  085D               	movwf	(___fldiv@b+2)
  5085  0BBA  00A6               	movf	(b0@m+1),w
  5086  0BBB  085C               	movwf	(___fldiv@b+1)
  5087  0BBC  00A5               	movf	(b0@m),w
  5088  0BBD  085B               	movwf	(___fldiv@b)
  5089  0BBE  00A4               
  5090                           	movlw	0x42
  5091  0BBF  3042               	movwf	(___fldiv@a+3)
  5092  0BC0  00A3               	movlw	0xc8
  5093  0BC1  30C8               	movwf	(___fldiv@a+2)
  5094  0BC2  00A2               	movlw	0x0
  5095  0BC3  3000               	movwf	(___fldiv@a+1)
  5096  0BC4  00A1               	movlw	0x0
  5097  0BC5  3000               	movwf	(___fldiv@a)
  5098  0BC6  00A0               
  5099                           	fcall	___fldiv
  5100  0BC7  120A  118A  2300  120A  158A  	bcf	status, 5	;RP0=0, select bank0
  5101  0BCC  1283               	bcf	status, 6	;RP1=0, select bank0
  5102  0BCD  1303               	movf	(3+(?___fldiv)),w
  5103  0BCE  0823               	movwf	(___fltol@f1+3)
  5104  0BCF  00D3               	movf	(2+(?___fldiv)),w
  5105  0BD0  0822               	movwf	(___fltol@f1+2)
  5106  0BD1  00D2               	movf	(1+(?___fldiv)),w
  5107  0BD2  0821               	movwf	(___fltol@f1+1)
  5108  0BD3  00D1               	movf	(0+(?___fldiv)),w
  5109  0BD4  0820               	movwf	(___fltol@f1)
  5110  0BD5  00D0               
  5111                           	fcall	___fltol
  5112  0BD6  120A  158A  2114  120A  158A  	bcf	status, 5	;RP0=0, select bank0
  5113  0BDB  1283               	bcf	status, 6	;RP1=0, select bank0
  5114  0BDC  1303               	movf	(0+(?___fltol)),w
  5115  0BDD  0850               	movwf	(??_b0+0)+0
  5116  0BDE  00DF               	movf	(??_b0+0)+0,w
  5117  0BDF  085F               	movwf	(b0@bb2)
  5118  0BE0  00E2               	line	512
  5119                           ;Proyecto1_master.c: 512:     local = m-bb2*100;
  5120                           	movlw	064h
  5121  0BE1  3064               	movwf	(___wmul@multiplicand)
  5122  0BE2  00A2               	movlw	0
  5123  0BE3  3000               	movwf	((___wmul@multiplicand))+1
  5124  0BE4  00A3               	movf	(b0@bb2),w
  5125  0BE5  0862               	movwf	(??_b0+0)+0
  5126  0BE6  00DF               	clrf	(??_b0+0)+0+1
  5127  0BE7  01E0               	movf	0+(??_b0+0)+0,w
  5128  0BE8  085F               	movwf	(___wmul@multiplier)
  5129  0BE9  00A0               	movf	1+(??_b0+0)+0,w
  5130  0BEA  0860               	movwf	(___wmul@multiplier+1)
  5131  0BEB  00A1               	fcall	___wmul
  5132  0BEC  160A  118A  2390  120A  158A  	bcf	status, 5	;RP0=0, select bank0
  5133  0BF1  1283               	bcf	status, 6	;RP1=0, select bank0
  5134  0BF2  1303               	movf	(0+(?___wmul)),w
  5135  0BF3  0820               	movwf	(___xxtofl@val)
  5136  0BF4  00A6               	movf	(1+(?___wmul)),w
  5137  0BF5  0821               	movwf	(___xxtofl@val+1)
  5138  0BF6  00A7               	movlw	0
  5139  0BF7  3000               	btfsc	(___xxtofl@val+1),7
  5140  0BF8  1BA7               	movlw	255
  5141  0BF9  30FF               	movwf	(___xxtofl@val+2)
  5142  0BFA  00A8               	movwf	(___xxtofl@val+3)
  5143  0BFB  00A9               	movlw	low(01h)
  5144  0BFC  3001               	fcall	___xxtofl
  5145  0BFD  120A  158A  2534  120A  158A  	bcf	status, 5	;RP0=0, select bank0
  5146  0C02  1283               	bcf	status, 6	;RP1=0, select bank0
  5147  0C03  1303               	movf	(3+(?___xxtofl)),w
  5148  0C04  0829               	movwf	(___flneg@f1+3)
  5149  0C05  00B7               	movf	(2+(?___xxtofl)),w
  5150  0C06  0828               	movwf	(___flneg@f1+2)
  5151  0C07  00B6               	movf	(1+(?___xxtofl)),w
  5152  0C08  0827               	movwf	(___flneg@f1+1)
  5153  0C09  00B5               	movf	(0+(?___xxtofl)),w
  5154  0C0A  0826               	movwf	(___flneg@f1)
  5155  0C0B  00B4               
  5156                           	fcall	___flneg
  5157  0C0C  160A  118A  22E8  120A  158A  	bcf	status, 5	;RP0=0, select bank0
  5158  0C11  1283               	bcf	status, 6	;RP1=0, select bank0
  5159  0C12  1303               	movf	(3+(?___flneg)),w
  5160  0C13  0837               	movwf	(___fladd@a+3)
  5161  0C14  00BF               	movf	(2+(?___flneg)),w
  5162  0C15  0836               	movwf	(___fladd@a+2)
  5163  0C16  00BE               	movf	(1+(?___flneg)),w
  5164  0C17  0835               	movwf	(___fladd@a+1)
  5165  0C18  00BD               	movf	(0+(?___flneg)),w
  5166  0C19  0834               	movwf	(___fladd@a)
  5167  0C1A  00BC               
  5168                           	movf	(b0@m+3),w
  5169  0C1B  085E               	movwf	(___fladd@b+3)
  5170  0C1C  00BB               	movf	(b0@m+2),w
  5171  0C1D  085D               	movwf	(___fladd@b+2)
  5172  0C1E  00BA               	movf	(b0@m+1),w
  5173  0C1F  085C               	movwf	(___fladd@b+1)
  5174  0C20  00B9               	movf	(b0@m),w
  5175  0C21  085B               	movwf	(___fladd@b)
  5176  0C22  00B8               
  5177                           	fcall	___fladd
  5178  0C23  120A  118A  2044  120A  158A  	bcf	status, 5	;RP0=0, select bank0
  5179  0C28  1283               	bcf	status, 6	;RP1=0, select bank0
  5180  0C29  1303               	movf	(3+(?___fladd)),w
  5181  0C2A  083B               	movwf	(___fltol@f1+3)
  5182  0C2B  00D3               	movf	(2+(?___fladd)),w
  5183  0C2C  083A               	movwf	(___fltol@f1+2)
  5184  0C2D  00D2               	movf	(1+(?___fladd)),w
  5185  0C2E  0839               	movwf	(___fltol@f1+1)
  5186  0C2F  00D1               	movf	(0+(?___fladd)),w
  5187  0C30  0838               	movwf	(___fltol@f1)
  5188  0C31  00D0               
  5189                           	fcall	___fltol
  5190  0C32  120A  158A  2114  120A  158A  	bcf	status, 5	;RP0=0, select bank0
  5191  0C37  1283               	bcf	status, 6	;RP1=0, select bank0
  5192  0C38  1303               	movf	(0+(?___fltol)),w
  5193  0C39  0850               	movwf	(??_b0+2)+0
  5194  0C3A  00E1               	movf	(??_b0+2)+0,w
  5195  0C3B  0861               	movwf	(b0@local)
  5196  0C3C  00E6               	line	513
  5197                           	
  5198                           l2678:	
  5199  0C3D                     ;Proyecto1_master.c: 513:     bb1 = local/10;
  5200                           	movlw	0Ah
  5201  0C3D  300A               	movwf	(___awdiv@divisor)
  5202  0C3E  00A0               	movlw	0
  5203  0C3F  3000               	movwf	((___awdiv@divisor))+1
  5204  0C40  00A1               	movf	(b0@local),w
  5205  0C41  0866               	movwf	(??_b0+0)+0
  5206  0C42  00DF               	clrf	(??_b0+0)+0+1
  5207  0C43  01E0               	movf	0+(??_b0+0)+0,w
  5208  0C44  085F               	movwf	(___awdiv@dividend)
  5209  0C45  00A2               	movf	1+(??_b0+0)+0,w
  5210  0C46  0860               	movwf	(___awdiv@dividend+1)
  5211  0C47  00A3               	fcall	___awdiv
  5212  0C48  120A  158A  2029  120A  158A  	bcf	status, 5	;RP0=0, select bank0
  5213  0C4D  1283               	bcf	status, 6	;RP1=0, select bank0
  5214  0C4E  1303               	movf	(0+(?___awdiv)),w
  5215  0C4F  0820               	movwf	(??_b0+2)+0
  5216  0C50  00E1               	movf	(??_b0+2)+0,w
  5217  0C51  0861               	movwf	(b0@bb1)
  5218  0C52  00E3               	line	514
  5219                           	
  5220                           l2680:	
  5221  0C53                     ;Proyecto1_master.c: 514:     bb0 = local-bb1*10;
  5222                           	movlw	low(0Ah)
  5223  0C53  300A               	movwf	(??_b0+0)+0
  5224  0C54  00DF               	movf	(??_b0+0)+0,w
  5225  0C55  085F               	movwf	(___bmul@multiplicand)
  5226  0C56  00A0               	movf	(b0@bb1),w
  5227  0C57  0863               	fcall	___bmul
  5228  0C58  160A  118A  2337  120A  158A  	xorlw	0ffh
  5229  0C5D  3AFF               	addlw	1
  5230  0C5E  3E01               	bcf	status, 5	;RP0=0, select bank0
  5231  0C5F  1283               	bcf	status, 6	;RP1=0, select bank0
  5232  0C60  1303               	addwf	(b0@local),w
  5233  0C61  0766               	movwf	(??_b0+1)+0
  5234  0C62  00E0               	movf	(??_b0+1)+0,w
  5235  0C63  0860               	movwf	(b0@bb0)
  5236  0C64  00E4               	line	515
  5237                           	
  5238                           l2682:	
  5239  0C65                     ;Proyecto1_master.c: 515:     p0 = num_case(bb0);
  5240                           	movf	(b0@bb0),w
  5241  0C65  0864               	fcall	_num_case
  5242  0C66  160A  118A  26CA  120A  158A  	bcf	status, 5	;RP0=0, select bank0
  5243  0C6B  1283               	bcf	status, 6	;RP1=0, select bank0
  5244  0C6C  1303               	movwf	(??_b0+0)+0
  5245  0C6D  00DF               	movf	(??_b0+0)+0,w
  5246  0C6E  085F               	movwf	(b0@p0)
  5247  0C6F  00E5               	line	516
  5248                           	
  5249                           l2684:	
  5250  0C70                     ;Proyecto1_master.c: 516:     return p0;
  5251                           	movf	(b0@p0),w
  5252  0C70  0865               	goto	l259
  5253  0C71  2C72               	
  5254                           l2686:	
  5255  0C72                     	line	517
  5256                           	
  5257                           l259:	
  5258  0C72                     	return
  5259  0C72  0008               	opt stack 0
  5260                           GLOBAL	__end_of_b0
  5261                           	__end_of_b0:
  5262  0C73                     	signat	_b0,4217
  5263                           	global	_num_case
  5264                           
  5265 ;; *************** function _num_case *****************
  5266 ;; Defined at:
  5267 ;;		line 444 in file "Proyecto1_master.c"
  5268 ;; Parameters:    Size  Location     Type
  5269 ;;  num             1    wreg     unsigned char 
  5270 ;; Auto vars:     Size  Location     Type
  5271 ;;  num             1    2[BANK0 ] unsigned char 
  5272 ;;  r               1    3[BANK0 ] unsigned char 
  5273 ;; Return value:  Size  Location     Type
  5274 ;;                  1    wreg      unsigned char 
  5275 ;; Registers used:
  5276 ;;		wreg, fsr0l, fsr0h, status,2, status,0
  5277 ;; Tracked objects:
  5278 ;;		On entry : 0/0
  5279 ;;		On exit  : 0/0
  5280 ;;		Unchanged: 0/0
  5281 ;; Data sizes:     COMMON   BANK0   BANK1   BANK3   BANK2
  5282 ;;      Params:         0       0       0       0       0
  5283 ;;      Locals:         0       2       0       0       0
  5284 ;;      Temps:          0       2       0       0       0
  5285 ;;      Totals:         0       4       0       0       0
  5286 ;;Total ram usage:        4 bytes
  5287 ;; Hardware stack levels used:    1
  5288 ;; Hardware stack levels required when called:    4
  5289 ;; This function calls:
  5290 ;;		Nothing
  5291 ;; This function is called by:
  5292 ;;		_b2
  5293 ;;		_b1
  5294 ;;		_b0
  5295 ;; This function uses a non-reentrant model
  5296 ;;
  5297                           psect	text16,local,class=CODE,delta=2,merge=1,group=0
  5298                           	line	444
  5299                           global __ptext16
  5300                           __ptext16:	;psect for function _num_case
  5301  16CA                     psect	text16
  5302                           	file	"Proyecto1_master.c"
  5303                           	line	444
  5304                           	global	__size_of_num_case
  5305                           	__size_of_num_case	equ	__end_of_num_case-_num_case
  5306  0062                     	
  5307                           _num_case:	
  5308  16CA                     ;incstack = 0
  5309                           	opt	stack 0
  5310                           ; Regs used in _num_case: [wreg-fsr0h+status,2+status,0]
  5311                           ;num_case@num stored from wreg
  5312                           	bcf	status, 5	;RP0=0, select bank0
  5313  16CA  1283               	bcf	status, 6	;RP1=0, select bank0
  5314  16CB  1303               	movwf	(num_case@num)
  5315  16CC  00A2               	line	446
  5316                           	
  5317                           l2084:	
  5318  16CD                     ;Proyecto1_master.c: 445:     char r;;Proyecto1_master.c: 446:     switch(num){
  5319                           	goto	l2108
  5320  16CD  2F01               	line	447
  5321                           ;Proyecto1_master.c: 447:         case 0:
  5322                           	
  5323                           l239:	
  5324  16CE                     	line	448
  5325                           	
  5326                           l2086:	
  5327  16CE                     ;Proyecto1_master.c: 448:             r = '0';
  5328                           	movlw	low(030h)
  5329  16CE  3030               	movwf	(??_num_case+0)+0
  5330  16CF  00A0               	movf	(??_num_case+0)+0,w
  5331  16D0  0820               	movwf	(num_case@r)
  5332  16D1  00A3               	line	449
  5333                           ;Proyecto1_master.c: 449:             break;
  5334                           	goto	l2110
  5335  16D2  2F29               	line	450
  5336                           ;Proyecto1_master.c: 450:         case 1:
  5337                           	
  5338                           l241:	
  5339  16D3                     	line	451
  5340                           	
  5341                           l2088:	
  5342  16D3                     ;Proyecto1_master.c: 451:             r = '1';
  5343                           	movlw	low(031h)
  5344  16D3  3031               	movwf	(??_num_case+0)+0
  5345  16D4  00A0               	movf	(??_num_case+0)+0,w
  5346  16D5  0820               	movwf	(num_case@r)
  5347  16D6  00A3               	line	452
  5348                           ;Proyecto1_master.c: 452:             break;
  5349                           	goto	l2110
  5350  16D7  2F29               	line	453
  5351                           ;Proyecto1_master.c: 453:         case 2:
  5352                           	
  5353                           l242:	
  5354  16D8                     	line	454
  5355                           	
  5356                           l2090:	
  5357  16D8                     ;Proyecto1_master.c: 454:             r = '2';
  5358                           	movlw	low(032h)
  5359  16D8  3032               	movwf	(??_num_case+0)+0
  5360  16D9  00A0               	movf	(??_num_case+0)+0,w
  5361  16DA  0820               	movwf	(num_case@r)
  5362  16DB  00A3               	line	455
  5363                           ;Proyecto1_master.c: 455:             break;
  5364                           	goto	l2110
  5365  16DC  2F29               	line	456
  5366                           ;Proyecto1_master.c: 456:         case 3:
  5367                           	
  5368                           l243:	
  5369  16DD                     	line	457
  5370                           	
  5371                           l2092:	
  5372  16DD                     ;Proyecto1_master.c: 457:             r = '3';
  5373                           	movlw	low(033h)
  5374  16DD  3033               	movwf	(??_num_case+0)+0
  5375  16DE  00A0               	movf	(??_num_case+0)+0,w
  5376  16DF  0820               	movwf	(num_case@r)
  5377  16E0  00A3               	line	458
  5378                           ;Proyecto1_master.c: 458:             break;
  5379                           	goto	l2110
  5380  16E1  2F29               	line	459
  5381                           ;Proyecto1_master.c: 459:         case 4:
  5382                           	
  5383                           l244:	
  5384  16E2                     	line	460
  5385                           	
  5386                           l2094:	
  5387  16E2                     ;Proyecto1_master.c: 460:             r = '4';
  5388                           	movlw	low(034h)
  5389  16E2  3034               	movwf	(??_num_case+0)+0
  5390  16E3  00A0               	movf	(??_num_case+0)+0,w
  5391  16E4  0820               	movwf	(num_case@r)
  5392  16E5  00A3               	line	461
  5393                           ;Proyecto1_master.c: 461:             break;
  5394                           	goto	l2110
  5395  16E6  2F29               	line	462
  5396                           ;Proyecto1_master.c: 462:         case 5:
  5397                           	
  5398                           l245:	
  5399  16E7                     	line	463
  5400                           	
  5401                           l2096:	
  5402  16E7                     ;Proyecto1_master.c: 463:             r = '5';
  5403                           	movlw	low(035h)
  5404  16E7  3035               	movwf	(??_num_case+0)+0
  5405  16E8  00A0               	movf	(??_num_case+0)+0,w
  5406  16E9  0820               	movwf	(num_case@r)
  5407  16EA  00A3               	line	464
  5408                           ;Proyecto1_master.c: 464:             break;
  5409                           	goto	l2110
  5410  16EB  2F29               	line	465
  5411                           ;Proyecto1_master.c: 465:         case 6:
  5412                           	
  5413                           l246:	
  5414  16EC                     	line	466
  5415                           	
  5416                           l2098:	
  5417  16EC                     ;Proyecto1_master.c: 466:             r = '6';
  5418                           	movlw	low(036h)
  5419  16EC  3036               	movwf	(??_num_case+0)+0
  5420  16ED  00A0               	movf	(??_num_case+0)+0,w
  5421  16EE  0820               	movwf	(num_case@r)
  5422  16EF  00A3               	line	467
  5423                           ;Proyecto1_master.c: 467:             break;
  5424                           	goto	l2110
  5425  16F0  2F29               	line	468
  5426                           ;Proyecto1_master.c: 468:         case 7:
  5427                           	
  5428                           l247:	
  5429  16F1                     	line	469
  5430                           	
  5431                           l2100:	
  5432  16F1                     ;Proyecto1_master.c: 469:             r = '7';
  5433                           	movlw	low(037h)
  5434  16F1  3037               	movwf	(??_num_case+0)+0
  5435  16F2  00A0               	movf	(??_num_case+0)+0,w
  5436  16F3  0820               	movwf	(num_case@r)
  5437  16F4  00A3               	line	470
  5438                           ;Proyecto1_master.c: 470:             break;
  5439                           	goto	l2110
  5440  16F5  2F29               	line	471
  5441                           ;Proyecto1_master.c: 471:         case 8:
  5442                           	
  5443                           l248:	
  5444  16F6                     	line	472
  5445                           	
  5446                           l2102:	
  5447  16F6                     ;Proyecto1_master.c: 472:             r = '8';
  5448                           	movlw	low(038h)
  5449  16F6  3038               	movwf	(??_num_case+0)+0
  5450  16F7  00A0               	movf	(??_num_case+0)+0,w
  5451  16F8  0820               	movwf	(num_case@r)
  5452  16F9  00A3               	line	473
  5453                           ;Proyecto1_master.c: 473:             break;
  5454                           	goto	l2110
  5455  16FA  2F29               	line	474
  5456                           ;Proyecto1_master.c: 474:         case 9:
  5457                           	
  5458                           l249:	
  5459  16FB                     	line	475
  5460                           	
  5461                           l2104:	
  5462  16FB                     ;Proyecto1_master.c: 475:             r = '9';
  5463                           	movlw	low(039h)
  5464  16FB  3039               	movwf	(??_num_case+0)+0
  5465  16FC  00A0               	movf	(??_num_case+0)+0,w
  5466  16FD  0820               	movwf	(num_case@r)
  5467  16FE  00A3               	line	476
  5468                           ;Proyecto1_master.c: 476:             break;
  5469                           	goto	l2110
  5470  16FF  2F29               	line	477
  5471                           	
  5472                           l2106:	
  5473  1700                     ;Proyecto1_master.c: 477:     }
  5474                           	goto	l2110
  5475  1700  2F29               	
  5476                           l238:	
  5477  1701                     	
  5478                           l2108:	
  5479  1701                     	movf	(num_case@num),w
  5480  1701  0822               	movwf	(??_num_case+0)+0
  5481  1702  00A0               	clrf	(??_num_case+0)+0+1
  5482  1703  01A1               	; Switch on 2 bytes has been partitioned into a top level switch of size 1, and 1 sub-s
                                 witches
  5483                           ; Switch size 1, requested type "space"
  5484                           ; Number of cases is 1, Range of values is 0 to 0
  5485                           ; switch strategies available:
  5486                           ; Name         Instructions Cycles
  5487                           ; simple_byte            4     3 (average)
  5488                           ; direct_byte           11     8 (fixed)
  5489                           ; jumptable            260     6 (fixed)
  5490                           ;	Chosen strategy is simple_byte
  5491                           
  5492                           	movf 1+(??_num_case+0)+0,w
  5493  1704  0821               	opt asmopt_push
  5494                           	opt asmopt_off
  5495                           	xorlw	0^0	; case 0
  5496  1705  3A00               	skipnz
  5497  1706  1903               	goto	l3112
  5498  1707  2F09               	goto	l2110
  5499  1708  2F29               	opt asmopt_pop
  5500                           	
  5501                           l3112:	
  5502  1709                     ; Switch size 1, requested type "space"
  5503                           ; Number of cases is 10, Range of values is 0 to 9
  5504                           ; switch strategies available:
  5505                           ; Name         Instructions Cycles
  5506                           ; simple_byte           31    16 (average)
  5507                           ; direct_byte           38     8 (fixed)
  5508                           ; jumptable            260     6 (fixed)
  5509                           ;	Chosen strategy is simple_byte
  5510                           
  5511                           	movf 0+(??_num_case+0)+0,w
  5512  1709  0820               	opt asmopt_push
  5513                           	opt asmopt_off
  5514                           	xorlw	0^0	; case 0
  5515  170A  3A00               	skipnz
  5516  170B  1903               	goto	l2086
  5517  170C  2ECE               	xorlw	1^0	; case 1
  5518  170D  3A01               	skipnz
  5519  170E  1903               	goto	l2088
  5520  170F  2ED3               	xorlw	2^1	; case 2
  5521  1710  3A03               	skipnz
  5522  1711  1903               	goto	l2090
  5523  1712  2ED8               	xorlw	3^2	; case 3
  5524  1713  3A01               	skipnz
  5525  1714  1903               	goto	l2092
  5526  1715  2EDD               	xorlw	4^3	; case 4
  5527  1716  3A07               	skipnz
  5528  1717  1903               	goto	l2094
  5529  1718  2EE2               	xorlw	5^4	; case 5
  5530  1719  3A01               	skipnz
  5531  171A  1903               	goto	l2096
  5532  171B  2EE7               	xorlw	6^5	; case 6
  5533  171C  3A03               	skipnz
  5534  171D  1903               	goto	l2098
  5535  171E  2EEC               	xorlw	7^6	; case 7
  5536  171F  3A01               	skipnz
  5537  1720  1903               	goto	l2100
  5538  1721  2EF1               	xorlw	8^7	; case 8
  5539  1722  3A0F               	skipnz
  5540  1723  1903               	goto	l2102
  5541  1724  2EF6               	xorlw	9^8	; case 9
  5542  1725  3A01               	skipnz
  5543  1726  1903               	goto	l2104
  5544  1727  2EFB               	goto	l2110
  5545  1728  2F29               	opt asmopt_pop
  5546                           
  5547                           	
  5548                           l240:	
  5549  1729                     	line	478
  5550                           	
  5551                           l2110:	
  5552  1729                     ;Proyecto1_master.c: 478:     return r;
  5553                           	movf	(num_case@r),w
  5554  1729  0823               	goto	l250
  5555  172A  2F2B               	
  5556                           l2112:	
  5557  172B                     	line	479
  5558                           	
  5559                           l250:	
  5560  172B                     	return
  5561  172B  0008               	opt stack 0
  5562                           GLOBAL	__end_of_num_case
  5563                           	__end_of_num_case:
  5564  172C                     	signat	_num_case,4217
  5565                           	global	___xxtofl
  5566                           
  5567 ;; *************** function ___xxtofl *****************
  5568 ;; Defined at:
  5569 ;;		line 10 in file "C:\Program Files (x86)\Microchip\xc8\v2.00\pic\sources\c90\common\xxtofl.c"
  5570 ;; Parameters:    Size  Location     Type
  5571 ;;  sign            1    wreg     unsigned char 
  5572 ;;  val             4    6[BANK0 ] long 
  5573 ;; Auto vars:     Size  Location     Type
  5574 ;;  sign            1   14[BANK0 ] unsigned char 
  5575 ;;  arg             4   16[BANK0 ] unsigned long 
  5576 ;;  exp             1   15[BANK0 ] unsigned char 
  5577 ;; Return value:  Size  Location     Type
  5578 ;;                  4    6[BANK0 ] unsigned char 
  5579 ;; Registers used:
  5580 ;;		wreg, status,2, status,0
  5581 ;; Tracked objects:
  5582 ;;		On entry : 0/0
  5583 ;;		On exit  : 0/0
  5584 ;;		Unchanged: 0/0
  5585 ;; Data sizes:     COMMON   BANK0   BANK1   BANK3   BANK2
  5586 ;;      Params:         0       4       0       0       0
  5587 ;;      Locals:         0       6       0       0       0
  5588 ;;      Temps:          0       4       0       0       0
  5589 ;;      Totals:         0      14       0       0       0
  5590 ;;Total ram usage:       14 bytes
  5591 ;; Hardware stack levels used:    1
  5592 ;; Hardware stack levels required when called:    4
  5593 ;; This function calls:
  5594 ;;		Nothing
  5595 ;; This function is called by:
  5596 ;;		_slave_1
  5597 ;;		_b1
  5598 ;;		_b0
  5599 ;; This function uses a non-reentrant model
  5600 ;;
  5601                           psect	text17,local,class=CODE,delta=2,merge=1,group=1
  5602                           	file	"C:\Program Files (x86)\Microchip\xc8\v2.00\pic\sources\c90\common\xxtofl.c"
  5603                           	line	10
  5604                           global __ptext17
  5605                           __ptext17:	;psect for function ___xxtofl
  5606  0D34                     psect	text17
  5607                           	file	"C:\Program Files (x86)\Microchip\xc8\v2.00\pic\sources\c90\common\xxtofl.c"
  5608                           	line	10
  5609                           	global	__size_of___xxtofl
  5610                           	__size_of___xxtofl	equ	__end_of___xxtofl-___xxtofl
  5611  00C4                     	
  5612                           ___xxtofl:	
  5613  0D34                     ;incstack = 0
  5614                           	opt	stack 0
  5615                           ; Regs used in ___xxtofl: [wreg+status,2+status,0]
  5616                           ;___xxtofl@sign stored from wreg
  5617                           	bcf	status, 5	;RP0=0, select bank0
  5618  0D34  1283               	bcf	status, 6	;RP1=0, select bank0
  5619  0D35  1303               	movwf	(___xxtofl@sign)
  5620  0D36  00AE               	line	15
  5621                           	
  5622                           l2586:	
  5623  0D37                     	movf	((___xxtofl@sign)),w
  5624  0D37  082E               	btfsc	status,2
  5625  0D38  1903               	goto	u2961
  5626  0D39  2D3B               	goto	u2960
  5627  0D3A  2D3C               u2961:
  5628  0D3B                     	goto	l2592
  5629  0D3B  2D50               u2960:
  5630  0D3C                     	
  5631                           l2588:	
  5632  0D3C                     	btfss	(___xxtofl@val+3),7
  5633  0D3C  1FA9               	goto	u2971
  5634  0D3D  2D3F               	goto	u2970
  5635  0D3E  2D40               u2971:
  5636  0D3F                     	goto	l2592
  5637  0D3F  2D50               u2970:
  5638  0D40                     	line	16
  5639                           	
  5640                           l2590:	
  5641  0D40                     	comf	(___xxtofl@val)+0,w
  5642  0D40  0926               	movwf	(___xxtofl@arg)
  5643  0D41  00B0               	comf	(___xxtofl@val)+1,w
  5644  0D42  0927               	movwf	(___xxtofl@arg+1)
  5645  0D43  00B1               	comf	(___xxtofl@val)+2,w
  5646  0D44  0928               	movwf	(___xxtofl@arg+2)
  5647  0D45  00B2               	comf	(___xxtofl@val)+3,w
  5648  0D46  0929               	movwf	(___xxtofl@arg+3)
  5649  0D47  00B3               	incf	(___xxtofl@arg),f
  5650  0D48  0AB0               	skipnz
  5651  0D49  1903               	incf	(___xxtofl@arg+1),f
  5652  0D4A  0AB1               	skipnz
  5653  0D4B  1903               	incf	(___xxtofl@arg+2),f
  5654  0D4C  0AB2               	skipnz
  5655  0D4D  1903               	incf	(___xxtofl@arg+3),f
  5656  0D4E  0AB3               	line	17
  5657                           	goto	l905
  5658  0D4F  2D58               	line	18
  5659                           	
  5660                           l904:	
  5661  0D50                     	line	19
  5662                           	
  5663                           l2592:	
  5664  0D50                     	movf	(___xxtofl@val+3),w
  5665  0D50  0829               	movwf	(___xxtofl@arg+3)
  5666  0D51  00B3               	movf	(___xxtofl@val+2),w
  5667  0D52  0828               	movwf	(___xxtofl@arg+2)
  5668  0D53  00B2               	movf	(___xxtofl@val+1),w
  5669  0D54  0827               	movwf	(___xxtofl@arg+1)
  5670  0D55  00B1               	movf	(___xxtofl@val),w
  5671  0D56  0826               	movwf	(___xxtofl@arg)
  5672  0D57  00B0               
  5673                           	line	20
  5674                           	
  5675                           l905:	
  5676  0D58                     	line	21
  5677                           	movf	(___xxtofl@val+3),w
  5678  0D58  0829               	iorwf	(___xxtofl@val+2),w
  5679  0D59  0428               	iorwf	(___xxtofl@val+1),w
  5680  0D5A  0427               	iorwf	(___xxtofl@val),w
  5681  0D5B  0426               	skipz
  5682  0D5C  1D03               	goto	u2981
  5683  0D5D  2D5F               	goto	u2980
  5684  0D5E  2D60               u2981:
  5685  0D5F                     	goto	l2598
  5686  0D5F  2D6A               u2980:
  5687  0D60                     	line	22
  5688                           	
  5689                           l2594:	
  5690  0D60                     	movlw	0x0
  5691  0D60  3000               	movwf	(?___xxtofl+3)
  5692  0D61  00A9               	movlw	0x0
  5693  0D62  3000               	movwf	(?___xxtofl+2)
  5694  0D63  00A8               	movlw	0x0
  5695  0D64  3000               	movwf	(?___xxtofl+1)
  5696  0D65  00A7               	movlw	0x0
  5697  0D66  3000               	movwf	(?___xxtofl)
  5698  0D67  00A6               
  5699                           	goto	l907
  5700  0D68  2DF7               	
  5701                           l2596:	
  5702  0D69                     	goto	l907
  5703  0D69  2DF7               	
  5704                           l906:	
  5705  0D6A                     	line	23
  5706                           	
  5707                           l2598:	
  5708  0D6A                     	movlw	low(096h)
  5709  0D6A  3096               	movwf	(??___xxtofl+0)+0
  5710  0D6B  00AA               	movf	(??___xxtofl+0)+0,w
  5711  0D6C  082A               	movwf	(___xxtofl@exp)
  5712  0D6D  00AF               	line	24
  5713                           	goto	l2602
  5714  0D6E  2D7D               	
  5715                           l909:	
  5716  0D6F                     	line	25
  5717                           	
  5718                           l2600:	
  5719  0D6F                     	movlw	low(01h)
  5720  0D6F  3001               	movwf	(??___xxtofl+0)+0
  5721  0D70  00AA               	movf	(??___xxtofl+0)+0,w
  5722  0D71  082A               	addwf	(___xxtofl@exp),f
  5723  0D72  07AF               	line	26
  5724                           	movlw	01h
  5725  0D73  3001               u2995:
  5726  0D74                     	clrc
  5727  0D74  1003               	rrf	(___xxtofl@arg+3),f
  5728  0D75  0CB3               	rrf	(___xxtofl@arg+2),f
  5729  0D76  0CB2               	rrf	(___xxtofl@arg+1),f
  5730  0D77  0CB1               	rrf	(___xxtofl@arg),f
  5731  0D78  0CB0               	addlw	-1
  5732  0D79  3EFF               	skipz
  5733  0D7A  1D03               	goto	u2995
  5734  0D7B  2D74               
  5735                           	goto	l2602
  5736  0D7C  2D7D               	line	27
  5737                           	
  5738                           l908:	
  5739  0D7D                     	line	24
  5740                           	
  5741                           l2602:	
  5742  0D7D                     	movlw	high highword(0FE000000h)
  5743  0D7D  30FE               	andwf	(___xxtofl@arg+3),w
  5744  0D7E  0533               	btfss	status,2
  5745  0D7F  1D03               	goto	u3001
  5746  0D80  2D82               	goto	u3000
  5747  0D81  2D83               u3001:
  5748  0D82                     	goto	l2600
  5749  0D82  2D6F               u3000:
  5750  0D83                     	goto	l911
  5751  0D83  2DA0               	
  5752                           l910:	
  5753  0D84                     	line	28
  5754                           	goto	l911
  5755  0D84  2DA0               	
  5756                           l912:	
  5757  0D85                     	line	29
  5758                           	
  5759                           l2604:	
  5760  0D85                     	movlw	low(01h)
  5761  0D85  3001               	movwf	(??___xxtofl+0)+0
  5762  0D86  00AA               	movf	(??___xxtofl+0)+0,w
  5763  0D87  082A               	addwf	(___xxtofl@exp),f
  5764  0D88  07AF               	line	30
  5765                           	
  5766                           l2606:	
  5767  0D89                     	movlw	01h
  5768  0D89  3001               	addwf	(___xxtofl@arg),f
  5769  0D8A  07B0               	movlw	0
  5770  0D8B  3000               	skipnc
  5771  0D8C  1803               movlw 1
  5772  0D8D  3001               	addwf	(___xxtofl@arg+1),f
  5773  0D8E  07B1               	movlw	0
  5774  0D8F  3000               	skipnc
  5775  0D90  1803               movlw 1
  5776  0D91  3001               	addwf	(___xxtofl@arg+2),f
  5777  0D92  07B2               	movlw	0
  5778  0D93  3000               	skipnc
  5779  0D94  1803               movlw 1
  5780  0D95  3001               	addwf	(___xxtofl@arg+3),f
  5781  0D96  07B3               	line	31
  5782                           	
  5783                           l2608:	
  5784  0D97                     	movlw	01h
  5785  0D97  3001               u3015:
  5786  0D98                     	clrc
  5787  0D98  1003               	rrf	(___xxtofl@arg+3),f
  5788  0D99  0CB3               	rrf	(___xxtofl@arg+2),f
  5789  0D9A  0CB2               	rrf	(___xxtofl@arg+1),f
  5790  0D9B  0CB1               	rrf	(___xxtofl@arg),f
  5791  0D9C  0CB0               	addlw	-1
  5792  0D9D  3EFF               	skipz
  5793  0D9E  1D03               	goto	u3015
  5794  0D9F  2D98               
  5795                           	line	32
  5796                           	
  5797                           l911:	
  5798  0DA0                     	line	28
  5799                           	movlw	high highword(0FF000000h)
  5800  0DA0  30FF               	andwf	(___xxtofl@arg+3),w
  5801  0DA1  0533               	btfss	status,2
  5802  0DA2  1D03               	goto	u3021
  5803  0DA3  2DA5               	goto	u3020
  5804  0DA4  2DA6               u3021:
  5805  0DA5                     	goto	l2604
  5806  0DA5  2D85               u3020:
  5807  0DA6                     	goto	l2612
  5808  0DA6  2DB4               	
  5809                           l913:	
  5810  0DA7                     	line	33
  5811                           	goto	l2612
  5812  0DA7  2DB4               	
  5813                           l915:	
  5814  0DA8                     	line	34
  5815                           	
  5816                           l2610:	
  5817  0DA8                     	movlw	01h
  5818  0DA8  3001               	subwf	(___xxtofl@exp),f
  5819  0DA9  02AF               	line	35
  5820                           	movlw	01h
  5821  0DAA  3001               	movwf	(??___xxtofl+0)+0
  5822  0DAB  00AA               u3035:
  5823  0DAC                     	clrc
  5824  0DAC  1003               	rlf	(___xxtofl@arg),f
  5825  0DAD  0DB0               	rlf	(___xxtofl@arg+1),f
  5826  0DAE  0DB1               	rlf	(___xxtofl@arg+2),f
  5827  0DAF  0DB2               	rlf	(___xxtofl@arg+3),f
  5828  0DB0  0DB3               	decfsz	(??___xxtofl+0)+0
  5829  0DB1  0BAA               	goto	u3035
  5830  0DB2  2DAC               	goto	l2612
  5831  0DB3  2DB4               	line	36
  5832                           	
  5833                           l914:	
  5834  0DB4                     	line	33
  5835                           	
  5836                           l2612:	
  5837  0DB4                     	btfsc	(___xxtofl@arg+2),(23)&7
  5838  0DB4  1BB2               	goto	u3041
  5839  0DB5  2DB7               	goto	u3040
  5840  0DB6  2DB8               u3041:
  5841  0DB7                     	goto	l918
  5842  0DB7  2DBF               u3040:
  5843  0DB8                     	
  5844                           l2614:	
  5845  0DB8                     	movlw	low(02h)
  5846  0DB8  3002               	subwf	(___xxtofl@exp),w
  5847  0DB9  022F               	skipnc
  5848  0DBA  1803               	goto	u3051
  5849  0DBB  2DBD               	goto	u3050
  5850  0DBC  2DBE               u3051:
  5851  0DBD                     	goto	l2610
  5852  0DBD  2DA8               u3050:
  5853  0DBE                     	goto	l918
  5854  0DBE  2DBF               	
  5855                           l917:	
  5856  0DBF                     	
  5857                           l918:	
  5858  0DBF                     	line	37
  5859                           	btfsc	(___xxtofl@exp),(0)&7
  5860  0DBF  182F               	goto	u3061
  5861  0DC0  2DC2               	goto	u3060
  5862  0DC1  2DC3               u3061:
  5863  0DC2                     	goto	l919
  5864  0DC2  2DCB               u3060:
  5865  0DC3                     	line	38
  5866                           	
  5867                           l2616:	
  5868  0DC3                     	movlw	0FFh
  5869  0DC3  30FF               	andwf	(___xxtofl@arg),f
  5870  0DC4  05B0               	movlw	0FFh
  5871  0DC5  30FF               	andwf	(___xxtofl@arg+1),f
  5872  0DC6  05B1               	movlw	07Fh
  5873  0DC7  307F               	andwf	(___xxtofl@arg+2),f
  5874  0DC8  05B2               	movlw	0FFh
  5875  0DC9  30FF               	andwf	(___xxtofl@arg+3),f
  5876  0DCA  05B3               	
  5877                           l919:	
  5878  0DCB                     	line	39
  5879                           	clrc
  5880  0DCB  1003               	rrf	(___xxtofl@exp),f
  5881  0DCC  0CAF               
  5882                           	line	40
  5883                           	
  5884                           l2618:	
  5885  0DCD                     	movf	(___xxtofl@exp),w
  5886  0DCD  082F               	movwf	(??___xxtofl+0)+0
  5887  0DCE  00AA               	clrf	(??___xxtofl+0)+0+1
  5888  0DCF  01AB               	clrf	(??___xxtofl+0)+0+2
  5889  0DD0  01AC               	clrf	(??___xxtofl+0)+0+3
  5890  0DD1  01AD               	movlw	018h
  5891  0DD2  3018               u3075:
  5892  0DD3                     	clrc
  5893  0DD3  1003               	rlf	(??___xxtofl+0)+0,f
  5894  0DD4  0DAA               	rlf	(??___xxtofl+0)+1,f
  5895  0DD5  0DAB               	rlf	(??___xxtofl+0)+2,f
  5896  0DD6  0DAC               	rlf	(??___xxtofl+0)+3,f
  5897  0DD7  0DAD               u3070:
  5898  0DD8                     	addlw	-1
  5899  0DD8  3EFF               	skipz
  5900  0DD9  1D03               	goto	u3075
  5901  0DDA  2DD3               	movf	0+(??___xxtofl+0)+0,w
  5902  0DDB  082A               	iorwf	(___xxtofl@arg),f
  5903  0DDC  04B0               	movf	1+(??___xxtofl+0)+0,w
  5904  0DDD  082B               	iorwf	(___xxtofl@arg+1),f
  5905  0DDE  04B1               	movf	2+(??___xxtofl+0)+0,w
  5906  0DDF  082C               	iorwf	(___xxtofl@arg+2),f
  5907  0DE0  04B2               	movf	3+(??___xxtofl+0)+0,w
  5908  0DE1  082D               	iorwf	(___xxtofl@arg+3),f
  5909  0DE2  04B3               	line	41
  5910                           	
  5911                           l2620:	
  5912  0DE3                     	movf	((___xxtofl@sign)),w
  5913  0DE3  082E               	btfsc	status,2
  5914  0DE4  1903               	goto	u3081
  5915  0DE5  2DE7               	goto	u3080
  5916  0DE6  2DE8               u3081:
  5917  0DE7                     	goto	l2626
  5918  0DE7  2DEE               u3080:
  5919  0DE8                     	
  5920                           l2622:	
  5921  0DE8                     	btfss	(___xxtofl@val+3),7
  5922  0DE8  1FA9               	goto	u3091
  5923  0DE9  2DEB               	goto	u3090
  5924  0DEA  2DEC               u3091:
  5925  0DEB                     	goto	l2626
  5926  0DEB  2DEE               u3090:
  5927  0DEC                     	line	42
  5928                           	
  5929                           l2624:	
  5930  0DEC                     	bsf	(___xxtofl@arg)+(31/8),(31)&7
  5931  0DEC  17B3               	goto	l2626
  5932  0DED  2DEE               	
  5933                           l920:	
  5934  0DEE                     	line	43
  5935                           	
  5936                           l2626:	
  5937  0DEE                     	movf	(___xxtofl@arg+3),w
  5938  0DEE  0833               	movwf	(?___xxtofl+3)
  5939  0DEF  00A9               	movf	(___xxtofl@arg+2),w
  5940  0DF0  0832               	movwf	(?___xxtofl+2)
  5941  0DF1  00A8               	movf	(___xxtofl@arg+1),w
  5942  0DF2  0831               	movwf	(?___xxtofl+1)
  5943  0DF3  00A7               	movf	(___xxtofl@arg),w
  5944  0DF4  0830               	movwf	(?___xxtofl)
  5945  0DF5  00A6               
  5946                           	goto	l907
  5947  0DF6  2DF7               	
  5948                           l2628:	
  5949  0DF7                     	line	44
  5950                           	
  5951                           l907:	
  5952  0DF7                     	return
  5953  0DF7  0008               	opt stack 0
  5954                           GLOBAL	__end_of___xxtofl
  5955                           	__end_of___xxtofl:
  5956  0DF8                     	signat	___xxtofl,8316
  5957                           	global	___fltol
  5958                           
  5959 ;; *************** function ___fltol *****************
  5960 ;; Defined at:
  5961 ;;		line 43 in file "C:\Program Files (x86)\Microchip\xc8\v2.00\pic\sources\c90\common\fltol.c"
  5962 ;; Parameters:    Size  Location     Type
  5963 ;;  f1              4   48[BANK0 ] unsigned char 
  5964 ;; Auto vars:     Size  Location     Type
  5965 ;;  exp1            1   58[BANK0 ] unsigned char 
  5966 ;;  sign1           1   57[BANK0 ] unsigned char 
  5967 ;; Return value:  Size  Location     Type
  5968 ;;                  4   48[BANK0 ] long 
  5969 ;; Registers used:
  5970 ;;		wreg, status,2, status,0
  5971 ;; Tracked objects:
  5972 ;;		On entry : 0/0
  5973 ;;		On exit  : 0/0
  5974 ;;		Unchanged: 0/0
  5975 ;; Data sizes:     COMMON   BANK0   BANK1   BANK3   BANK2
  5976 ;;      Params:         0       4       0       0       0
  5977 ;;      Locals:         0       2       0       0       0
  5978 ;;      Temps:          0       5       0       0       0
  5979 ;;      Totals:         0      11       0       0       0
  5980 ;;Total ram usage:       11 bytes
  5981 ;; Hardware stack levels used:    1
  5982 ;; Hardware stack levels required when called:    4
  5983 ;; This function calls:
  5984 ;;		Nothing
  5985 ;; This function is called by:
  5986 ;;		_b2
  5987 ;;		_b1
  5988 ;;		_b0
  5989 ;; This function uses a non-reentrant model
  5990 ;;
  5991                           psect	text18,local,class=CODE,delta=2,merge=1,group=1
  5992                           	file	"C:\Program Files (x86)\Microchip\xc8\v2.00\pic\sources\c90\common\fltol.c"
  5993                           	line	43
  5994                           global __ptext18
  5995                           __ptext18:	;psect for function ___fltol
  5996  0914                     psect	text18
  5997                           	file	"C:\Program Files (x86)\Microchip\xc8\v2.00\pic\sources\c90\common\fltol.c"
  5998                           	line	43
  5999                           	global	__size_of___fltol
  6000                           	__size_of___fltol	equ	__end_of___fltol-___fltol
  6001  009C                     	
  6002                           ___fltol:	
  6003  0914                     ;incstack = 0
  6004                           	opt	stack 0
  6005                           ; Regs used in ___fltol: [wreg+status,2+status,0]
  6006                           	line	47
  6007                           	
  6008                           l2214:	
  6009  0914                     	bcf	status, 5	;RP0=0, select bank0
  6010  0914  1283               	bcf	status, 6	;RP1=0, select bank0
  6011  0915  1303               	movf	(___fltol@f1),w
  6012  0916  0850               	movwf	(??___fltol+0)+0
  6013  0917  00D4               	movf	(___fltol@f1+1),w
  6014  0918  0851               	movwf	((??___fltol+0)+0+1)
  6015  0919  00D5               	movf	(___fltol@f1+2),w
  6016  091A  0852               	movwf	((??___fltol+0)+0+2)
  6017  091B  00D6               	movf	(___fltol@f1+3),w
  6018  091C  0853               	movwf	((??___fltol+0)+0+3)
  6019  091D  00D7               	clrc
  6020  091E  1003               	rlf	(??___fltol+0)+2,w
  6021  091F  0D56               	rlf	(??___fltol+0)+3,w
  6022  0920  0D57               	movwf	(??___fltol+4)+0
  6023  0921  00D8               	movf	(??___fltol+4)+0,w
  6024  0922  0858               	movwf	(___fltol@exp1)
  6025  0923  00DA               	movf	(((___fltol@exp1))),w
  6026  0924  085A               	btfss	status,2
  6027  0925  1D03               	goto	u2111
  6028  0926  2928               	goto	u2110
  6029  0927  2929               u2111:
  6030  0928                     	goto	l2220
  6031  0928  2933               u2110:
  6032  0929                     	line	48
  6033                           	
  6034                           l2216:	
  6035  0929                     	movlw	high highword(0)
  6036  0929  3000               	movwf	(?___fltol+3)
  6037  092A  00D3               	movlw	low highword(0)
  6038  092B  3000               	movwf	(?___fltol+2)
  6039  092C  00D2               	movlw	high(0)
  6040  092D  3000               	movwf	(?___fltol+1)
  6041  092E  00D1               	movlw	low(0)
  6042  092F  3000               	movwf	(?___fltol)
  6043  0930  00D0               
  6044                           	goto	l683
  6045  0931  29AF               	
  6046                           l2218:	
  6047  0932                     	goto	l683
  6048  0932  29AF               	
  6049                           l682:	
  6050  0933                     	line	49
  6051                           	
  6052                           l2220:	
  6053  0933                     	movf	(___fltol@f1),w
  6054  0933  0850               	movwf	(??___fltol+0)+0
  6055  0934  00D4               	movf	(___fltol@f1+1),w
  6056  0935  0851               	movwf	((??___fltol+0)+0+1)
  6057  0936  00D5               	movf	(___fltol@f1+2),w
  6058  0937  0852               	movwf	((??___fltol+0)+0+2)
  6059  0938  00D6               	movf	(___fltol@f1+3),w
  6060  0939  0853               	movwf	((??___fltol+0)+0+3)
  6061  093A  00D7               	movlw	01Fh
  6062  093B  301F               u2125:
  6063  093C                     	clrc
  6064  093C  1003               	rrf	(??___fltol+0)+3,f
  6065  093D  0CD7               	rrf	(??___fltol+0)+2,f
  6066  093E  0CD6               	rrf	(??___fltol+0)+1,f
  6067  093F  0CD5               	rrf	(??___fltol+0)+0,f
  6068  0940  0CD4               u2120:
  6069  0941                     	addlw	-1
  6070  0941  3EFF               	skipz
  6071  0942  1D03               	goto	u2125
  6072  0943  293C               	movf	0+(??___fltol+0)+0,w
  6073  0944  0854               	movwf	(??___fltol+4)+0
  6074  0945  00D8               	movf	(??___fltol+4)+0,w
  6075  0946  0858               	movwf	(___fltol@sign1)
  6076  0947  00D9               	line	50
  6077                           	
  6078                           l2222:	
  6079  0948                     	bsf	(___fltol@f1)+(23/8),(23)&7
  6080  0948  17D2               	line	51
  6081                           	
  6082                           l2224:	
  6083  0949                     	movlw	0FFh
  6084  0949  30FF               	andwf	(___fltol@f1),f
  6085  094A  05D0               	movlw	0FFh
  6086  094B  30FF               	andwf	(___fltol@f1+1),f
  6087  094C  05D1               	movlw	0FFh
  6088  094D  30FF               	andwf	(___fltol@f1+2),f
  6089  094E  05D2               	movlw	0
  6090  094F  3000               	andwf	(___fltol@f1+3),f
  6091  0950  05D3               	line	52
  6092                           	
  6093                           l2226:	
  6094  0951                     	movlw	096h
  6095  0951  3096               	subwf	(___fltol@exp1),f
  6096  0952  02DA               	line	53
  6097                           	
  6098                           l2228:	
  6099  0953                     	btfss	(___fltol@exp1),7
  6100  0953  1FDA               	goto	u2131
  6101  0954  2956               	goto	u2130
  6102  0955  2957               u2131:
  6103  0956                     	goto	l2238
  6104  0956  297C               u2130:
  6105  0957                     	line	54
  6106                           	
  6107                           l2230:	
  6108  0957                     	movf	(___fltol@exp1),w
  6109  0957  085A               	xorlw	80h
  6110  0958  3A80               	addlw	-((-23)^80h)
  6111  0959  3E97               	skipnc
  6112  095A  1803               	goto	u2141
  6113  095B  295D               	goto	u2140
  6114  095C  295E               u2141:
  6115  095D                     	goto	l2236
  6116  095D  2969               u2140:
  6117  095E                     	line	55
  6118                           	
  6119                           l2232:	
  6120  095E                     	movlw	high highword(0)
  6121  095E  3000               	movwf	(?___fltol+3)
  6122  095F  00D3               	movlw	low highword(0)
  6123  0960  3000               	movwf	(?___fltol+2)
  6124  0961  00D2               	movlw	high(0)
  6125  0962  3000               	movwf	(?___fltol+1)
  6126  0963  00D1               	movlw	low(0)
  6127  0964  3000               	movwf	(?___fltol)
  6128  0965  00D0               
  6129                           	goto	l683
  6130  0966  29AF               	
  6131                           l2234:	
  6132  0967                     	goto	l683
  6133  0967  29AF               	
  6134                           l685:	
  6135  0968                     	goto	l2236
  6136  0968  2969               	line	56
  6137                           	
  6138                           l686:	
  6139  0969                     	line	57
  6140                           	
  6141                           l2236:	
  6142  0969                     	movlw	01h
  6143  0969  3001               u2155:
  6144  096A                     	clrc
  6145  096A  1003               	rrf	(___fltol@f1+3),f
  6146  096B  0CD3               	rrf	(___fltol@f1+2),f
  6147  096C  0CD2               	rrf	(___fltol@f1+1),f
  6148  096D  0CD1               	rrf	(___fltol@f1),f
  6149  096E  0CD0               	addlw	-1
  6150  096F  3EFF               	skipz
  6151  0970  1D03               	goto	u2155
  6152  0971  296A               
  6153                           	line	58
  6154                           	movlw	low(01h)
  6155  0972  3001               	movwf	(??___fltol+0)+0
  6156  0973  00D4               	movf	(??___fltol+0)+0,w
  6157  0974  0854               	addwf	(___fltol@exp1),f
  6158  0975  07DA               	btfss	status,2
  6159  0976  1D03               	goto	u2161
  6160  0977  2979               	goto	u2160
  6161  0978  297A               u2161:
  6162  0979                     	goto	l2236
  6163  0979  2969               u2160:
  6164  097A                     	goto	l2246
  6165  097A  299F               	
  6166                           l687:	
  6167  097B                     	line	59
  6168                           	goto	l2246
  6169  097B  299F               	
  6170                           l684:	
  6171  097C                     	line	60
  6172                           	
  6173                           l2238:	
  6174  097C                     	movlw	low(020h)
  6175  097C  3020               	subwf	(___fltol@exp1),w
  6176  097D  025A               	skipc
  6177  097E  1C03               	goto	u2171
  6178  097F  2981               	goto	u2170
  6179  0980  2982               u2171:
  6180  0981                     	goto	l690
  6181  0981  2998               u2170:
  6182  0982                     	line	61
  6183                           	
  6184                           l2240:	
  6185  0982                     	movlw	high highword(0)
  6186  0982  3000               	movwf	(?___fltol+3)
  6187  0983  00D3               	movlw	low highword(0)
  6188  0984  3000               	movwf	(?___fltol+2)
  6189  0985  00D2               	movlw	high(0)
  6190  0986  3000               	movwf	(?___fltol+1)
  6191  0987  00D1               	movlw	low(0)
  6192  0988  3000               	movwf	(?___fltol)
  6193  0989  00D0               
  6194                           	goto	l683
  6195  098A  29AF               	
  6196                           l2242:	
  6197  098B                     	goto	l683
  6198  098B  29AF               	
  6199                           l689:	
  6200  098C                     	line	62
  6201                           	goto	l690
  6202  098C  2998               	
  6203                           l691:	
  6204  098D                     	line	63
  6205                           	
  6206                           l2244:	
  6207  098D                     	movlw	01h
  6208  098D  3001               	movwf	(??___fltol+0)+0
  6209  098E  00D4               u2185:
  6210  098F                     	clrc
  6211  098F  1003               	rlf	(___fltol@f1),f
  6212  0990  0DD0               	rlf	(___fltol@f1+1),f
  6213  0991  0DD1               	rlf	(___fltol@f1+2),f
  6214  0992  0DD2               	rlf	(___fltol@f1+3),f
  6215  0993  0DD3               	decfsz	(??___fltol+0)+0
  6216  0994  0BD4               	goto	u2185
  6217  0995  298F               	line	64
  6218                           	movlw	01h
  6219  0996  3001               	subwf	(___fltol@exp1),f
  6220  0997  02DA               	line	65
  6221                           	
  6222                           l690:	
  6223  0998                     	line	62
  6224                           	movf	((___fltol@exp1)),w
  6225  0998  085A               	btfss	status,2
  6226  0999  1D03               	goto	u2191
  6227  099A  299C               	goto	u2190
  6228  099B  299D               u2191:
  6229  099C                     	goto	l2244
  6230  099C  298D               u2190:
  6231  099D                     	goto	l2246
  6232  099D  299F               	
  6233                           l692:	
  6234  099E                     	goto	l2246
  6235  099E  299F               	line	66
  6236                           	
  6237                           l688:	
  6238  099F                     	line	67
  6239                           	
  6240                           l2246:	
  6241  099F                     	movf	((___fltol@sign1)),w
  6242  099F  0859               	btfsc	status,2
  6243  09A0  1903               	goto	u2201
  6244  09A1  29A3               	goto	u2200
  6245  09A2  29A4               u2201:
  6246  09A3                     	goto	l693
  6247  09A3  29AF               u2200:
  6248  09A4                     	line	68
  6249                           	
  6250                           l2248:	
  6251  09A4                     	comf	(___fltol@f1),f
  6252  09A4  09D0               	comf	(___fltol@f1+1),f
  6253  09A5  09D1               	comf	(___fltol@f1+2),f
  6254  09A6  09D2               	comf	(___fltol@f1+3),f
  6255  09A7  09D3               	incf	(___fltol@f1),f
  6256  09A8  0AD0               	skipnz
  6257  09A9  1903               	incf	(___fltol@f1+1),f
  6258  09AA  0AD1               	skipnz
  6259  09AB  1903               	incf	(___fltol@f1+2),f
  6260  09AC  0AD2               	skipnz
  6261  09AD  1903               	incf	(___fltol@f1+3),f
  6262  09AE  0AD3               	
  6263                           l693:	
  6264  09AF                     	line	69
  6265                           	line	70
  6266                           	
  6267                           l683:	
  6268  09AF                     	return
  6269  09AF  0008               	opt stack 0
  6270                           GLOBAL	__end_of___fltol
  6271                           	__end_of___fltol:
  6272  09B0                     	signat	___fltol,4220
  6273                           	global	___flneg
  6274                           
  6275 ;; *************** function ___flneg *****************
  6276 ;; Defined at:
  6277 ;;		line 15 in file "C:\Program Files (x86)\Microchip\xc8\v2.00\pic\sources\c90\common\flneg.c"
  6278 ;; Parameters:    Size  Location     Type
  6279 ;;  f1              4   20[BANK0 ] long 
  6280 ;; Auto vars:     Size  Location     Type
  6281 ;;		None
  6282 ;; Return value:  Size  Location     Type
  6283 ;;                  4   20[BANK0 ] long 
  6284 ;; Registers used:
  6285 ;;		wreg
  6286 ;; Tracked objects:
  6287 ;;		On entry : 0/0
  6288 ;;		On exit  : 0/0
  6289 ;;		Unchanged: 0/0
  6290 ;; Data sizes:     COMMON   BANK0   BANK1   BANK3   BANK2
  6291 ;;      Params:         0       4       0       0       0
  6292 ;;      Locals:         0       0       0       0       0
  6293 ;;      Temps:          0       0       0       0       0
  6294 ;;      Totals:         0       4       0       0       0
  6295 ;;Total ram usage:        4 bytes
  6296 ;; Hardware stack levels used:    1
  6297 ;; Hardware stack levels required when called:    4
  6298 ;; This function calls:
  6299 ;;		Nothing
  6300 ;; This function is called by:
  6301 ;;		_b1
  6302 ;;		_b0
  6303 ;; This function uses a non-reentrant model
  6304 ;;
  6305                           psect	text19,local,class=CODE,delta=2,merge=1,group=1
  6306                           	file	"C:\Program Files (x86)\Microchip\xc8\v2.00\pic\sources\c90\common\flneg.c"
  6307                           	line	15
  6308                           global __ptext19
  6309                           __ptext19:	;psect for function ___flneg
  6310  12E8                     psect	text19
  6311                           	file	"C:\Program Files (x86)\Microchip\xc8\v2.00\pic\sources\c90\common\flneg.c"
  6312                           	line	15
  6313                           	global	__size_of___flneg
  6314                           	__size_of___flneg	equ	__end_of___flneg-___flneg
  6315  000F                     	
  6316                           ___flneg:	
  6317  12E8                     ;incstack = 0
  6318                           	opt	stack 0
  6319                           ; Regs used in ___flneg: [wreg]
  6320                           	line	17
  6321                           	
  6322                           l2206:	
  6323  12E8                     	bcf	status, 5	;RP0=0, select bank0
  6324  12E8  1283               	bcf	status, 6	;RP1=0, select bank0
  6325  12E9  1303               	movf	(___flneg@f1+3),w
  6326  12EA  0837               	iorwf	(___flneg@f1+2),w
  6327  12EB  0436               	iorwf	(___flneg@f1+1),w
  6328  12EC  0435               	iorwf	(___flneg@f1),w
  6329  12ED  0434               	skipnz
  6330  12EE  1903               	goto	u2101
  6331  12EF  2AF1               	goto	u2100
  6332  12F0  2AF2               u2101:
  6333  12F1                     	goto	l2210
  6334  12F1  2AF5               u2100:
  6335  12F2                     	line	18
  6336                           	
  6337                           l2208:	
  6338  12F2                     	movlw	080h
  6339  12F2  3080               	xorwf	(___flneg@f1+3),f
  6340  12F3  06B7               	goto	l2210
  6341  12F4  2AF5               	
  6342                           l678:	
  6343  12F5                     	line	19
  6344                           	
  6345                           l2210:	
  6346  12F5                     	goto	l679
  6347  12F5  2AF6               	
  6348                           l2212:	
  6349  12F6                     	line	20
  6350                           	
  6351                           l679:	
  6352  12F6                     	return
  6353  12F6  0008               	opt stack 0
  6354                           GLOBAL	__end_of___flneg
  6355                           	__end_of___flneg:
  6356  12F7                     	signat	___flneg,4220
  6357                           	global	___fldiv
  6358                           
  6359 ;; *************** function ___fldiv *****************
  6360 ;; Defined at:
  6361 ;;		line 8 in file "C:\Program Files (x86)\Microchip\xc8\v2.00\pic\sources\c90\common\sprcdiv.c"
  6362 ;; Parameters:    Size  Location     Type
  6363 ;;  a               4    0[BANK0 ] long 
  6364 ;;  b               4    4[BANK0 ] long 
  6365 ;; Auto vars:     Size  Location     Type
  6366 ;;  grs             4   20[BANK0 ] unsigned long 
  6367 ;;  rem             4   13[BANK0 ] unsigned long 
  6368 ;;  new_exp         2   18[BANK0 ] int 
  6369 ;;  aexp            1   25[BANK0 ] unsigned char 
  6370 ;;  bexp            1   24[BANK0 ] unsigned char 
  6371 ;;  sign            1   17[BANK0 ] unsigned char 
  6372 ;; Return value:  Size  Location     Type
  6373 ;;                  4    0[BANK0 ] unsigned char 
  6374 ;; Registers used:
  6375 ;;		wreg, status,2, status,0, btemp+1
  6376 ;; Tracked objects:
  6377 ;;		On entry : 0/0
  6378 ;;		On exit  : 0/0
  6379 ;;		Unchanged: 0/0
  6380 ;; Data sizes:     COMMON   BANK0   BANK1   BANK3   BANK2
  6381 ;;      Params:         0       8       0       0       0
  6382 ;;      Locals:         0      13       0       0       0
  6383 ;;      Temps:          0       5       0       0       0
  6384 ;;      Totals:         0      26       0       0       0
  6385 ;;Total ram usage:       26 bytes
  6386 ;; Hardware stack levels used:    1
  6387 ;; Hardware stack levels required when called:    4
  6388 ;; This function calls:
  6389 ;;		Nothing
  6390 ;; This function is called by:
  6391 ;;		_b2
  6392 ;;		_b1
  6393 ;;		_b0
  6394 ;; This function uses a non-reentrant model
  6395 ;;
  6396                           psect	text20,local,class=CODE,delta=2,merge=1,group=1
  6397                           	file	"C:\Program Files (x86)\Microchip\xc8\v2.00\pic\sources\c90\common\sprcdiv.c"
  6398                           	line	8
  6399                           global __ptext20
  6400                           __ptext20:	;psect for function ___fldiv
  6401  0300                     psect	text20
  6402                           	file	"C:\Program Files (x86)\Microchip\xc8\v2.00\pic\sources\c90\common\sprcdiv.c"
  6403                           	line	8
  6404                           	global	__size_of___fldiv
  6405                           	__size_of___fldiv	equ	__end_of___fldiv-___fldiv
  6406  0209                     	
  6407                           ___fldiv:	
  6408  0300                     ;incstack = 0
  6409                           	opt	stack 0
  6410                           ; Regs used in ___fldiv: [wreg+status,2+status,0+btemp+1]
  6411                           	line	26
  6412                           	
  6413                           l2444:	
  6414  0300                     	bcf	status, 5	;RP0=0, select bank0
  6415  0300  1283               	bcf	status, 6	;RP1=0, select bank0
  6416  0301  1303               	movf	0+(___fldiv@b)+03h,w
  6417  0302  0827               	andlw	080h
  6418  0303  3980               	movwf	(??___fldiv+0)+0
  6419  0304  00A8               	movf	(??___fldiv+0)+0,w
  6420  0305  0828               	movwf	(___fldiv@sign)
  6421  0306  00B1               	line	27
  6422                           	
  6423                           l2446:	
  6424  0307                     	movf	0+(___fldiv@b)+03h,w
  6425  0307  0827               	movwf	(??___fldiv+0)+0
  6426  0308  00A8               	addwf	(??___fldiv+0)+0,w
  6427  0309  0728               	movwf	(??___fldiv+1)+0
  6428  030A  00A9               	movf	(??___fldiv+1)+0,w
  6429  030B  0829               	movwf	(___fldiv@bexp)
  6430  030C  00B8               	line	28
  6431                           	
  6432                           l2448:	
  6433  030D                     	btfss	0+(___fldiv@b)+02h,(7)&7
  6434  030D  1FA6               	goto	u2671
  6435  030E  2B10               	goto	u2670
  6436  030F  2B11               u2671:
  6437  0310                     	goto	l2452
  6438  0310  2B13               u2670:
  6439  0311                     	line	29
  6440                           	
  6441                           l2450:	
  6442  0311                     	bsf	(___fldiv@bexp)+(0/8),(0)&7
  6443  0311  1438               	goto	l2452
  6444  0312  2B13               	line	30
  6445                           	
  6446                           l839:	
  6447  0313                     	line	33
  6448                           	
  6449                           l2452:	
  6450  0313                     	movf	((___fldiv@bexp)),w
  6451  0313  0838               	btfsc	status,2
  6452  0314  1903               	goto	u2681
  6453  0315  2B17               	goto	u2680
  6454  0316  2B18               u2681:
  6455  0317                     	goto	l2462
  6456  0317  2B29               u2680:
  6457  0318                     	line	35
  6458                           	
  6459                           l2454:	
  6460  0318                     		incf	((___fldiv@bexp)),w
  6461  0318  0A38               	btfss	status,2
  6462  0319  1D03               	goto	u2691
  6463  031A  2B1C               	goto	u2690
  6464  031B  2B1D               u2691:
  6465  031C                     	goto	l2458
  6466  031C  2B26               u2690:
  6467  031D                     	line	37
  6468                           	
  6469                           l2456:	
  6470  031D                     	movlw	0x0
  6471  031D  3000               	movwf	(___fldiv@b+3)
  6472  031E  00A7               	movlw	0x0
  6473  031F  3000               	movwf	(___fldiv@b+2)
  6474  0320  00A6               	movlw	0x0
  6475  0321  3000               	movwf	(___fldiv@b+1)
  6476  0322  00A5               	movlw	0x0
  6477  0323  3000               	movwf	(___fldiv@b)
  6478  0324  00A4               
  6479                           	goto	l2458
  6480  0325  2B26               	line	38
  6481                           	
  6482                           l841:	
  6483  0326                     	line	40
  6484                           	
  6485                           l2458:	
  6486  0326                     	bsf	(___fldiv@b)+(23/8),(23)&7
  6487  0326  17A6               	line	42
  6488                           	
  6489                           l2460:	
  6490  0327                     	clrf	0+(___fldiv@b)+03h
  6491  0327  01A7               	line	43
  6492                           	goto	l2464
  6493  0328  2B32               	line	44
  6494                           	
  6495                           l840:	
  6496  0329                     	line	46
  6497                           	
  6498                           l2462:	
  6499  0329                     	movlw	0x0
  6500  0329  3000               	movwf	(___fldiv@b+3)
  6501  032A  00A7               	movlw	0x0
  6502  032B  3000               	movwf	(___fldiv@b+2)
  6503  032C  00A6               	movlw	0x0
  6504  032D  3000               	movwf	(___fldiv@b+1)
  6505  032E  00A5               	movlw	0x0
  6506  032F  3000               	movwf	(___fldiv@b)
  6507  0330  00A4               
  6508                           	goto	l2464
  6509  0331  2B32               	line	47
  6510                           	
  6511                           l842:	
  6512  0332                     	line	49
  6513                           	
  6514                           l2464:	
  6515  0332                     	movf	0+(___fldiv@a)+03h,w
  6516  0332  0823               	andlw	080h
  6517  0333  3980               	movwf	(??___fldiv+0)+0
  6518  0334  00A8               	movf	(??___fldiv+0)+0,w
  6519  0335  0828               	xorwf	(___fldiv@sign),f
  6520  0336  06B1               	line	50
  6521                           	
  6522                           l2466:	
  6523  0337                     	movf	0+(___fldiv@a)+03h,w
  6524  0337  0823               	movwf	(??___fldiv+0)+0
  6525  0338  00A8               	addwf	(??___fldiv+0)+0,w
  6526  0339  0728               	movwf	(??___fldiv+1)+0
  6527  033A  00A9               	movf	(??___fldiv+1)+0,w
  6528  033B  0829               	movwf	(___fldiv@aexp)
  6529  033C  00B9               	line	51
  6530                           	
  6531                           l2468:	
  6532  033D                     	btfss	0+(___fldiv@a)+02h,(7)&7
  6533  033D  1FA2               	goto	u2701
  6534  033E  2B40               	goto	u2700
  6535  033F  2B41               u2701:
  6536  0340                     	goto	l2472
  6537  0340  2B43               u2700:
  6538  0341                     	line	52
  6539                           	
  6540                           l2470:	
  6541  0341                     	bsf	(___fldiv@aexp)+(0/8),(0)&7
  6542  0341  1439               	goto	l2472
  6543  0342  2B43               	line	53
  6544                           	
  6545                           l843:	
  6546  0343                     	line	56
  6547                           	
  6548                           l2472:	
  6549  0343                     	movf	((___fldiv@aexp)),w
  6550  0343  0839               	btfsc	status,2
  6551  0344  1903               	goto	u2711
  6552  0345  2B47               	goto	u2710
  6553  0346  2B48               u2711:
  6554  0347                     	goto	l2482
  6555  0347  2B59               u2710:
  6556  0348                     	line	58
  6557                           	
  6558                           l2474:	
  6559  0348                     		incf	((___fldiv@aexp)),w
  6560  0348  0A39               	btfss	status,2
  6561  0349  1D03               	goto	u2721
  6562  034A  2B4C               	goto	u2720
  6563  034B  2B4D               u2721:
  6564  034C                     	goto	l2478
  6565  034C  2B56               u2720:
  6566  034D                     	line	60
  6567                           	
  6568                           l2476:	
  6569  034D                     	movlw	0x0
  6570  034D  3000               	movwf	(___fldiv@a+3)
  6571  034E  00A3               	movlw	0x0
  6572  034F  3000               	movwf	(___fldiv@a+2)
  6573  0350  00A2               	movlw	0x0
  6574  0351  3000               	movwf	(___fldiv@a+1)
  6575  0352  00A1               	movlw	0x0
  6576  0353  3000               	movwf	(___fldiv@a)
  6577  0354  00A0               
  6578                           	goto	l2478
  6579  0355  2B56               	line	61
  6580                           	
  6581                           l845:	
  6582  0356                     	line	63
  6583                           	
  6584                           l2478:	
  6585  0356                     	bsf	(___fldiv@a)+(23/8),(23)&7
  6586  0356  17A2               	line	65
  6587                           	
  6588                           l2480:	
  6589  0357                     	clrf	0+(___fldiv@a)+03h
  6590  0357  01A3               	line	66
  6591                           	goto	l846
  6592  0358  2B61               	line	67
  6593                           	
  6594                           l844:	
  6595  0359                     	line	69
  6596                           	
  6597                           l2482:	
  6598  0359                     	movlw	0x0
  6599  0359  3000               	movwf	(___fldiv@a+3)
  6600  035A  00A3               	movlw	0x0
  6601  035B  3000               	movwf	(___fldiv@a+2)
  6602  035C  00A2               	movlw	0x0
  6603  035D  3000               	movwf	(___fldiv@a+1)
  6604  035E  00A1               	movlw	0x0
  6605  035F  3000               	movwf	(___fldiv@a)
  6606  0360  00A0               
  6607                           	line	70
  6608                           	
  6609                           l846:	
  6610  0361                     	line	75
  6611                           	movf	(___fldiv@a+3),w
  6612  0361  0823               	iorwf	(___fldiv@a+2),w
  6613  0362  0422               	iorwf	(___fldiv@a+1),w
  6614  0363  0421               	iorwf	(___fldiv@a),w
  6615  0364  0420               	skipz
  6616  0365  1D03               	goto	u2731
  6617  0366  2B68               	goto	u2730
  6618  0367  2B69               u2731:
  6619  0368                     	goto	l2492
  6620  0368  2B83               u2730:
  6621  0369                     	line	76
  6622                           	
  6623                           l2484:	
  6624  0369                     	movlw	high highword(0)
  6625  0369  3000               	movwf	(___fldiv@b+3)
  6626  036A  00A7               	movlw	low highword(0)
  6627  036B  3000               	movwf	(___fldiv@b+2)
  6628  036C  00A6               	movlw	high(0)
  6629  036D  3000               	movwf	(___fldiv@b+1)
  6630  036E  00A5               	movlw	low(0)
  6631  036F  3000               	movwf	(___fldiv@b)
  6632  0370  00A4               
  6633                           	line	77
  6634                           	movlw	080h
  6635  0371  3080               	iorwf	0+(___fldiv@b)+02h,f
  6636  0372  04A6               	movlw	07Fh
  6637  0373  307F               	iorwf	1+(___fldiv@b)+02h,f
  6638  0374  04A7               	line	78
  6639                           	
  6640                           l2486:	
  6641  0375                     	movf	(___fldiv@sign),w
  6642  0375  0831               	movwf	(??___fldiv+0)+0
  6643  0376  00A8               	movf	(??___fldiv+0)+0,w
  6644  0377  0828               	iorwf	0+(___fldiv@b)+03h,f
  6645  0378  04A7               	line	79
  6646                           	
  6647                           l2488:	
  6648  0379                     	movf	(___fldiv@b+3),w
  6649  0379  0827               	movwf	(?___fldiv+3)
  6650  037A  00A3               	movf	(___fldiv@b+2),w
  6651  037B  0826               	movwf	(?___fldiv+2)
  6652  037C  00A2               	movf	(___fldiv@b+1),w
  6653  037D  0825               	movwf	(?___fldiv+1)
  6654  037E  00A1               	movf	(___fldiv@b),w
  6655  037F  0824               	movwf	(?___fldiv)
  6656  0380  00A0               
  6657                           	goto	l848
  6658  0381  2D08               	
  6659                           l2490:	
  6660  0382                     	goto	l848
  6661  0382  2D08               	line	80
  6662                           	
  6663                           l847:	
  6664  0383                     	line	83
  6665                           	
  6666                           l2492:	
  6667  0383                     	movf	((___fldiv@bexp)),w
  6668  0383  0838               	btfss	status,2
  6669  0384  1D03               	goto	u2741
  6670  0385  2B87               	goto	u2740
  6671  0386  2B88               u2741:
  6672  0387                     	goto	l2498
  6673  0387  2B9A               u2740:
  6674  0388                     	line	84
  6675                           	
  6676                           l2494:	
  6677  0388                     	movlw	high highword(0)
  6678  0388  3000               	movwf	(___fldiv@b+3)
  6679  0389  00A7               	movlw	low highword(0)
  6680  038A  3000               	movwf	(___fldiv@b+2)
  6681  038B  00A6               	movlw	high(0)
  6682  038C  3000               	movwf	(___fldiv@b+1)
  6683  038D  00A5               	movlw	low(0)
  6684  038E  3000               	movwf	(___fldiv@b)
  6685  038F  00A4               
  6686                           	line	85
  6687                           	movf	(___fldiv@b+3),w
  6688  0390  0827               	movwf	(?___fldiv+3)
  6689  0391  00A3               	movf	(___fldiv@b+2),w
  6690  0392  0826               	movwf	(?___fldiv+2)
  6691  0393  00A2               	movf	(___fldiv@b+1),w
  6692  0394  0825               	movwf	(?___fldiv+1)
  6693  0395  00A1               	movf	(___fldiv@b),w
  6694  0396  0824               	movwf	(?___fldiv)
  6695  0397  00A0               
  6696                           	goto	l848
  6697  0398  2D08               	
  6698                           l2496:	
  6699  0399                     	goto	l848
  6700  0399  2D08               	line	86
  6701                           	
  6702                           l849:	
  6703  039A                     	line	89
  6704                           	
  6705                           l2498:	
  6706  039A                     	movf	(___fldiv@aexp),w
  6707  039A  0839               	movwf	(??___fldiv+0)+0
  6708  039B  00A8               	clrf	(??___fldiv+0)+0+1
  6709  039C  01A9               	comf	(??___fldiv+0)+0,f
  6710  039D  09A8               	comf	(??___fldiv+0)+1,f
  6711  039E  09A9               	incf	(??___fldiv+0)+0,f
  6712  039F  0AA8               	skipnz
  6713  03A0  1903               	incf	(??___fldiv+0)+1,f
  6714  03A1  0AA9               	movf	(___fldiv@bexp),w
  6715  03A2  0838               	addwf	0+(??___fldiv+0)+0,w
  6716  03A3  0728               	movwf	(??___fldiv+2)+0
  6717  03A4  00AA               	movf	1+(??___fldiv+0)+0,w
  6718  03A5  0829               	skipnc
  6719  03A6  1803               	incf	1+(??___fldiv+0)+0,w
  6720  03A7  0A29               	movwf	((??___fldiv+2)+0)+1
  6721  03A8  00AB               	movf	0+(??___fldiv+2)+0,w
  6722  03A9  082A               	addlw	low(07Fh)
  6723  03AA  3E7F               	movwf	(___fldiv@new_exp)
  6724  03AB  00B2               	movf	1+(??___fldiv+2)+0,w
  6725  03AC  082B               	skipnc
  6726  03AD  1803               	addlw	1
  6727  03AE  3E01               	addlw	high(07Fh)
  6728  03AF  3E00               	movwf	1+(___fldiv@new_exp)
  6729  03B0  00B3               	line	92
  6730                           	
  6731                           l2500:	
  6732  03B1                     	movf	(___fldiv@b+3),w
  6733  03B1  0827               	movwf	(___fldiv@rem+3)
  6734  03B2  00B0               	movf	(___fldiv@b+2),w
  6735  03B3  0826               	movwf	(___fldiv@rem+2)
  6736  03B4  00AF               	movf	(___fldiv@b+1),w
  6737  03B5  0825               	movwf	(___fldiv@rem+1)
  6738  03B6  00AE               	movf	(___fldiv@b),w
  6739  03B7  0824               	movwf	(___fldiv@rem)
  6740  03B8  00AD               
  6741                           	line	93
  6742                           	
  6743                           l2502:	
  6744  03B9                     	movlw	high highword(0)
  6745  03B9  3000               	movwf	(___fldiv@b+3)
  6746  03BA  00A7               	movlw	low highword(0)
  6747  03BB  3000               	movwf	(___fldiv@b+2)
  6748  03BC  00A6               	movlw	high(0)
  6749  03BD  3000               	movwf	(___fldiv@b+1)
  6750  03BE  00A5               	movlw	low(0)
  6751  03BF  3000               	movwf	(___fldiv@b)
  6752  03C0  00A4               
  6753                           	line	94
  6754                           	
  6755                           l2504:	
  6756  03C1                     	movlw	high highword(0)
  6757  03C1  3000               	movwf	(___fldiv@grs+3)
  6758  03C2  00B7               	movlw	low highword(0)
  6759  03C3  3000               	movwf	(___fldiv@grs+2)
  6760  03C4  00B6               	movlw	high(0)
  6761  03C5  3000               	movwf	(___fldiv@grs+1)
  6762  03C6  00B5               	movlw	low(0)
  6763  03C7  3000               	movwf	(___fldiv@grs)
  6764  03C8  00B4               
  6765                           	line	96
  6766                           	
  6767                           l2506:	
  6768  03C9                     	clrf	(___fldiv@aexp)
  6769  03C9  01B9               	line	97
  6770                           	goto	l2526
  6771  03CA  2C19               	
  6772                           l851:	
  6773  03CB                     	line	100
  6774                           	
  6775                           l2508:	
  6776  03CB                     	movf	((___fldiv@aexp)),w
  6777  03CB  0839               	btfsc	status,2
  6778  03CC  1903               	goto	u2751
  6779  03CD  2BCF               	goto	u2750
  6780  03CE  2BD0               u2751:
  6781  03CF                     	goto	l2518
  6782  03CF  2BF2               u2750:
  6783  03D0                     	line	101
  6784                           	
  6785                           l2510:	
  6786  03D0                     	movlw	01h
  6787  03D0  3001               	movwf	(??___fldiv+0)+0
  6788  03D1  00A8               u2765:
  6789  03D2                     	clrc
  6790  03D2  1003               	rlf	(___fldiv@rem),f
  6791  03D3  0DAD               	rlf	(___fldiv@rem+1),f
  6792  03D4  0DAE               	rlf	(___fldiv@rem+2),f
  6793  03D5  0DAF               	rlf	(___fldiv@rem+3),f
  6794  03D6  0DB0               	decfsz	(??___fldiv+0)+0
  6795  03D7  0BA8               	goto	u2765
  6796  03D8  2BD2               	line	102
  6797                           	movlw	01h
  6798  03D9  3001               	movwf	(??___fldiv+0)+0
  6799  03DA  00A8               u2775:
  6800  03DB                     	clrc
  6801  03DB  1003               	rlf	(___fldiv@b),f
  6802  03DC  0DA4               	rlf	(___fldiv@b+1),f
  6803  03DD  0DA5               	rlf	(___fldiv@b+2),f
  6804  03DE  0DA6               	rlf	(___fldiv@b+3),f
  6805  03DF  0DA7               	decfsz	(??___fldiv+0)+0
  6806  03E0  0BA8               	goto	u2775
  6807  03E1  2BDB               	line	103
  6808                           	
  6809                           l2512:	
  6810  03E2                     	btfss	(___fldiv@grs+3),(31)&7
  6811  03E2  1FB7               	goto	u2781
  6812  03E3  2BE5               	goto	u2780
  6813  03E4  2BE6               u2781:
  6814  03E5                     	goto	l2516
  6815  03E5  2BE8               u2780:
  6816  03E6                     	line	104
  6817                           	
  6818                           l2514:	
  6819  03E6                     	bsf	(___fldiv@b)+(0/8),(0)&7
  6820  03E6  1424               	goto	l2516
  6821  03E7  2BE8               	line	105
  6822                           	
  6823                           l853:	
  6824  03E8                     	line	106
  6825                           	
  6826                           l2516:	
  6827  03E8                     	movlw	01h
  6828  03E8  3001               	movwf	(??___fldiv+0)+0
  6829  03E9  00A8               u2795:
  6830  03EA                     	clrc
  6831  03EA  1003               	rlf	(___fldiv@grs),f
  6832  03EB  0DB4               	rlf	(___fldiv@grs+1),f
  6833  03EC  0DB5               	rlf	(___fldiv@grs+2),f
  6834  03ED  0DB6               	rlf	(___fldiv@grs+3),f
  6835  03EE  0DB7               	decfsz	(??___fldiv+0)+0
  6836  03EF  0BA8               	goto	u2795
  6837  03F0  2BEA               	goto	l2518
  6838  03F1  2BF2               	line	107
  6839                           	
  6840                           l852:	
  6841  03F2                     	line	112
  6842                           	
  6843                           l2518:	
  6844  03F2                     	movf	(___fldiv@a+3),w
  6845  03F2  0823               	subwf	(___fldiv@rem+3),w
  6846  03F3  0230               	skipz
  6847  03F4  1D03               	goto	u2805
  6848  03F5  2C00               	movf	(___fldiv@a+2),w
  6849  03F6  0822               	subwf	(___fldiv@rem+2),w
  6850  03F7  022F               	skipz
  6851  03F8  1D03               	goto	u2805
  6852  03F9  2C00               	movf	(___fldiv@a+1),w
  6853  03FA  0821               	subwf	(___fldiv@rem+1),w
  6854  03FB  022E               	skipz
  6855  03FC  1D03               	goto	u2805
  6856  03FD  2C00               	movf	(___fldiv@a),w
  6857  03FE  0820               	subwf	(___fldiv@rem),w
  6858  03FF  022D               u2805:
  6859  0400                     	skipc
  6860  0400  1C03               	goto	u2801
  6861  0401  2C03               	goto	u2800
  6862  0402  2C04               u2801:
  6863  0403                     	goto	l2524
  6864  0403  2C14               u2800:
  6865  0404                     	line	115
  6866                           	
  6867                           l2520:	
  6868  0404                     	bsf	(___fldiv@grs)+(30/8),(30)&7
  6869  0404  1737               	line	116
  6870                           	
  6871                           l2522:	
  6872  0405                     	movf	(___fldiv@a),w
  6873  0405  0820               	subwf	(___fldiv@rem),f
  6874  0406  02AD               	movf	(___fldiv@a+1),w
  6875  0407  0821               	skipc
  6876  0408  1C03               	incfsz	(___fldiv@a+1),w
  6877  0409  0F21               	subwf	(___fldiv@rem+1),f
  6878  040A  02AE               	movf	(___fldiv@a+2),w
  6879  040B  0822               	skipc
  6880  040C  1C03               	incfsz	(___fldiv@a+2),w
  6881  040D  0F22               	subwf	(___fldiv@rem+2),f
  6882  040E  02AF               	movf	(___fldiv@a+3),w
  6883  040F  0823               	skipc
  6884  0410  1C03               	incfsz	(___fldiv@a+3),w
  6885  0411  0F23               	subwf	(___fldiv@rem+3),f
  6886  0412  02B0               	goto	l2524
  6887  0413  2C14               	line	117
  6888                           	
  6889                           l854:	
  6890  0414                     	line	118
  6891                           	
  6892                           l2524:	
  6893  0414                     	movlw	low(01h)
  6894  0414  3001               	movwf	(??___fldiv+0)+0
  6895  0415  00A8               	movf	(??___fldiv+0)+0,w
  6896  0416  0828               	addwf	(___fldiv@aexp),f
  6897  0417  07B9               	goto	l2526
  6898  0418  2C19               	line	119
  6899                           	
  6900                           l850:	
  6901  0419                     	line	97
  6902                           	
  6903                           l2526:	
  6904  0419                     	movlw	low(01Ah)
  6905  0419  301A               	subwf	(___fldiv@aexp),w
  6906  041A  0239               	skipc
  6907  041B  1C03               	goto	u2811
  6908  041C  2C1E               	goto	u2810
  6909  041D  2C1F               u2811:
  6910  041E                     	goto	l2508
  6911  041E  2BCB               u2810:
  6912  041F                     	goto	l2528
  6913  041F  2C20               	
  6914                           l855:	
  6915  0420                     	line	122
  6916                           	
  6917                           l2528:	
  6918  0420                     	movf	(___fldiv@rem+3),w
  6919  0420  0830               	iorwf	(___fldiv@rem+2),w
  6920  0421  042F               	iorwf	(___fldiv@rem+1),w
  6921  0422  042E               	iorwf	(___fldiv@rem),w
  6922  0423  042D               	skipnz
  6923  0424  1903               	goto	u2821
  6924  0425  2C27               	goto	u2820
  6925  0426  2C28               u2821:
  6926  0427                     	goto	l2542
  6927  0427  2C4A               u2820:
  6928  0428                     	line	123
  6929                           	
  6930                           l2530:	
  6931  0428                     	bsf	(___fldiv@grs)+(0/8),(0)&7
  6932  0428  1434               	goto	l2542
  6933  0429  2C4A               	line	124
  6934                           	
  6935                           l856:	
  6936  042A                     	line	127
  6937                           	goto	l2542
  6938  042A  2C4A               	
  6939                           l858:	
  6940  042B                     	line	128
  6941                           	
  6942                           l2532:	
  6943  042B                     	movlw	01h
  6944  042B  3001               	movwf	(??___fldiv+0)+0
  6945  042C  00A8               u2835:
  6946  042D                     	clrc
  6947  042D  1003               	rlf	(___fldiv@b),f
  6948  042E  0DA4               	rlf	(___fldiv@b+1),f
  6949  042F  0DA5               	rlf	(___fldiv@b+2),f
  6950  0430  0DA6               	rlf	(___fldiv@b+3),f
  6951  0431  0DA7               	decfsz	(??___fldiv+0)+0
  6952  0432  0BA8               	goto	u2835
  6953  0433  2C2D               	line	129
  6954                           	
  6955                           l2534:	
  6956  0434                     	btfss	(___fldiv@grs+3),(31)&7
  6957  0434  1FB7               	goto	u2841
  6958  0435  2C37               	goto	u2840
  6959  0436  2C38               u2841:
  6960  0437                     	goto	l2538
  6961  0437  2C3A               u2840:
  6962  0438                     	line	130
  6963                           	
  6964                           l2536:	
  6965  0438                     	bsf	(___fldiv@b)+(0/8),(0)&7
  6966  0438  1424               	goto	l2538
  6967  0439  2C3A               	line	131
  6968                           	
  6969                           l859:	
  6970  043A                     	line	132
  6971                           	
  6972                           l2538:	
  6973  043A                     	movlw	01h
  6974  043A  3001               	movwf	(??___fldiv+0)+0
  6975  043B  00A8               u2855:
  6976  043C                     	clrc
  6977  043C  1003               	rlf	(___fldiv@grs),f
  6978  043D  0DB4               	rlf	(___fldiv@grs+1),f
  6979  043E  0DB5               	rlf	(___fldiv@grs+2),f
  6980  043F  0DB6               	rlf	(___fldiv@grs+3),f
  6981  0440  0DB7               	decfsz	(??___fldiv+0)+0
  6982  0441  0BA8               	goto	u2855
  6983  0442  2C3C               	line	133
  6984                           	
  6985                           l2540:	
  6986  0443                     	movlw	0FFh
  6987  0443  30FF               	addwf	(___fldiv@new_exp),f
  6988  0444  07B2               	skipnc
  6989  0445  1803               	incf	(___fldiv@new_exp+1),f
  6990  0446  0AB3               	movlw	0FFh
  6991  0447  30FF               	addwf	(___fldiv@new_exp+1),f
  6992  0448  07B3               	goto	l2542
  6993  0449  2C4A               	line	134
  6994                           	
  6995                           l857:	
  6996  044A                     	line	127
  6997                           	
  6998                           l2542:	
  6999  044A                     	btfss	(___fldiv@b+2),(23)&7
  7000  044A  1FA6               	goto	u2861
  7001  044B  2C4D               	goto	u2860
  7002  044C  2C4E               u2861:
  7003  044D                     	goto	l2532
  7004  044D  2C2B               u2860:
  7005  044E                     	goto	l2544
  7006  044E  2C4F               	
  7007                           l860:	
  7008  044F                     	line	139
  7009                           	
  7010                           l2544:	
  7011  044F                     	clrf	(___fldiv@aexp)
  7012  044F  01B9               	line	140
  7013                           	
  7014                           l2546:	
  7015  0450                     	btfss	(___fldiv@grs+3),(31)&7
  7016  0450  1FB7               	goto	u2871
  7017  0451  2C53               	goto	u2870
  7018  0452  2C54               u2871:
  7019  0453                     	goto	l2554
  7020  0453  2C74               u2870:
  7021  0454                     	line	141
  7022                           	
  7023                           l2548:	
  7024  0454                     	movlw	0FFh
  7025  0454  30FF               	andwf	(___fldiv@grs),w
  7026  0455  0534               	movwf	(??___fldiv+0)+0
  7027  0456  00A8               	movlw	0FFh
  7028  0457  30FF               	andwf	(___fldiv@grs+1),w
  7029  0458  0535               	movwf	((??___fldiv+0)+0+1)
  7030  0459  00A9               	movlw	0FFh
  7031  045A  30FF               	andwf	(___fldiv@grs+2),w
  7032  045B  0536               	movwf	((??___fldiv+0)+0+2)
  7033  045C  00AA               	movlw	07Fh
  7034  045D  307F               	andwf	(___fldiv@grs+3),w
  7035  045E  0537               	movwf	((??___fldiv+0)+0+3)
  7036  045F  00AB               	movf	3+(??___fldiv+0)+0,w
  7037  0460  082B               	iorwf	2+(??___fldiv+0)+0,w
  7038  0461  042A               	iorwf	1+(??___fldiv+0)+0,w
  7039  0462  0429               	iorwf	0+(??___fldiv+0)+0,w
  7040  0463  0428               	skipnz
  7041  0464  1903               	goto	u2881
  7042  0465  2C67               	goto	u2880
  7043  0466  2C68               u2881:
  7044  0467                     	goto	l862
  7045  0467  2C6B               u2880:
  7046  0468                     	line	142
  7047                           	
  7048                           l2550:	
  7049  0468                     	clrf	(___fldiv@aexp)
  7050  0468  01B9               	incf	(___fldiv@aexp),f
  7051  0469  0AB9               	line	143
  7052                           	goto	l2554
  7053  046A  2C74               	line	144
  7054                           	
  7055                           l862:	
  7056  046B                     	line	145
  7057                           	btfss	(___fldiv@b),(0)&7
  7058  046B  1C24               	goto	u2891
  7059  046C  2C6E               	goto	u2890
  7060  046D  2C6F               u2891:
  7061  046E                     	goto	l2554
  7062  046E  2C74               u2890:
  7063  046F                     	line	146
  7064                           	
  7065                           l2552:	
  7066  046F                     	clrf	(___fldiv@aexp)
  7067  046F  01B9               	incf	(___fldiv@aexp),f
  7068  0470  0AB9               	goto	l2554
  7069  0471  2C74               	line	147
  7070                           	
  7071                           l864:	
  7072  0472                     	goto	l2554
  7073  0472  2C74               	line	148
  7074                           	
  7075                           l863:	
  7076  0473                     	goto	l2554
  7077  0473  2C74               	line	149
  7078                           	
  7079                           l861:	
  7080  0474                     	line	150
  7081                           	
  7082                           l2554:	
  7083  0474                     	movf	((___fldiv@aexp)),w
  7084  0474  0839               	btfsc	status,2
  7085  0475  1903               	goto	u2901
  7086  0476  2C78               	goto	u2900
  7087  0477  2C79               u2901:
  7088  0478                     	goto	l2564
  7089  0478  2CAC               u2900:
  7090  0479                     	line	151
  7091                           	
  7092                           l2556:	
  7093  0479                     	movlw	01h
  7094  0479  3001               	addwf	(___fldiv@b),f
  7095  047A  07A4               	movlw	0
  7096  047B  3000               	skipnc
  7097  047C  1803               movlw 1
  7098  047D  3001               	addwf	(___fldiv@b+1),f
  7099  047E  07A5               	movlw	0
  7100  047F  3000               	skipnc
  7101  0480  1803               movlw 1
  7102  0481  3001               	addwf	(___fldiv@b+2),f
  7103  0482  07A6               	movlw	0
  7104  0483  3000               	skipnc
  7105  0484  1803               movlw 1
  7106  0485  3001               	addwf	(___fldiv@b+3),f
  7107  0486  07A7               	line	152
  7108                           	
  7109                           l2558:	
  7110  0487                     	btfss	(___fldiv@b+3),(24)&7
  7111  0487  1C27               	goto	u2911
  7112  0488  2C8A               	goto	u2910
  7113  0489  2C8B               u2911:
  7114  048A                     	goto	l2564
  7115  048A  2CAC               u2910:
  7116  048B                     	line	153
  7117                           	
  7118                           l2560:	
  7119  048B                     	movf	(___fldiv@b),w
  7120  048B  0824               	movwf	(??___fldiv+0)+0
  7121  048C  00A8               	movf	(___fldiv@b+1),w
  7122  048D  0825               	movwf	((??___fldiv+0)+0+1)
  7123  048E  00A9               	movf	(___fldiv@b+2),w
  7124  048F  0826               	movwf	((??___fldiv+0)+0+2)
  7125  0490  00AA               	movf	(___fldiv@b+3),w
  7126  0491  0827               	movwf	((??___fldiv+0)+0+3)
  7127  0492  00AB               	movlw	01h
  7128  0493  3001               	movwf	(??___fldiv+4)+0
  7129  0494  00AC               u2925:
  7130  0495                     	rlf	(??___fldiv+0)+3,w
  7131  0495  0D2B               	rrf	(??___fldiv+0)+3,f
  7132  0496  0CAB               	rrf	(??___fldiv+0)+2,f
  7133  0497  0CAA               	rrf	(??___fldiv+0)+1,f
  7134  0498  0CA9               	rrf	(??___fldiv+0)+0,f
  7135  0499  0CA8               u2920:
  7136  049A                     	decfsz	(??___fldiv+4)+0,f
  7137  049A  0BAC               	goto	u2925
  7138  049B  2C95               	movf	3+(??___fldiv+0)+0,w
  7139  049C  082B               	movwf	(___fldiv@b+3)
  7140  049D  00A7               	movf	2+(??___fldiv+0)+0,w
  7141  049E  082A               	movwf	(___fldiv@b+2)
  7142  049F  00A6               	movf	1+(??___fldiv+0)+0,w
  7143  04A0  0829               	movwf	(___fldiv@b+1)
  7144  04A1  00A5               	movf	0+(??___fldiv+0)+0,w
  7145  04A2  0828               	movwf	(___fldiv@b)
  7146  04A3  00A4               
  7147                           	line	154
  7148                           	
  7149                           l2562:	
  7150  04A4                     	movlw	01h
  7151  04A4  3001               	addwf	(___fldiv@new_exp),f
  7152  04A5  07B2               	skipnc
  7153  04A6  1803               	incf	(___fldiv@new_exp+1),f
  7154  04A7  0AB3               	movlw	0
  7155  04A8  3000               	addwf	(___fldiv@new_exp+1),f
  7156  04A9  07B3               	goto	l2564
  7157  04AA  2CAC               	line	155
  7158                           	
  7159                           l866:	
  7160  04AB                     	goto	l2564
  7161  04AB  2CAC               	line	156
  7162                           	
  7163                           l865:	
  7164  04AC                     	line	159
  7165                           	
  7166                           l2564:	
  7167  04AC                     	movf	(___fldiv@new_exp+1),w
  7168  04AC  0833               	xorlw	80h
  7169  04AD  3A80               	movwf	btemp+1
  7170  04AE  00FF               	movlw	(0)^80h
  7171  04AF  3080               	subwf	btemp+1,w
  7172  04B0  027F               	skipz
  7173  04B1  1D03               	goto	u2935
  7174  04B2  2CB5               	movlw	0FFh
  7175  04B3  30FF               	subwf	(___fldiv@new_exp),w
  7176  04B4  0232               u2935:
  7177  04B5                     
  7178                           	skipc
  7179  04B5  1C03               	goto	u2931
  7180  04B6  2CB8               	goto	u2930
  7181  04B7  2CB9               u2931:
  7182  04B8                     	goto	l2568
  7183  04B8  2CC8               u2930:
  7184  04B9                     	line	160
  7185                           	
  7186                           l2566:	
  7187  04B9                     	movlw	0FFh
  7188  04B9  30FF               	bcf	status, 5	;RP0=0, select bank0
  7189  04BA  1283               	bcf	status, 6	;RP1=0, select bank0
  7190  04BB  1303               	movwf	(___fldiv@new_exp)
  7191  04BC  00B2               	movlw	0
  7192  04BD  3000               	movwf	((___fldiv@new_exp))+1
  7193  04BE  00B3               	line	161
  7194                           	movlw	high highword(0)
  7195  04BF  3000               	movwf	(___fldiv@b+3)
  7196  04C0  00A7               	movlw	low highword(0)
  7197  04C1  3000               	movwf	(___fldiv@b+2)
  7198  04C2  00A6               	movlw	high(0)
  7199  04C3  3000               	movwf	(___fldiv@b+1)
  7200  04C4  00A5               	movlw	low(0)
  7201  04C5  3000               	movwf	(___fldiv@b)
  7202  04C6  00A4               
  7203                           	goto	l2568
  7204  04C7  2CC8               	line	162
  7205                           	
  7206                           l867:	
  7207  04C8                     	line	165
  7208                           	
  7209                           l2568:	
  7210  04C8                     	bcf	status, 5	;RP0=0, select bank0
  7211  04C8  1283               	bcf	status, 6	;RP1=0, select bank0
  7212  04C9  1303               	movf	(___fldiv@new_exp+1),w
  7213  04CA  0833               	xorlw	80h
  7214  04CB  3A80               	movwf	btemp+1
  7215  04CC  00FF               	movlw	(0)^80h
  7216  04CD  3080               	subwf	btemp+1,w
  7217  04CE  027F               	skipz
  7218  04CF  1D03               	goto	u2945
  7219  04D0  2CD3               	movlw	01h
  7220  04D1  3001               	subwf	(___fldiv@new_exp),w
  7221  04D2  0232               u2945:
  7222  04D3                     
  7223                           	skipnc
  7224  04D3  1803               	goto	u2941
  7225  04D4  2CD6               	goto	u2940
  7226  04D5  2CD7               u2941:
  7227  04D6                     	goto	l868
  7228  04D6  2CE4               u2940:
  7229  04D7                     	line	166
  7230                           	
  7231                           l2570:	
  7232  04D7                     	bcf	status, 5	;RP0=0, select bank0
  7233  04D7  1283               	bcf	status, 6	;RP1=0, select bank0
  7234  04D8  1303               	clrf	(___fldiv@new_exp)
  7235  04D9  01B2               	clrf	(___fldiv@new_exp+1)
  7236  04DA  01B3               	line	167
  7237                           	
  7238                           l2572:	
  7239  04DB                     	movlw	high highword(0)
  7240  04DB  3000               	movwf	(___fldiv@b+3)
  7241  04DC  00A7               	movlw	low highword(0)
  7242  04DD  3000               	movwf	(___fldiv@b+2)
  7243  04DE  00A6               	movlw	high(0)
  7244  04DF  3000               	movwf	(___fldiv@b+1)
  7245  04E0  00A5               	movlw	low(0)
  7246  04E1  3000               	movwf	(___fldiv@b)
  7247  04E2  00A4               
  7248                           	line	169
  7249                           	
  7250                           l2574:	
  7251  04E3                     	clrf	(___fldiv@sign)
  7252  04E3  01B1               	line	170
  7253                           	
  7254                           l868:	
  7255  04E4                     	line	173
  7256                           	bcf	status, 5	;RP0=0, select bank0
  7257  04E4  1283               	bcf	status, 6	;RP1=0, select bank0
  7258  04E5  1303               	movf	(___fldiv@new_exp),w
  7259  04E6  0832               	movwf	(??___fldiv+0)+0
  7260  04E7  00A8               	movf	(??___fldiv+0)+0,w
  7261  04E8  0828               	movwf	(___fldiv@bexp)
  7262  04E9  00B8               	line	175
  7263                           	
  7264                           l2576:	
  7265  04EA                     	btfss	(___fldiv@bexp),(0)&7
  7266  04EA  1C38               	goto	u2951
  7267  04EB  2CED               	goto	u2950
  7268  04EC  2CEE               u2951:
  7269  04ED                     	goto	l2580
  7270  04ED  2CF0               u2950:
  7271  04EE                     	line	176
  7272                           	
  7273                           l2578:	
  7274  04EE                     	bsf	0+(___fldiv@b)+02h+(7/8),(7)&7
  7275  04EE  17A6               	line	177
  7276                           	goto	l870
  7277  04EF  2CF4               	line	179
  7278                           	
  7279                           l869:	
  7280  04F0                     	line	180
  7281                           	
  7282                           l2580:	
  7283  04F0                     	movlw	low(07Fh)
  7284  04F0  307F               	movwf	(??___fldiv+0)+0
  7285  04F1  00A8               	movf	(??___fldiv+0)+0,w
  7286  04F2  0828               	andwf	0+(___fldiv@b)+02h,f
  7287  04F3  05A6               	line	181
  7288                           	
  7289                           l870:	
  7290  04F4                     	line	182
  7291                           	movf	(___fldiv@bexp),w
  7292  04F4  0838               	movwf	(??___fldiv+0)+0
  7293  04F5  00A8               	clrc
  7294  04F6  1003               	rrf	(??___fldiv+0)+0,w
  7295  04F7  0C28               	movwf	(??___fldiv+1)+0
  7296  04F8  00A9               	movf	(??___fldiv+1)+0,w
  7297  04F9  0829               	movwf	0+(___fldiv@b)+03h
  7298  04FA  00A7               	line	183
  7299                           	movf	(___fldiv@sign),w
  7300  04FB  0831               	movwf	(??___fldiv+0)+0
  7301  04FC  00A8               	movf	(??___fldiv+0)+0,w
  7302  04FD  0828               	iorwf	0+(___fldiv@b)+03h,f
  7303  04FE  04A7               	line	184
  7304                           	
  7305                           l2582:	
  7306  04FF                     	movf	(___fldiv@b+3),w
  7307  04FF  0827               	movwf	(?___fldiv+3)
  7308  0500  00A3               	movf	(___fldiv@b+2),w
  7309  0501  0826               	movwf	(?___fldiv+2)
  7310  0502  00A2               	movf	(___fldiv@b+1),w
  7311  0503  0825               	movwf	(?___fldiv+1)
  7312  0504  00A1               	movf	(___fldiv@b),w
  7313  0505  0824               	movwf	(?___fldiv)
  7314  0506  00A0               
  7315                           	goto	l848
  7316  0507  2D08               	
  7317                           l2584:	
  7318  0508                     	line	185
  7319                           	
  7320                           l848:	
  7321  0508                     	return
  7322  0508  0008               	opt stack 0
  7323                           GLOBAL	__end_of___fldiv
  7324                           	__end_of___fldiv:
  7325  0509                     	signat	___fldiv,8316
  7326                           	global	___fladd
  7327                           
  7328 ;; *************** function ___fladd *****************
  7329 ;; Defined at:
  7330 ;;		line 10 in file "C:\Program Files (x86)\Microchip\xc8\v2.00\pic\sources\c90\common\sprcadd.c"
  7331 ;; Parameters:    Size  Location     Type
  7332 ;;  b               4   24[BANK0 ] unsigned char 
  7333 ;;  a               4   28[BANK0 ] unsigned char 
  7334 ;; Auto vars:     Size  Location     Type
  7335 ;;  grs             1   47[BANK0 ] unsigned char 
  7336 ;;  bexp            1   46[BANK0 ] unsigned char 
  7337 ;;  aexp            1   45[BANK0 ] unsigned char 
  7338 ;;  signs           1   44[BANK0 ] unsigned char 
  7339 ;; Return value:  Size  Location     Type
  7340 ;;                  4   24[BANK0 ] unsigned char 
  7341 ;; Registers used:
  7342 ;;		wreg, status,2, status,0, btemp+1
  7343 ;; Tracked objects:
  7344 ;;		On entry : 0/0
  7345 ;;		On exit  : 0/0
  7346 ;;		Unchanged: 0/0
  7347 ;; Data sizes:     COMMON   BANK0   BANK1   BANK3   BANK2
  7348 ;;      Params:         0       8       0       0       0
  7349 ;;      Locals:         0       4       0       0       0
  7350 ;;      Temps:          0      12       0       0       0
  7351 ;;      Totals:         0      24       0       0       0
  7352 ;;Total ram usage:       24 bytes
  7353 ;; Hardware stack levels used:    1
  7354 ;; Hardware stack levels required when called:    4
  7355 ;; This function calls:
  7356 ;;		Nothing
  7357 ;; This function is called by:
  7358 ;;		_b1
  7359 ;;		_b0
  7360 ;; This function uses a non-reentrant model
  7361 ;;
  7362                           psect	text21,local,class=CODE,delta=2,merge=1,group=1
  7363                           	file	"C:\Program Files (x86)\Microchip\xc8\v2.00\pic\sources\c90\common\sprcadd.c"
  7364                           	line	10
  7365                           global __ptext21
  7366                           __ptext21:	;psect for function ___fladd
  7367  0044                     psect	text21
  7368                           	file	"C:\Program Files (x86)\Microchip\xc8\v2.00\pic\sources\c90\common\sprcadd.c"
  7369                           	line	10
  7370                           	global	__size_of___fladd
  7371                           	__size_of___fladd	equ	__end_of___fladd-___fladd
  7372  02BC                     	
  7373                           ___fladd:	
  7374  0044                     ;incstack = 0
  7375                           	opt	stack 0
  7376                           ; Regs used in ___fladd: [wreg+status,2+status,0+btemp+1]
  7377                           	line	21
  7378                           	
  7379                           l2250:	
  7380  0044                     	bcf	status, 5	;RP0=0, select bank0
  7381  0044  1283               	bcf	status, 6	;RP1=0, select bank0
  7382  0045  1303               	movf	0+(___fladd@b)+03h,w
  7383  0046  083B               	andlw	080h
  7384  0047  3980               	movwf	(??___fladd+0)+0
  7385  0048  00C0               	movf	(??___fladd+0)+0,w
  7386  0049  0840               	movwf	(___fladd@signs)
  7387  004A  00CC               	line	22
  7388                           	
  7389                           l2252:	
  7390  004B                     	movf	0+(___fladd@b)+03h,w
  7391  004B  083B               	movwf	(??___fladd+0)+0
  7392  004C  00C0               	addwf	(??___fladd+0)+0,w
  7393  004D  0740               	movwf	(??___fladd+1)+0
  7394  004E  00C1               	movf	(??___fladd+1)+0,w
  7395  004F  0841               	movwf	(___fladd@bexp)
  7396  0050  00CE               	line	23
  7397                           	
  7398                           l2254:	
  7399  0051                     	btfss	0+(___fladd@b)+02h,(7)&7
  7400  0051  1FBA               	goto	u2211
  7401  0052  2854               	goto	u2210
  7402  0053  2855               u2211:
  7403  0054                     	goto	l2258
  7404  0054  2857               u2210:
  7405  0055                     	line	24
  7406                           	
  7407                           l2256:	
  7408  0055                     	bsf	(___fladd@bexp)+(0/8),(0)&7
  7409  0055  144E               	goto	l2258
  7410  0056  2857               	line	25
  7411                           	
  7412                           l782:	
  7413  0057                     	line	28
  7414                           	
  7415                           l2258:	
  7416  0057                     	movf	((___fladd@bexp)),w
  7417  0057  084E               	btfsc	status,2
  7418  0058  1903               	goto	u2221
  7419  0059  285B               	goto	u2220
  7420  005A  285C               u2221:
  7421  005B                     	goto	l2268
  7422  005B  286D               u2220:
  7423  005C                     	line	30
  7424                           	
  7425                           l2260:	
  7426  005C                     		incf	((___fladd@bexp)),w
  7427  005C  0A4E               	btfss	status,2
  7428  005D  1D03               	goto	u2231
  7429  005E  2860               	goto	u2230
  7430  005F  2861               u2231:
  7431  0060                     	goto	l2264
  7432  0060  286A               u2230:
  7433  0061                     	line	32
  7434                           	
  7435                           l2262:	
  7436  0061                     	movlw	0x0
  7437  0061  3000               	movwf	(___fladd@b+3)
  7438  0062  00BB               	movlw	0x0
  7439  0063  3000               	movwf	(___fladd@b+2)
  7440  0064  00BA               	movlw	0x0
  7441  0065  3000               	movwf	(___fladd@b+1)
  7442  0066  00B9               	movlw	0x0
  7443  0067  3000               	movwf	(___fladd@b)
  7444  0068  00B8               
  7445                           	goto	l2264
  7446  0069  286A               	line	33
  7447                           	
  7448                           l784:	
  7449  006A                     	line	35
  7450                           	
  7451                           l2264:	
  7452  006A                     	bsf	(___fladd@b)+(23/8),(23)&7
  7453  006A  17BA               	line	37
  7454                           	
  7455                           l2266:	
  7456  006B                     	clrf	0+(___fladd@b)+03h
  7457  006B  01BB               	line	38
  7458                           	goto	l2270
  7459  006C  2876               	line	39
  7460                           	
  7461                           l783:	
  7462  006D                     	line	41
  7463                           	
  7464                           l2268:	
  7465  006D                     	movlw	0x0
  7466  006D  3000               	movwf	(___fladd@b+3)
  7467  006E  00BB               	movlw	0x0
  7468  006F  3000               	movwf	(___fladd@b+2)
  7469  0070  00BA               	movlw	0x0
  7470  0071  3000               	movwf	(___fladd@b+1)
  7471  0072  00B9               	movlw	0x0
  7472  0073  3000               	movwf	(___fladd@b)
  7473  0074  00B8               
  7474                           	goto	l2270
  7475  0075  2876               	line	42
  7476                           	
  7477                           l785:	
  7478  0076                     	line	44
  7479                           	
  7480                           l2270:	
  7481  0076                     	movf	0+(___fladd@a)+03h,w
  7482  0076  083F               	andlw	080h
  7483  0077  3980               	movwf	(??___fladd+0)+0
  7484  0078  00C0               	movf	(??___fladd+0)+0,w
  7485  0079  0840               	movwf	(___fladd@aexp)
  7486  007A  00CD               	line	46
  7487                           	
  7488                           l2272:	
  7489  007B                     	movf	(___fladd@aexp),w
  7490  007B  084D               	xorwf	(___fladd@signs),w
  7491  007C  064C               	skipnz
  7492  007D  1903               	goto	u2241
  7493  007E  2880               	goto	u2240
  7494  007F  2881               u2241:
  7495  0080                     	goto	l2276
  7496  0080  2883               u2240:
  7497  0081                     	line	47
  7498                           	
  7499                           l2274:	
  7500  0081                     	bsf	(___fladd@signs)+(6/8),(6)&7
  7501  0081  174C               	goto	l2276
  7502  0082  2883               	line	48
  7503                           	
  7504                           l786:	
  7505  0083                     	line	49
  7506                           	
  7507                           l2276:	
  7508  0083                     	movf	0+(___fladd@a)+03h,w
  7509  0083  083F               	movwf	(??___fladd+0)+0
  7510  0084  00C0               	addwf	(??___fladd+0)+0,w
  7511  0085  0740               	movwf	(??___fladd+1)+0
  7512  0086  00C1               	movf	(??___fladd+1)+0,w
  7513  0087  0841               	movwf	(___fladd@aexp)
  7514  0088  00CD               	line	50
  7515                           	
  7516                           l2278:	
  7517  0089                     	btfss	0+(___fladd@a)+02h,(7)&7
  7518  0089  1FBE               	goto	u2251
  7519  008A  288C               	goto	u2250
  7520  008B  288D               u2251:
  7521  008C                     	goto	l2282
  7522  008C  288F               u2250:
  7523  008D                     	line	51
  7524                           	
  7525                           l2280:	
  7526  008D                     	bsf	(___fladd@aexp)+(0/8),(0)&7
  7527  008D  144D               	goto	l2282
  7528  008E  288F               	line	52
  7529                           	
  7530                           l787:	
  7531  008F                     	line	55
  7532                           	
  7533                           l2282:	
  7534  008F                     	movf	((___fladd@aexp)),w
  7535  008F  084D               	btfsc	status,2
  7536  0090  1903               	goto	u2261
  7537  0091  2893               	goto	u2260
  7538  0092  2894               u2261:
  7539  0093                     	goto	l2292
  7540  0093  28A5               u2260:
  7541  0094                     	line	57
  7542                           	
  7543                           l2284:	
  7544  0094                     		incf	((___fladd@aexp)),w
  7545  0094  0A4D               	btfss	status,2
  7546  0095  1D03               	goto	u2271
  7547  0096  2898               	goto	u2270
  7548  0097  2899               u2271:
  7549  0098                     	goto	l2288
  7550  0098  28A2               u2270:
  7551  0099                     	line	59
  7552                           	
  7553                           l2286:	
  7554  0099                     	movlw	0x0
  7555  0099  3000               	movwf	(___fladd@a+3)
  7556  009A  00BF               	movlw	0x0
  7557  009B  3000               	movwf	(___fladd@a+2)
  7558  009C  00BE               	movlw	0x0
  7559  009D  3000               	movwf	(___fladd@a+1)
  7560  009E  00BD               	movlw	0x0
  7561  009F  3000               	movwf	(___fladd@a)
  7562  00A0  00BC               
  7563                           	goto	l2288
  7564  00A1  28A2               	line	60
  7565                           	
  7566                           l789:	
  7567  00A2                     	line	62
  7568                           	
  7569                           l2288:	
  7570  00A2                     	bsf	(___fladd@a)+(23/8),(23)&7
  7571  00A2  17BE               	line	64
  7572                           	
  7573                           l2290:	
  7574  00A3                     	clrf	0+(___fladd@a)+03h
  7575  00A3  01BF               	line	65
  7576                           	goto	l790
  7577  00A4  28AD               	line	66
  7578                           	
  7579                           l788:	
  7580  00A5                     	line	68
  7581                           	
  7582                           l2292:	
  7583  00A5                     	movlw	0x0
  7584  00A5  3000               	movwf	(___fladd@a+3)
  7585  00A6  00BF               	movlw	0x0
  7586  00A7  3000               	movwf	(___fladd@a+2)
  7587  00A8  00BE               	movlw	0x0
  7588  00A9  3000               	movwf	(___fladd@a+1)
  7589  00AA  00BD               	movlw	0x0
  7590  00AB  3000               	movwf	(___fladd@a)
  7591  00AC  00BC               
  7592                           	line	69
  7593                           	
  7594                           l790:	
  7595  00AD                     	line	75
  7596                           	movf	(___fladd@bexp),w
  7597  00AD  084E               	subwf	(___fladd@aexp),w
  7598  00AE  024D               	skipnc
  7599  00AF  1803               	goto	u2281
  7600  00B0  28B2               	goto	u2280
  7601  00B1  28B3               u2281:
  7602  00B2                     	goto	l2328
  7603  00B2  28F9               u2280:
  7604  00B3                     	line	77
  7605                           	
  7606                           l2294:	
  7607  00B3                     	btfss	(___fladd@signs),(6)&7
  7608  00B3  1F4C               	goto	u2291
  7609  00B4  28B6               	goto	u2290
  7610  00B5  28B7               u2291:
  7611  00B6                     	goto	l2298
  7612  00B6  28BC               u2290:
  7613  00B7                     	line	78
  7614                           	
  7615                           l2296:	
  7616  00B7                     	movlw	low(080h)
  7617  00B7  3080               	movwf	(??___fladd+0)+0
  7618  00B8  00C0               	movf	(??___fladd+0)+0,w
  7619  00B9  0840               	xorwf	(___fladd@signs),f
  7620  00BA  06CC               	goto	l2298
  7621  00BB  28BC               	line	79
  7622                           	
  7623                           l792:	
  7624  00BC                     	line	81
  7625                           	
  7626                           l2298:	
  7627  00BC                     	movf	(___fladd@bexp),w
  7628  00BC  084E               	movwf	(??___fladd+0)+0
  7629  00BD  00C0               	movf	(??___fladd+0)+0,w
  7630  00BE  0840               	movwf	(___fladd@grs)
  7631  00BF  00CF               	line	82
  7632                           	
  7633                           l2300:	
  7634  00C0                     	movf	(___fladd@aexp),w
  7635  00C0  084D               	movwf	(??___fladd+0)+0
  7636  00C1  00C0               	movf	(??___fladd+0)+0,w
  7637  00C2  0840               	movwf	(___fladd@bexp)
  7638  00C3  00CE               	line	83
  7639                           	
  7640                           l2302:	
  7641  00C4                     	movf	(___fladd@grs),w
  7642  00C4  084F               	movwf	(??___fladd+0)+0
  7643  00C5  00C0               	movf	(??___fladd+0)+0,w
  7644  00C6  0840               	movwf	(___fladd@aexp)
  7645  00C7  00CD               	line	84
  7646                           	
  7647                           l2304:	
  7648  00C8                     	movf	(___fladd@b),w
  7649  00C8  0838               	movwf	(??___fladd+0)+0
  7650  00C9  00C0               	movf	(??___fladd+0)+0,w
  7651  00CA  0840               	movwf	(___fladd@grs)
  7652  00CB  00CF               	line	85
  7653                           	
  7654                           l2306:	
  7655  00CC                     	movf	(___fladd@a),w
  7656  00CC  083C               	movwf	(??___fladd+0)+0
  7657  00CD  00C0               	movf	(??___fladd+0)+0,w
  7658  00CE  0840               	movwf	(___fladd@b)
  7659  00CF  00B8               	line	86
  7660                           	
  7661                           l2308:	
  7662  00D0                     	movf	(___fladd@grs),w
  7663  00D0  084F               	movwf	(??___fladd+0)+0
  7664  00D1  00C0               	movf	(??___fladd+0)+0,w
  7665  00D2  0840               	movwf	(___fladd@a)
  7666  00D3  00BC               	line	87
  7667                           	
  7668                           l2310:	
  7669  00D4                     	movf	0+(___fladd@b)+01h,w
  7670  00D4  0839               	movwf	(??___fladd+0)+0
  7671  00D5  00C0               	movf	(??___fladd+0)+0,w
  7672  00D6  0840               	movwf	(___fladd@grs)
  7673  00D7  00CF               	line	88
  7674                           	
  7675                           l2312:	
  7676  00D8                     	movf	0+(___fladd@a)+01h,w
  7677  00D8  083D               	movwf	(??___fladd+0)+0
  7678  00D9  00C0               	movf	(??___fladd+0)+0,w
  7679  00DA  0840               	movwf	0+(___fladd@b)+01h
  7680  00DB  00B9               	line	89
  7681                           	
  7682                           l2314:	
  7683  00DC                     	movf	(___fladd@grs),w
  7684  00DC  084F               	movwf	(??___fladd+0)+0
  7685  00DD  00C0               	movf	(??___fladd+0)+0,w
  7686  00DE  0840               	movwf	0+(___fladd@a)+01h
  7687  00DF  00BD               	line	90
  7688                           	
  7689                           l2316:	
  7690  00E0                     	movf	0+(___fladd@b)+02h,w
  7691  00E0  083A               	movwf	(??___fladd+0)+0
  7692  00E1  00C0               	movf	(??___fladd+0)+0,w
  7693  00E2  0840               	movwf	(___fladd@grs)
  7694  00E3  00CF               	line	91
  7695                           	
  7696                           l2318:	
  7697  00E4                     	movf	0+(___fladd@a)+02h,w
  7698  00E4  083E               	movwf	(??___fladd+0)+0
  7699  00E5  00C0               	movf	(??___fladd+0)+0,w
  7700  00E6  0840               	movwf	0+(___fladd@b)+02h
  7701  00E7  00BA               	line	92
  7702                           	
  7703                           l2320:	
  7704  00E8                     	movf	(___fladd@grs),w
  7705  00E8  084F               	movwf	(??___fladd+0)+0
  7706  00E9  00C0               	movf	(??___fladd+0)+0,w
  7707  00EA  0840               	movwf	0+(___fladd@a)+02h
  7708  00EB  00BE               	line	93
  7709                           	
  7710                           l2322:	
  7711  00EC                     	movf	0+(___fladd@b)+03h,w
  7712  00EC  083B               	movwf	(??___fladd+0)+0
  7713  00ED  00C0               	movf	(??___fladd+0)+0,w
  7714  00EE  0840               	movwf	(___fladd@grs)
  7715  00EF  00CF               	line	94
  7716                           	
  7717                           l2324:	
  7718  00F0                     	movf	0+(___fladd@a)+03h,w
  7719  00F0  083F               	movwf	(??___fladd+0)+0
  7720  00F1  00C0               	movf	(??___fladd+0)+0,w
  7721  00F2  0840               	movwf	0+(___fladd@b)+03h
  7722  00F3  00BB               	line	95
  7723                           	
  7724                           l2326:	
  7725  00F4                     	movf	(___fladd@grs),w
  7726  00F4  084F               	movwf	(??___fladd+0)+0
  7727  00F5  00C0               	movf	(??___fladd+0)+0,w
  7728  00F6  0840               	movwf	0+(___fladd@a)+03h
  7729  00F7  00BF               	goto	l2328
  7730  00F8  28F9               	line	96
  7731                           	
  7732                           l791:	
  7733  00F9                     	line	98
  7734                           	
  7735                           l2328:	
  7736  00F9                     	clrf	(___fladd@grs)
  7737  00F9  01CF               	line	100
  7738                           	
  7739                           l2330:	
  7740  00FA                     	movf	(___fladd@bexp),w
  7741  00FA  084E               	movwf	(??___fladd+0)+0
  7742  00FB  00C0               	clrf	(??___fladd+0)+0+1
  7743  00FC  01C1               	comf	(??___fladd+0)+0,f
  7744  00FD  09C0               	comf	(??___fladd+0)+1,f
  7745  00FE  09C1               	incf	(??___fladd+0)+0,f
  7746  00FF  0AC0               	skipnz
  7747  0100  1903               	incf	(??___fladd+0)+1,f
  7748  0101  0AC1               	movf	(___fladd@aexp),w
  7749  0102  084D               	addwf	0+(??___fladd+0)+0,w
  7750  0103  0740               	movwf	(??___fladd+2)+0
  7751  0104  00C2               	movf	1+(??___fladd+0)+0,w
  7752  0105  0841               	skipnc
  7753  0106  1803               	incf	1+(??___fladd+0)+0,w
  7754  0107  0A41               	movwf	((??___fladd+2)+0)+1
  7755  0108  00C3               	movf	1+(??___fladd+2)+0,w
  7756  0109  0843               	xorlw	80h
  7757  010A  3A80               	movwf	btemp+1
  7758  010B  00FF               	movlw	(0)^80h
  7759  010C  3080               	subwf	btemp+1,w
  7760  010D  027F               	skipz
  7761  010E  1D03               	goto	u2305
  7762  010F  2912               	movlw	01Ah
  7763  0110  301A               	subwf	0+(??___fladd+2)+0,w
  7764  0111  0242               u2305:
  7765  0112                     
  7766                           	skipc
  7767  0112  1C03               	goto	u2301
  7768  0113  2915               	goto	u2300
  7769  0114  2916               u2301:
  7770  0115                     	goto	l2346
  7771  0115  2957               u2300:
  7772  0116                     	line	101
  7773                           	
  7774                           l2332:	
  7775  0116                     	bcf	status, 5	;RP0=0, select bank0
  7776  0116  1283               	bcf	status, 6	;RP1=0, select bank0
  7777  0117  1303               	movf	(___fladd@b+3),w
  7778  0118  083B               	iorwf	(___fladd@b+2),w
  7779  0119  043A               	iorwf	(___fladd@b+1),w
  7780  011A  0439               	iorwf	(___fladd@b),w
  7781  011B  0438               	skipz
  7782  011C  1D03               	goto	u2311
  7783  011D  291F               	goto	u2310
  7784  011E  2921               u2311:
  7785  011F                     	movlw	1
  7786  011F  3001               	goto	u2320
  7787  0120  2922               u2310:
  7788  0121                     	movlw	0
  7789  0121  3000               u2320:
  7790  0122                     	movwf	(??___fladd+0)+0
  7791  0122  00C0               	movf	(??___fladd+0)+0,w
  7792  0123  0840               	movwf	(___fladd@grs)
  7793  0124  00CF               	line	102
  7794                           	movlw	high highword(0)
  7795  0125  3000               	movwf	(___fladd@b+3)
  7796  0126  00BB               	movlw	low highword(0)
  7797  0127  3000               	movwf	(___fladd@b+2)
  7798  0128  00BA               	movlw	high(0)
  7799  0129  3000               	movwf	(___fladd@b+1)
  7800  012A  00B9               	movlw	low(0)
  7801  012B  3000               	movwf	(___fladd@b)
  7802  012C  00B8               
  7803                           	line	103
  7804                           	movf	(___fladd@aexp),w
  7805  012D  084D               	movwf	(??___fladd+0)+0
  7806  012E  00C0               	movf	(??___fladd+0)+0,w
  7807  012F  0840               	movwf	(___fladd@bexp)
  7808  0130  00CE               	line	104
  7809                           	goto	l794
  7810  0131  2960               	line	105
  7811                           	
  7812                           l793:	
  7813  0132                     	line	106
  7814                           	goto	l2346
  7815  0132  2957               	
  7816                           l796:	
  7817  0133                     	line	109
  7818                           	btfss	(___fladd@grs),(0)&7
  7819  0133  1C4F               	goto	u2331
  7820  0134  2936               	goto	u2330
  7821  0135  2937               u2331:
  7822  0136                     	goto	l2336
  7823  0136  2940               u2330:
  7824  0137                     	line	110
  7825                           	
  7826                           l2334:	
  7827  0137                     	movf	(___fladd@grs),w
  7828  0137  084F               	movwf	(??___fladd+0)+0
  7829  0138  00C0               	clrc
  7830  0139  1003               	rrf	(??___fladd+0)+0,w
  7831  013A  0C40               	iorlw	01h
  7832  013B  3801               	movwf	(??___fladd+1)+0
  7833  013C  00C1               	movf	(??___fladd+1)+0,w
  7834  013D  0841               	movwf	(___fladd@grs)
  7835  013E  00CF               	line	111
  7836                           	goto	l2338
  7837  013F  2943               	line	112
  7838                           	
  7839                           l797:	
  7840  0140                     	line	113
  7841                           	
  7842                           l2336:	
  7843  0140                     	clrc
  7844  0140  1003               	rrf	(___fladd@grs),f
  7845  0141  0CCF               
  7846                           	goto	l2338
  7847  0142  2943               	line	114
  7848                           	
  7849                           l798:	
  7850  0143                     	line	115
  7851                           	
  7852                           l2338:	
  7853  0143                     	btfss	(___fladd@b),(0)&7
  7854  0143  1C38               	goto	u2341
  7855  0144  2946               	goto	u2340
  7856  0145  2947               u2341:
  7857  0146                     	goto	l2342
  7858  0146  2949               u2340:
  7859  0147                     	line	116
  7860                           	
  7861                           l2340:	
  7862  0147                     	bsf	(___fladd@grs)+(7/8),(7)&7
  7863  0147  17CF               	goto	l2342
  7864  0148  2949               	line	117
  7865                           	
  7866                           l799:	
  7867  0149                     	line	118
  7868                           	
  7869                           l2342:	
  7870  0149                     	movlw	01h
  7871  0149  3001               	movwf	(??___fladd+0)+0
  7872  014A  00C0               u2355:
  7873  014B                     	rlf	(___fladd@b+3),w
  7874  014B  0D3B               	rrf	(___fladd@b+3),f
  7875  014C  0CBB               	rrf	(___fladd@b+2),f
  7876  014D  0CBA               	rrf	(___fladd@b+1),f
  7877  014E  0CB9               	rrf	(___fladd@b),f
  7878  014F  0CB8               	decfsz	(??___fladd+0)+0&07fh,f
  7879  0150  0BC0               	goto	u2355
  7880  0151  294B               
  7881                           	line	119
  7882                           	
  7883                           l2344:	
  7884  0152                     	movlw	low(01h)
  7885  0152  3001               	movwf	(??___fladd+0)+0
  7886  0153  00C0               	movf	(??___fladd+0)+0,w
  7887  0154  0840               	addwf	(___fladd@bexp),f
  7888  0155  07CE               	goto	l2346
  7889  0156  2957               	line	120
  7890                           	
  7891                           l795:	
  7892  0157                     	line	106
  7893                           	
  7894                           l2346:	
  7895  0157                     	bcf	status, 5	;RP0=0, select bank0
  7896  0157  1283               	bcf	status, 6	;RP1=0, select bank0
  7897  0158  1303               	movf	(___fladd@aexp),w
  7898  0159  084D               	subwf	(___fladd@bexp),w
  7899  015A  024E               	skipc
  7900  015B  1C03               	goto	u2361
  7901  015C  295E               	goto	u2360
  7902  015D  295F               u2361:
  7903  015E                     	goto	l796
  7904  015E  2933               u2360:
  7905  015F                     	goto	l794
  7906  015F  2960               	
  7907                           l800:	
  7908  0160                     	line	121
  7909                           	
  7910                           l794:	
  7911  0160                     	line	124
  7912                           	btfsc	(___fladd@signs),(6)&7
  7913  0160  1B4C               	goto	u2371
  7914  0161  2963               	goto	u2370
  7915  0162  2964               u2371:
  7916  0163                     	goto	l2372
  7917  0163  29B3               u2370:
  7918  0164                     	line	127
  7919                           	
  7920                           l2348:	
  7921  0164                     	movf	((___fladd@bexp)),w
  7922  0164  084E               	btfss	status,2
  7923  0165  1D03               	goto	u2381
  7924  0166  2968               	goto	u2380
  7925  0167  2969               u2381:
  7926  0168                     	goto	l2354
  7927  0168  2973               u2380:
  7928  0169                     	line	128
  7929                           	
  7930                           l2350:	
  7931  0169                     	movlw	0x0
  7932  0169  3000               	movwf	(?___fladd+3)
  7933  016A  00BB               	movlw	0x0
  7934  016B  3000               	movwf	(?___fladd+2)
  7935  016C  00BA               	movlw	0x0
  7936  016D  3000               	movwf	(?___fladd+1)
  7937  016E  00B9               	movlw	0x0
  7938  016F  3000               	movwf	(?___fladd)
  7939  0170  00B8               
  7940                           	goto	l803
  7941  0171  2AFF               	
  7942                           l2352:	
  7943  0172                     	goto	l803
  7944  0172  2AFF               	line	129
  7945                           	
  7946                           l802:	
  7947  0173                     	line	132
  7948                           	
  7949                           l2354:	
  7950  0173                     	movf	(___fladd@a),w
  7951  0173  083C               	addwf	(___fladd@b),f
  7952  0174  07B8               	movf	(___fladd@a+1),w
  7953  0175  083D               	clrz
  7954  0176  1103               	skipnc
  7955  0177  1803               	addlw	1
  7956  0178  3E01               	skipnz
  7957  0179  1903               	goto	u2391
  7958  017A  297C               	addwf	(___fladd@b+1),f
  7959  017B  07B9               u2391:
  7960  017C                     	movf	(___fladd@a+2),w
  7961  017C  083E               	clrz
  7962  017D  1103               	skipnc
  7963  017E  1803               	addlw	1
  7964  017F  3E01               	skipnz
  7965  0180  1903               	goto	u2392
  7966  0181  2983               	addwf	(___fladd@b+2),f
  7967  0182  07BA               u2392:
  7968  0183                     	movf	(___fladd@a+3),w
  7969  0183  083F               	clrz
  7970  0184  1103               	skipnc
  7971  0185  1803               	addlw	1
  7972  0186  3E01               	skipnz
  7973  0187  1903               	goto	u2393
  7974  0188  298A               	addwf	(___fladd@b+3),f
  7975  0189  07BB               u2393:
  7976  018A                     
  7977                           	line	134
  7978                           	
  7979                           l2356:	
  7980  018A                     	btfss	(___fladd@b+3),(24)&7
  7981  018A  1C3B               	goto	u2401
  7982  018B  298D               	goto	u2400
  7983  018C  298E               u2401:
  7984  018D                     	goto	l2406
  7985  018D  2A7C               u2400:
  7986  018E                     	line	135
  7987                           	
  7988                           l2358:	
  7989  018E                     	btfss	(___fladd@grs),(0)&7
  7990  018E  1C4F               	goto	u2411
  7991  018F  2991               	goto	u2410
  7992  0190  2992               u2411:
  7993  0191                     	goto	l2362
  7994  0191  299B               u2410:
  7995  0192                     	line	136
  7996                           	
  7997                           l2360:	
  7998  0192                     	movf	(___fladd@grs),w
  7999  0192  084F               	movwf	(??___fladd+0)+0
  8000  0193  00C0               	clrc
  8001  0194  1003               	rrf	(??___fladd+0)+0,w
  8002  0195  0C40               	iorlw	01h
  8003  0196  3801               	movwf	(??___fladd+1)+0
  8004  0197  00C1               	movf	(??___fladd+1)+0,w
  8005  0198  0841               	movwf	(___fladd@grs)
  8006  0199  00CF               	line	137
  8007                           	goto	l2364
  8008  019A  299E               	line	138
  8009                           	
  8010                           l805:	
  8011  019B                     	line	139
  8012                           	
  8013                           l2362:	
  8014  019B                     	clrc
  8015  019B  1003               	rrf	(___fladd@grs),f
  8016  019C  0CCF               
  8017                           	goto	l2364
  8018  019D  299E               	line	140
  8019                           	
  8020                           l806:	
  8021  019E                     	line	141
  8022                           	
  8023                           l2364:	
  8024  019E                     	btfss	(___fladd@b),(0)&7
  8025  019E  1C38               	goto	u2421
  8026  019F  29A1               	goto	u2420
  8027  01A0  29A2               u2421:
  8028  01A1                     	goto	l2368
  8029  01A1  29A4               u2420:
  8030  01A2                     	line	142
  8031                           	
  8032                           l2366:	
  8033  01A2                     	bsf	(___fladd@grs)+(7/8),(7)&7
  8034  01A2  17CF               	goto	l2368
  8035  01A3  29A4               	line	143
  8036                           	
  8037                           l807:	
  8038  01A4                     	line	144
  8039                           	
  8040                           l2368:	
  8041  01A4                     	movlw	01h
  8042  01A4  3001               	movwf	(??___fladd+0)+0
  8043  01A5  00C0               u2435:
  8044  01A6                     	rlf	(___fladd@b+3),w
  8045  01A6  0D3B               	rrf	(___fladd@b+3),f
  8046  01A7  0CBB               	rrf	(___fladd@b+2),f
  8047  01A8  0CBA               	rrf	(___fladd@b+1),f
  8048  01A9  0CB9               	rrf	(___fladd@b),f
  8049  01AA  0CB8               	decfsz	(??___fladd+0)+0&07fh,f
  8050  01AB  0BC0               	goto	u2435
  8051  01AC  29A6               
  8052                           	line	145
  8053                           	
  8054                           l2370:	
  8055  01AD                     	movlw	low(01h)
  8056  01AD  3001               	movwf	(??___fladd+0)+0
  8057  01AE  00C0               	movf	(??___fladd+0)+0,w
  8058  01AF  0840               	addwf	(___fladd@bexp),f
  8059  01B0  07CE               	goto	l2406
  8060  01B1  2A7C               	line	146
  8061                           	
  8062                           l804:	
  8063  01B2                     	line	148
  8064                           	goto	l2406
  8065  01B2  2A7C               	line	149
  8066                           	
  8067                           l801:	
  8068  01B3                     	line	153
  8069                           	
  8070                           l2372:	
  8071  01B3                     	movf	(___fladd@b+3),w
  8072  01B3  083B               	xorlw	80h
  8073  01B4  3A80               	movwf	btemp+1
  8074  01B5  00FF               	movf	(___fladd@a+3),w
  8075  01B6  083F               	xorlw	80h
  8076  01B7  3A80               	subwf	btemp+1,w
  8077  01B8  027F               	
  8078                           	skipz
  8079  01B9  1D03               	goto	u2443
  8080  01BA  29C5               	movf	(___fladd@a+2),w
  8081  01BB  083E               	subwf	(___fladd@b+2),w
  8082  01BC  023A               	skipz
  8083  01BD  1D03               	goto	u2443
  8084  01BE  29C5               	movf	(___fladd@a+1),w
  8085  01BF  083D               	subwf	(___fladd@b+1),w
  8086  01C0  0239               	skipz
  8087  01C1  1D03               	goto	u2443
  8088  01C2  29C5               	movf	(___fladd@a),w
  8089  01C3  083C               	subwf	(___fladd@b),w
  8090  01C4  0238               u2443:
  8091  01C5                     	skipnc
  8092  01C5  1803               	goto	u2441
  8093  01C6  29C8               	goto	u2440
  8094  01C7  29C9               u2441:
  8095  01C8                     	goto	l2382
  8096  01C8  2A2F               u2440:
  8097  01C9                     	line	154
  8098                           	
  8099                           l2374:	
  8100  01C9                     	movlw	0FFh
  8101  01C9  30FF               	movwf	((??___fladd+0)+0)
  8102  01CA  00C0               	movlw	0FFh
  8103  01CB  30FF               	movwf	((??___fladd+0)+0+1)
  8104  01CC  00C1               	movlw	0FFh
  8105  01CD  30FF               	movwf	((??___fladd+0)+0+2)
  8106  01CE  00C2               	movlw	0FFh
  8107  01CF  30FF               	movwf	((??___fladd+0)+0+3)
  8108  01D0  00C3               	movf	(___fladd@a),w
  8109  01D1  083C               	movwf	(??___fladd+4)+0
  8110  01D2  00C4               	movf	(___fladd@a+1),w
  8111  01D3  083D               	movwf	((??___fladd+4)+0+1)
  8112  01D4  00C5               	movf	(___fladd@a+2),w
  8113  01D5  083E               	movwf	((??___fladd+4)+0+2)
  8114  01D6  00C6               	movf	(___fladd@a+3),w
  8115  01D7  083F               	movwf	((??___fladd+4)+0+3)
  8116  01D8  00C7               	comf	(___fladd@b),w
  8117  01D9  0938               	movwf	(??___fladd+8)+0
  8118  01DA  00C8               	comf	(___fladd@b+1),w
  8119  01DB  0939               	movwf	((??___fladd+8)+0+1)
  8120  01DC  00C9               	comf	(___fladd@b+2),w
  8121  01DD  093A               	movwf	((??___fladd+8)+0+2)
  8122  01DE  00CA               	comf	(___fladd@b+3),w
  8123  01DF  093B               	movwf	((??___fladd+8)+0+3)
  8124  01E0  00CB               	incf	(??___fladd+8)+0,f
  8125  01E1  0AC8               	skipnz
  8126  01E2  1903               	incf	((??___fladd+8)+0+1),f
  8127  01E3  0AC9               	skipnz
  8128  01E4  1903               	incf	((??___fladd+8)+0+2),f
  8129  01E5  0ACA               	skipnz
  8130  01E6  1903               	incf	((??___fladd+8)+0+3),f
  8131  01E7  0ACB               	movf	0+(??___fladd+8)+0,w
  8132  01E8  0848               	addwf	(??___fladd+4)+0,f
  8133  01E9  07C4               	movf	1+(??___fladd+8)+0,w
  8134  01EA  0849               	skipnc
  8135  01EB  1803               	incfsz	1+(??___fladd+8)+0,w
  8136  01EC  0F49               	goto	u2450
  8137  01ED  29EF               	goto	u2451
  8138  01EE  29F0               u2450:
  8139  01EF                     	addwf	(??___fladd+4)+1,f
  8140  01EF  07C5               u2451:
  8141  01F0                     	movf	2+(??___fladd+8)+0,w
  8142  01F0  084A               	skipnc
  8143  01F1  1803               	incfsz	2+(??___fladd+8)+0,w
  8144  01F2  0F4A               	goto	u2452
  8145  01F3  29F5               	goto	u2453
  8146  01F4  29F6               u2452:
  8147  01F5                     	addwf	(??___fladd+4)+2,f
  8148  01F5  07C6               u2453:
  8149  01F6                     	movf	3+(??___fladd+8)+0,w
  8150  01F6  084B               	skipnc
  8151  01F7  1803               	incf	3+(??___fladd+8)+0,w
  8152  01F8  0A4B               	addwf	(??___fladd+4)+3,f
  8153  01F9  07C7               	movf	0+(??___fladd+4)+0,w
  8154  01FA  0844               	addwf	(??___fladd+0)+0,f
  8155  01FB  07C0               	movf	1+(??___fladd+4)+0,w
  8156  01FC  0845               	skipnc
  8157  01FD  1803               	incfsz	1+(??___fladd+4)+0,w
  8158  01FE  0F45               	goto	u2460
  8159  01FF  2A01               	goto	u2461
  8160  0200  2A02               u2460:
  8161  0201                     	addwf	(??___fladd+0)+1,f
  8162  0201  07C1               u2461:
  8163  0202                     	movf	2+(??___fladd+4)+0,w
  8164  0202  0846               	skipnc
  8165  0203  1803               	incfsz	2+(??___fladd+4)+0,w
  8166  0204  0F46               	goto	u2462
  8167  0205  2A07               	goto	u2463
  8168  0206  2A08               u2462:
  8169  0207                     	addwf	(??___fladd+0)+2,f
  8170  0207  07C2               u2463:
  8171  0208                     	movf	3+(??___fladd+4)+0,w
  8172  0208  0847               	skipnc
  8173  0209  1803               	incf	3+(??___fladd+4)+0,w
  8174  020A  0A47               	addwf	(??___fladd+0)+3,f
  8175  020B  07C3               	movf	3+(??___fladd+0)+0,w
  8176  020C  0843               	movwf	(___fladd@b+3)
  8177  020D  00BB               	movf	2+(??___fladd+0)+0,w
  8178  020E  0842               	movwf	(___fladd@b+2)
  8179  020F  00BA               	movf	1+(??___fladd+0)+0,w
  8180  0210  0841               	movwf	(___fladd@b+1)
  8181  0211  00B9               	movf	0+(??___fladd+0)+0,w
  8182  0212  0840               	movwf	(___fladd@b)
  8183  0213  00B8               
  8184                           	line	155
  8185                           	movlw	low(080h)
  8186  0214  3080               	movwf	(??___fladd+0)+0
  8187  0215  00C0               	movf	(??___fladd+0)+0,w
  8188  0216  0840               	xorwf	(___fladd@signs),f
  8189  0217  06CC               	line	156
  8190                           	
  8191                           l2376:	
  8192  0218                     	comf	(___fladd@grs),f
  8193  0218  09CF               	incf	(___fladd@grs),f
  8194  0219  0ACF               	line	157
  8195                           	
  8196                           l2378:	
  8197  021A                     	movf	((___fladd@grs)),w
  8198  021A  084F               	btfss	status,2
  8199  021B  1D03               	goto	u2471
  8200  021C  2A1E               	goto	u2470
  8201  021D  2A1F               u2471:
  8202  021E                     	goto	l811
  8203  021E  2A3D               u2470:
  8204  021F                     	line	158
  8205                           	
  8206                           l2380:	
  8207  021F                     	movlw	01h
  8208  021F  3001               	addwf	(___fladd@b),f
  8209  0220  07B8               	movlw	0
  8210  0221  3000               	skipnc
  8211  0222  1803               movlw 1
  8212  0223  3001               	addwf	(___fladd@b+1),f
  8213  0224  07B9               	movlw	0
  8214  0225  3000               	skipnc
  8215  0226  1803               movlw 1
  8216  0227  3001               	addwf	(___fladd@b+2),f
  8217  0228  07BA               	movlw	0
  8218  0229  3000               	skipnc
  8219  022A  1803               movlw 1
  8220  022B  3001               	addwf	(___fladd@b+3),f
  8221  022C  07BB               	goto	l811
  8222  022D  2A3D               	line	159
  8223                           	
  8224                           l810:	
  8225  022E                     	line	160
  8226                           	goto	l811
  8227  022E  2A3D               	line	161
  8228                           	
  8229                           l809:	
  8230  022F                     	line	162
  8231                           	
  8232                           l2382:	
  8233  022F                     	movf	(___fladd@a),w
  8234  022F  083C               	subwf	(___fladd@b),f
  8235  0230  02B8               	movf	(___fladd@a+1),w
  8236  0231  083D               	skipc
  8237  0232  1C03               	incfsz	(___fladd@a+1),w
  8238  0233  0F3D               	subwf	(___fladd@b+1),f
  8239  0234  02B9               	movf	(___fladd@a+2),w
  8240  0235  083E               	skipc
  8241  0236  1C03               	incfsz	(___fladd@a+2),w
  8242  0237  0F3E               	subwf	(___fladd@b+2),f
  8243  0238  02BA               	movf	(___fladd@a+3),w
  8244  0239  083F               	skipc
  8245  023A  1C03               	incfsz	(___fladd@a+3),w
  8246  023B  0F3F               	subwf	(___fladd@b+3),f
  8247  023C  02BB               	line	163
  8248                           	
  8249                           l811:	
  8250  023D                     	line	166
  8251                           	movf	(___fladd@b+3),w
  8252  023D  083B               	iorwf	(___fladd@b+2),w
  8253  023E  043A               	iorwf	(___fladd@b+1),w
  8254  023F  0439               	iorwf	(___fladd@b),w
  8255  0240  0438               	skipz
  8256  0241  1D03               	goto	u2481
  8257  0242  2A44               	goto	u2480
  8258  0243  2A45               u2481:
  8259  0244                     	goto	l2404
  8260  0244  2A76               u2480:
  8261  0245                     	
  8262                           l2384:	
  8263  0245                     	movf	((___fladd@grs)),w
  8264  0245  084F               	btfss	status,2
  8265  0246  1D03               	goto	u2491
  8266  0247  2A49               	goto	u2490
  8267  0248  2A4A               u2491:
  8268  0249                     	goto	l2404
  8269  0249  2A76               u2490:
  8270  024A                     	line	167
  8271                           	
  8272                           l2386:	
  8273  024A                     	movlw	0x0
  8274  024A  3000               	movwf	(?___fladd+3)
  8275  024B  00BB               	movlw	0x0
  8276  024C  3000               	movwf	(?___fladd+2)
  8277  024D  00BA               	movlw	0x0
  8278  024E  3000               	movwf	(?___fladd+1)
  8279  024F  00B9               	movlw	0x0
  8280  0250  3000               	movwf	(?___fladd)
  8281  0251  00B8               
  8282                           	goto	l803
  8283  0252  2AFF               	
  8284                           l2388:	
  8285  0253                     	goto	l803
  8286  0253  2AFF               	line	168
  8287                           	
  8288                           l812:	
  8289  0254                     	line	171
  8290                           	goto	l2404
  8291  0254  2A76               	
  8292                           l814:	
  8293  0255                     	line	172
  8294                           	
  8295                           l2390:	
  8296  0255                     	movlw	01h
  8297  0255  3001               	movwf	(??___fladd+0)+0
  8298  0256  00C0               u2505:
  8299  0257                     	clrc
  8300  0257  1003               	rlf	(___fladd@b),f
  8301  0258  0DB8               	rlf	(___fladd@b+1),f
  8302  0259  0DB9               	rlf	(___fladd@b+2),f
  8303  025A  0DBA               	rlf	(___fladd@b+3),f
  8304  025B  0DBB               	decfsz	(??___fladd+0)+0
  8305  025C  0BC0               	goto	u2505
  8306  025D  2A57               	line	173
  8307                           	
  8308                           l2392:	
  8309  025E                     	btfss	(___fladd@grs),(7)&7
  8310  025E  1FCF               	goto	u2511
  8311  025F  2A61               	goto	u2510
  8312  0260  2A62               u2511:
  8313  0261                     	goto	l815
  8314  0261  2A63               u2510:
  8315  0262                     	line	174
  8316                           	
  8317                           l2394:	
  8318  0262                     	bsf	(___fladd@b)+(0/8),(0)&7
  8319  0262  1438               	line	175
  8320                           	
  8321                           l815:	
  8322  0263                     	line	176
  8323                           	btfss	(___fladd@grs),(0)&7
  8324  0263  1C4F               	goto	u2521
  8325  0264  2A66               	goto	u2520
  8326  0265  2A67               u2521:
  8327  0266                     	goto	l2398
  8328  0266  2A6A               u2520:
  8329  0267                     	line	177
  8330                           	
  8331                           l2396:	
  8332  0267                     	setc
  8333  0267  1403               	rlf	(___fladd@grs),f
  8334  0268  0DCF               	line	178
  8335                           	goto	l2400
  8336  0269  2A6D               	line	179
  8337                           	
  8338                           l816:	
  8339  026A                     	line	180
  8340                           	
  8341                           l2398:	
  8342  026A                     	clrc
  8343  026A  1003               	rlf	(___fladd@grs),f
  8344  026B  0DCF               
  8345                           	goto	l2400
  8346  026C  2A6D               	line	181
  8347                           	
  8348                           l817:	
  8349  026D                     	line	182
  8350                           	
  8351                           l2400:	
  8352  026D                     	movf	((___fladd@bexp)),w
  8353  026D  084E               	btfsc	status,2
  8354  026E  1903               	goto	u2531
  8355  026F  2A71               	goto	u2530
  8356  0270  2A72               u2531:
  8357  0271                     	goto	l2404
  8358  0271  2A76               u2530:
  8359  0272                     	line	183
  8360                           	
  8361                           l2402:	
  8362  0272                     	movlw	01h
  8363  0272  3001               	subwf	(___fladd@bexp),f
  8364  0273  02CE               	goto	l2404
  8365  0274  2A76               	line	184
  8366                           	
  8367                           l818:	
  8368  0275                     	goto	l2404
  8369  0275  2A76               	line	185
  8370                           	
  8371                           l813:	
  8372  0276                     	line	171
  8373                           	
  8374                           l2404:	
  8375  0276                     	btfss	(___fladd@b+2),(23)&7
  8376  0276  1FBA               	goto	u2541
  8377  0277  2A79               	goto	u2540
  8378  0278  2A7A               u2541:
  8379  0279                     	goto	l2390
  8380  0279  2A55               u2540:
  8381  027A                     	goto	l2406
  8382  027A  2A7C               	
  8383                           l819:	
  8384  027B                     	goto	l2406
  8385  027B  2A7C               	line	186
  8386                           	
  8387                           l808:	
  8388  027C                     	line	192
  8389                           	
  8390                           l2406:	
  8391  027C                     	clrf	(___fladd@aexp)
  8392  027C  01CD               	line	193
  8393                           	
  8394                           l2408:	
  8395  027D                     	btfss	(___fladd@grs),(7)&7
  8396  027D  1FCF               	goto	u2551
  8397  027E  2A80               	goto	u2550
  8398  027F  2A81               u2551:
  8399  0280                     	goto	l2416
  8400  0280  2A93               u2550:
  8401  0281                     	line	194
  8402                           	
  8403                           l2410:	
  8404  0281                     	movf	(___fladd@grs),w
  8405  0281  084F               	andlw	07Fh
  8406  0282  397F               	btfsc	status,2
  8407  0283  1903               	goto	u2561
  8408  0284  2A86               	goto	u2560
  8409  0285  2A87               u2561:
  8410  0286                     	goto	l821
  8411  0286  2A8A               u2560:
  8412  0287                     	line	195
  8413                           	
  8414                           l2412:	
  8415  0287                     	clrf	(___fladd@aexp)
  8416  0287  01CD               	incf	(___fladd@aexp),f
  8417  0288  0ACD               	line	196
  8418                           	goto	l2416
  8419  0289  2A93               	line	197
  8420                           	
  8421                           l821:	
  8422  028A                     	line	198
  8423                           	btfss	(___fladd@b),(0)&7
  8424  028A  1C38               	goto	u2571
  8425  028B  2A8D               	goto	u2570
  8426  028C  2A8E               u2571:
  8427  028D                     	goto	l2416
  8428  028D  2A93               u2570:
  8429  028E                     	line	199
  8430                           	
  8431                           l2414:	
  8432  028E                     	clrf	(___fladd@aexp)
  8433  028E  01CD               	incf	(___fladd@aexp),f
  8434  028F  0ACD               	goto	l2416
  8435  0290  2A93               	line	200
  8436                           	
  8437                           l823:	
  8438  0291                     	goto	l2416
  8439  0291  2A93               	line	201
  8440                           	
  8441                           l822:	
  8442  0292                     	goto	l2416
  8443  0292  2A93               	line	202
  8444                           	
  8445                           l820:	
  8446  0293                     	line	203
  8447                           	
  8448                           l2416:	
  8449  0293                     	movf	((___fladd@aexp)),w
  8450  0293  084D               	btfsc	status,2
  8451  0294  1903               	goto	u2581
  8452  0295  2A97               	goto	u2580
  8453  0296  2A98               u2581:
  8454  0297                     	goto	l824
  8455  0297  2ACE               u2580:
  8456  0298                     	line	204
  8457                           	
  8458                           l2418:	
  8459  0298                     	movlw	01h
  8460  0298  3001               	addwf	(___fladd@b),f
  8461  0299  07B8               	movlw	0
  8462  029A  3000               	skipnc
  8463  029B  1803               movlw 1
  8464  029C  3001               	addwf	(___fladd@b+1),f
  8465  029D  07B9               	movlw	0
  8466  029E  3000               	skipnc
  8467  029F  1803               movlw 1
  8468  02A0  3001               	addwf	(___fladd@b+2),f
  8469  02A1  07BA               	movlw	0
  8470  02A2  3000               	skipnc
  8471  02A3  1803               movlw 1
  8472  02A4  3001               	addwf	(___fladd@b+3),f
  8473  02A5  07BB               	line	205
  8474                           	
  8475                           l2420:	
  8476  02A6                     	btfss	(___fladd@b+3),(24)&7
  8477  02A6  1C3B               	goto	u2591
  8478  02A7  2AA9               	goto	u2590
  8479  02A8  2AAA               u2591:
  8480  02A9                     	goto	l824
  8481  02A9  2ACE               u2590:
  8482  02AA                     	line	206
  8483                           	
  8484                           l2422:	
  8485  02AA                     	movf	(___fladd@b),w
  8486  02AA  0838               	movwf	(??___fladd+0)+0
  8487  02AB  00C0               	movf	(___fladd@b+1),w
  8488  02AC  0839               	movwf	((??___fladd+0)+0+1)
  8489  02AD  00C1               	movf	(___fladd@b+2),w
  8490  02AE  083A               	movwf	((??___fladd+0)+0+2)
  8491  02AF  00C2               	movf	(___fladd@b+3),w
  8492  02B0  083B               	movwf	((??___fladd+0)+0+3)
  8493  02B1  00C3               	movlw	01h
  8494  02B2  3001               	movwf	(??___fladd+4)+0
  8495  02B3  00C4               u2605:
  8496  02B4                     	rlf	(??___fladd+0)+3,w
  8497  02B4  0D43               	rrf	(??___fladd+0)+3,f
  8498  02B5  0CC3               	rrf	(??___fladd+0)+2,f
  8499  02B6  0CC2               	rrf	(??___fladd+0)+1,f
  8500  02B7  0CC1               	rrf	(??___fladd+0)+0,f
  8501  02B8  0CC0               u2600:
  8502  02B9                     	decfsz	(??___fladd+4)+0,f
  8503  02B9  0BC4               	goto	u2605
  8504  02BA  2AB4               	movf	3+(??___fladd+0)+0,w
  8505  02BB  0843               	movwf	(___fladd@b+3)
  8506  02BC  00BB               	movf	2+(??___fladd+0)+0,w
  8507  02BD  0842               	movwf	(___fladd@b+2)
  8508  02BE  00BA               	movf	1+(??___fladd+0)+0,w
  8509  02BF  0841               	movwf	(___fladd@b+1)
  8510  02C0  00B9               	movf	0+(??___fladd+0)+0,w
  8511  02C1  0840               	movwf	(___fladd@b)
  8512  02C2  00B8               
  8513                           	line	207
  8514                           		incf	((___fladd@bexp)),w
  8515  02C3  0A4E               	btfsc	status,2
  8516  02C4  1903               	goto	u2611
  8517  02C5  2AC7               	goto	u2610
  8518  02C6  2AC8               u2611:
  8519  02C7                     	goto	l824
  8520  02C7  2ACE               u2610:
  8521  02C8                     	line	208
  8522                           	
  8523                           l2424:	
  8524  02C8                     	movlw	low(01h)
  8525  02C8  3001               	movwf	(??___fladd+0)+0
  8526  02C9  00C0               	movf	(??___fladd+0)+0,w
  8527  02CA  0840               	addwf	(___fladd@bexp),f
  8528  02CB  07CE               	goto	l824
  8529  02CC  2ACE               	line	209
  8530                           	
  8531                           l826:	
  8532  02CD                     	goto	l824
  8533  02CD  2ACE               	line	210
  8534                           	
  8535                           l825:	
  8536  02CE                     	line	211
  8537                           	
  8538                           l824:	
  8539  02CE                     	line	215
  8540                           		incf	((___fladd@bexp)),w
  8541  02CE  0A4E               	btfsc	status,2
  8542  02CF  1903               	goto	u2621
  8543  02D0  2AD2               	goto	u2620
  8544  02D1  2AD3               u2621:
  8545  02D2                     	goto	l2428
  8546  02D2  2AD9               u2620:
  8547  02D3                     	
  8548                           l2426:	
  8549  02D3                     	movf	((___fladd@bexp)),w
  8550  02D3  084E               	btfss	status,2
  8551  02D4  1D03               	goto	u2631
  8552  02D5  2AD7               	goto	u2630
  8553  02D6  2AD8               u2631:
  8554  02D7                     	goto	l2434
  8555  02D7  2AE9               u2630:
  8556  02D8                     	goto	l2428
  8557  02D8  2AD9               	
  8558                           l829:	
  8559  02D9                     	line	216
  8560                           	
  8561                           l2428:	
  8562  02D9                     	movlw	high highword(0)
  8563  02D9  3000               	movwf	(___fladd@b+3)
  8564  02DA  00BB               	movlw	low highword(0)
  8565  02DB  3000               	movwf	(___fladd@b+2)
  8566  02DC  00BA               	movlw	high(0)
  8567  02DD  3000               	movwf	(___fladd@b+1)
  8568  02DE  00B9               	movlw	low(0)
  8569  02DF  3000               	movwf	(___fladd@b)
  8570  02E0  00B8               
  8571                           	line	218
  8572                           	
  8573                           l2430:	
  8574  02E1                     	movf	((___fladd@bexp)),w
  8575  02E1  084E               	btfss	status,2
  8576  02E2  1D03               	goto	u2641
  8577  02E3  2AE5               	goto	u2640
  8578  02E4  2AE6               u2641:
  8579  02E5                     	goto	l2434
  8580  02E5  2AE9               u2640:
  8581  02E6                     	line	219
  8582                           	
  8583                           l2432:	
  8584  02E6                     	clrf	(___fladd@signs)
  8585  02E6  01CC               	goto	l2434
  8586  02E7  2AE9               	line	220
  8587                           	
  8588                           l830:	
  8589  02E8                     	goto	l2434
  8590  02E8  2AE9               	line	221
  8591                           	
  8592                           l827:	
  8593  02E9                     	line	225
  8594                           	
  8595                           l2434:	
  8596  02E9                     	btfss	(___fladd@bexp),(0)&7
  8597  02E9  1C4E               	goto	u2651
  8598  02EA  2AEC               	goto	u2650
  8599  02EB  2AED               u2651:
  8600  02EC                     	goto	l2438
  8601  02EC  2AEF               u2650:
  8602  02ED                     	line	226
  8603                           	
  8604                           l2436:	
  8605  02ED                     	bsf	0+(___fladd@b)+02h+(7/8),(7)&7
  8606  02ED  17BA               	line	227
  8607                           	goto	l832
  8608  02EE  2AF3               	line	229
  8609                           	
  8610                           l831:	
  8611  02EF                     	line	230
  8612                           	
  8613                           l2438:	
  8614  02EF                     	movlw	low(07Fh)
  8615  02EF  307F               	movwf	(??___fladd+0)+0
  8616  02F0  00C0               	movf	(??___fladd+0)+0,w
  8617  02F1  0840               	andwf	0+(___fladd@b)+02h,f
  8618  02F2  05BA               	line	231
  8619                           	
  8620                           l832:	
  8621  02F3                     	line	232
  8622                           	movf	(___fladd@bexp),w
  8623  02F3  084E               	movwf	(??___fladd+0)+0
  8624  02F4  00C0               	clrc
  8625  02F5  1003               	rrf	(??___fladd+0)+0,w
  8626  02F6  0C40               	movwf	(??___fladd+1)+0
  8627  02F7  00C1               	movf	(??___fladd+1)+0,w
  8628  02F8  0841               	movwf	0+(___fladd@b)+03h
  8629  02F9  00BB               	line	233
  8630                           	
  8631                           l2440:	
  8632  02FA                     	btfss	(___fladd@signs),(7)&7
  8633  02FA  1FCC               	goto	u2661
  8634  02FB  2AFD               	goto	u2660
  8635  02FC  2AFE               u2661:
  8636  02FD                     	goto	l833
  8637  02FD  2AFF               u2660:
  8638  02FE                     	line	234
  8639                           	
  8640                           l2442:	
  8641  02FE                     	bsf	0+(___fladd@b)+03h+(7/8),(7)&7
  8642  02FE  17BB               	line	235
  8643                           	
  8644                           l833:	
  8645  02FF                     	line	236
  8646                           	line	237
  8647                           	
  8648                           l803:	
  8649  02FF                     	return
  8650  02FF  0008               	opt stack 0
  8651                           GLOBAL	__end_of___fladd
  8652                           	__end_of___fladd:
  8653  0300                     	signat	___fladd,8316
  8654                           	global	___bmul
  8655                           
  8656 ;; *************** function ___bmul *****************
  8657 ;; Defined at:
  8658 ;;		line 4 in file "C:\Program Files (x86)\Microchip\xc8\v2.00\pic\sources\c90\common\Umul8.c"
  8659 ;; Parameters:    Size  Location     Type
  8660 ;;  multiplier      1    wreg     unsigned char 
  8661 ;;  multiplicand    1    0[BANK0 ] unsigned char 
  8662 ;; Auto vars:     Size  Location     Type
  8663 ;;  multiplier      1    3[BANK0 ] unsigned char 
  8664 ;;  product         1    2[BANK0 ] unsigned char 
  8665 ;; Return value:  Size  Location     Type
  8666 ;;                  1    wreg      unsigned char 
  8667 ;; Registers used:
  8668 ;;		wreg, status,2, status,0
  8669 ;; Tracked objects:
  8670 ;;		On entry : 0/0
  8671 ;;		On exit  : 0/0
  8672 ;;		Unchanged: 0/0
  8673 ;; Data sizes:     COMMON   BANK0   BANK1   BANK3   BANK2
  8674 ;;      Params:         0       1       0       0       0
  8675 ;;      Locals:         0       2       0       0       0
  8676 ;;      Temps:          0       1       0       0       0
  8677 ;;      Totals:         0       4       0       0       0
  8678 ;;Total ram usage:        4 bytes
  8679 ;; Hardware stack levels used:    1
  8680 ;; Hardware stack levels required when called:    4
  8681 ;; This function calls:
  8682 ;;		Nothing
  8683 ;; This function is called by:
  8684 ;;		_b0
  8685 ;; This function uses a non-reentrant model
  8686 ;;
  8687                           psect	text22,local,class=CODE,delta=2,merge=1,group=1
  8688                           	file	"C:\Program Files (x86)\Microchip\xc8\v2.00\pic\sources\c90\common\Umul8.c"
  8689                           	line	4
  8690                           global __ptext22
  8691                           __ptext22:	;psect for function ___bmul
  8692  1337                     psect	text22
  8693                           	file	"C:\Program Files (x86)\Microchip\xc8\v2.00\pic\sources\c90\common\Umul8.c"
  8694                           	line	4
  8695                           	global	__size_of___bmul
  8696                           	__size_of___bmul	equ	__end_of___bmul-___bmul
  8697  001B                     	
  8698                           ___bmul:	
  8699  1337                     ;incstack = 0
  8700                           	opt	stack 0
  8701                           ; Regs used in ___bmul: [wreg+status,2+status,0]
  8702                           ;___bmul@multiplier stored from wreg
  8703                           	bcf	status, 5	;RP0=0, select bank0
  8704  1337  1283               	bcf	status, 6	;RP1=0, select bank0
  8705  1338  1303               	movwf	(___bmul@multiplier)
  8706  1339  00A3               	line	6
  8707                           	
  8708                           l2148:	
  8709  133A                     	clrf	(___bmul@product)
  8710  133A  01A2               	goto	l2150
  8711  133B  2B3C               	line	42
  8712                           	
  8713                           l520:	
  8714  133C                     	line	43
  8715                           	
  8716                           l2150:	
  8717  133C                     	btfss	(___bmul@multiplier),(0)&7
  8718  133C  1C23               	goto	u1981
  8719  133D  2B3F               	goto	u1980
  8720  133E  2B40               u1981:
  8721  133F                     	goto	l2154
  8722  133F  2B45               u1980:
  8723  1340                     	line	44
  8724                           	
  8725                           l2152:	
  8726  1340                     	movf	(___bmul@multiplicand),w
  8727  1340  0820               	movwf	(??___bmul+0)+0
  8728  1341  00A1               	movf	(??___bmul+0)+0,w
  8729  1342  0821               	addwf	(___bmul@product),f
  8730  1343  07A2               	goto	l2154
  8731  1344  2B45               	
  8732                           l521:	
  8733  1345                     	line	45
  8734                           	
  8735                           l2154:	
  8736  1345                     	clrc
  8737  1345  1003               	rlf	(___bmul@multiplicand),f
  8738  1346  0DA0               
  8739                           	line	46
  8740                           	
  8741                           l2156:	
  8742  1347                     	clrc
  8743  1347  1003               	rrf	(___bmul@multiplier),f
  8744  1348  0CA3               
  8745                           	line	47
  8746                           	movf	((___bmul@multiplier)),w
  8747  1349  0823               	btfss	status,2
  8748  134A  1D03               	goto	u1991
  8749  134B  2B4D               	goto	u1990
  8750  134C  2B4E               u1991:
  8751  134D                     	goto	l2150
  8752  134D  2B3C               u1990:
  8753  134E                     	goto	l2158
  8754  134E  2B4F               	
  8755                           l522:	
  8756  134F                     	line	50
  8757                           	
  8758                           l2158:	
  8759  134F                     	movf	(___bmul@product),w
  8760  134F  0822               	goto	l523
  8761  1350  2B51               	
  8762                           l2160:	
  8763  1351                     	line	51
  8764                           	
  8765                           l523:	
  8766  1351                     	return
  8767  1351  0008               	opt stack 0
  8768                           GLOBAL	__end_of___bmul
  8769                           	__end_of___bmul:
  8770  1352                     	signat	___bmul,8313
  8771                           	global	_separa_digitos_rtc
  8772                           
  8773 ;; *************** function _separa_digitos_rtc *****************
  8774 ;; Defined at:
  8775 ;;		line 194 in file "Proyecto1_master.c"
  8776 ;; Parameters:    Size  Location     Type
  8777 ;;		None
  8778 ;; Auto vars:     Size  Location     Type
  8779 ;;		None
  8780 ;; Return value:  Size  Location     Type
  8781 ;;                  1    wreg      void 
  8782 ;; Registers used:
  8783 ;;		wreg, status,2, status,0, pclath, cstack
  8784 ;; Tracked objects:
  8785 ;;		On entry : 0/0
  8786 ;;		On exit  : 0/0
  8787 ;;		Unchanged: 0/0
  8788 ;; Data sizes:     COMMON   BANK0   BANK1   BANK3   BANK2
  8789 ;;      Params:         0       0       0       0       0
  8790 ;;      Locals:         0       0       0       0       0
  8791 ;;      Temps:          0       1       0       0       0
  8792 ;;      Totals:         0       1       0       0       0
  8793 ;;Total ram usage:        1 bytes
  8794 ;; Hardware stack levels used:    1
  8795 ;; Hardware stack levels required when called:    5
  8796 ;; This function calls:
  8797 ;;		___awdiv
  8798 ;;		___awmod
  8799 ;; This function is called by:
  8800 ;;		_boton_lcd
  8801 ;; This function uses a non-reentrant model
  8802 ;;
  8803                           psect	text23,local,class=CODE,delta=2,merge=1,group=0
  8804                           	file	"Proyecto1_master.c"
  8805                           	line	194
  8806                           global __ptext23
  8807                           __ptext23:	;psect for function _separa_digitos_rtc
  8808  069E                     psect	text23
  8809                           	file	"Proyecto1_master.c"
  8810                           	line	194
  8811                           	global	__size_of_separa_digitos_rtc
  8812                           	__size_of_separa_digitos_rtc	equ	__end_of_separa_digitos_rtc-_separa_digitos_rtc
  8813  0141                     	
  8814                           _separa_digitos_rtc:	
  8815  069E                     ;incstack = 0
  8816                           	opt	stack 1
  8817                           ; Regs used in _separa_digitos_rtc: [wreg+status,2+status,0+pclath+cstack]
  8818                           	line	195
  8819                           	
  8820                           l2762:	
  8821  069E                     ;Proyecto1_master.c: 195:     sec_0 = sec%10;
  8822                           	movlw	0Ah
  8823  069E  300A               	bcf	status, 5	;RP0=0, select bank0
  8824  069F  1283               	bcf	status, 6	;RP1=0, select bank0
  8825  06A0  1303               	movwf	(___awmod@divisor)
  8826  06A1  00A0               	movlw	0
  8827  06A2  3000               	movwf	((___awmod@divisor))+1
  8828  06A3  00A1               	movf	(_sec+1),w
  8829  06A4  086F               	movwf	(___awmod@dividend+1)
  8830  06A5  00A3               	movf	(_sec),w
  8831  06A6  086E               	movwf	(___awmod@dividend)
  8832  06A7  00A2               	fcall	___awmod
  8833  06A8  160A  118A  272C  120A  118A  	bcf	status, 5	;RP0=0, select bank0
  8834  06AD  1283               	bcf	status, 6	;RP1=0, select bank0
  8835  06AE  1303               	movf	(0+(?___awmod)),w
  8836  06AF  0820               	movwf	(??_separa_digitos_rtc+0)+0
  8837  06B0  00A9               	movf	(??_separa_digitos_rtc+0)+0,w
  8838  06B1  0829               	movwf	(_sec_0)
  8839  06B2  00FD               	line	196
  8840                           ;Proyecto1_master.c: 196:     sec_1 = (sec/10);
  8841                           	movlw	0Ah
  8842  06B3  300A               	movwf	(___awdiv@divisor)
  8843  06B4  00A0               	movlw	0
  8844  06B5  3000               	movwf	((___awdiv@divisor))+1
  8845  06B6  00A1               	movf	(_sec+1),w
  8846  06B7  086F               	movwf	(___awdiv@dividend+1)
  8847  06B8  00A3               	movf	(_sec),w
  8848  06B9  086E               	movwf	(___awdiv@dividend)
  8849  06BA  00A2               	fcall	___awdiv
  8850  06BB  120A  158A  2029  120A  118A  	bcf	status, 5	;RP0=0, select bank0
  8851  06C0  1283               	bcf	status, 6	;RP1=0, select bank0
  8852  06C1  1303               	movf	(0+(?___awdiv)),w
  8853  06C2  0820               	movwf	(??_separa_digitos_rtc+0)+0
  8854  06C3  00A9               	movf	(??_separa_digitos_rtc+0)+0,w
  8855  06C4  0829               	bsf	status, 5	;RP0=1, select bank1
  8856  06C5  1683               	bcf	status, 6	;RP1=0, select bank1
  8857  06C6  1303               	movwf	(_sec_1)^080h
  8858  06C7  00B7               	line	197
  8859                           ;Proyecto1_master.c: 197:     min_0 = min%10;
  8860                           	movlw	0Ah
  8861  06C8  300A               	bcf	status, 5	;RP0=0, select bank0
  8862  06C9  1283               	bcf	status, 6	;RP1=0, select bank0
  8863  06CA  1303               	movwf	(___awmod@divisor)
  8864  06CB  00A0               	movlw	0
  8865  06CC  3000               	movwf	((___awmod@divisor))+1
  8866  06CD  00A1               	movf	(_min+1),w
  8867  06CE  087C               	movwf	(___awmod@dividend+1)
  8868  06CF  00A3               	movf	(_min),w
  8869  06D0  087B               	movwf	(___awmod@dividend)
  8870  06D1  00A2               	fcall	___awmod
  8871  06D2  160A  118A  272C  120A  118A  	bcf	status, 5	;RP0=0, select bank0
  8872  06D7  1283               	bcf	status, 6	;RP1=0, select bank0
  8873  06D8  1303               	movf	(0+(?___awmod)),w
  8874  06D9  0820               	movwf	(??_separa_digitos_rtc+0)+0
  8875  06DA  00A9               	movf	(??_separa_digitos_rtc+0)+0,w
  8876  06DB  0829               	bsf	status, 5	;RP0=1, select bank1
  8877  06DC  1683               	bcf	status, 6	;RP1=0, select bank1
  8878  06DD  1303               	movwf	(_min_0)^080h
  8879  06DE  00B6               	line	198
  8880                           ;Proyecto1_master.c: 198:     min_1 = min/10;
  8881                           	movlw	0Ah
  8882  06DF  300A               	bcf	status, 5	;RP0=0, select bank0
  8883  06E0  1283               	bcf	status, 6	;RP1=0, select bank0
  8884  06E1  1303               	movwf	(___awdiv@divisor)
  8885  06E2  00A0               	movlw	0
  8886  06E3  3000               	movwf	((___awdiv@divisor))+1
  8887  06E4  00A1               	movf	(_min+1),w
  8888  06E5  087C               	movwf	(___awdiv@dividend+1)
  8889  06E6  00A3               	movf	(_min),w
  8890  06E7  087B               	movwf	(___awdiv@dividend)
  8891  06E8  00A2               	fcall	___awdiv
  8892  06E9  120A  158A  2029  120A  118A  	bcf	status, 5	;RP0=0, select bank0
  8893  06EE  1283               	bcf	status, 6	;RP1=0, select bank0
  8894  06EF  1303               	movf	(0+(?___awdiv)),w
  8895  06F0  0820               	movwf	(??_separa_digitos_rtc+0)+0
  8896  06F1  00A9               	movf	(??_separa_digitos_rtc+0)+0,w
  8897  06F2  0829               	bsf	status, 5	;RP0=1, select bank1
  8898  06F3  1683               	bcf	status, 6	;RP1=0, select bank1
  8899  06F4  1303               	movwf	(_min_1)^080h
  8900  06F5  00B5               	line	199
  8901                           ;Proyecto1_master.c: 199:     hour_0 = hour%10;
  8902                           	movlw	0Ah
  8903  06F6  300A               	bcf	status, 5	;RP0=0, select bank0
  8904  06F7  1283               	bcf	status, 6	;RP1=0, select bank0
  8905  06F8  1303               	movwf	(___awmod@divisor)
  8906  06F9  00A0               	movlw	0
  8907  06FA  3000               	movwf	((___awmod@divisor))+1
  8908  06FB  00A1               	movf	(_hour+1),w
  8909  06FC  087A               	movwf	(___awmod@dividend+1)
  8910  06FD  00A3               	movf	(_hour),w
  8911  06FE  0879               	movwf	(___awmod@dividend)
  8912  06FF  00A2               	fcall	___awmod
  8913  0700  160A  118A  272C  120A  118A  	bcf	status, 5	;RP0=0, select bank0
  8914  0705  1283               	bcf	status, 6	;RP1=0, select bank0
  8915  0706  1303               	movf	(0+(?___awmod)),w
  8916  0707  0820               	movwf	(??_separa_digitos_rtc+0)+0
  8917  0708  00A9               	movf	(??_separa_digitos_rtc+0)+0,w
  8918  0709  0829               	bsf	status, 5	;RP0=1, select bank1
  8919  070A  1683               	bcf	status, 6	;RP1=0, select bank1
  8920  070B  1303               	movwf	(_hour_0)^080h
  8921  070C  00B4               	line	200
  8922                           ;Proyecto1_master.c: 200:     hour_1 = hour/10;
  8923                           	movlw	0Ah
  8924  070D  300A               	bcf	status, 5	;RP0=0, select bank0
  8925  070E  1283               	bcf	status, 6	;RP1=0, select bank0
  8926  070F  1303               	movwf	(___awdiv@divisor)
  8927  0710  00A0               	movlw	0
  8928  0711  3000               	movwf	((___awdiv@divisor))+1
  8929  0712  00A1               	movf	(_hour+1),w
  8930  0713  087A               	movwf	(___awdiv@dividend+1)
  8931  0714  00A3               	movf	(_hour),w
  8932  0715  0879               	movwf	(___awdiv@dividend)
  8933  0716  00A2               	fcall	___awdiv
  8934  0717  120A  158A  2029  120A  118A  	bcf	status, 5	;RP0=0, select bank0
  8935  071C  1283               	bcf	status, 6	;RP1=0, select bank0
  8936  071D  1303               	movf	(0+(?___awdiv)),w
  8937  071E  0820               	movwf	(??_separa_digitos_rtc+0)+0
  8938  071F  00A9               	movf	(??_separa_digitos_rtc+0)+0,w
  8939  0720  0829               	bsf	status, 5	;RP0=1, select bank1
  8940  0721  1683               	bcf	status, 6	;RP1=0, select bank1
  8941  0722  1303               	movwf	(_hour_1)^080h
  8942  0723  00B3               	line	201
  8943                           ;Proyecto1_master.c: 201:     date_0 = date%10;
  8944                           	movlw	0Ah
  8945  0724  300A               	bcf	status, 5	;RP0=0, select bank0
  8946  0725  1283               	bcf	status, 6	;RP1=0, select bank0
  8947  0726  1303               	movwf	(___awmod@divisor)
  8948  0727  00A0               	movlw	0
  8949  0728  3000               	movwf	((___awmod@divisor))+1
  8950  0729  00A1               	bsf	status, 5	;RP0=1, select bank1
  8951  072A  1683               	bcf	status, 6	;RP1=0, select bank1
  8952  072B  1303               	movf	(_date+1)^080h,w
  8953  072C  0844               	bcf	status, 5	;RP0=0, select bank0
  8954  072D  1283               	bcf	status, 6	;RP1=0, select bank0
  8955  072E  1303               	movwf	(___awmod@dividend+1)
  8956  072F  00A3               	bsf	status, 5	;RP0=1, select bank1
  8957  0730  1683               	bcf	status, 6	;RP1=0, select bank1
  8958  0731  1303               	movf	(_date)^080h,w
  8959  0732  0843               	bcf	status, 5	;RP0=0, select bank0
  8960  0733  1283               	bcf	status, 6	;RP1=0, select bank0
  8961  0734  1303               	movwf	(___awmod@dividend)
  8962  0735  00A2               	fcall	___awmod
  8963  0736  160A  118A  272C  120A  118A  	bcf	status, 5	;RP0=0, select bank0
  8964  073B  1283               	bcf	status, 6	;RP1=0, select bank0
  8965  073C  1303               	movf	(0+(?___awmod)),w
  8966  073D  0820               	movwf	(??_separa_digitos_rtc+0)+0
  8967  073E  00A9               	movf	(??_separa_digitos_rtc+0)+0,w
  8968  073F  0829               	bsf	status, 5	;RP0=1, select bank1
  8969  0740  1683               	bcf	status, 6	;RP1=0, select bank1
  8970  0741  1303               	movwf	(_date_0)^080h
  8971  0742  00B2               	line	202
  8972                           ;Proyecto1_master.c: 202:     date_1 = date/10;
  8973                           	movlw	0Ah
  8974  0743  300A               	bcf	status, 5	;RP0=0, select bank0
  8975  0744  1283               	bcf	status, 6	;RP1=0, select bank0
  8976  0745  1303               	movwf	(___awdiv@divisor)
  8977  0746  00A0               	movlw	0
  8978  0747  3000               	movwf	((___awdiv@divisor))+1
  8979  0748  00A1               	bsf	status, 5	;RP0=1, select bank1
  8980  0749  1683               	bcf	status, 6	;RP1=0, select bank1
  8981  074A  1303               	movf	(_date+1)^080h,w
  8982  074B  0844               	bcf	status, 5	;RP0=0, select bank0
  8983  074C  1283               	bcf	status, 6	;RP1=0, select bank0
  8984  074D  1303               	movwf	(___awdiv@dividend+1)
  8985  074E  00A3               	bsf	status, 5	;RP0=1, select bank1
  8986  074F  1683               	bcf	status, 6	;RP1=0, select bank1
  8987  0750  1303               	movf	(_date)^080h,w
  8988  0751  0843               	bcf	status, 5	;RP0=0, select bank0
  8989  0752  1283               	bcf	status, 6	;RP1=0, select bank0
  8990  0753  1303               	movwf	(___awdiv@dividend)
  8991  0754  00A2               	fcall	___awdiv
  8992  0755  120A  158A  2029  120A  118A  	bcf	status, 5	;RP0=0, select bank0
  8993  075A  1283               	bcf	status, 6	;RP1=0, select bank0
  8994  075B  1303               	movf	(0+(?___awdiv)),w
  8995  075C  0820               	movwf	(??_separa_digitos_rtc+0)+0
  8996  075D  00A9               	movf	(??_separa_digitos_rtc+0)+0,w
  8997  075E  0829               	bsf	status, 5	;RP0=1, select bank1
  8998  075F  1683               	bcf	status, 6	;RP1=0, select bank1
  8999  0760  1303               	movwf	(_date_1)^080h
  9000  0761  00B1               	line	203
  9001                           ;Proyecto1_master.c: 203:     month_0 = month%10;
  9002                           	movlw	0Ah
  9003  0762  300A               	bcf	status, 5	;RP0=0, select bank0
  9004  0763  1283               	bcf	status, 6	;RP1=0, select bank0
  9005  0764  1303               	movwf	(___awmod@divisor)
  9006  0765  00A0               	movlw	0
  9007  0766  3000               	movwf	((___awmod@divisor))+1
  9008  0767  00A1               	bsf	status, 5	;RP0=1, select bank1
  9009  0768  1683               	bcf	status, 6	;RP1=0, select bank1
  9010  0769  1303               	movf	(_month+1)^080h,w
  9011  076A  0840               	bcf	status, 5	;RP0=0, select bank0
  9012  076B  1283               	bcf	status, 6	;RP1=0, select bank0
  9013  076C  1303               	movwf	(___awmod@dividend+1)
  9014  076D  00A3               	bsf	status, 5	;RP0=1, select bank1
  9015  076E  1683               	bcf	status, 6	;RP1=0, select bank1
  9016  076F  1303               	movf	(_month)^080h,w
  9017  0770  083F               	bcf	status, 5	;RP0=0, select bank0
  9018  0771  1283               	bcf	status, 6	;RP1=0, select bank0
  9019  0772  1303               	movwf	(___awmod@dividend)
  9020  0773  00A2               	fcall	___awmod
  9021  0774  160A  118A  272C  120A  118A  	bcf	status, 5	;RP0=0, select bank0
  9022  0779  1283               	bcf	status, 6	;RP1=0, select bank0
  9023  077A  1303               	movf	(0+(?___awmod)),w
  9024  077B  0820               	movwf	(??_separa_digitos_rtc+0)+0
  9025  077C  00A9               	movf	(??_separa_digitos_rtc+0)+0,w
  9026  077D  0829               	bsf	status, 5	;RP0=1, select bank1
  9027  077E  1683               	bcf	status, 6	;RP1=0, select bank1
  9028  077F  1303               	movwf	(_month_0)^080h
  9029  0780  00B0               	line	204
  9030                           ;Proyecto1_master.c: 204:     month_1 = month/10;
  9031                           	movlw	0Ah
  9032  0781  300A               	bcf	status, 5	;RP0=0, select bank0
  9033  0782  1283               	bcf	status, 6	;RP1=0, select bank0
  9034  0783  1303               	movwf	(___awdiv@divisor)
  9035  0784  00A0               	movlw	0
  9036  0785  3000               	movwf	((___awdiv@divisor))+1
  9037  0786  00A1               	bsf	status, 5	;RP0=1, select bank1
  9038  0787  1683               	bcf	status, 6	;RP1=0, select bank1
  9039  0788  1303               	movf	(_month+1)^080h,w
  9040  0789  0840               	bcf	status, 5	;RP0=0, select bank0
  9041  078A  1283               	bcf	status, 6	;RP1=0, select bank0
  9042  078B  1303               	movwf	(___awdiv@dividend+1)
  9043  078C  00A3               	bsf	status, 5	;RP0=1, select bank1
  9044  078D  1683               	bcf	status, 6	;RP1=0, select bank1
  9045  078E  1303               	movf	(_month)^080h,w
  9046  078F  083F               	bcf	status, 5	;RP0=0, select bank0
  9047  0790  1283               	bcf	status, 6	;RP1=0, select bank0
  9048  0791  1303               	movwf	(___awdiv@dividend)
  9049  0792  00A2               	fcall	___awdiv
  9050  0793  120A  158A  2029  120A  118A  	bcf	status, 5	;RP0=0, select bank0
  9051  0798  1283               	bcf	status, 6	;RP1=0, select bank0
  9052  0799  1303               	movf	(0+(?___awdiv)),w
  9053  079A  0820               	movwf	(??_separa_digitos_rtc+0)+0
  9054  079B  00A9               	movf	(??_separa_digitos_rtc+0)+0,w
  9055  079C  0829               	bsf	status, 5	;RP0=1, select bank1
  9056  079D  1683               	bcf	status, 6	;RP1=0, select bank1
  9057  079E  1303               	movwf	(_month_1)^080h
  9058  079F  00AF               	line	205
  9059                           ;Proyecto1_master.c: 205:     year_0 = year%10;
  9060                           	movlw	0Ah
  9061  07A0  300A               	bcf	status, 5	;RP0=0, select bank0
  9062  07A1  1283               	bcf	status, 6	;RP1=0, select bank0
  9063  07A2  1303               	movwf	(___awmod@divisor)
  9064  07A3  00A0               	movlw	0
  9065  07A4  3000               	movwf	((___awmod@divisor))+1
  9066  07A5  00A1               	bsf	status, 5	;RP0=1, select bank1
  9067  07A6  1683               	bcf	status, 6	;RP1=0, select bank1
  9068  07A7  1303               	movf	(_year+1)^080h,w
  9069  07A8  083E               	bcf	status, 5	;RP0=0, select bank0
  9070  07A9  1283               	bcf	status, 6	;RP1=0, select bank0
  9071  07AA  1303               	movwf	(___awmod@dividend+1)
  9072  07AB  00A3               	bsf	status, 5	;RP0=1, select bank1
  9073  07AC  1683               	bcf	status, 6	;RP1=0, select bank1
  9074  07AD  1303               	movf	(_year)^080h,w
  9075  07AE  083D               	bcf	status, 5	;RP0=0, select bank0
  9076  07AF  1283               	bcf	status, 6	;RP1=0, select bank0
  9077  07B0  1303               	movwf	(___awmod@dividend)
  9078  07B1  00A2               	fcall	___awmod
  9079  07B2  160A  118A  272C  120A  118A  	bcf	status, 5	;RP0=0, select bank0
  9080  07B7  1283               	bcf	status, 6	;RP1=0, select bank0
  9081  07B8  1303               	movf	(0+(?___awmod)),w
  9082  07B9  0820               	movwf	(??_separa_digitos_rtc+0)+0
  9083  07BA  00A9               	movf	(??_separa_digitos_rtc+0)+0,w
  9084  07BB  0829               	bsf	status, 5	;RP0=1, select bank1
  9085  07BC  1683               	bcf	status, 6	;RP1=0, select bank1
  9086  07BD  1303               	movwf	(_year_0)^080h
  9087  07BE  00AE               	line	206
  9088                           ;Proyecto1_master.c: 206:     year_1 = year/10;
  9089                           	movlw	0Ah
  9090  07BF  300A               	bcf	status, 5	;RP0=0, select bank0
  9091  07C0  1283               	bcf	status, 6	;RP1=0, select bank0
  9092  07C1  1303               	movwf	(___awdiv@divisor)
  9093  07C2  00A0               	movlw	0
  9094  07C3  3000               	movwf	((___awdiv@divisor))+1
  9095  07C4  00A1               	bsf	status, 5	;RP0=1, select bank1
  9096  07C5  1683               	bcf	status, 6	;RP1=0, select bank1
  9097  07C6  1303               	movf	(_year+1)^080h,w
  9098  07C7  083E               	bcf	status, 5	;RP0=0, select bank0
  9099  07C8  1283               	bcf	status, 6	;RP1=0, select bank0
  9100  07C9  1303               	movwf	(___awdiv@dividend+1)
  9101  07CA  00A3               	bsf	status, 5	;RP0=1, select bank1
  9102  07CB  1683               	bcf	status, 6	;RP1=0, select bank1
  9103  07CC  1303               	movf	(_year)^080h,w
  9104  07CD  083D               	bcf	status, 5	;RP0=0, select bank0
  9105  07CE  1283               	bcf	status, 6	;RP1=0, select bank0
  9106  07CF  1303               	movwf	(___awdiv@dividend)
  9107  07D0  00A2               	fcall	___awdiv
  9108  07D1  120A  158A  2029  120A  118A  	bcf	status, 5	;RP0=0, select bank0
  9109  07D6  1283               	bcf	status, 6	;RP1=0, select bank0
  9110  07D7  1303               	movf	(0+(?___awdiv)),w
  9111  07D8  0820               	movwf	(??_separa_digitos_rtc+0)+0
  9112  07D9  00A9               	movf	(??_separa_digitos_rtc+0)+0,w
  9113  07DA  0829               	bsf	status, 5	;RP0=1, select bank1
  9114  07DB  1683               	bcf	status, 6	;RP1=0, select bank1
  9115  07DC  1303               	movwf	(_year_1)^080h
  9116  07DD  00AD               	line	208
  9117                           	
  9118                           l180:	
  9119  07DE                     	return
  9120  07DE  0008               	opt stack 0
  9121                           GLOBAL	__end_of_separa_digitos_rtc
  9122                           	__end_of_separa_digitos_rtc:
  9123  07DF                     	signat	_separa_digitos_rtc,89
  9124                           	global	_mostrar_lcd
  9125                           
  9126 ;; *************** function _mostrar_lcd *****************
  9127 ;; Defined at:
  9128 ;;		line 210 in file "Proyecto1_master.c"
  9129 ;; Parameters:    Size  Location     Type
  9130 ;;		None
  9131 ;; Auto vars:     Size  Location     Type
  9132 ;;		None
  9133 ;; Return value:  Size  Location     Type
  9134 ;;                  1    wreg      void 
  9135 ;; Registers used:
  9136 ;;		wreg, fsr0l, fsr0h, status,2, status,0, btemp+1, pclath, cstack
  9137 ;; Tracked objects:
  9138 ;;		On entry : 0/0
  9139 ;;		On exit  : 0/0
  9140 ;;		Unchanged: 0/0
  9141 ;; Data sizes:     COMMON   BANK0   BANK1   BANK3   BANK2
  9142 ;;      Params:         0       0       0       0       0
  9143 ;;      Locals:         0       0       0       0       0
  9144 ;;      Temps:          0       1       0       0       0
  9145 ;;      Totals:         0       1       0       0       0
  9146 ;;Total ram usage:        1 bytes
  9147 ;; Hardware stack levels used:    1
  9148 ;; Hardware stack levels required when called:    7
  9149 ;; This function calls:
  9150 ;;		_lcd_set_cursor
  9151 ;;		_lcd_write_char
  9152 ;;		_lcd_write_string
  9153 ;; This function is called by:
  9154 ;;		_boton_lcd
  9155 ;; This function uses a non-reentrant model
  9156 ;;
  9157                           psect	text24,local,class=CODE,delta=2,merge=1,group=0
  9158                           	line	210
  9159                           global __ptext24
  9160                           __ptext24:	;psect for function _mostrar_lcd
  9161  0B06                     psect	text24
  9162                           	file	"Proyecto1_master.c"
  9163                           	line	210
  9164                           	global	__size_of_mostrar_lcd
  9165                           	__size_of_mostrar_lcd	equ	__end_of_mostrar_lcd-_mostrar_lcd
  9166  00AF                     	
  9167                           _mostrar_lcd:	
  9168  0B06                     ;incstack = 0
  9169 ;; hardware stack exceeded
  9170                           	opt	stack 0
  9171                           ; Regs used in _mostrar_lcd: [wreg-fsr0h+status,2+status,0+btemp+1+pclath+cstack]
  9172                           	line	211
  9173                           	
  9174                           l2764:	
  9175  0B06                     ;Proyecto1_master.c: 211:     lcd_set_cursor(1, 8);
  9176                           	movlw	low(08h)
  9177  0B06  3008               	bcf	status, 5	;RP0=0, select bank0
  9178  0B07  1283               	bcf	status, 6	;RP1=0, select bank0
  9179  0B08  1303               	movwf	(??_mostrar_lcd+0)+0
  9180  0B09  00AB               	movf	(??_mostrar_lcd+0)+0,w
  9181  0B0A  082B               	movwf	(lcd_set_cursor@b)
  9182  0B0B  00A4               	movlw	low(01h)
  9183  0B0C  3001               	fcall	_lcd_set_cursor
  9184  0B0D  160A  118A  236E  120A  158A  	line	212
  9185                           ;Proyecto1_master.c: 212:         lcd_write_char(date_1+48);
  9186                           	bsf	status, 5	;RP0=1, select bank1
  9187  0B12  1683               	bcf	status, 6	;RP1=0, select bank1
  9188  0B13  1303               	movf	(_date_1)^080h,w
  9189  0B14  0831               	addlw	030h
  9190  0B15  3E30               	fcall	_lcd_write_char
  9191  0B16  120A  118A  27DF  120A  158A  	line	213
  9192                           ;Proyecto1_master.c: 213:         lcd_write_char(date_0+48);
  9193                           	bsf	status, 5	;RP0=1, select bank1
  9194  0B1B  1683               	bcf	status, 6	;RP1=0, select bank1
  9195  0B1C  1303               	movf	(_date_0)^080h,w
  9196  0B1D  0832               	addlw	030h
  9197  0B1E  3E30               	fcall	_lcd_write_char
  9198  0B1F  120A  118A  27DF  120A  158A  	line	214
  9199                           	
  9200                           l2766:	
  9201  0B24                     ;Proyecto1_master.c: 214:         lcd_write_string("/");
  9202                           	movlw	(low((((STR_9)-__stringbase)|8000h)))&0ffh
  9203  0B24  3053               	bcf	status, 5	;RP0=0, select bank0
  9204  0B25  1283               	bcf	status, 6	;RP1=0, select bank0
  9205  0B26  1303               	movwf	(lcd_write_string@a)
  9206  0B27  00A4               	movlw	80h
  9207  0B28  3080               	movwf	(lcd_write_string@a+1)
  9208  0B29  00A5               	fcall	_lcd_write_string
  9209  0B2A  160A  118A  2625  120A  158A  	line	215
  9210                           	
  9211                           l2768:	
  9212  0B2F                     ;Proyecto1_master.c: 215:         lcd_write_char(month_1+48);
  9213                           	bsf	status, 5	;RP0=1, select bank1
  9214  0B2F  1683               	bcf	status, 6	;RP1=0, select bank1
  9215  0B30  1303               	movf	(_month_1)^080h,w
  9216  0B31  082F               	addlw	030h
  9217  0B32  3E30               	fcall	_lcd_write_char
  9218  0B33  120A  118A  27DF  120A  158A  	line	216
  9219                           	
  9220                           l2770:	
  9221  0B38                     ;Proyecto1_master.c: 216:         lcd_write_char(month_0+48);
  9222                           	bsf	status, 5	;RP0=1, select bank1
  9223  0B38  1683               	bcf	status, 6	;RP1=0, select bank1
  9224  0B39  1303               	movf	(_month_0)^080h,w
  9225  0B3A  0830               	addlw	030h
  9226  0B3B  3E30               	fcall	_lcd_write_char
  9227  0B3C  120A  118A  27DF  120A  158A  	line	217
  9228                           	
  9229                           l2772:	
  9230  0B41                     ;Proyecto1_master.c: 217:         lcd_write_string("/");
  9231                           	movlw	(low((((STR_10)-__stringbase)|8000h)))&0ffh
  9232  0B41  3053               	bcf	status, 5	;RP0=0, select bank0
  9233  0B42  1283               	bcf	status, 6	;RP1=0, select bank0
  9234  0B43  1303               	movwf	(lcd_write_string@a)
  9235  0B44  00A4               	movlw	80h
  9236  0B45  3080               	movwf	(lcd_write_string@a+1)
  9237  0B46  00A5               	fcall	_lcd_write_string
  9238  0B47  160A  118A  2625  120A  158A  	line	218
  9239                           ;Proyecto1_master.c: 218:         lcd_write_char(year_1+48);
  9240                           	bsf	status, 5	;RP0=1, select bank1
  9241  0B4C  1683               	bcf	status, 6	;RP1=0, select bank1
  9242  0B4D  1303               	movf	(_year_1)^080h,w
  9243  0B4E  082D               	addlw	030h
  9244  0B4F  3E30               	fcall	_lcd_write_char
  9245  0B50  120A  118A  27DF  120A  158A  	line	219
  9246                           ;Proyecto1_master.c: 219:         lcd_write_char(year_0+48);
  9247                           	bsf	status, 5	;RP0=1, select bank1
  9248  0B55  1683               	bcf	status, 6	;RP1=0, select bank1
  9249  0B56  1303               	movf	(_year_0)^080h,w
  9250  0B57  082E               	addlw	030h
  9251  0B58  3E30               	fcall	_lcd_write_char
  9252  0B59  120A  118A  27DF  120A  158A  	line	222
  9253                           ;Proyecto1_master.c: 222:         lcd_set_cursor(2, 8);
  9254                           	movlw	low(08h)
  9255  0B5E  3008               	bcf	status, 5	;RP0=0, select bank0
  9256  0B5F  1283               	bcf	status, 6	;RP1=0, select bank0
  9257  0B60  1303               	movwf	(??_mostrar_lcd+0)+0
  9258  0B61  00AB               	movf	(??_mostrar_lcd+0)+0,w
  9259  0B62  082B               	movwf	(lcd_set_cursor@b)
  9260  0B63  00A4               	movlw	low(02h)
  9261  0B64  3002               	fcall	_lcd_set_cursor
  9262  0B65  160A  118A  236E  120A  158A  	line	223
  9263                           ;Proyecto1_master.c: 223:         lcd_write_char(hour_1+48);
  9264                           	bsf	status, 5	;RP0=1, select bank1
  9265  0B6A  1683               	bcf	status, 6	;RP1=0, select bank1
  9266  0B6B  1303               	movf	(_hour_1)^080h,w
  9267  0B6C  0833               	addlw	030h
  9268  0B6D  3E30               	fcall	_lcd_write_char
  9269  0B6E  120A  118A  27DF  120A  158A  	line	224
  9270                           ;Proyecto1_master.c: 224:         lcd_write_char(hour_0+48);
  9271                           	bsf	status, 5	;RP0=1, select bank1
  9272  0B73  1683               	bcf	status, 6	;RP1=0, select bank1
  9273  0B74  1303               	movf	(_hour_0)^080h,w
  9274  0B75  0834               	addlw	030h
  9275  0B76  3E30               	fcall	_lcd_write_char
  9276  0B77  120A  118A  27DF  120A  158A  	line	225
  9277                           	
  9278                           l2774:	
  9279  0B7C                     ;Proyecto1_master.c: 225:         lcd_write_string(":");
  9280                           	movlw	(low((((STR_11)-__stringbase)|8000h)))&0ffh
  9281  0B7C  3045               	bcf	status, 5	;RP0=0, select bank0
  9282  0B7D  1283               	bcf	status, 6	;RP1=0, select bank0
  9283  0B7E  1303               	movwf	(lcd_write_string@a)
  9284  0B7F  00A4               	movlw	80h
  9285  0B80  3080               	movwf	(lcd_write_string@a+1)
  9286  0B81  00A5               	fcall	_lcd_write_string
  9287  0B82  160A  118A  2625  120A  158A  	line	226
  9288                           	
  9289                           l2776:	
  9290  0B87                     ;Proyecto1_master.c: 226:         lcd_write_char(min_1+48);
  9291                           	bsf	status, 5	;RP0=1, select bank1
  9292  0B87  1683               	bcf	status, 6	;RP1=0, select bank1
  9293  0B88  1303               	movf	(_min_1)^080h,w
  9294  0B89  0835               	addlw	030h
  9295  0B8A  3E30               	fcall	_lcd_write_char
  9296  0B8B  120A  118A  27DF  120A  158A  	line	227
  9297                           	
  9298                           l2778:	
  9299  0B90                     ;Proyecto1_master.c: 227:         lcd_write_char(min_0+48);
  9300                           	bsf	status, 5	;RP0=1, select bank1
  9301  0B90  1683               	bcf	status, 6	;RP1=0, select bank1
  9302  0B91  1303               	movf	(_min_0)^080h,w
  9303  0B92  0836               	addlw	030h
  9304  0B93  3E30               	fcall	_lcd_write_char
  9305  0B94  120A  118A  27DF  120A  158A  	line	228
  9306                           	
  9307                           l2780:	
  9308  0B99                     ;Proyecto1_master.c: 228:         lcd_write_string(":");
  9309                           	movlw	(low((((STR_12)-__stringbase)|8000h)))&0ffh
  9310  0B99  3045               	bcf	status, 5	;RP0=0, select bank0
  9311  0B9A  1283               	bcf	status, 6	;RP1=0, select bank0
  9312  0B9B  1303               	movwf	(lcd_write_string@a)
  9313  0B9C  00A4               	movlw	80h
  9314  0B9D  3080               	movwf	(lcd_write_string@a+1)
  9315  0B9E  00A5               	fcall	_lcd_write_string
  9316  0B9F  160A  118A  2625  120A  158A  	line	229
  9317                           ;Proyecto1_master.c: 229:         lcd_write_char(sec_1+48);
  9318                           	bsf	status, 5	;RP0=1, select bank1
  9319  0BA4  1683               	bcf	status, 6	;RP1=0, select bank1
  9320  0BA5  1303               	movf	(_sec_1)^080h,w
  9321  0BA6  0837               	addlw	030h
  9322  0BA7  3E30               	fcall	_lcd_write_char
  9323  0BA8  120A  118A  27DF  120A  158A  	line	230
  9324                           ;Proyecto1_master.c: 230:         lcd_write_char(sec_0+48);
  9325                           	movf	(_sec_0),w
  9326  0BAD  087D               	addlw	030h
  9327  0BAE  3E30               	fcall	_lcd_write_char
  9328  0BAF  120A  118A  27DF  120A  158A  	line	231
  9329                           	
  9330                           l183:	
  9331  0BB4                     	return
  9332  0BB4  0008               	opt stack 0
  9333                           GLOBAL	__end_of_mostrar_lcd
  9334                           	__end_of_mostrar_lcd:
  9335  0BB5                     	signat	_mostrar_lcd,89
  9336                           	global	_lcd_write_string
  9337                           
  9338 ;; *************** function _lcd_write_string *****************
  9339 ;; Defined at:
  9340 ;;		line 131 in file "LCD.c"
  9341 ;; Parameters:    Size  Location     Type
  9342 ;;  a               2    4[BANK0 ] PTR unsigned char 
  9343 ;;		 -> STR_15(15), STR_14(16), STR_13(2), s1(5), 
  9344 ;;		 -> STR_12(2), STR_11(2), STR_10(2), STR_9(2), 
  9345 ;;		 -> STR_8(6), STR_7(9), STR_6(13), STR_5(10), 
  9346 ;;		 -> STR_4(6), STR_3(7), STR_2(6), STR_1(7), 
  9347 ;; Auto vars:     Size  Location     Type
  9348 ;;  i               2    9[BANK0 ] int 
  9349 ;; Return value:  Size  Location     Type
  9350 ;;                  1    wreg      void 
  9351 ;; Registers used:
  9352 ;;		wreg, fsr0l, fsr0h, status,2, status,0, btemp+1, pclath, cstack
  9353 ;; Tracked objects:
  9354 ;;		On entry : 0/0
  9355 ;;		On exit  : 0/0
  9356 ;;		Unchanged: 0/0
  9357 ;; Data sizes:     COMMON   BANK0   BANK1   BANK3   BANK2
  9358 ;;      Params:         0       2       0       0       0
  9359 ;;      Locals:         0       2       0       0       0
  9360 ;;      Temps:          0       3       0       0       0
  9361 ;;      Totals:         0       7       0       0       0
  9362 ;;Total ram usage:        7 bytes
  9363 ;; Hardware stack levels used:    1
  9364 ;; Hardware stack levels required when called:    6
  9365 ;; This function calls:
  9366 ;;		_lcd_write_char
  9367 ;; This function is called by:
  9368 ;;		_main
  9369 ;;		_boton_lcd
  9370 ;;		_mostrar_lcd
  9371 ;;		_slave_1
  9372 ;;		_slave_2
  9373 ;; This function uses a non-reentrant model
  9374 ;;
  9375                           psect	text25,local,class=CODE,delta=2,merge=1,group=0
  9376                           	file	"LCD.c"
  9377                           	line	131
  9378                           global __ptext25
  9379                           __ptext25:	;psect for function _lcd_write_string
  9380  1625                     psect	text25
  9381                           	file	"LCD.c"
  9382                           	line	131
  9383                           	global	__size_of_lcd_write_string
  9384                           	__size_of_lcd_write_string	equ	__end_of_lcd_write_string-_lcd_write_string
  9385  0048                     	
  9386                           _lcd_write_string:	
  9387  1625                     ;incstack = 0
  9388                           	opt	stack 1
  9389                           ; Regs used in _lcd_write_string: [wreg-fsr0h+status,2+status,0+btemp+1+pclath+cstack]
  9390                           	line	134
  9391                           	
  9392                           l2632:	
  9393  1625                     ;LCD.c: 133:     int i;;LCD.c: 134:     for (i = 0; a[i] != '\0'; i++)
  9394                           	bcf	status, 5	;RP0=0, select bank0
  9395  1625  1283               	bcf	status, 6	;RP1=0, select bank0
  9396  1626  1303               	clrf	(lcd_write_string@i)
  9397  1627  01A9               	clrf	(lcd_write_string@i+1)
  9398  1628  01AA               	goto	l2638
  9399  1629  2E4F               	
  9400                           l403:	
  9401  162A                     	line	135
  9402                           	
  9403                           l2634:	
  9404  162A                     ;LCD.c: 135:         lcd_write_char(a[i]);
  9405                           	movf	(lcd_write_string@i),w
  9406  162A  0829               	addwf	(lcd_write_string@a),w
  9407  162B  0724               	movwf	(??_lcd_write_string+1)+0
  9408  162C  00A7               	movf	(lcd_write_string@a+1),w
  9409  162D  0825               	movwf	(??_lcd_write_string+0)+0
  9410  162E  00A6               	skipnc
  9411  162F  1803               	incf	(??_lcd_write_string+0)+0,f
  9412  1630  0AA6               	btfss	(lcd_write_string@i),7
  9413  1631  1FA9               	goto	u3100
  9414  1632  2E34               	decf	(??_lcd_write_string+0)+0,f
  9415  1633  03A6               u3100:
  9416  1634                     	bcf	status, 5	;RP0=0, select bank0
  9417  1634  1283               	bcf	status, 6	;RP1=0, select bank0
  9418  1635  1303               	movf	(??_lcd_write_string+0)+0,w
  9419  1636  0826               	movwf	0+((??_lcd_write_string+1)+0)+1
  9420  1637  00A8               	movf	1+(??_lcd_write_string+1)+0,w
  9421  1638  0828               	movwf	btemp+1
  9422  1639  00FF               	movf	0+(??_lcd_write_string+1)+0,w
  9423  163A  0827               	movwf	fsr0
  9424  163B  0084               	fcall	stringtab
  9425  163C  160A  118A  2000  160A  118A  	fcall	_lcd_write_char
  9426  1641  120A  118A  27DF  160A  118A  	
  9427                           l2636:	
  9428  1646                     	movlw	01h
  9429  1646  3001               	bcf	status, 5	;RP0=0, select bank0
  9430  1647  1283               	bcf	status, 6	;RP1=0, select bank0
  9431  1648  1303               	addwf	(lcd_write_string@i),f
  9432  1649  07A9               	skipnc
  9433  164A  1803               	incf	(lcd_write_string@i+1),f
  9434  164B  0AAA               	movlw	0
  9435  164C  3000               	addwf	(lcd_write_string@i+1),f
  9436  164D  07AA               	goto	l2638
  9437  164E  2E4F               	
  9438                           l402:	
  9439  164F                     	
  9440                           l2638:	
  9441  164F                     	movf	(lcd_write_string@i),w
  9442  164F  0829               	addwf	(lcd_write_string@a),w
  9443  1650  0724               	movwf	(??_lcd_write_string+1)+0
  9444  1651  00A7               	movf	(lcd_write_string@a+1),w
  9445  1652  0825               	movwf	(??_lcd_write_string+0)+0
  9446  1653  00A6               	skipnc
  9447  1654  1803               	incf	(??_lcd_write_string+0)+0,f
  9448  1655  0AA6               	btfss	(lcd_write_string@i),7
  9449  1656  1FA9               	goto	u3110
  9450  1657  2E59               	decf	(??_lcd_write_string+0)+0,f
  9451  1658  03A6               u3110:
  9452  1659                     	bcf	status, 5	;RP0=0, select bank0
  9453  1659  1283               	bcf	status, 6	;RP1=0, select bank0
  9454  165A  1303               	movf	(??_lcd_write_string+0)+0,w
  9455  165B  0826               	movwf	0+((??_lcd_write_string+1)+0)+1
  9456  165C  00A8               	movf	1+(??_lcd_write_string+1)+0,w
  9457  165D  0828               	movwf	btemp+1
  9458  165E  00FF               	movf	0+(??_lcd_write_string+1)+0,w
  9459  165F  0827               	movwf	fsr0
  9460  1660  0084               	fcall	stringtab
  9461  1661  160A  118A  2000  160A  118A  	xorlw	0
  9462  1666  3A00               	skipz
  9463  1667  1D03               	goto	u3121
  9464  1668  2E6A               	goto	u3120
  9465  1669  2E6B               u3121:
  9466  166A                     	goto	l2634
  9467  166A  2E2A               u3120:
  9468  166B                     	goto	l405
  9469  166B  2E6C               	
  9470                           l404:	
  9471  166C                     	line	136
  9472                           	
  9473                           l405:	
  9474  166C                     	return
  9475  166C  0008               	opt stack 0
  9476                           GLOBAL	__end_of_lcd_write_string
  9477                           	__end_of_lcd_write_string:
  9478  166D                     	signat	_lcd_write_string,4217
  9479                           	global	_lcd_write_char
  9480                           
  9481 ;; *************** function _lcd_write_char *****************
  9482 ;; Defined at:
  9483 ;;		line 121 in file "LCD.c"
  9484 ;; Parameters:    Size  Location     Type
  9485 ;;  a               1    wreg     unsigned char 
  9486 ;; Auto vars:     Size  Location     Type
  9487 ;;  a               1    3[BANK0 ] unsigned char 
  9488 ;; Return value:  Size  Location     Type
  9489 ;;                  1    wreg      void 
  9490 ;; Registers used:
  9491 ;;		wreg, status,2, status,0, pclath, cstack
  9492 ;; Tracked objects:
  9493 ;;		On entry : 0/0
  9494 ;;		On exit  : 0/0
  9495 ;;		Unchanged: 0/0
  9496 ;; Data sizes:     COMMON   BANK0   BANK1   BANK3   BANK2
  9497 ;;      Params:         0       0       0       0       0
  9498 ;;      Locals:         0       1       0       0       0
  9499 ;;      Temps:          0       2       0       0       0
  9500 ;;      Totals:         0       3       0       0       0
  9501 ;;Total ram usage:        3 bytes
  9502 ;; Hardware stack levels used:    1
  9503 ;; Hardware stack levels required when called:    5
  9504 ;; This function calls:
  9505 ;;		_lcd_port
  9506 ;; This function is called by:
  9507 ;;		_boton_lcd
  9508 ;;		_mostrar_lcd
  9509 ;;		_slave_1
  9510 ;;		_lcd_write_string
  9511 ;; This function uses a non-reentrant model
  9512 ;;
  9513                           psect	text26,local,class=CODE,delta=2,merge=1,group=0
  9514                           	line	121
  9515                           global __ptext26
  9516                           __ptext26:	;psect for function _lcd_write_char
  9517  07DF                     psect	text26
  9518                           	file	"LCD.c"
  9519                           	line	121
  9520                           	global	__size_of_lcd_write_char
  9521                           	__size_of_lcd_write_char	equ	__end_of_lcd_write_char-_lcd_write_char
  9522  001C                     	
  9523                           _lcd_write_char:	
  9524  07DF                     ;incstack = 0
  9525                           	opt	stack 1
  9526                           ; Regs used in _lcd_write_char: [wreg+status,2+status,0+pclath+cstack]
  9527                           ;lcd_write_char@a stored from wreg
  9528                           	bcf	status, 5	;RP0=0, select bank0
  9529  07DF  1283               	bcf	status, 6	;RP1=0, select bank0
  9530  07E0  1303               	movwf	(lcd_write_char@a)
  9531  07E1  00A3               	line	123
  9532                           	
  9533                           l2074:	
  9534  07E2                     ;LCD.c: 123:     RB7 = 1;
  9535                           	bsf	(55/8),(55)&7	;volatile
  9536  07E2  1786               	line	124
  9537                           	
  9538                           l2076:	
  9539  07E3                     ;LCD.c: 124:     lcd_port(a);
  9540                           	movf	(lcd_write_char@a),w
  9541  07E3  0823               	fcall	_lcd_port
  9542  07E4  160A  118A  25A9  120A  118A  	line	126
  9543                           	
  9544                           l2078:	
  9545  07E9                     ;LCD.c: 126:     RD7 = 1;
  9546                           	bcf	status, 5	;RP0=0, select bank0
  9547  07E9  1283               	bcf	status, 6	;RP1=0, select bank0
  9548  07EA  1303               	bsf	(71/8),(71)&7	;volatile
  9549  07EB  1788               	line	127
  9550                           	
  9551                           l2080:	
  9552  07EC                     ;LCD.c: 127:     _delay((unsigned long)((4)*(8000000/4000.0)));
  9553                           	opt asmopt_push
  9554                           opt asmopt_off
  9555                           movlw	11
  9556  07EC  300B               	bcf	status, 5	;RP0=0, select bank0
  9557  07ED  1283               	bcf	status, 6	;RP1=0, select bank0
  9558  07EE  1303               movwf	((??_lcd_write_char+0)+0+1),f
  9559  07EF  00A2               	movlw	97
  9560  07F0  3061               movwf	((??_lcd_write_char+0)+0),f
  9561  07F1  00A1               	u3747:
  9562  07F2                     decfsz	((??_lcd_write_char+0)+0),f
  9563  07F2  0BA1               	goto	u3747
  9564  07F3  2FF2               	decfsz	((??_lcd_write_char+0)+0+1),f
  9565  07F4  0BA2               	goto	u3747
  9566  07F5  2FF2               	nop2
  9567  07F6  2FF7               opt asmopt_pop
  9568                           
  9569                           	line	128
  9570                           	
  9571                           l2082:	
  9572  07F7                     ;LCD.c: 128:     RD7 = 0;
  9573                           	bcf	status, 5	;RP0=0, select bank0
  9574  07F7  1283               	bcf	status, 6	;RP1=0, select bank0
  9575  07F8  1303               	bcf	(71/8),(71)&7	;volatile
  9576  07F9  1388               	line	129
  9577                           	
  9578                           l399:	
  9579  07FA                     	return
  9580  07FA  0008               	opt stack 0
  9581                           GLOBAL	__end_of_lcd_write_char
  9582                           	__end_of_lcd_write_char:
  9583  07FB                     	signat	_lcd_write_char,4217
  9584                           	global	_lcd_set_cursor
  9585                           
  9586 ;; *************** function _lcd_set_cursor *****************
  9587 ;; Defined at:
  9588 ;;		line 110 in file "LCD.c"
  9589 ;; Parameters:    Size  Location     Type
  9590 ;;  a               1    wreg     unsigned char 
  9591 ;;  b               1    4[BANK0 ] unsigned char 
  9592 ;; Auto vars:     Size  Location     Type
  9593 ;;  a               1    5[BANK0 ] unsigned char 
  9594 ;; Return value:  Size  Location     Type
  9595 ;;                  1    wreg      void 
  9596 ;; Registers used:
  9597 ;;		wreg, status,2, status,0, pclath, cstack
  9598 ;; Tracked objects:
  9599 ;;		On entry : 0/0
  9600 ;;		On exit  : 0/0
  9601 ;;		Unchanged: 0/0
  9602 ;; Data sizes:     COMMON   BANK0   BANK1   BANK3   BANK2
  9603 ;;      Params:         0       1       0       0       0
  9604 ;;      Locals:         0       1       0       0       0
  9605 ;;      Temps:          0       0       0       0       0
  9606 ;;      Totals:         0       2       0       0       0
  9607 ;;Total ram usage:        2 bytes
  9608 ;; Hardware stack levels used:    1
  9609 ;; Hardware stack levels required when called:    6
  9610 ;; This function calls:
  9611 ;;		_lcd_cmd
  9612 ;; This function is called by:
  9613 ;;		_main
  9614 ;;		_boton_lcd
  9615 ;;		_mostrar_lcd
  9616 ;;		_slave_1
  9617 ;;		_slave_2
  9618 ;; This function uses a non-reentrant model
  9619 ;;
  9620                           psect	text27,local,class=CODE,delta=2,merge=1,group=0
  9621                           	line	110
  9622                           global __ptext27
  9623                           __ptext27:	;psect for function _lcd_set_cursor
  9624  136E                     psect	text27
  9625                           	file	"LCD.c"
  9626                           	line	110
  9627                           	global	__size_of_lcd_set_cursor
  9628                           	__size_of_lcd_set_cursor	equ	__end_of_lcd_set_cursor-_lcd_set_cursor
  9629  0022                     	
  9630                           _lcd_set_cursor:	
  9631  136E                     ;incstack = 0
  9632                           	opt	stack 1
  9633                           ; Regs used in _lcd_set_cursor: [wreg+status,2+status,0+pclath+cstack]
  9634                           ;lcd_set_cursor@a stored from wreg
  9635                           	bcf	status, 5	;RP0=0, select bank0
  9636  136E  1283               	bcf	status, 6	;RP1=0, select bank0
  9637  136F  1303               	movwf	(lcd_set_cursor@a)
  9638  1370  00A5               	line	111
  9639                           	
  9640                           l2640:	
  9641  1371                     ;LCD.c: 111:     if (a == 1){
  9642                           		decf	((lcd_set_cursor@a)),w
  9643  1371  0325               	btfss	status,2
  9644  1372  1D03               	goto	u3131
  9645  1373  2B75               	goto	u3130
  9646  1374  2B76               u3131:
  9647  1375                     	goto	l2644
  9648  1375  2B7E               u3130:
  9649  1376                     	line	114
  9650                           	
  9651                           l2642:	
  9652  1376                     ;LCD.c: 114:         lcd_cmd(0x80 + b - 1);
  9653                           	movf	(lcd_set_cursor@b),w
  9654  1376  0824               	addlw	07Fh
  9655  1377  3E7F               	fcall	_lcd_cmd
  9656  1378  160A  118A  2352  160A  118A  	line	115
  9657                           ;LCD.c: 115:     } else if (a == 2){
  9658                           	goto	l396
  9659  137D  2B8F               	
  9660                           l393:	
  9661  137E                     	
  9662                           l2644:	
  9663  137E                     		movlw	2
  9664  137E  3002               	bcf	status, 5	;RP0=0, select bank0
  9665  137F  1283               	bcf	status, 6	;RP1=0, select bank0
  9666  1380  1303               	xorwf	((lcd_set_cursor@a)),w
  9667  1381  0625               	btfss	status,2
  9668  1382  1D03               	goto	u3141
  9669  1383  2B85               	goto	u3140
  9670  1384  2B86               u3141:
  9671  1385                     	goto	l396
  9672  1385  2B8F               u3140:
  9673  1386                     	line	117
  9674                           	
  9675                           l2646:	
  9676  1386                     ;LCD.c: 117:         lcd_cmd(0xC0 + b - 1);
  9677                           	movf	(lcd_set_cursor@b),w
  9678  1386  0824               	addlw	0BFh
  9679  1387  3EBF               	fcall	_lcd_cmd
  9680  1388  160A  118A  2352  160A  118A  	goto	l396
  9681  138D  2B8F               	line	118
  9682                           ;LCD.c: 118:     }
  9683                           	
  9684                           l395:	
  9685  138E                     	goto	l396
  9686  138E  2B8F               	
  9687                           l394:	
  9688  138F                     	line	119
  9689                           	
  9690                           l396:	
  9691  138F                     	return
  9692  138F  0008               	opt stack 0
  9693                           GLOBAL	__end_of_lcd_set_cursor
  9694                           	__end_of_lcd_set_cursor:
  9695  1390                     	signat	_lcd_set_cursor,8313
  9696                           	global	_lcd_cmd
  9697                           
  9698 ;; *************** function _lcd_cmd *****************
  9699 ;; Defined at:
  9700 ;;		line 75 in file "LCD.c"
  9701 ;; Parameters:    Size  Location     Type
  9702 ;;  a               1    wreg     unsigned char 
  9703 ;; Auto vars:     Size  Location     Type
  9704 ;;  a               1    3[BANK0 ] unsigned char 
  9705 ;; Return value:  Size  Location     Type
  9706 ;;                  1    wreg      void 
  9707 ;; Registers used:
  9708 ;;		wreg, status,2, status,0, pclath, cstack
  9709 ;; Tracked objects:
  9710 ;;		On entry : 0/0
  9711 ;;		On exit  : 0/0
  9712 ;;		Unchanged: 0/0
  9713 ;; Data sizes:     COMMON   BANK0   BANK1   BANK3   BANK2
  9714 ;;      Params:         0       0       0       0       0
  9715 ;;      Locals:         0       1       0       0       0
  9716 ;;      Temps:          0       2       0       0       0
  9717 ;;      Totals:         0       3       0       0       0
  9718 ;;Total ram usage:        3 bytes
  9719 ;; Hardware stack levels used:    1
  9720 ;; Hardware stack levels required when called:    5
  9721 ;; This function calls:
  9722 ;;		_lcd_port
  9723 ;; This function is called by:
  9724 ;;		_lcd_init
  9725 ;;		_lcd_clear
  9726 ;;		_lcd_set_cursor
  9727 ;;		_lcd_shift_right
  9728 ;;		_lcd_shift_left
  9729 ;; This function uses a non-reentrant model
  9730 ;;
  9731                           psect	text28,local,class=CODE,delta=2,merge=1,group=0
  9732                           	line	75
  9733                           global __ptext28
  9734                           __ptext28:	;psect for function _lcd_cmd
  9735  1352                     psect	text28
  9736                           	file	"LCD.c"
  9737                           	line	75
  9738                           	global	__size_of_lcd_cmd
  9739                           	__size_of_lcd_cmd	equ	__end_of_lcd_cmd-_lcd_cmd
  9740  001C                     	
  9741                           _lcd_cmd:	
  9742  1352                     ;incstack = 0
  9743                           	opt	stack 1
  9744                           ; Regs used in _lcd_cmd: [wreg+status,2+status,0+pclath+cstack]
  9745                           ;lcd_cmd@a stored from wreg
  9746                           	bcf	status, 5	;RP0=0, select bank0
  9747  1352  1283               	bcf	status, 6	;RP1=0, select bank0
  9748  1353  1303               	movwf	(lcd_cmd@a)
  9749  1354  00A3               	line	77
  9750                           	
  9751                           l2124:	
  9752  1355                     ;LCD.c: 77:     RB7 = 0;
  9753                           	bcf	(55/8),(55)&7	;volatile
  9754  1355  1386               	line	78
  9755                           	
  9756                           l2126:	
  9757  1356                     ;LCD.c: 78:     lcd_port(a);
  9758                           	movf	(lcd_cmd@a),w
  9759  1356  0823               	fcall	_lcd_port
  9760  1357  160A  118A  25A9  160A  118A  	line	80
  9761                           	
  9762                           l2128:	
  9763  135C                     ;LCD.c: 80:     RD7 = 1;
  9764                           	bcf	status, 5	;RP0=0, select bank0
  9765  135C  1283               	bcf	status, 6	;RP1=0, select bank0
  9766  135D  1303               	bsf	(71/8),(71)&7	;volatile
  9767  135E  1788               	line	81
  9768                           	
  9769                           l2130:	
  9770  135F                     ;LCD.c: 81:     _delay((unsigned long)((10)*(8000000/4000.0)));
  9771                           	opt asmopt_push
  9772                           opt asmopt_off
  9773                           movlw	26
  9774  135F  301A               	bcf	status, 5	;RP0=0, select bank0
  9775  1360  1283               	bcf	status, 6	;RP1=0, select bank0
  9776  1361  1303               movwf	((??_lcd_cmd+0)+0+1),f
  9777  1362  00A2               	movlw	247
  9778  1363  30F7               movwf	((??_lcd_cmd+0)+0),f
  9779  1364  00A1               	u3757:
  9780  1365                     decfsz	((??_lcd_cmd+0)+0),f
  9781  1365  0BA1               	goto	u3757
  9782  1366  2B65               	decfsz	((??_lcd_cmd+0)+0+1),f
  9783  1367  0BA2               	goto	u3757
  9784  1368  2B65               	nop2
  9785  1369  2B6A               opt asmopt_pop
  9786                           
  9787                           	line	82
  9788                           	
  9789                           l2132:	
  9790  136A                     ;LCD.c: 82:     RD7 = 0;
  9791                           	bcf	status, 5	;RP0=0, select bank0
  9792  136A  1283               	bcf	status, 6	;RP1=0, select bank0
  9793  136B  1303               	bcf	(71/8),(71)&7	;volatile
  9794  136C  1388               	line	83
  9795                           	
  9796                           l384:	
  9797  136D                     	return
  9798  136D  0008               	opt stack 0
  9799                           GLOBAL	__end_of_lcd_cmd
  9800                           	__end_of_lcd_cmd:
  9801  136E                     	signat	_lcd_cmd,4217
  9802                           	global	_lcd_port
  9803                           
  9804 ;; *************** function _lcd_port *****************
  9805 ;; Defined at:
  9806 ;;		line 24 in file "LCD.c"
  9807 ;; Parameters:    Size  Location     Type
  9808 ;;  a               1    wreg     unsigned char 
  9809 ;; Auto vars:     Size  Location     Type
  9810 ;;  a               1    0[BANK0 ] unsigned char 
  9811 ;; Return value:  Size  Location     Type
  9812 ;;                  1    wreg      void 
  9813 ;; Registers used:
  9814 ;;		wreg
  9815 ;; Tracked objects:
  9816 ;;		On entry : 0/0
  9817 ;;		On exit  : 0/0
  9818 ;;		Unchanged: 0/0
  9819 ;; Data sizes:     COMMON   BANK0   BANK1   BANK3   BANK2
  9820 ;;      Params:         0       0       0       0       0
  9821 ;;      Locals:         0       1       0       0       0
  9822 ;;      Temps:          0       0       0       0       0
  9823 ;;      Totals:         0       1       0       0       0
  9824 ;;Total ram usage:        1 bytes
  9825 ;; Hardware stack levels used:    1
  9826 ;; Hardware stack levels required when called:    4
  9827 ;; This function calls:
  9828 ;;		Nothing
  9829 ;; This function is called by:
  9830 ;;		_lcd_cmd
  9831 ;;		_lcd_init
  9832 ;;		_lcd_write_char
  9833 ;; This function uses a non-reentrant model
  9834 ;;
  9835                           psect	text29,local,class=CODE,delta=2,merge=1,group=0
  9836                           	line	24
  9837                           global __ptext29
  9838                           __ptext29:	;psect for function _lcd_port
  9839  15A9                     psect	text29
  9840                           	file	"LCD.c"
  9841                           	line	24
  9842                           	global	__size_of_lcd_port
  9843                           	__size_of_lcd_port	equ	__end_of_lcd_port-_lcd_port
  9844  003D                     	
  9845                           _lcd_port:	
  9846  15A9                     ;incstack = 0
  9847                           	opt	stack 1
  9848                           ; Regs used in _lcd_port: [wreg]
  9849                           ;lcd_port@a stored from wreg
  9850                           	bcf	status, 5	;RP0=0, select bank0
  9851  15A9  1283               	bcf	status, 6	;RP1=0, select bank0
  9852  15AA  1303               	movwf	(lcd_port@a)
  9853  15AB  00A0               	line	26
  9854                           	
  9855                           l2056:	
  9856  15AC                     ;LCD.c: 26:     if(a & 1){
  9857                           	btfss	(lcd_port@a),(0)&7
  9858  15AC  1C20               	goto	u1841
  9859  15AD  2DAF               	goto	u1840
  9860  15AE  2DB0               u1841:
  9861  15AF                     	goto	l365
  9862  15AF  2DB2               u1840:
  9863  15B0                     	line	27
  9864                           	
  9865                           l2058:	
  9866  15B0                     ;LCD.c: 27:         RA0 = 1;
  9867                           	bsf	(40/8),(40)&7	;volatile
  9868  15B0  1405               	line	28
  9869                           ;LCD.c: 28:     } else {
  9870                           	goto	l366
  9871  15B1  2DB3               	
  9872                           l365:	
  9873  15B2                     	line	29
  9874                           ;LCD.c: 29:         RA0 = 0;
  9875                           	bcf	(40/8),(40)&7	;volatile
  9876  15B2  1005               	line	30
  9877                           ;LCD.c: 30:     }
  9878                           	
  9879                           l366:	
  9880  15B3                     	line	32
  9881                           ;LCD.c: 32:     if(a & 2){
  9882                           	btfss	(lcd_port@a),(1)&7
  9883  15B3  1CA0               	goto	u1851
  9884  15B4  2DB6               	goto	u1850
  9885  15B5  2DB7               u1851:
  9886  15B6                     	goto	l367
  9887  15B6  2DB9               u1850:
  9888  15B7                     	line	33
  9889                           	
  9890                           l2060:	
  9891  15B7                     ;LCD.c: 33:         RA1 = 1;
  9892                           	bsf	(41/8),(41)&7	;volatile
  9893  15B7  1485               	line	34
  9894                           ;LCD.c: 34:     } else {
  9895                           	goto	l368
  9896  15B8  2DBA               	
  9897                           l367:	
  9898  15B9                     	line	35
  9899                           ;LCD.c: 35:         RA1 = 0;
  9900                           	bcf	(41/8),(41)&7	;volatile
  9901  15B9  1085               	line	36
  9902                           ;LCD.c: 36:     }
  9903                           	
  9904                           l368:	
  9905  15BA                     	line	38
  9906                           ;LCD.c: 38:     if(a & 4){
  9907                           	btfss	(lcd_port@a),(2)&7
  9908  15BA  1D20               	goto	u1861
  9909  15BB  2DBD               	goto	u1860
  9910  15BC  2DBE               u1861:
  9911  15BD                     	goto	l369
  9912  15BD  2DC0               u1860:
  9913  15BE                     	line	39
  9914                           	
  9915                           l2062:	
  9916  15BE                     ;LCD.c: 39:         RA2 = 1;
  9917                           	bsf	(42/8),(42)&7	;volatile
  9918  15BE  1505               	line	40
  9919                           ;LCD.c: 40:     } else {
  9920                           	goto	l370
  9921  15BF  2DC1               	
  9922                           l369:	
  9923  15C0                     	line	41
  9924                           ;LCD.c: 41:         RA2 = 0;
  9925                           	bcf	(42/8),(42)&7	;volatile
  9926  15C0  1105               	line	42
  9927                           ;LCD.c: 42:     }
  9928                           	
  9929                           l370:	
  9930  15C1                     	line	44
  9931                           ;LCD.c: 44:     if(a & 8){
  9932                           	btfss	(lcd_port@a),(3)&7
  9933  15C1  1DA0               	goto	u1871
  9934  15C2  2DC4               	goto	u1870
  9935  15C3  2DC5               u1871:
  9936  15C4                     	goto	l371
  9937  15C4  2DC7               u1870:
  9938  15C5                     	line	45
  9939                           	
  9940                           l2064:	
  9941  15C5                     ;LCD.c: 45:         RA3 = 1;
  9942                           	bsf	(43/8),(43)&7	;volatile
  9943  15C5  1585               	line	46
  9944                           ;LCD.c: 46:     } else {
  9945                           	goto	l372
  9946  15C6  2DC8               	
  9947                           l371:	
  9948  15C7                     	line	47
  9949                           ;LCD.c: 47:         RA3 = 0;
  9950                           	bcf	(43/8),(43)&7	;volatile
  9951  15C7  1185               	line	48
  9952                           ;LCD.c: 48:     }
  9953                           	
  9954                           l372:	
  9955  15C8                     	line	50
  9956                           ;LCD.c: 50:     if(a & 16){
  9957                           	btfss	(lcd_port@a),(4)&7
  9958  15C8  1E20               	goto	u1881
  9959  15C9  2DCB               	goto	u1880
  9960  15CA  2DCC               u1881:
  9961  15CB                     	goto	l373
  9962  15CB  2DCE               u1880:
  9963  15CC                     	line	51
  9964                           	
  9965                           l2066:	
  9966  15CC                     ;LCD.c: 51:         RA4 = 1;
  9967                           	bsf	(44/8),(44)&7	;volatile
  9968  15CC  1605               	line	52
  9969                           ;LCD.c: 52:     } else {
  9970                           	goto	l374
  9971  15CD  2DCF               	
  9972                           l373:	
  9973  15CE                     	line	53
  9974                           ;LCD.c: 53:         RA4 = 0;
  9975                           	bcf	(44/8),(44)&7	;volatile
  9976  15CE  1205               	line	54
  9977                           ;LCD.c: 54:     }
  9978                           	
  9979                           l374:	
  9980  15CF                     	line	56
  9981                           ;LCD.c: 56:     if(a & 32){
  9982                           	btfss	(lcd_port@a),(5)&7
  9983  15CF  1EA0               	goto	u1891
  9984  15D0  2DD2               	goto	u1890
  9985  15D1  2DD3               u1891:
  9986  15D2                     	goto	l375
  9987  15D2  2DD5               u1890:
  9988  15D3                     	line	57
  9989                           	
  9990                           l2068:	
  9991  15D3                     ;LCD.c: 57:         RA5 = 1;
  9992                           	bsf	(45/8),(45)&7	;volatile
  9993  15D3  1685               	line	58
  9994                           ;LCD.c: 58:     } else {
  9995                           	goto	l376
  9996  15D4  2DD6               	
  9997                           l375:	
  9998  15D5                     	line	59
  9999                           ;LCD.c: 59:         RA5 = 0;
 10000                           	bcf	(45/8),(45)&7	;volatile
 10001  15D5  1285               	line	60
 10002                           ;LCD.c: 60:     }
 10003                           	
 10004                           l376:	
 10005  15D6                     	line	62
 10006                           ;LCD.c: 62:     if(a & 64){
 10007                           	btfss	(lcd_port@a),(6)&7
 10008  15D6  1F20               	goto	u1901
 10009  15D7  2DD9               	goto	u1900
 10010  15D8  2DDA               u1901:
 10011  15D9                     	goto	l377
 10012  15D9  2DDC               u1900:
 10013  15DA                     	line	63
 10014                           	
 10015                           l2070:	
 10016  15DA                     ;LCD.c: 63:         RA6 = 1;
 10017                           	bsf	(46/8),(46)&7	;volatile
 10018  15DA  1705               	line	64
 10019                           ;LCD.c: 64:     } else {
 10020                           	goto	l378
 10021  15DB  2DDD               	
 10022                           l377:	
 10023  15DC                     	line	65
 10024                           ;LCD.c: 65:         RA6 = 0;
 10025                           	bcf	(46/8),(46)&7	;volatile
 10026  15DC  1305               	line	66
 10027                           ;LCD.c: 66:     }
 10028                           	
 10029                           l378:	
 10030  15DD                     	line	68
 10031                           ;LCD.c: 68:     if(a & 128){
 10032                           	btfss	(lcd_port@a),(7)&7
 10033  15DD  1FA0               	goto	u1911
 10034  15DE  2DE0               	goto	u1910
 10035  15DF  2DE1               u1911:
 10036  15E0                     	goto	l379
 10037  15E0  2DE3               u1910:
 10038  15E1                     	line	69
 10039                           	
 10040                           l2072:	
 10041  15E1                     ;LCD.c: 69:         RA7 = 1;
 10042                           	bsf	(47/8),(47)&7	;volatile
 10043  15E1  1785               	line	70
 10044                           ;LCD.c: 70:     } else {
 10045                           	goto	l381
 10046  15E2  2DE5               	
 10047                           l379:	
 10048  15E3                     	line	71
 10049                           ;LCD.c: 71:         RA7 = 0;
 10050                           	bcf	(47/8),(47)&7	;volatile
 10051  15E3  1385               	goto	l381
 10052  15E4  2DE5               	line	72
 10053                           ;LCD.c: 72:     }
 10054                           	
 10055                           l380:	
 10056  15E5                     	line	73
 10057                           	
 10058                           l381:	
 10059  15E5                     	return
 10060  15E5  0008               	opt stack 0
 10061                           GLOBAL	__end_of_lcd_port
 10062                           	__end_of_lcd_port:
 10063  15E6                     	signat	_lcd_port,4217
 10064                           	global	_apagar_luces
 10065                           
 10066 ;; *************** function _apagar_luces *****************
 10067 ;; Defined at:
 10068 ;;		line 257 in file "Proyecto1_master.c"
 10069 ;; Parameters:    Size  Location     Type
 10070 ;;  t               1    wreg     unsigned char 
 10071 ;; Auto vars:     Size  Location     Type
 10072 ;;  t               1    2[BANK0 ] unsigned char 
 10073 ;; Return value:  Size  Location     Type
 10074 ;;                  1    wreg      void 
 10075 ;; Registers used:
 10076 ;;		wreg, status,2, status,0
 10077 ;; Tracked objects:
 10078 ;;		On entry : 0/0
 10079 ;;		On exit  : 0/0
 10080 ;;		Unchanged: 0/0
 10081 ;; Data sizes:     COMMON   BANK0   BANK1   BANK3   BANK2
 10082 ;;      Params:         0       0       0       0       0
 10083 ;;      Locals:         0       1       0       0       0
 10084 ;;      Temps:          0       2       0       0       0
 10085 ;;      Totals:         0       3       0       0       0
 10086 ;;Total ram usage:        3 bytes
 10087 ;; Hardware stack levels used:    1
 10088 ;; Hardware stack levels required when called:    4
 10089 ;; This function calls:
 10090 ;;		Nothing
 10091 ;; This function is called by:
 10092 ;;		_main
 10093 ;; This function uses a non-reentrant model
 10094 ;;
 10095                           psect	text30,local,class=CODE,delta=2,merge=1,group=0
 10096                           	file	"Proyecto1_master.c"
 10097                           	line	257
 10098                           global __ptext30
 10099                           __ptext30:	;psect for function _apagar_luces
 10100  0802                     psect	text30
 10101                           	file	"Proyecto1_master.c"
 10102                           	line	257
 10103                           	global	__size_of_apagar_luces
 10104                           	__size_of_apagar_luces	equ	__end_of_apagar_luces-_apagar_luces
 10105  0027                     	
 10106                           _apagar_luces:	
 10107  0802                     ;incstack = 0
 10108                           	opt	stack 3
 10109                           ; Regs used in _apagar_luces: [wreg+status,2+status,0]
 10110                           ;apagar_luces@t stored from wreg
 10111                           	bcf	status, 5	;RP0=0, select bank0
 10112  0802  1283               	bcf	status, 6	;RP1=0, select bank0
 10113  0803  1303               	movwf	(apagar_luces@t)
 10114  0804  00A2               	line	260
 10115                           	
 10116                           l2996:	
 10117  0805                     ;Proyecto1_master.c: 260:     if(hour==10 && min==55 && sec==(15+t)){
 10118                           		movlw	10
 10119  0805  300A               	xorwf	((_hour)),w
 10120  0806  0679               iorwf	((_hour+1)),w
 10121  0807  047A               	btfss	status,2
 10122  0808  1D03               	goto	u3571
 10123  0809  280B               	goto	u3570
 10124  080A  280C               u3571:
 10125  080B                     	goto	l199
 10126  080B  2828               u3570:
 10127  080C                     	
 10128                           l2998:	
 10129  080C                     		movlw	55
 10130  080C  3037               	xorwf	((_min)),w
 10131  080D  067B               iorwf	((_min+1)),w
 10132  080E  047C               	btfss	status,2
 10133  080F  1D03               	goto	u3581
 10134  0810  2812               	goto	u3580
 10135  0811  2813               u3581:
 10136  0812                     	goto	l199
 10137  0812  2828               u3580:
 10138  0813                     	
 10139                           l3000:	
 10140  0813                     	movf	(apagar_luces@t),w
 10141  0813  0822               	addlw	low(0Fh)
 10142  0814  3E0F               	movwf	(??_apagar_luces+0)+0
 10143  0815  00A0               	movlw	high(0Fh)
 10144  0816  3000               	skipnc
 10145  0817  1803               	movlw	(high(0Fh)+1)&0ffh
 10146  0818  3001               	movwf	((??_apagar_luces+0)+0)+1
 10147  0819  00A1               	movf	(_sec+1),w
 10148  081A  086F               	xorwf	1+(??_apagar_luces+0)+0,w
 10149  081B  0621               	skipz
 10150  081C  1D03               	goto	u3595
 10151  081D  2820               	movf	(_sec),w
 10152  081E  086E               	xorwf	0+(??_apagar_luces+0)+0,w
 10153  081F  0620               u3595:
 10154  0820                     
 10155                           	skipz
 10156  0820  1D03               	goto	u3591
 10157  0821  2823               	goto	u3590
 10158  0822  2824               u3591:
 10159  0823                     	goto	l199
 10160  0823  2828               u3590:
 10161  0824                     	line	261
 10162                           	
 10163                           l3002:	
 10164  0824                     ;Proyecto1_master.c: 261:         PORTBbits.RB0 = 0;
 10165                           	bcf	(6),0	;volatile
 10166  0824  1006               	line	262
 10167                           ;Proyecto1_master.c: 262:         PORTBbits.RB1 = 0;
 10168                           	bcf	(6),1	;volatile
 10169  0825  1086               	line	263
 10170                           ;Proyecto1_master.c: 263:         PORTBbits.RB2 = 0;
 10171                           	bcf	(6),2	;volatile
 10172  0826  1106               	goto	l199
 10173  0827  2828               	line	264
 10174                           ;Proyecto1_master.c: 264:     }
 10175                           	
 10176                           l198:	
 10177  0828                     	line	265
 10178                           	
 10179                           l199:	
 10180  0828                     	return
 10181  0828  0008               	opt stack 0
 10182                           GLOBAL	__end_of_apagar_luces
 10183                           	__end_of_apagar_luces:
 10184  0829                     	signat	_apagar_luces,4217
 10185                           	global	_Update_Current_Date_Time
 10186                           
 10187 ;; *************** function _Update_Current_Date_Time *****************
 10188 ;; Defined at:
 10189 ;;		line 326 in file "Proyecto1_master.c"
 10190 ;; Parameters:    Size  Location     Type
 10191 ;;		None
 10192 ;; Auto vars:     Size  Location     Type
 10193 ;;		None
 10194 ;; Return value:  Size  Location     Type
 10195 ;;                  1    wreg      void 
 10196 ;; Registers used:
 10197 ;;		wreg, status,2, status,0, pclath, cstack
 10198 ;; Tracked objects:
 10199 ;;		On entry : 0/0
 10200 ;;		On exit  : 0/0
 10201 ;;		Unchanged: 0/0
 10202 ;; Data sizes:     COMMON   BANK0   BANK1   BANK3   BANK2
 10203 ;;      Params:         0       0       0       0       0
 10204 ;;      Locals:         0       0       0       0       0
 10205 ;;      Temps:          0       0       0       0       0
 10206 ;;      Totals:         0       0       0       0       0
 10207 ;;Total ram usage:        0 bytes
 10208 ;; Hardware stack levels used:    1
 10209 ;; Hardware stack levels required when called:    6
 10210 ;; This function calls:
 10211 ;;		_BCD_2_DEC
 10212 ;;		_I2C_Master_Read
 10213 ;;		_I2C_Master_Start
 10214 ;;		_I2C_Master_Stop
 10215 ;;		_I2C_Master_Write
 10216 ;; This function is called by:
 10217 ;;		_main
 10218 ;; This function uses a non-reentrant model
 10219 ;;
 10220                           psect	text31,local,class=CODE,delta=2,merge=1,group=0
 10221                           	line	326
 10222                           global __ptext31
 10223                           __ptext31:	;psect for function _Update_Current_Date_Time
 10224  0509                     psect	text31
 10225                           	file	"Proyecto1_master.c"
 10226                           	line	326
 10227                           	global	__size_of_Update_Current_Date_Time
 10228                           	__size_of_Update_Current_Date_Time	equ	__end_of_Update_Current_Date_Time-_Update_Curren
                                 t_Date_Time
 10229  0195                     	
 10230                           _Update_Current_Date_Time:	
 10231  0509                     ;incstack = 0
 10232                           	opt	stack 1
 10233                           ; Regs used in _Update_Current_Date_Time: [wreg+status,2+status,0+pclath+cstack]
 10234                           	line	328
 10235                           	
 10236                           l2922:	
 10237  0509                     ;Proyecto1_master.c: 328:    I2C_Master_Start();
 10238                           	fcall	_I2C_Master_Start
 10239  0509  160A  118A  22BD  120A  118A  	line	329
 10240                           ;Proyecto1_master.c: 329:    I2C_Master_Write(0xD0);
 10241                           	movlw	0D0h
 10242  050E  30D0               	bcf	status, 5	;RP0=0, select bank0
 10243  050F  1283               	bcf	status, 6	;RP1=0, select bank0
 10244  0510  1303               	movwf	(I2C_Master_Write@d)
 10245  0511  00AD               	movlw	0
 10246  0512  3000               	movwf	((I2C_Master_Write@d))+1
 10247  0513  00AE               	fcall	_I2C_Master_Write
 10248  0514  160A  118A  22CF  120A  118A  	line	330
 10249                           ;Proyecto1_master.c: 330:    I2C_Master_Write(0);
 10250                           	movlw	0
 10251  0519  3000               	bcf	status, 5	;RP0=0, select bank0
 10252  051A  1283               	bcf	status, 6	;RP1=0, select bank0
 10253  051B  1303               	movwf	(I2C_Master_Write@d)
 10254  051C  00AD               	movwf	(I2C_Master_Write@d+1)
 10255  051D  00AE               	fcall	_I2C_Master_Write
 10256  051E  160A  118A  22CF  120A  118A  	line	331
 10257                           ;Proyecto1_master.c: 331:    I2C_Master_Stop();
 10258                           	fcall	_I2C_Master_Stop
 10259  0523  160A  118A  22C6  120A  118A  	line	334
 10260                           ;Proyecto1_master.c: 334:    I2C_Master_Start();
 10261                           	fcall	_I2C_Master_Start
 10262  0528  160A  118A  22BD  120A  118A  	line	335
 10263                           ;Proyecto1_master.c: 335:    I2C_Master_Write(0xD1);
 10264                           	movlw	0D1h
 10265  052D  30D1               	bcf	status, 5	;RP0=0, select bank0
 10266  052E  1283               	bcf	status, 6	;RP1=0, select bank0
 10267  052F  1303               	movwf	(I2C_Master_Write@d)
 10268  0530  00AD               	movlw	0
 10269  0531  3000               	movwf	((I2C_Master_Write@d))+1
 10270  0532  00AE               	fcall	_I2C_Master_Write
 10271  0533  160A  118A  22CF  120A  118A  	line	336
 10272                           ;Proyecto1_master.c: 336:    sec = BCD_2_DEC(I2C_Master_Read(0));
 10273                           	movlw	0
 10274  0538  3000               	bcf	status, 5	;RP0=0, select bank0
 10275  0539  1283               	bcf	status, 6	;RP1=0, select bank0
 10276  053A  1303               	movwf	(I2C_Master_Read@a)
 10277  053B  00A0               	movwf	(I2C_Master_Read@a+1)
 10278  053C  00A1               	fcall	_I2C_Master_Read
 10279  053D  160A  118A  24CB  120A  118A  	bcf	status, 5	;RP0=0, select bank0
 10280  0542  1283               	bcf	status, 6	;RP1=0, select bank0
 10281  0543  1303               	movf	(1+(?_I2C_Master_Read)),w
 10282  0544  0821               	movwf	(BCD_2_DEC@to_convert+1)
 10283  0545  00A7               	movf	(0+(?_I2C_Master_Read)),w
 10284  0546  0820               	movwf	(BCD_2_DEC@to_convert)
 10285  0547  00A6               	fcall	_BCD_2_DEC
 10286  0548  160A  118A  23BA  120A  118A  	bcf	status, 5	;RP0=0, select bank0
 10287  054D  1283               	bcf	status, 6	;RP1=0, select bank0
 10288  054E  1303               	movf	(1+(?_BCD_2_DEC)),w
 10289  054F  0827               	movwf	(_sec+1)
 10290  0550  00EF               	movf	(0+(?_BCD_2_DEC)),w
 10291  0551  0826               	movwf	(_sec)
 10292  0552  00EE               	line	337
 10293                           ;Proyecto1_master.c: 337:    I2C_Master_Stop();
 10294                           	fcall	_I2C_Master_Stop
 10295  0553  160A  118A  22C6  120A  118A  	line	339
 10296                           ;Proyecto1_master.c: 339:    I2C_Master_Start();
 10297                           	fcall	_I2C_Master_Start
 10298  0558  160A  118A  22BD  120A  118A  	line	340
 10299                           ;Proyecto1_master.c: 340:    I2C_Master_Write(0xD1);
 10300                           	movlw	0D1h
 10301  055D  30D1               	bcf	status, 5	;RP0=0, select bank0
 10302  055E  1283               	bcf	status, 6	;RP1=0, select bank0
 10303  055F  1303               	movwf	(I2C_Master_Write@d)
 10304  0560  00AD               	movlw	0
 10305  0561  3000               	movwf	((I2C_Master_Write@d))+1
 10306  0562  00AE               	fcall	_I2C_Master_Write
 10307  0563  160A  118A  22CF  120A  118A  	line	341
 10308                           ;Proyecto1_master.c: 341:    min = BCD_2_DEC(I2C_Master_Read(0));
 10309                           	movlw	0
 10310  0568  3000               	bcf	status, 5	;RP0=0, select bank0
 10311  0569  1283               	bcf	status, 6	;RP1=0, select bank0
 10312  056A  1303               	movwf	(I2C_Master_Read@a)
 10313  056B  00A0               	movwf	(I2C_Master_Read@a+1)
 10314  056C  00A1               	fcall	_I2C_Master_Read
 10315  056D  160A  118A  24CB  120A  118A  	bcf	status, 5	;RP0=0, select bank0
 10316  0572  1283               	bcf	status, 6	;RP1=0, select bank0
 10317  0573  1303               	movf	(1+(?_I2C_Master_Read)),w
 10318  0574  0821               	movwf	(BCD_2_DEC@to_convert+1)
 10319  0575  00A7               	movf	(0+(?_I2C_Master_Read)),w
 10320  0576  0820               	movwf	(BCD_2_DEC@to_convert)
 10321  0577  00A6               	fcall	_BCD_2_DEC
 10322  0578  160A  118A  23BA  120A  118A  	bcf	status, 5	;RP0=0, select bank0
 10323  057D  1283               	bcf	status, 6	;RP1=0, select bank0
 10324  057E  1303               	movf	(1+(?_BCD_2_DEC)),w
 10325  057F  0827               	movwf	(_min+1)
 10326  0580  00FC               	movf	(0+(?_BCD_2_DEC)),w
 10327  0581  0826               	movwf	(_min)
 10328  0582  00FB               	line	342
 10329                           ;Proyecto1_master.c: 342:    I2C_Master_Stop();
 10330                           	fcall	_I2C_Master_Stop
 10331  0583  160A  118A  22C6  120A  118A  	line	344
 10332                           ;Proyecto1_master.c: 344:    I2C_Master_Start();
 10333                           	fcall	_I2C_Master_Start
 10334  0588  160A  118A  22BD  120A  118A  	line	345
 10335                           ;Proyecto1_master.c: 345:    I2C_Master_Write(0xD1);
 10336                           	movlw	0D1h
 10337  058D  30D1               	bcf	status, 5	;RP0=0, select bank0
 10338  058E  1283               	bcf	status, 6	;RP1=0, select bank0
 10339  058F  1303               	movwf	(I2C_Master_Write@d)
 10340  0590  00AD               	movlw	0
 10341  0591  3000               	movwf	((I2C_Master_Write@d))+1
 10342  0592  00AE               	fcall	_I2C_Master_Write
 10343  0593  160A  118A  22CF  120A  118A  	line	346
 10344                           ;Proyecto1_master.c: 346:    hour = BCD_2_DEC(I2C_Master_Read(0));
 10345                           	movlw	0
 10346  0598  3000               	bcf	status, 5	;RP0=0, select bank0
 10347  0599  1283               	bcf	status, 6	;RP1=0, select bank0
 10348  059A  1303               	movwf	(I2C_Master_Read@a)
 10349  059B  00A0               	movwf	(I2C_Master_Read@a+1)
 10350  059C  00A1               	fcall	_I2C_Master_Read
 10351  059D  160A  118A  24CB  120A  118A  	bcf	status, 5	;RP0=0, select bank0
 10352  05A2  1283               	bcf	status, 6	;RP1=0, select bank0
 10353  05A3  1303               	movf	(1+(?_I2C_Master_Read)),w
 10354  05A4  0821               	movwf	(BCD_2_DEC@to_convert+1)
 10355  05A5  00A7               	movf	(0+(?_I2C_Master_Read)),w
 10356  05A6  0820               	movwf	(BCD_2_DEC@to_convert)
 10357  05A7  00A6               	fcall	_BCD_2_DEC
 10358  05A8  160A  118A  23BA  120A  118A  	bcf	status, 5	;RP0=0, select bank0
 10359  05AD  1283               	bcf	status, 6	;RP1=0, select bank0
 10360  05AE  1303               	movf	(1+(?_BCD_2_DEC)),w
 10361  05AF  0827               	movwf	(_hour+1)
 10362  05B0  00FA               	movf	(0+(?_BCD_2_DEC)),w
 10363  05B1  0826               	movwf	(_hour)
 10364  05B2  00F9               	line	347
 10365                           ;Proyecto1_master.c: 347:    I2C_Master_Stop();
 10366                           	fcall	_I2C_Master_Stop
 10367  05B3  160A  118A  22C6  120A  118A  	line	349
 10368                           ;Proyecto1_master.c: 349:    I2C_Master_Start();
 10369                           	fcall	_I2C_Master_Start
 10370  05B8  160A  118A  22BD  120A  118A  	line	350
 10371                           ;Proyecto1_master.c: 350:    I2C_Master_Write(0xD1);
 10372                           	movlw	0D1h
 10373  05BD  30D1               	bcf	status, 5	;RP0=0, select bank0
 10374  05BE  1283               	bcf	status, 6	;RP1=0, select bank0
 10375  05BF  1303               	movwf	(I2C_Master_Write@d)
 10376  05C0  00AD               	movlw	0
 10377  05C1  3000               	movwf	((I2C_Master_Write@d))+1
 10378  05C2  00AE               	fcall	_I2C_Master_Write
 10379  05C3  160A  118A  22CF  120A  118A  	line	351
 10380                           ;Proyecto1_master.c: 351:    I2C_Master_Read(0);
 10381                           	movlw	0
 10382  05C8  3000               	bcf	status, 5	;RP0=0, select bank0
 10383  05C9  1283               	bcf	status, 6	;RP1=0, select bank0
 10384  05CA  1303               	movwf	(I2C_Master_Read@a)
 10385  05CB  00A0               	movwf	(I2C_Master_Read@a+1)
 10386  05CC  00A1               	fcall	_I2C_Master_Read
 10387  05CD  160A  118A  24CB  120A  118A  	line	352
 10388                           ;Proyecto1_master.c: 352:    I2C_Master_Stop();
 10389                           	fcall	_I2C_Master_Stop
 10390  05D2  160A  118A  22C6  120A  118A  	line	354
 10391                           ;Proyecto1_master.c: 354:    I2C_Master_Start();
 10392                           	fcall	_I2C_Master_Start
 10393  05D7  160A  118A  22BD  120A  118A  	line	355
 10394                           ;Proyecto1_master.c: 355:    I2C_Master_Write(0xD1);
 10395                           	movlw	0D1h
 10396  05DC  30D1               	bcf	status, 5	;RP0=0, select bank0
 10397  05DD  1283               	bcf	status, 6	;RP1=0, select bank0
 10398  05DE  1303               	movwf	(I2C_Master_Write@d)
 10399  05DF  00AD               	movlw	0
 10400  05E0  3000               	movwf	((I2C_Master_Write@d))+1
 10401  05E1  00AE               	fcall	_I2C_Master_Write
 10402  05E2  160A  118A  22CF  120A  118A  	line	356
 10403                           ;Proyecto1_master.c: 356:    date = BCD_2_DEC(I2C_Master_Read(0));
 10404                           	movlw	0
 10405  05E7  3000               	bcf	status, 5	;RP0=0, select bank0
 10406  05E8  1283               	bcf	status, 6	;RP1=0, select bank0
 10407  05E9  1303               	movwf	(I2C_Master_Read@a)
 10408  05EA  00A0               	movwf	(I2C_Master_Read@a+1)
 10409  05EB  00A1               	fcall	_I2C_Master_Read
 10410  05EC  160A  118A  24CB  120A  118A  	bcf	status, 5	;RP0=0, select bank0
 10411  05F1  1283               	bcf	status, 6	;RP1=0, select bank0
 10412  05F2  1303               	movf	(1+(?_I2C_Master_Read)),w
 10413  05F3  0821               	movwf	(BCD_2_DEC@to_convert+1)
 10414  05F4  00A7               	movf	(0+(?_I2C_Master_Read)),w
 10415  05F5  0820               	movwf	(BCD_2_DEC@to_convert)
 10416  05F6  00A6               	fcall	_BCD_2_DEC
 10417  05F7  160A  118A  23BA  120A  118A  	bcf	status, 5	;RP0=0, select bank0
 10418  05FC  1283               	bcf	status, 6	;RP1=0, select bank0
 10419  05FD  1303               	movf	(1+(?_BCD_2_DEC)),w
 10420  05FE  0827               	bsf	status, 5	;RP0=1, select bank1
 10421  05FF  1683               	bcf	status, 6	;RP1=0, select bank1
 10422  0600  1303               	movwf	(_date+1)^080h
 10423  0601  00C4               	bcf	status, 5	;RP0=0, select bank0
 10424  0602  1283               	bcf	status, 6	;RP1=0, select bank0
 10425  0603  1303               	movf	(0+(?_BCD_2_DEC)),w
 10426  0604  0826               	bsf	status, 5	;RP0=1, select bank1
 10427  0605  1683               	bcf	status, 6	;RP1=0, select bank1
 10428  0606  1303               	movwf	(_date)^080h
 10429  0607  00C3               	line	357
 10430                           ;Proyecto1_master.c: 357:    I2C_Master_Stop();
 10431                           	fcall	_I2C_Master_Stop
 10432  0608  160A  118A  22C6  120A  118A  	line	359
 10433                           ;Proyecto1_master.c: 359:    I2C_Master_Start();
 10434                           	fcall	_I2C_Master_Start
 10435  060D  160A  118A  22BD  120A  118A  	line	360
 10436                           ;Proyecto1_master.c: 360:    I2C_Master_Write(0xD1);
 10437                           	movlw	0D1h
 10438  0612  30D1               	bcf	status, 5	;RP0=0, select bank0
 10439  0613  1283               	bcf	status, 6	;RP1=0, select bank0
 10440  0614  1303               	movwf	(I2C_Master_Write@d)
 10441  0615  00AD               	movlw	0
 10442  0616  3000               	movwf	((I2C_Master_Write@d))+1
 10443  0617  00AE               	fcall	_I2C_Master_Write
 10444  0618  160A  118A  22CF  120A  118A  	line	361
 10445                           ;Proyecto1_master.c: 361:    month = BCD_2_DEC(I2C_Master_Read(0));
 10446                           	movlw	0
 10447  061D  3000               	bcf	status, 5	;RP0=0, select bank0
 10448  061E  1283               	bcf	status, 6	;RP1=0, select bank0
 10449  061F  1303               	movwf	(I2C_Master_Read@a)
 10450  0620  00A0               	movwf	(I2C_Master_Read@a+1)
 10451  0621  00A1               	fcall	_I2C_Master_Read
 10452  0622  160A  118A  24CB  120A  118A  	bcf	status, 5	;RP0=0, select bank0
 10453  0627  1283               	bcf	status, 6	;RP1=0, select bank0
 10454  0628  1303               	movf	(1+(?_I2C_Master_Read)),w
 10455  0629  0821               	movwf	(BCD_2_DEC@to_convert+1)
 10456  062A  00A7               	movf	(0+(?_I2C_Master_Read)),w
 10457  062B  0820               	movwf	(BCD_2_DEC@to_convert)
 10458  062C  00A6               	fcall	_BCD_2_DEC
 10459  062D  160A  118A  23BA  120A  118A  	bcf	status, 5	;RP0=0, select bank0
 10460  0632  1283               	bcf	status, 6	;RP1=0, select bank0
 10461  0633  1303               	movf	(1+(?_BCD_2_DEC)),w
 10462  0634  0827               	bsf	status, 5	;RP0=1, select bank1
 10463  0635  1683               	bcf	status, 6	;RP1=0, select bank1
 10464  0636  1303               	movwf	(_month+1)^080h
 10465  0637  00C0               	bcf	status, 5	;RP0=0, select bank0
 10466  0638  1283               	bcf	status, 6	;RP1=0, select bank0
 10467  0639  1303               	movf	(0+(?_BCD_2_DEC)),w
 10468  063A  0826               	bsf	status, 5	;RP0=1, select bank1
 10469  063B  1683               	bcf	status, 6	;RP1=0, select bank1
 10470  063C  1303               	movwf	(_month)^080h
 10471  063D  00BF               	line	362
 10472                           ;Proyecto1_master.c: 362:    I2C_Master_Stop();
 10473                           	fcall	_I2C_Master_Stop
 10474  063E  160A  118A  22C6  120A  118A  	line	364
 10475                           ;Proyecto1_master.c: 364:    I2C_Master_Start();
 10476                           	fcall	_I2C_Master_Start
 10477  0643  160A  118A  22BD  120A  118A  	line	365
 10478                           ;Proyecto1_master.c: 365:    I2C_Master_Write(0xD1);
 10479                           	movlw	0D1h
 10480  0648  30D1               	bcf	status, 5	;RP0=0, select bank0
 10481  0649  1283               	bcf	status, 6	;RP1=0, select bank0
 10482  064A  1303               	movwf	(I2C_Master_Write@d)
 10483  064B  00AD               	movlw	0
 10484  064C  3000               	movwf	((I2C_Master_Write@d))+1
 10485  064D  00AE               	fcall	_I2C_Master_Write
 10486  064E  160A  118A  22CF  120A  118A  	line	366
 10487                           ;Proyecto1_master.c: 366:    year = BCD_2_DEC(I2C_Master_Read(0));
 10488                           	movlw	0
 10489  0653  3000               	bcf	status, 5	;RP0=0, select bank0
 10490  0654  1283               	bcf	status, 6	;RP1=0, select bank0
 10491  0655  1303               	movwf	(I2C_Master_Read@a)
 10492  0656  00A0               	movwf	(I2C_Master_Read@a+1)
 10493  0657  00A1               	fcall	_I2C_Master_Read
 10494  0658  160A  118A  24CB  120A  118A  	bcf	status, 5	;RP0=0, select bank0
 10495  065D  1283               	bcf	status, 6	;RP1=0, select bank0
 10496  065E  1303               	movf	(1+(?_I2C_Master_Read)),w
 10497  065F  0821               	movwf	(BCD_2_DEC@to_convert+1)
 10498  0660  00A7               	movf	(0+(?_I2C_Master_Read)),w
 10499  0661  0820               	movwf	(BCD_2_DEC@to_convert)
 10500  0662  00A6               	fcall	_BCD_2_DEC
 10501  0663  160A  118A  23BA  120A  118A  	bcf	status, 5	;RP0=0, select bank0
 10502  0668  1283               	bcf	status, 6	;RP1=0, select bank0
 10503  0669  1303               	movf	(1+(?_BCD_2_DEC)),w
 10504  066A  0827               	bsf	status, 5	;RP0=1, select bank1
 10505  066B  1683               	bcf	status, 6	;RP1=0, select bank1
 10506  066C  1303               	movwf	(_year+1)^080h
 10507  066D  00BE               	bcf	status, 5	;RP0=0, select bank0
 10508  066E  1283               	bcf	status, 6	;RP1=0, select bank0
 10509  066F  1303               	movf	(0+(?_BCD_2_DEC)),w
 10510  0670  0826               	bsf	status, 5	;RP0=1, select bank1
 10511  0671  1683               	bcf	status, 6	;RP1=0, select bank1
 10512  0672  1303               	movwf	(_year)^080h
 10513  0673  00BD               	line	367
 10514                           ;Proyecto1_master.c: 367:    I2C_Master_Stop();
 10515                           	fcall	_I2C_Master_Stop
 10516  0674  160A  118A  22C6  120A  118A  	line	369
 10517                           ;Proyecto1_master.c: 369:    I2C_Master_Stop();
 10518                           	fcall	_I2C_Master_Stop
 10519  0679  160A  118A  22C6  120A  118A  	line	372
 10520                           ;Proyecto1_master.c: 372:    I2C_Master_Start();
 10521                           	fcall	_I2C_Master_Start
 10522  067E  160A  118A  22BD  120A  118A  	line	373
 10523                           ;Proyecto1_master.c: 373:    I2C_Master_Write(0xD1);
 10524                           	movlw	0D1h
 10525  0683  30D1               	bcf	status, 5	;RP0=0, select bank0
 10526  0684  1283               	bcf	status, 6	;RP1=0, select bank0
 10527  0685  1303               	movwf	(I2C_Master_Write@d)
 10528  0686  00AD               	movlw	0
 10529  0687  3000               	movwf	((I2C_Master_Write@d))+1
 10530  0688  00AE               	fcall	_I2C_Master_Write
 10531  0689  160A  118A  22CF  120A  118A  	line	374
 10532                           ;Proyecto1_master.c: 374:    I2C_Master_Read(0);
 10533                           	movlw	0
 10534  068E  3000               	bcf	status, 5	;RP0=0, select bank0
 10535  068F  1283               	bcf	status, 6	;RP1=0, select bank0
 10536  0690  1303               	movwf	(I2C_Master_Read@a)
 10537  0691  00A0               	movwf	(I2C_Master_Read@a+1)
 10538  0692  00A1               	fcall	_I2C_Master_Read
 10539  0693  160A  118A  24CB  120A  118A  	line	375
 10540                           ;Proyecto1_master.c: 375:    I2C_Master_Stop();
 10541                           	fcall	_I2C_Master_Stop
 10542  0698  160A  118A  22C6  120A  118A  	line	377
 10543                           	
 10544                           l217:	
 10545  069D                     	return
 10546  069D  0008               	opt stack 0
 10547                           GLOBAL	__end_of_Update_Current_Date_Time
 10548                           	__end_of_Update_Current_Date_Time:
 10549  069E                     	signat	_Update_Current_Date_Time,89
 10550                           	global	_I2C_Master_Read
 10551                           
 10552 ;; *************** function _I2C_Master_Read *****************
 10553 ;; Defined at:
 10554 ;;		line 71 in file "I2C.c"
 10555 ;; Parameters:    Size  Location     Type
 10556 ;;  a               2    0[BANK0 ] unsigned short 
 10557 ;; Auto vars:     Size  Location     Type
 10558 ;;  temp            2    4[BANK0 ] unsigned short 
 10559 ;; Return value:  Size  Location     Type
 10560 ;;                  2    0[BANK0 ] unsigned short 
 10561 ;; Registers used:
 10562 ;;		wreg, status,2, status,0, pclath, cstack
 10563 ;; Tracked objects:
 10564 ;;		On entry : 0/0
 10565 ;;		On exit  : 0/0
 10566 ;;		Unchanged: 0/0
 10567 ;; Data sizes:     COMMON   BANK0   BANK1   BANK3   BANK2
 10568 ;;      Params:         0       2       0       0       0
 10569 ;;      Locals:         0       2       0       0       0
 10570 ;;      Temps:          0       2       0       0       0
 10571 ;;      Totals:         0       6       0       0       0
 10572 ;;Total ram usage:        6 bytes
 10573 ;; Hardware stack levels used:    1
 10574 ;; Hardware stack levels required when called:    5
 10575 ;; This function calls:
 10576 ;;		_I2C_Master_Wait
 10577 ;; This function is called by:
 10578 ;;		_Update_Current_Date_Time
 10579 ;;		_slave_1
 10580 ;;		_slave_2
 10581 ;; This function uses a non-reentrant model
 10582 ;;
 10583                           psect	text32,local,class=CODE,delta=2,merge=1,group=0
 10584                           	file	"I2C.c"
 10585                           	line	71
 10586                           global __ptext32
 10587                           __ptext32:	;psect for function _I2C_Master_Read
 10588  14CB                     psect	text32
 10589                           	file	"I2C.c"
 10590                           	line	71
 10591                           	global	__size_of_I2C_Master_Read
 10592                           	__size_of_I2C_Master_Read	equ	__end_of_I2C_Master_Read-_I2C_Master_Read
 10593  0033                     	
 10594                           _I2C_Master_Read:	
 10595  14CB                     ;incstack = 0
 10596                           	opt	stack 0
 10597                           ; Regs used in _I2C_Master_Read: [wreg+status,2+status,0+pclath+cstack]
 10598                           	line	74
 10599                           	
 10600                           l2660:	
 10601  14CB                     ;I2C.c: 71: unsigned short I2C_Master_Read(unsigned short a);I2C.c: 72: {;I2C.c: 73:    
                                  unsigned short temp;;I2C.c: 74:     I2C_Master_Wait();
 10602                           	fcall	_I2C_Master_Wait
 10603  14CB  160A  118A  22D9  160A  118A  	line	75
 10604                           	
 10605                           l2662:	
 10606  14D0                     ;I2C.c: 75:     SSPCON2bits.RCEN = 1;
 10607                           	bsf	status, 5	;RP0=1, select bank1
 10608  14D0  1683               	bcf	status, 6	;RP1=0, select bank1
 10609  14D1  1303               	bsf	(145)^080h,3	;volatile
 10610  14D2  1591               	line	76
 10611                           ;I2C.c: 76:     I2C_Master_Wait();
 10612                           	fcall	_I2C_Master_Wait
 10613  14D3  160A  118A  22D9  160A  118A  	line	77
 10614                           	
 10615                           l2664:	
 10616  14D8                     ;I2C.c: 77:     temp = SSPBUF;
 10617                           	bcf	status, 5	;RP0=0, select bank0
 10618  14D8  1283               	bcf	status, 6	;RP1=0, select bank0
 10619  14D9  1303               	movf	(19),w	;volatile
 10620  14DA  0813               	movwf	(??_I2C_Master_Read+0)+0
 10621  14DB  00A2               	clrf	(??_I2C_Master_Read+0)+0+1
 10622  14DC  01A3               	movf	0+(??_I2C_Master_Read+0)+0,w
 10623  14DD  0822               	movwf	(I2C_Master_Read@temp)
 10624  14DE  00A4               	movf	1+(??_I2C_Master_Read+0)+0,w
 10625  14DF  0823               	movwf	(I2C_Master_Read@temp+1)
 10626  14E0  00A5               	line	78
 10627                           	
 10628                           l2666:	
 10629  14E1                     ;I2C.c: 78:     I2C_Master_Wait();
 10630                           	fcall	_I2C_Master_Wait
 10631  14E1  160A  118A  22D9  160A  118A  	line	79
 10632                           	
 10633                           l2668:	
 10634  14E6                     ;I2C.c: 79:     if(a == 1){
 10635                           	bcf	status, 5	;RP0=0, select bank0
 10636  14E6  1283               	bcf	status, 6	;RP1=0, select bank0
 10637  14E7  1303               		decf	((I2C_Master_Read@a)),w
 10638  14E8  0320               iorwf	((I2C_Master_Read@a+1)),w
 10639  14E9  0421               	btfss	status,2
 10640  14EA  1D03               	goto	u3151
 10641  14EB  2CED               	goto	u3150
 10642  14EC  2CEE               u3151:
 10643  14ED                     	goto	l335
 10644  14ED  2CF2               u3150:
 10645  14EE                     	line	80
 10646                           	
 10647                           l2670:	
 10648  14EE                     ;I2C.c: 80:         SSPCON2bits.ACKDT = 0;
 10649                           	bsf	status, 5	;RP0=1, select bank1
 10650  14EE  1683               	bcf	status, 6	;RP1=0, select bank1
 10651  14EF  1303               	bcf	(145)^080h,5	;volatile
 10652  14F0  1291               	line	81
 10653                           ;I2C.c: 81:     }else{
 10654                           	goto	l336
 10655  14F1  2CF5               	
 10656                           l335:	
 10657  14F2                     	line	82
 10658                           ;I2C.c: 82:         SSPCON2bits.ACKDT = 1;
 10659                           	bsf	status, 5	;RP0=1, select bank1
 10660  14F2  1683               	bcf	status, 6	;RP1=0, select bank1
 10661  14F3  1303               	bsf	(145)^080h,5	;volatile
 10662  14F4  1691               	line	83
 10663                           ;I2C.c: 83:     }
 10664                           	
 10665                           l336:	
 10666  14F5                     	line	84
 10667                           ;I2C.c: 84:     SSPCON2bits.ACKEN = 1;
 10668                           	bsf	(145)^080h,4	;volatile
 10669  14F5  1611               	line	85
 10670                           	
 10671                           l2672:	
 10672  14F6                     ;I2C.c: 85:     return temp;
 10673                           	bcf	status, 5	;RP0=0, select bank0
 10674  14F6  1283               	bcf	status, 6	;RP1=0, select bank0
 10675  14F7  1303               	movf	(I2C_Master_Read@temp+1),w
 10676  14F8  0825               	movwf	(?_I2C_Master_Read+1)
 10677  14F9  00A1               	movf	(I2C_Master_Read@temp),w
 10678  14FA  0824               	movwf	(?_I2C_Master_Read)
 10679  14FB  00A0               	goto	l337
 10680  14FC  2CFD               	
 10681                           l2674:	
 10682  14FD                     	line	86
 10683                           	
 10684                           l337:	
 10685  14FD                     	return
 10686  14FD  0008               	opt stack 0
 10687                           GLOBAL	__end_of_I2C_Master_Read
 10688                           	__end_of_I2C_Master_Read:
 10689  14FE                     	signat	_I2C_Master_Read,4218
 10690                           	global	_BCD_2_DEC
 10691                           
 10692 ;; *************** function _BCD_2_DEC *****************
 10693 ;; Defined at:
 10694 ;;		line 298 in file "Proyecto1_master.c"
 10695 ;; Parameters:    Size  Location     Type
 10696 ;;  to_convert      2    6[BANK0 ] int 
 10697 ;; Auto vars:     Size  Location     Type
 10698 ;;		None
 10699 ;; Return value:  Size  Location     Type
 10700 ;;                  2    6[BANK0 ] int 
 10701 ;; Registers used:
 10702 ;;		wreg, status,2, status,0, pclath, cstack
 10703 ;; Tracked objects:
 10704 ;;		On entry : 0/0
 10705 ;;		On exit  : 0/0
 10706 ;;		Unchanged: 0/0
 10707 ;; Data sizes:     COMMON   BANK0   BANK1   BANK3   BANK2
 10708 ;;      Params:         0       2       0       0       0
 10709 ;;      Locals:         0       0       0       0       0
 10710 ;;      Temps:          0       2       0       0       0
 10711 ;;      Totals:         0       4       0       0       0
 10712 ;;Total ram usage:        4 bytes
 10713 ;; Hardware stack levels used:    1
 10714 ;; Hardware stack levels required when called:    5
 10715 ;; This function calls:
 10716 ;;		___wmul
 10717 ;; This function is called by:
 10718 ;;		_Update_Current_Date_Time
 10719 ;; This function uses a non-reentrant model
 10720 ;;
 10721                           psect	text33,local,class=CODE,delta=2,merge=1,group=0
 10722                           	file	"Proyecto1_master.c"
 10723                           	line	298
 10724                           global __ptext33
 10725                           __ptext33:	;psect for function _BCD_2_DEC
 10726  13BA                     psect	text33
 10727                           	file	"Proyecto1_master.c"
 10728                           	line	298
 10729                           	global	__size_of_BCD_2_DEC
 10730                           	__size_of_BCD_2_DEC	equ	__end_of_BCD_2_DEC-_BCD_2_DEC
 10731  002A                     	
 10732                           _BCD_2_DEC:	
 10733  13BA                     ;incstack = 0
 10734                           	opt	stack 1
 10735                           ; Regs used in _BCD_2_DEC: [wreg+status,2+status,0+pclath+cstack]
 10736                           	line	299
 10737                           	
 10738                           l2822:	
 10739  13BA                     ;Proyecto1_master.c: 299:    return (to_convert >> 4) * 10 + (to_convert & 0x0F);
 10740                           	movlw	0Fh
 10741  13BA  300F               	bcf	status, 5	;RP0=0, select bank0
 10742  13BB  1283               	bcf	status, 6	;RP1=0, select bank0
 10743  13BC  1303               	andwf	(BCD_2_DEC@to_convert),w
 10744  13BD  0526               	movwf	(??_BCD_2_DEC+0)+0
 10745  13BE  00A8               	movlw	0
 10746  13BF  3000               	andwf	(BCD_2_DEC@to_convert+1),w
 10747  13C0  0527               	movwf	1+(??_BCD_2_DEC+0)+0
 10748  13C1  00A9               	swapf	(BCD_2_DEC@to_convert),w
 10749  13C2  0E26               	andlw	0fh
 10750  13C3  390F               	movwf	(___wmul@multiplier)
 10751  13C4  00A0               	swapf	(BCD_2_DEC@to_convert+1),w
 10752  13C5  0E27               	andlw	0f0h
 10753  13C6  39F0               	iorwf	(___wmul@multiplier)+0
 10754  13C7  04A0               	swapf	(BCD_2_DEC@to_convert+1),w
 10755  13C8  0E27               	andlw	0fh
 10756  13C9  390F               	movwf	(___wmul@multiplier)+1
 10757  13CA  00A1               	movlw	0f0h
 10758  13CB  30F0               	btfss	(___wmul@multiplier)+1,3
 10759  13CC  1DA1               	movlw	0
 10760  13CD  3000               	iorwf	(___wmul@multiplier)+1
 10761  13CE  04A1               	movlw	0Ah
 10762  13CF  300A               	movwf	(___wmul@multiplicand)
 10763  13D0  00A2               	movlw	0
 10764  13D1  3000               	movwf	((___wmul@multiplicand))+1
 10765  13D2  00A3               	fcall	___wmul
 10766  13D3  160A  118A  2390  160A  118A  	bcf	status, 5	;RP0=0, select bank0
 10767  13D8  1283               	bcf	status, 6	;RP1=0, select bank0
 10768  13D9  1303               	movf	0+(??_BCD_2_DEC+0)+0,w
 10769  13DA  0828               	addwf	(0+(?___wmul)),w
 10770  13DB  0720               	movwf	(?_BCD_2_DEC)
 10771  13DC  00A6               	movf	1+(??_BCD_2_DEC+0)+0,w
 10772  13DD  0829               	skipnc
 10773  13DE  1803               	incf	1+(??_BCD_2_DEC+0)+0,w
 10774  13DF  0A29               	addwf	(1+(?___wmul)),w
 10775  13E0  0721               	movwf	1+(?_BCD_2_DEC)
 10776  13E1  00A7               	goto	l208
 10777  13E2  2BE3               	
 10778                           l2824:	
 10779  13E3                     	line	300
 10780                           	
 10781                           l208:	
 10782  13E3                     	return
 10783  13E3  0008               	opt stack 0
 10784                           GLOBAL	__end_of_BCD_2_DEC
 10785                           	__end_of_BCD_2_DEC:
 10786  13E4                     	signat	_BCD_2_DEC,4218
 10787                           	global	___wmul
 10788                           
 10789 ;; *************** function ___wmul *****************
 10790 ;; Defined at:
 10791 ;;		line 15 in file "C:\Program Files (x86)\Microchip\xc8\v2.00\pic\sources\c90\common\Umul16.c"
 10792 ;; Parameters:    Size  Location     Type
 10793 ;;  multiplier      2    0[BANK0 ] unsigned int 
 10794 ;;  multiplicand    2    2[BANK0 ] unsigned int 
 10795 ;; Auto vars:     Size  Location     Type
 10796 ;;  product         2    4[BANK0 ] unsigned int 
 10797 ;; Return value:  Size  Location     Type
 10798 ;;                  2    0[BANK0 ] unsigned int 
 10799 ;; Registers used:
 10800 ;;		wreg, status,2, status,0
 10801 ;; Tracked objects:
 10802 ;;		On entry : 0/0
 10803 ;;		On exit  : 0/0
 10804 ;;		Unchanged: 0/0
 10805 ;; Data sizes:     COMMON   BANK0   BANK1   BANK3   BANK2
 10806 ;;      Params:         0       4       0       0       0
 10807 ;;      Locals:         0       2       0       0       0
 10808 ;;      Temps:          0       0       0       0       0
 10809 ;;      Totals:         0       6       0       0       0
 10810 ;;Total ram usage:        6 bytes
 10811 ;; Hardware stack levels used:    1
 10812 ;; Hardware stack levels required when called:    4
 10813 ;; This function calls:
 10814 ;;		Nothing
 10815 ;; This function is called by:
 10816 ;;		_BCD_2_DEC
 10817 ;;		_b1
 10818 ;;		_b0
 10819 ;; This function uses a non-reentrant model
 10820 ;;
 10821                           psect	text34,local,class=CODE,delta=2,merge=1,group=1
 10822                           	file	"C:\Program Files (x86)\Microchip\xc8\v2.00\pic\sources\c90\common\Umul16.c"
 10823                           	line	15
 10824                           global __ptext34
 10825                           __ptext34:	;psect for function ___wmul
 10826  1390                     psect	text34
 10827                           	file	"C:\Program Files (x86)\Microchip\xc8\v2.00\pic\sources\c90\common\Umul16.c"
 10828                           	line	15
 10829                           	global	__size_of___wmul
 10830                           	__size_of___wmul	equ	__end_of___wmul-___wmul
 10831  002A                     	
 10832                           ___wmul:	
 10833  1390                     ;incstack = 0
 10834                           	opt	stack 0
 10835                           ; Regs used in ___wmul: [wreg+status,2+status,0]
 10836                           	line	43
 10837                           	
 10838                           l2134:	
 10839  1390                     	bcf	status, 5	;RP0=0, select bank0
 10840  1390  1283               	bcf	status, 6	;RP1=0, select bank0
 10841  1391  1303               	clrf	(___wmul@product)
 10842  1392  01A4               	clrf	(___wmul@product+1)
 10843  1393  01A5               	goto	l2136
 10844  1394  2B95               	line	44
 10845                           	
 10846                           l496:	
 10847  1395                     	line	45
 10848                           	
 10849                           l2136:	
 10850  1395                     	btfss	(___wmul@multiplier),(0)&7
 10851  1395  1C20               	goto	u1941
 10852  1396  2B98               	goto	u1940
 10853  1397  2B99               u1941:
 10854  1398                     	goto	l497
 10855  1398  2B9F               u1940:
 10856  1399                     	line	46
 10857                           	
 10858                           l2138:	
 10859  1399                     	movf	(___wmul@multiplicand),w
 10860  1399  0822               	addwf	(___wmul@product),f
 10861  139A  07A4               	skipnc
 10862  139B  1803               	incf	(___wmul@product+1),f
 10863  139C  0AA5               	movf	(___wmul@multiplicand+1),w
 10864  139D  0823               	addwf	(___wmul@product+1),f
 10865  139E  07A5               	
 10866                           l497:	
 10867  139F                     	line	47
 10868                           	movlw	01h
 10869  139F  3001               	
 10870                           u1955:
 10871  13A0                     	clrc
 10872  13A0  1003               	rlf	(___wmul@multiplicand),f
 10873  13A1  0DA2               	rlf	(___wmul@multiplicand+1),f
 10874  13A2  0DA3               	addlw	-1
 10875  13A3  3EFF               	skipz
 10876  13A4  1D03               	goto	u1955
 10877  13A5  2BA0               	line	48
 10878                           	
 10879                           l2140:	
 10880  13A6                     	movlw	01h
 10881  13A6  3001               	
 10882                           u1965:
 10883  13A7                     	clrc
 10884  13A7  1003               	rrf	(___wmul@multiplier+1),f
 10885  13A8  0CA1               	rrf	(___wmul@multiplier),f
 10886  13A9  0CA0               	addlw	-1
 10887  13AA  3EFF               	skipz
 10888  13AB  1D03               	goto	u1965
 10889  13AC  2BA7               	line	49
 10890                           	
 10891                           l2142:	
 10892  13AD                     	movf	((___wmul@multiplier)),w
 10893  13AD  0820               iorwf	((___wmul@multiplier+1)),w
 10894  13AE  0421               	btfss	status,2
 10895  13AF  1D03               	goto	u1971
 10896  13B0  2BB2               	goto	u1970
 10897  13B1  2BB3               u1971:
 10898  13B2                     	goto	l2136
 10899  13B2  2B95               u1970:
 10900  13B3                     	goto	l2144
 10901  13B3  2BB4               	
 10902                           l498:	
 10903  13B4                     	line	52
 10904                           	
 10905                           l2144:	
 10906  13B4                     	movf	(___wmul@product+1),w
 10907  13B4  0825               	movwf	(?___wmul+1)
 10908  13B5  00A1               	movf	(___wmul@product),w
 10909  13B6  0824               	movwf	(?___wmul)
 10910  13B7  00A0               	goto	l499
 10911  13B8  2BB9               	
 10912                           l2146:	
 10913  13B9                     	line	53
 10914                           	
 10915                           l499:	
 10916  13B9                     	return
 10917  13B9  0008               	opt stack 0
 10918                           GLOBAL	__end_of___wmul
 10919                           	__end_of___wmul:
 10920  13BA                     	signat	___wmul,8314
 10921                           	global	_Set_Time_Date
 10922                           
 10923 ;; *************** function _Set_Time_Date *****************
 10924 ;; Defined at:
 10925 ;;		line 309 in file "Proyecto1_master.c"
 10926 ;; Parameters:    Size  Location     Type
 10927 ;;		None
 10928 ;; Auto vars:     Size  Location     Type
 10929 ;;		None
 10930 ;; Return value:  Size  Location     Type
 10931 ;;                  1    wreg      void 
 10932 ;; Registers used:
 10933 ;;		wreg, status,2, status,0, pclath, cstack
 10934 ;; Tracked objects:
 10935 ;;		On entry : 0/0
 10936 ;;		On exit  : 0/0
 10937 ;;		Unchanged: 0/0
 10938 ;; Data sizes:     COMMON   BANK0   BANK1   BANK3   BANK2
 10939 ;;      Params:         0       0       0       0       0
 10940 ;;      Locals:         0       0       0       0       0
 10941 ;;      Temps:          0       0       0       0       0
 10942 ;;      Totals:         0       0       0       0       0
 10943 ;;Total ram usage:        0 bytes
 10944 ;; Hardware stack levels used:    1
 10945 ;; Hardware stack levels required when called:    6
 10946 ;; This function calls:
 10947 ;;		_DEC_2_BCD
 10948 ;;		_I2C_Master_Start
 10949 ;;		_I2C_Master_Stop
 10950 ;;		_I2C_Master_Write
 10951 ;; This function is called by:
 10952 ;;		_main
 10953 ;; This function uses a non-reentrant model
 10954 ;;
 10955                           psect	text35,local,class=CODE,delta=2,merge=1,group=0
 10956                           	file	"Proyecto1_master.c"
 10957                           	line	309
 10958                           global __ptext35
 10959                           __ptext35:	;psect for function _Set_Time_Date
 10960  0C73                     psect	text35
 10961                           	file	"Proyecto1_master.c"
 10962                           	line	309
 10963                           	global	__size_of_Set_Time_Date
 10964                           	__size_of_Set_Time_Date	equ	__end_of_Set_Time_Date-_Set_Time_Date
 10965  00C1                     	
 10966                           _Set_Time_Date:	
 10967  0C73                     ;incstack = 0
 10968                           	opt	stack 1
 10969                           ; Regs used in _Set_Time_Date: [wreg+status,2+status,0+pclath+cstack]
 10970                           	line	310
 10971                           	
 10972                           l2920:	
 10973  0C73                     ;Proyecto1_master.c: 310:     I2C_Master_Start();
 10974                           	fcall	_I2C_Master_Start
 10975  0C73  160A  118A  22BD  120A  158A  	line	311
 10976                           ;Proyecto1_master.c: 311:     I2C_Master_Write(0xD0);
 10977                           	movlw	0D0h
 10978  0C78  30D0               	bcf	status, 5	;RP0=0, select bank0
 10979  0C79  1283               	bcf	status, 6	;RP1=0, select bank0
 10980  0C7A  1303               	movwf	(I2C_Master_Write@d)
 10981  0C7B  00AD               	movlw	0
 10982  0C7C  3000               	movwf	((I2C_Master_Write@d))+1
 10983  0C7D  00AE               	fcall	_I2C_Master_Write
 10984  0C7E  160A  118A  22CF  120A  158A  	line	312
 10985                           ;Proyecto1_master.c: 312:     I2C_Master_Write(0);
 10986                           	movlw	0
 10987  0C83  3000               	bcf	status, 5	;RP0=0, select bank0
 10988  0C84  1283               	bcf	status, 6	;RP1=0, select bank0
 10989  0C85  1303               	movwf	(I2C_Master_Write@d)
 10990  0C86  00AD               	movwf	(I2C_Master_Write@d+1)
 10991  0C87  00AE               	fcall	_I2C_Master_Write
 10992  0C88  160A  118A  22CF  120A  158A  	line	313
 10993                           ;Proyecto1_master.c: 313:     I2C_Master_Write(DEC_2_BCD(sec));
 10994                           	bcf	status, 5	;RP0=0, select bank0
 10995  0C8D  1283               	bcf	status, 6	;RP1=0, select bank0
 10996  0C8E  1303               	movf	(_sec+1),w
 10997  0C8F  086F               	movwf	(DEC_2_BCD@to_convert+1)
 10998  0C90  00AA               	movf	(_sec),w
 10999  0C91  086E               	movwf	(DEC_2_BCD@to_convert)
 11000  0C92  00A9               	fcall	_DEC_2_BCD
 11001  0C93  160A  118A  24FE  120A  158A  	bcf	status, 5	;RP0=0, select bank0
 11002  0C98  1283               	bcf	status, 6	;RP1=0, select bank0
 11003  0C99  1303               	movf	(1+(?_DEC_2_BCD)),w
 11004  0C9A  082A               	movwf	(I2C_Master_Write@d+1)
 11005  0C9B  00AE               	movf	(0+(?_DEC_2_BCD)),w
 11006  0C9C  0829               	movwf	(I2C_Master_Write@d)
 11007  0C9D  00AD               	fcall	_I2C_Master_Write
 11008  0C9E  160A  118A  22CF  120A  158A  	line	314
 11009                           ;Proyecto1_master.c: 314:     I2C_Master_Write(DEC_2_BCD(min));
 11010                           	movf	(_min+1),w
 11011  0CA3  087C               	bcf	status, 5	;RP0=0, select bank0
 11012  0CA4  1283               	bcf	status, 6	;RP1=0, select bank0
 11013  0CA5  1303               	movwf	(DEC_2_BCD@to_convert+1)
 11014  0CA6  00AA               	movf	(_min),w
 11015  0CA7  087B               	movwf	(DEC_2_BCD@to_convert)
 11016  0CA8  00A9               	fcall	_DEC_2_BCD
 11017  0CA9  160A  118A  24FE  120A  158A  	bcf	status, 5	;RP0=0, select bank0
 11018  0CAE  1283               	bcf	status, 6	;RP1=0, select bank0
 11019  0CAF  1303               	movf	(1+(?_DEC_2_BCD)),w
 11020  0CB0  082A               	movwf	(I2C_Master_Write@d+1)
 11021  0CB1  00AE               	movf	(0+(?_DEC_2_BCD)),w
 11022  0CB2  0829               	movwf	(I2C_Master_Write@d)
 11023  0CB3  00AD               	fcall	_I2C_Master_Write
 11024  0CB4  160A  118A  22CF  120A  158A  	line	315
 11025                           ;Proyecto1_master.c: 315:     I2C_Master_Write(DEC_2_BCD(hour));
 11026                           	movf	(_hour+1),w
 11027  0CB9  087A               	bcf	status, 5	;RP0=0, select bank0
 11028  0CBA  1283               	bcf	status, 6	;RP1=0, select bank0
 11029  0CBB  1303               	movwf	(DEC_2_BCD@to_convert+1)
 11030  0CBC  00AA               	movf	(_hour),w
 11031  0CBD  0879               	movwf	(DEC_2_BCD@to_convert)
 11032  0CBE  00A9               	fcall	_DEC_2_BCD
 11033  0CBF  160A  118A  24FE  120A  158A  	bcf	status, 5	;RP0=0, select bank0
 11034  0CC4  1283               	bcf	status, 6	;RP1=0, select bank0
 11035  0CC5  1303               	movf	(1+(?_DEC_2_BCD)),w
 11036  0CC6  082A               	movwf	(I2C_Master_Write@d+1)
 11037  0CC7  00AE               	movf	(0+(?_DEC_2_BCD)),w
 11038  0CC8  0829               	movwf	(I2C_Master_Write@d)
 11039  0CC9  00AD               	fcall	_I2C_Master_Write
 11040  0CCA  160A  118A  22CF  120A  158A  	line	316
 11041                           ;Proyecto1_master.c: 316:     I2C_Master_Write(1);
 11042                           	movlw	01h
 11043  0CCF  3001               	bcf	status, 5	;RP0=0, select bank0
 11044  0CD0  1283               	bcf	status, 6	;RP1=0, select bank0
 11045  0CD1  1303               	movwf	(I2C_Master_Write@d)
 11046  0CD2  00AD               	movlw	0
 11047  0CD3  3000               	movwf	((I2C_Master_Write@d))+1
 11048  0CD4  00AE               	fcall	_I2C_Master_Write
 11049  0CD5  160A  118A  22CF  120A  158A  	line	317
 11050                           ;Proyecto1_master.c: 317:     I2C_Master_Write(DEC_2_BCD(date));
 11051                           	bsf	status, 5	;RP0=1, select bank1
 11052  0CDA  1683               	bcf	status, 6	;RP1=0, select bank1
 11053  0CDB  1303               	movf	(_date+1)^080h,w
 11054  0CDC  0844               	bcf	status, 5	;RP0=0, select bank0
 11055  0CDD  1283               	bcf	status, 6	;RP1=0, select bank0
 11056  0CDE  1303               	movwf	(DEC_2_BCD@to_convert+1)
 11057  0CDF  00AA               	bsf	status, 5	;RP0=1, select bank1
 11058  0CE0  1683               	bcf	status, 6	;RP1=0, select bank1
 11059  0CE1  1303               	movf	(_date)^080h,w
 11060  0CE2  0843               	bcf	status, 5	;RP0=0, select bank0
 11061  0CE3  1283               	bcf	status, 6	;RP1=0, select bank0
 11062  0CE4  1303               	movwf	(DEC_2_BCD@to_convert)
 11063  0CE5  00A9               	fcall	_DEC_2_BCD
 11064  0CE6  160A  118A  24FE  120A  158A  	bcf	status, 5	;RP0=0, select bank0
 11065  0CEB  1283               	bcf	status, 6	;RP1=0, select bank0
 11066  0CEC  1303               	movf	(1+(?_DEC_2_BCD)),w
 11067  0CED  082A               	movwf	(I2C_Master_Write@d+1)
 11068  0CEE  00AE               	movf	(0+(?_DEC_2_BCD)),w
 11069  0CEF  0829               	movwf	(I2C_Master_Write@d)
 11070  0CF0  00AD               	fcall	_I2C_Master_Write
 11071  0CF1  160A  118A  22CF  120A  158A  	line	318
 11072                           ;Proyecto1_master.c: 318:     I2C_Master_Write(DEC_2_BCD(month));
 11073                           	bsf	status, 5	;RP0=1, select bank1
 11074  0CF6  1683               	bcf	status, 6	;RP1=0, select bank1
 11075  0CF7  1303               	movf	(_month+1)^080h,w
 11076  0CF8  0840               	bcf	status, 5	;RP0=0, select bank0
 11077  0CF9  1283               	bcf	status, 6	;RP1=0, select bank0
 11078  0CFA  1303               	movwf	(DEC_2_BCD@to_convert+1)
 11079  0CFB  00AA               	bsf	status, 5	;RP0=1, select bank1
 11080  0CFC  1683               	bcf	status, 6	;RP1=0, select bank1
 11081  0CFD  1303               	movf	(_month)^080h,w
 11082  0CFE  083F               	bcf	status, 5	;RP0=0, select bank0
 11083  0CFF  1283               	bcf	status, 6	;RP1=0, select bank0
 11084  0D00  1303               	movwf	(DEC_2_BCD@to_convert)
 11085  0D01  00A9               	fcall	_DEC_2_BCD
 11086  0D02  160A  118A  24FE  120A  158A  	bcf	status, 5	;RP0=0, select bank0
 11087  0D07  1283               	bcf	status, 6	;RP1=0, select bank0
 11088  0D08  1303               	movf	(1+(?_DEC_2_BCD)),w
 11089  0D09  082A               	movwf	(I2C_Master_Write@d+1)
 11090  0D0A  00AE               	movf	(0+(?_DEC_2_BCD)),w
 11091  0D0B  0829               	movwf	(I2C_Master_Write@d)
 11092  0D0C  00AD               	fcall	_I2C_Master_Write
 11093  0D0D  160A  118A  22CF  120A  158A  	line	319
 11094                           ;Proyecto1_master.c: 319:     I2C_Master_Write(DEC_2_BCD(year));
 11095                           	bsf	status, 5	;RP0=1, select bank1
 11096  0D12  1683               	bcf	status, 6	;RP1=0, select bank1
 11097  0D13  1303               	movf	(_year+1)^080h,w
 11098  0D14  083E               	bcf	status, 5	;RP0=0, select bank0
 11099  0D15  1283               	bcf	status, 6	;RP1=0, select bank0
 11100  0D16  1303               	movwf	(DEC_2_BCD@to_convert+1)
 11101  0D17  00AA               	bsf	status, 5	;RP0=1, select bank1
 11102  0D18  1683               	bcf	status, 6	;RP1=0, select bank1
 11103  0D19  1303               	movf	(_year)^080h,w
 11104  0D1A  083D               	bcf	status, 5	;RP0=0, select bank0
 11105  0D1B  1283               	bcf	status, 6	;RP1=0, select bank0
 11106  0D1C  1303               	movwf	(DEC_2_BCD@to_convert)
 11107  0D1D  00A9               	fcall	_DEC_2_BCD
 11108  0D1E  160A  118A  24FE  120A  158A  	bcf	status, 5	;RP0=0, select bank0
 11109  0D23  1283               	bcf	status, 6	;RP1=0, select bank0
 11110  0D24  1303               	movf	(1+(?_DEC_2_BCD)),w
 11111  0D25  082A               	movwf	(I2C_Master_Write@d+1)
 11112  0D26  00AE               	movf	(0+(?_DEC_2_BCD)),w
 11113  0D27  0829               	movwf	(I2C_Master_Write@d)
 11114  0D28  00AD               	fcall	_I2C_Master_Write
 11115  0D29  160A  118A  22CF  120A  158A  	line	320
 11116                           ;Proyecto1_master.c: 320:     I2C_Master_Stop();
 11117                           	fcall	_I2C_Master_Stop
 11118  0D2E  160A  118A  22C6  120A  158A  	line	322
 11119                           	
 11120                           l214:	
 11121  0D33                     	return
 11122  0D33  0008               	opt stack 0
 11123                           GLOBAL	__end_of_Set_Time_Date
 11124                           	__end_of_Set_Time_Date:
 11125  0D34                     	signat	_Set_Time_Date,89
 11126                           	global	_I2C_Master_Write
 11127                           
 11128 ;; *************** function _I2C_Master_Write *****************
 11129 ;; Defined at:
 11130 ;;		line 62 in file "I2C.c"
 11131 ;; Parameters:    Size  Location     Type
 11132 ;;  d               2   13[BANK0 ] unsigned int 
 11133 ;; Auto vars:     Size  Location     Type
 11134 ;;		None
 11135 ;; Return value:  Size  Location     Type
 11136 ;;                  1    wreg      void 
 11137 ;; Registers used:
 11138 ;;		wreg, status,2, status,0, pclath, cstack
 11139 ;; Tracked objects:
 11140 ;;		On entry : 0/0
 11141 ;;		On exit  : 0/0
 11142 ;;		Unchanged: 0/0
 11143 ;; Data sizes:     COMMON   BANK0   BANK1   BANK3   BANK2
 11144 ;;      Params:         0       2       0       0       0
 11145 ;;      Locals:         0       0       0       0       0
 11146 ;;      Temps:          0       0       0       0       0
 11147 ;;      Totals:         0       2       0       0       0
 11148 ;;Total ram usage:        2 bytes
 11149 ;; Hardware stack levels used:    1
 11150 ;; Hardware stack levels required when called:    5
 11151 ;; This function calls:
 11152 ;;		_I2C_Master_Wait
 11153 ;; This function is called by:
 11154 ;;		_Set_Time_Date
 11155 ;;		_Update_Current_Date_Time
 11156 ;;		_slave_1
 11157 ;;		_slave_2
 11158 ;; This function uses a non-reentrant model
 11159 ;;
 11160                           psect	text36,local,class=CODE,delta=2,merge=1,group=0
 11161                           	file	"I2C.c"
 11162                           	line	62
 11163                           global __ptext36
 11164                           __ptext36:	;psect for function _I2C_Master_Write
 11165  12CF                     psect	text36
 11166                           	file	"I2C.c"
 11167                           	line	62
 11168                           	global	__size_of_I2C_Master_Write
 11169                           	__size_of_I2C_Master_Write	equ	__end_of_I2C_Master_Write-_I2C_Master_Write
 11170  000A                     	
 11171                           _I2C_Master_Write:	
 11172  12CF                     ;incstack = 0
 11173                           	opt	stack 0
 11174                           ; Regs used in _I2C_Master_Write: [wreg+status,2+status,0+pclath+cstack]
 11175                           	line	64
 11176                           	
 11177                           l2652:	
 11178  12CF                     ;I2C.c: 62: void I2C_Master_Write(unsigned d);I2C.c: 63: {;I2C.c: 64:     I2C_Master_Wai
                                 t();
 11179                           	fcall	_I2C_Master_Wait
 11180  12CF  160A  118A  22D9  160A  118A  	line	65
 11181                           	
 11182                           l2654:	
 11183  12D4                     ;I2C.c: 65:     SSPBUF = d;
 11184                           	bcf	status, 5	;RP0=0, select bank0
 11185  12D4  1283               	bcf	status, 6	;RP1=0, select bank0
 11186  12D5  1303               	movf	(I2C_Master_Write@d),w
 11187  12D6  082D               	movwf	(19)	;volatile
 11188  12D7  0093               	line	66
 11189                           	
 11190                           l332:	
 11191  12D8                     	return
 11192  12D8  0008               	opt stack 0
 11193                           GLOBAL	__end_of_I2C_Master_Write
 11194                           	__end_of_I2C_Master_Write:
 11195  12D9                     	signat	_I2C_Master_Write,4217
 11196                           	global	_I2C_Master_Stop
 11197                           
 11198 ;; *************** function _I2C_Master_Stop *****************
 11199 ;; Defined at:
 11200 ;;		line 52 in file "I2C.c"
 11201 ;; Parameters:    Size  Location     Type
 11202 ;;		None
 11203 ;; Auto vars:     Size  Location     Type
 11204 ;;		None
 11205 ;; Return value:  Size  Location     Type
 11206 ;;                  1    wreg      void 
 11207 ;; Registers used:
 11208 ;;		wreg, status,2, status,0, pclath, cstack
 11209 ;; Tracked objects:
 11210 ;;		On entry : 0/0
 11211 ;;		On exit  : 0/0
 11212 ;;		Unchanged: 0/0
 11213 ;; Data sizes:     COMMON   BANK0   BANK1   BANK3   BANK2
 11214 ;;      Params:         0       0       0       0       0
 11215 ;;      Locals:         0       0       0       0       0
 11216 ;;      Temps:          0       0       0       0       0
 11217 ;;      Totals:         0       0       0       0       0
 11218 ;;Total ram usage:        0 bytes
 11219 ;; Hardware stack levels used:    1
 11220 ;; Hardware stack levels required when called:    5
 11221 ;; This function calls:
 11222 ;;		_I2C_Master_Wait
 11223 ;; This function is called by:
 11224 ;;		_Set_Time_Date
 11225 ;;		_Update_Current_Date_Time
 11226 ;;		_slave_1
 11227 ;;		_slave_2
 11228 ;; This function uses a non-reentrant model
 11229 ;;
 11230                           psect	text37,local,class=CODE,delta=2,merge=1,group=0
 11231                           	line	52
 11232                           global __ptext37
 11233                           __ptext37:	;psect for function _I2C_Master_Stop
 11234  12C6                     psect	text37
 11235                           	file	"I2C.c"
 11236                           	line	52
 11237                           	global	__size_of_I2C_Master_Stop
 11238                           	__size_of_I2C_Master_Stop	equ	__end_of_I2C_Master_Stop-_I2C_Master_Stop
 11239  0009                     	
 11240                           _I2C_Master_Stop:	
 11241  12C6                     ;incstack = 0
 11242                           	opt	stack 0
 11243                           ; Regs used in _I2C_Master_Stop: [wreg+status,2+status,0+pclath+cstack]
 11244                           	line	54
 11245                           	
 11246                           l2656:	
 11247  12C6                     ;I2C.c: 54:     I2C_Master_Wait();
 11248                           	fcall	_I2C_Master_Wait
 11249  12C6  160A  118A  22D9  160A  118A  	line	55
 11250                           	
 11251                           l2658:	
 11252  12CB                     ;I2C.c: 55:     SSPCON2bits.PEN = 1;
 11253                           	bsf	status, 5	;RP0=1, select bank1
 11254  12CB  1683               	bcf	status, 6	;RP1=0, select bank1
 11255  12CC  1303               	bsf	(145)^080h,2	;volatile
 11256  12CD  1511               	line	56
 11257                           	
 11258                           l329:	
 11259  12CE                     	return
 11260  12CE  0008               	opt stack 0
 11261                           GLOBAL	__end_of_I2C_Master_Stop
 11262                           	__end_of_I2C_Master_Stop:
 11263  12CF                     	signat	_I2C_Master_Stop,89
 11264                           	global	_I2C_Master_Start
 11265                           
 11266 ;; *************** function _I2C_Master_Start *****************
 11267 ;; Defined at:
 11268 ;;		line 36 in file "I2C.c"
 11269 ;; Parameters:    Size  Location     Type
 11270 ;;		None
 11271 ;; Auto vars:     Size  Location     Type
 11272 ;;		None
 11273 ;; Return value:  Size  Location     Type
 11274 ;;                  1    wreg      void 
 11275 ;; Registers used:
 11276 ;;		wreg, status,2, status,0, pclath, cstack
 11277 ;; Tracked objects:
 11278 ;;		On entry : 0/0
 11279 ;;		On exit  : 0/0
 11280 ;;		Unchanged: 0/0
 11281 ;; Data sizes:     COMMON   BANK0   BANK1   BANK3   BANK2
 11282 ;;      Params:         0       0       0       0       0
 11283 ;;      Locals:         0       0       0       0       0
 11284 ;;      Temps:          0       0       0       0       0
 11285 ;;      Totals:         0       0       0       0       0
 11286 ;;Total ram usage:        0 bytes
 11287 ;; Hardware stack levels used:    1
 11288 ;; Hardware stack levels required when called:    5
 11289 ;; This function calls:
 11290 ;;		_I2C_Master_Wait
 11291 ;; This function is called by:
 11292 ;;		_Set_Time_Date
 11293 ;;		_Update_Current_Date_Time
 11294 ;;		_slave_1
 11295 ;;		_slave_2
 11296 ;; This function uses a non-reentrant model
 11297 ;;
 11298                           psect	text38,local,class=CODE,delta=2,merge=1,group=0
 11299                           	line	36
 11300                           global __ptext38
 11301                           __ptext38:	;psect for function _I2C_Master_Start
 11302  12BD                     psect	text38
 11303                           	file	"I2C.c"
 11304                           	line	36
 11305                           	global	__size_of_I2C_Master_Start
 11306                           	__size_of_I2C_Master_Start	equ	__end_of_I2C_Master_Start-_I2C_Master_Start
 11307  0009                     	
 11308                           _I2C_Master_Start:	
 11309  12BD                     ;incstack = 0
 11310                           	opt	stack 0
 11311                           ; Regs used in _I2C_Master_Start: [wreg+status,2+status,0+pclath+cstack]
 11312                           	line	38
 11313                           	
 11314                           l2648:	
 11315  12BD                     ;I2C.c: 38:     I2C_Master_Wait();
 11316                           	fcall	_I2C_Master_Wait
 11317  12BD  160A  118A  22D9  160A  118A  	line	39
 11318                           	
 11319                           l2650:	
 11320  12C2                     ;I2C.c: 39:     SSPCON2bits.SEN = 1;
 11321                           	bsf	status, 5	;RP0=1, select bank1
 11322  12C2  1683               	bcf	status, 6	;RP1=0, select bank1
 11323  12C3  1303               	bsf	(145)^080h,0	;volatile
 11324  12C4  1411               	line	40
 11325                           	
 11326                           l323:	
 11327  12C5                     	return
 11328  12C5  0008               	opt stack 0
 11329                           GLOBAL	__end_of_I2C_Master_Start
 11330                           	__end_of_I2C_Master_Start:
 11331  12C6                     	signat	_I2C_Master_Start,89
 11332                           	global	_I2C_Master_Wait
 11333                           
 11334 ;; *************** function _I2C_Master_Wait *****************
 11335 ;; Defined at:
 11336 ;;		line 29 in file "I2C.c"
 11337 ;; Parameters:    Size  Location     Type
 11338 ;;		None
 11339 ;; Auto vars:     Size  Location     Type
 11340 ;;		None
 11341 ;; Return value:  Size  Location     Type
 11342 ;;                  1    wreg      void 
 11343 ;; Registers used:
 11344 ;;		wreg, status,2
 11345 ;; Tracked objects:
 11346 ;;		On entry : 0/0
 11347 ;;		On exit  : 0/0
 11348 ;;		Unchanged: 0/0
 11349 ;; Data sizes:     COMMON   BANK0   BANK1   BANK3   BANK2
 11350 ;;      Params:         0       0       0       0       0
 11351 ;;      Locals:         0       0       0       0       0
 11352 ;;      Temps:          0       0       0       0       0
 11353 ;;      Totals:         0       0       0       0       0
 11354 ;;Total ram usage:        0 bytes
 11355 ;; Hardware stack levels used:    1
 11356 ;; Hardware stack levels required when called:    4
 11357 ;; This function calls:
 11358 ;;		Nothing
 11359 ;; This function is called by:
 11360 ;;		_I2C_Master_Start
 11361 ;;		_I2C_Master_Stop
 11362 ;;		_I2C_Master_Write
 11363 ;;		_I2C_Master_Read
 11364 ;;		_I2C_Master_RepeatedStart
 11365 ;; This function uses a non-reentrant model
 11366 ;;
 11367                           psect	text39,local,class=CODE,delta=2,merge=1,group=0
 11368                           	line	29
 11369                           global __ptext39
 11370                           __ptext39:	;psect for function _I2C_Master_Wait
 11371  12D9                     psect	text39
 11372                           	file	"I2C.c"
 11373                           	line	29
 11374                           	global	__size_of_I2C_Master_Wait
 11375                           	__size_of_I2C_Master_Wait	equ	__end_of_I2C_Master_Wait-_I2C_Master_Wait
 11376  000F                     	
 11377                           _I2C_Master_Wait:	
 11378  12D9                     ;incstack = 0
 11379                           	opt	stack 0
 11380                           ; Regs used in _I2C_Master_Wait: [wreg+status,2]
 11381                           	line	31
 11382                           	
 11383                           l2120:	
 11384  12D9                     ;I2C.c: 31:     while ((SSPSTAT & 0x04) || (SSPCON2 & 0x1F));
 11385                           	goto	l317
 11386  12D9  2ADA               	
 11387                           l318:	
 11388  12DA                     	
 11389                           l317:	
 11390  12DA                     	bsf	status, 5	;RP0=1, select bank1
 11391  12DA  1683               	bcf	status, 6	;RP1=0, select bank1
 11392  12DB  1303               	btfsc	(148)^080h,(2)&7	;volatile
 11393  12DC  1914               	goto	u1921
 11394  12DD  2ADF               	goto	u1920
 11395  12DE  2AE0               u1921:
 11396  12DF                     	goto	l317
 11397  12DF  2ADA               u1920:
 11398  12E0                     	
 11399                           l2122:	
 11400  12E0                     	movf	(145)^080h,w	;volatile
 11401  12E0  0811               	andlw	01Fh
 11402  12E1  391F               	btfss	status,2
 11403  12E2  1D03               	goto	u1931
 11404  12E3  2AE5               	goto	u1930
 11405  12E4  2AE6               u1931:
 11406  12E5                     	goto	l317
 11407  12E5  2ADA               u1930:
 11408  12E6                     	goto	l320
 11409  12E6  2AE7               	
 11410                           l319:	
 11411  12E7                     	line	32
 11412                           	
 11413                           l320:	
 11414  12E7                     	return
 11415  12E7  0008               	opt stack 0
 11416                           GLOBAL	__end_of_I2C_Master_Wait
 11417                           	__end_of_I2C_Master_Wait:
 11418  12E8                     	signat	_I2C_Master_Wait,89
 11419                           	global	_DEC_2_BCD
 11420                           
 11421 ;; *************** function _DEC_2_BCD *****************
 11422 ;; Defined at:
 11423 ;;		line 303 in file "Proyecto1_master.c"
 11424 ;; Parameters:    Size  Location     Type
 11425 ;;  to_convert      2    9[BANK0 ] int 
 11426 ;; Auto vars:     Size  Location     Type
 11427 ;;		None
 11428 ;; Return value:  Size  Location     Type
 11429 ;;                  2    9[BANK0 ] int 
 11430 ;; Registers used:
 11431 ;;		wreg, status,2, status,0, pclath, cstack
 11432 ;; Tracked objects:
 11433 ;;		On entry : 0/0
 11434 ;;		On exit  : 0/0
 11435 ;;		Unchanged: 0/0
 11436 ;; Data sizes:     COMMON   BANK0   BANK1   BANK3   BANK2
 11437 ;;      Params:         0       2       0       0       0
 11438 ;;      Locals:         0       0       0       0       0
 11439 ;;      Temps:          0       2       0       0       0
 11440 ;;      Totals:         0       4       0       0       0
 11441 ;;Total ram usage:        4 bytes
 11442 ;; Hardware stack levels used:    1
 11443 ;; Hardware stack levels required when called:    5
 11444 ;; This function calls:
 11445 ;;		___awdiv
 11446 ;;		___awmod
 11447 ;; This function is called by:
 11448 ;;		_Set_Time_Date
 11449 ;; This function uses a non-reentrant model
 11450 ;;
 11451                           psect	text40,local,class=CODE,delta=2,merge=1,group=0
 11452                           	file	"Proyecto1_master.c"
 11453                           	line	303
 11454                           global __ptext40
 11455                           __ptext40:	;psect for function _DEC_2_BCD
 11456  14FE                     psect	text40
 11457                           	file	"Proyecto1_master.c"
 11458                           	line	303
 11459                           	global	__size_of_DEC_2_BCD
 11460                           	__size_of_DEC_2_BCD	equ	__end_of_DEC_2_BCD-_DEC_2_BCD
 11461  0037                     	
 11462                           _DEC_2_BCD:	
 11463  14FE                     ;incstack = 0
 11464                           	opt	stack 1
 11465                           ; Regs used in _DEC_2_BCD: [wreg+status,2+status,0+pclath+cstack]
 11466                           	line	304
 11467                           	
 11468                           l2826:	
 11469  14FE                     ;Proyecto1_master.c: 304:    return ((to_convert / 10) << 4) + (to_convert % 10);
 11470                           	movlw	0Ah
 11471  14FE  300A               	bcf	status, 5	;RP0=0, select bank0
 11472  14FF  1283               	bcf	status, 6	;RP1=0, select bank0
 11473  1500  1303               	movwf	(___awdiv@divisor)
 11474  1501  00A0               	movlw	0
 11475  1502  3000               	movwf	((___awdiv@divisor))+1
 11476  1503  00A1               	movf	(DEC_2_BCD@to_convert+1),w
 11477  1504  082A               	movwf	(___awdiv@dividend+1)
 11478  1505  00A3               	movf	(DEC_2_BCD@to_convert),w
 11479  1506  0829               	movwf	(___awdiv@dividend)
 11480  1507  00A2               	fcall	___awdiv
 11481  1508  120A  158A  2029  160A  118A  	bcf	status, 5	;RP0=0, select bank0
 11482  150D  1283               	bcf	status, 6	;RP1=0, select bank0
 11483  150E  1303               	movf	(0+?___awdiv),w
 11484  150F  0820               	movwf	(??_DEC_2_BCD+0)+0
 11485  1510  00AB               	movf	(1+?___awdiv),w
 11486  1511  0821               	movwf	((??_DEC_2_BCD+0)+0+1)
 11487  1512  00AC               	swapf	(??_DEC_2_BCD+0)+0,f
 11488  1513  0EAB               	swapf	(??_DEC_2_BCD+0)+1,f
 11489  1514  0EAC               	movlw	0f0h
 11490  1515  30F0               	andwf	(??_DEC_2_BCD+0)+1,f
 11491  1516  05AC               	movf	(??_DEC_2_BCD+0)+0,w
 11492  1517  082B               	andlw	0fh
 11493  1518  390F               	iorwf	(??_DEC_2_BCD+0)+1,f
 11494  1519  04AC               	movlw	0f0h
 11495  151A  30F0               	andwf	(??_DEC_2_BCD+0)+0,f
 11496  151B  05AB               	movlw	0Ah
 11497  151C  300A               	movwf	(___awmod@divisor)
 11498  151D  00A0               	movlw	0
 11499  151E  3000               	movwf	((___awmod@divisor))+1
 11500  151F  00A1               	movf	(DEC_2_BCD@to_convert+1),w
 11501  1520  082A               	movwf	(___awmod@dividend+1)
 11502  1521  00A3               	movf	(DEC_2_BCD@to_convert),w
 11503  1522  0829               	movwf	(___awmod@dividend)
 11504  1523  00A2               	fcall	___awmod
 11505  1524  160A  118A  272C  160A  118A  	bcf	status, 5	;RP0=0, select bank0
 11506  1529  1283               	bcf	status, 6	;RP1=0, select bank0
 11507  152A  1303               	movf	(0+(?___awmod)),w
 11508  152B  0820               	addwf	0+(??_DEC_2_BCD+0)+0,w
 11509  152C  072B               	movwf	(?_DEC_2_BCD)
 11510  152D  00A9               	movf	(1+(?___awmod)),w
 11511  152E  0821               	skipnc
 11512  152F  1803               	incf	(1+(?___awmod)),w
 11513  1530  0A21               	addwf	1+(??_DEC_2_BCD+0)+0,w
 11514  1531  072C               	movwf	1+(?_DEC_2_BCD)
 11515  1532  00AA               	goto	l211
 11516  1533  2D34               	
 11517                           l2828:	
 11518  1534                     	line	305
 11519                           	
 11520                           l211:	
 11521  1534                     	return
 11522  1534  0008               	opt stack 0
 11523                           GLOBAL	__end_of_DEC_2_BCD
 11524                           	__end_of_DEC_2_BCD:
 11525  1535                     	signat	_DEC_2_BCD,4218
 11526                           	global	___awmod
 11527                           
 11528 ;; *************** function ___awmod *****************
 11529 ;; Defined at:
 11530 ;;		line 5 in file "C:\Program Files (x86)\Microchip\xc8\v2.00\pic\sources\c90\common\awmod.c"
 11531 ;; Parameters:    Size  Location     Type
 11532 ;;  divisor         2    0[BANK0 ] int 
 11533 ;;  dividend        2    2[BANK0 ] int 
 11534 ;; Auto vars:     Size  Location     Type
 11535 ;;  sign            1    6[BANK0 ] unsigned char 
 11536 ;;  counter         1    5[BANK0 ] unsigned char 
 11537 ;; Return value:  Size  Location     Type
 11538 ;;                  2    0[BANK0 ] int 
 11539 ;; Registers used:
 11540 ;;		wreg, status,2, status,0
 11541 ;; Tracked objects:
 11542 ;;		On entry : 0/0
 11543 ;;		On exit  : 0/0
 11544 ;;		Unchanged: 0/0
 11545 ;; Data sizes:     COMMON   BANK0   BANK1   BANK3   BANK2
 11546 ;;      Params:         0       4       0       0       0
 11547 ;;      Locals:         0       2       0       0       0
 11548 ;;      Temps:          0       1       0       0       0
 11549 ;;      Totals:         0       7       0       0       0
 11550 ;;Total ram usage:        7 bytes
 11551 ;; Hardware stack levels used:    1
 11552 ;; Hardware stack levels required when called:    4
 11553 ;; This function calls:
 11554 ;;		Nothing
 11555 ;; This function is called by:
 11556 ;;		_separa_digitos_rtc
 11557 ;;		_DEC_2_BCD
 11558 ;; This function uses a non-reentrant model
 11559 ;;
 11560                           psect	text41,local,class=CODE,delta=2,merge=1,group=1
 11561                           	file	"C:\Program Files (x86)\Microchip\xc8\v2.00\pic\sources\c90\common\awmod.c"
 11562                           	line	5
 11563                           global __ptext41
 11564                           __ptext41:	;psect for function ___awmod
 11565  172C                     psect	text41
 11566                           	file	"C:\Program Files (x86)\Microchip\xc8\v2.00\pic\sources\c90\common\awmod.c"
 11567                           	line	5
 11568                           	global	__size_of___awmod
 11569                           	__size_of___awmod	equ	__end_of___awmod-___awmod
 11570  0065                     	
 11571                           ___awmod:	
 11572  172C                     ;incstack = 0
 11573                           	opt	stack 1
 11574                           ; Regs used in ___awmod: [wreg+status,2+status,0]
 11575                           	line	12
 11576                           	
 11577                           l2706:	
 11578  172C                     	bcf	status, 5	;RP0=0, select bank0
 11579  172C  1283               	bcf	status, 6	;RP1=0, select bank0
 11580  172D  1303               	clrf	(___awmod@sign)
 11581  172E  01A6               	line	13
 11582                           	
 11583                           l2708:	
 11584  172F                     	btfss	(___awmod@dividend+1),7
 11585  172F  1FA3               	goto	u3161
 11586  1730  2F32               	goto	u3160
 11587  1731  2F33               u3161:
 11588  1732                     	goto	l2714
 11589  1732  2F3B               u3160:
 11590  1733                     	line	14
 11591                           	
 11592                           l2710:	
 11593  1733                     	comf	(___awmod@dividend),f
 11594  1733  09A2               	comf	(___awmod@dividend+1),f
 11595  1734  09A3               	incf	(___awmod@dividend),f
 11596  1735  0AA2               	skipnz
 11597  1736  1903               	incf	(___awmod@dividend+1),f
 11598  1737  0AA3               	line	15
 11599                           	
 11600                           l2712:	
 11601  1738                     	clrf	(___awmod@sign)
 11602  1738  01A6               	incf	(___awmod@sign),f
 11603  1739  0AA6               	goto	l2714
 11604  173A  2F3B               	line	16
 11605                           	
 11606                           l653:	
 11607  173B                     	line	17
 11608                           	
 11609                           l2714:	
 11610  173B                     	btfss	(___awmod@divisor+1),7
 11611  173B  1FA1               	goto	u3171
 11612  173C  2F3E               	goto	u3170
 11613  173D  2F3F               u3171:
 11614  173E                     	goto	l2718
 11615  173E  2F45               u3170:
 11616  173F                     	line	18
 11617                           	
 11618                           l2716:	
 11619  173F                     	comf	(___awmod@divisor),f
 11620  173F  09A0               	comf	(___awmod@divisor+1),f
 11621  1740  09A1               	incf	(___awmod@divisor),f
 11622  1741  0AA0               	skipnz
 11623  1742  1903               	incf	(___awmod@divisor+1),f
 11624  1743  0AA1               	goto	l2718
 11625  1744  2F45               	
 11626                           l654:	
 11627  1745                     	line	19
 11628                           	
 11629                           l2718:	
 11630  1745                     	movf	((___awmod@divisor)),w
 11631  1745  0820               iorwf	((___awmod@divisor+1)),w
 11632  1746  0421               	btfsc	status,2
 11633  1747  1903               	goto	u3181
 11634  1748  2F4A               	goto	u3180
 11635  1749  2F4B               u3181:
 11636  174A                     	goto	l2736
 11637  174A  2F80               u3180:
 11638  174B                     	line	20
 11639                           	
 11640                           l2720:	
 11641  174B                     	clrf	(___awmod@counter)
 11642  174B  01A5               	incf	(___awmod@counter),f
 11643  174C  0AA5               	line	21
 11644                           	goto	l2726
 11645  174D  2F5A               	
 11646                           l657:	
 11647  174E                     	line	22
 11648                           	
 11649                           l2722:	
 11650  174E                     	movlw	01h
 11651  174E  3001               	
 11652                           u3195:
 11653  174F                     	clrc
 11654  174F  1003               	rlf	(___awmod@divisor),f
 11655  1750  0DA0               	rlf	(___awmod@divisor+1),f
 11656  1751  0DA1               	addlw	-1
 11657  1752  3EFF               	skipz
 11658  1753  1D03               	goto	u3195
 11659  1754  2F4F               	line	23
 11660                           	
 11661                           l2724:	
 11662  1755                     	movlw	low(01h)
 11663  1755  3001               	movwf	(??___awmod+0)+0
 11664  1756  00A4               	movf	(??___awmod+0)+0,w
 11665  1757  0824               	addwf	(___awmod@counter),f
 11666  1758  07A5               	goto	l2726
 11667  1759  2F5A               	line	24
 11668                           	
 11669                           l656:	
 11670  175A                     	line	21
 11671                           	
 11672                           l2726:	
 11673  175A                     	btfss	(___awmod@divisor+1),(15)&7
 11674  175A  1FA1               	goto	u3201
 11675  175B  2F5D               	goto	u3200
 11676  175C  2F5E               u3201:
 11677  175D                     	goto	l2722
 11678  175D  2F4E               u3200:
 11679  175E                     	goto	l2728
 11680  175E  2F60               	
 11681                           l658:	
 11682  175F                     	goto	l2728
 11683  175F  2F60               	line	25
 11684                           	
 11685                           l659:	
 11686  1760                     	line	26
 11687                           	
 11688                           l2728:	
 11689  1760                     	movf	(___awmod@divisor+1),w
 11690  1760  0821               	subwf	(___awmod@dividend+1),w
 11691  1761  0223               	skipz
 11692  1762  1D03               	goto	u3215
 11693  1763  2F66               	movf	(___awmod@divisor),w
 11694  1764  0820               	subwf	(___awmod@dividend),w
 11695  1765  0222               u3215:
 11696  1766                     	skipc
 11697  1766  1C03               	goto	u3211
 11698  1767  2F69               	goto	u3210
 11699  1768  2F6A               u3211:
 11700  1769                     	goto	l2732
 11701  1769  2F71               u3210:
 11702  176A                     	line	27
 11703                           	
 11704                           l2730:	
 11705  176A                     	movf	(___awmod@divisor),w
 11706  176A  0820               	subwf	(___awmod@dividend),f
 11707  176B  02A2               	movf	(___awmod@divisor+1),w
 11708  176C  0821               	skipc
 11709  176D  1C03               	decf	(___awmod@dividend+1),f
 11710  176E  03A3               	subwf	(___awmod@dividend+1),f
 11711  176F  02A3               	goto	l2732
 11712  1770  2F71               	
 11713                           l660:	
 11714  1771                     	line	28
 11715                           	
 11716                           l2732:	
 11717  1771                     	movlw	01h
 11718  1771  3001               	
 11719                           u3225:
 11720  1772                     	clrc
 11721  1772  1003               	rrf	(___awmod@divisor+1),f
 11722  1773  0CA1               	rrf	(___awmod@divisor),f
 11723  1774  0CA0               	addlw	-1
 11724  1775  3EFF               	skipz
 11725  1776  1D03               	goto	u3225
 11726  1777  2F72               	line	29
 11727                           	
 11728                           l2734:	
 11729  1778                     	movlw	01h
 11730  1778  3001               	subwf	(___awmod@counter),f
 11731  1779  02A5               	btfss	status,2
 11732  177A  1D03               	goto	u3231
 11733  177B  2F7D               	goto	u3230
 11734  177C  2F7E               u3231:
 11735  177D                     	goto	l2728
 11736  177D  2F60               u3230:
 11737  177E                     	goto	l2736
 11738  177E  2F80               	
 11739                           l661:	
 11740  177F                     	goto	l2736
 11741  177F  2F80               	line	30
 11742                           	
 11743                           l655:	
 11744  1780                     	line	31
 11745                           	
 11746                           l2736:	
 11747  1780                     	movf	((___awmod@sign)),w
 11748  1780  0826               	btfsc	status,2
 11749  1781  1903               	goto	u3241
 11750  1782  2F84               	goto	u3240
 11751  1783  2F85               u3241:
 11752  1784                     	goto	l2740
 11753  1784  2F8B               u3240:
 11754  1785                     	line	32
 11755                           	
 11756                           l2738:	
 11757  1785                     	comf	(___awmod@dividend),f
 11758  1785  09A2               	comf	(___awmod@dividend+1),f
 11759  1786  09A3               	incf	(___awmod@dividend),f
 11760  1787  0AA2               	skipnz
 11761  1788  1903               	incf	(___awmod@dividend+1),f
 11762  1789  0AA3               	goto	l2740
 11763  178A  2F8B               	
 11764                           l662:	
 11765  178B                     	line	33
 11766                           	
 11767                           l2740:	
 11768  178B                     	movf	(___awmod@dividend+1),w
 11769  178B  0823               	movwf	(?___awmod+1)
 11770  178C  00A1               	movf	(___awmod@dividend),w
 11771  178D  0822               	movwf	(?___awmod)
 11772  178E  00A0               	goto	l663
 11773  178F  2F90               	
 11774                           l2742:	
 11775  1790                     	line	34
 11776                           	
 11777                           l663:	
 11778  1790                     	return
 11779  1790  0008               	opt stack 0
 11780                           GLOBAL	__end_of___awmod
 11781                           	__end_of___awmod:
 11782  1791                     	signat	___awmod,8314
 11783                           	global	___awdiv
 11784                           
 11785 ;; *************** function ___awdiv *****************
 11786 ;; Defined at:
 11787 ;;		line 5 in file "C:\Program Files (x86)\Microchip\xc8\v2.00\pic\sources\c90\common\awdiv.c"
 11788 ;; Parameters:    Size  Location     Type
 11789 ;;  divisor         2    0[BANK0 ] int 
 11790 ;;  dividend        2    2[BANK0 ] int 
 11791 ;; Auto vars:     Size  Location     Type
 11792 ;;  quotient        2    7[BANK0 ] int 
 11793 ;;  sign            1    6[BANK0 ] unsigned char 
 11794 ;;  counter         1    5[BANK0 ] unsigned char 
 11795 ;; Return value:  Size  Location     Type
 11796 ;;                  2    0[BANK0 ] int 
 11797 ;; Registers used:
 11798 ;;		wreg, status,2, status,0
 11799 ;; Tracked objects:
 11800 ;;		On entry : 0/0
 11801 ;;		On exit  : 0/0
 11802 ;;		Unchanged: 0/0
 11803 ;; Data sizes:     COMMON   BANK0   BANK1   BANK3   BANK2
 11804 ;;      Params:         0       4       0       0       0
 11805 ;;      Locals:         0       4       0       0       0
 11806 ;;      Temps:          0       1       0       0       0
 11807 ;;      Totals:         0       9       0       0       0
 11808 ;;Total ram usage:        9 bytes
 11809 ;; Hardware stack levels used:    1
 11810 ;; Hardware stack levels required when called:    4
 11811 ;; This function calls:
 11812 ;;		Nothing
 11813 ;; This function is called by:
 11814 ;;		_separa_digitos_rtc
 11815 ;;		_DEC_2_BCD
 11816 ;;		_b1
 11817 ;;		_b0
 11818 ;; This function uses a non-reentrant model
 11819 ;;
 11820                           psect	text42,local,class=CODE,delta=2,merge=1,group=1
 11821                           	file	"C:\Program Files (x86)\Microchip\xc8\v2.00\pic\sources\c90\common\awdiv.c"
 11822                           	line	5
 11823                           global __ptext42
 11824                           __ptext42:	;psect for function ___awdiv
 11825  0829                     psect	text42
 11826                           	file	"C:\Program Files (x86)\Microchip\xc8\v2.00\pic\sources\c90\common\awdiv.c"
 11827                           	line	5
 11828                           	global	__size_of___awdiv
 11829                           	__size_of___awdiv	equ	__end_of___awdiv-___awdiv
 11830  0073                     	
 11831                           ___awdiv:	
 11832  0829                     ;incstack = 0
 11833                           	opt	stack 0
 11834                           ; Regs used in ___awdiv: [wreg+status,2+status,0]
 11835                           	line	13
 11836                           	
 11837                           l2162:	
 11838  0829                     	bcf	status, 5	;RP0=0, select bank0
 11839  0829  1283               	bcf	status, 6	;RP1=0, select bank0
 11840  082A  1303               	clrf	(___awdiv@sign)
 11841  082B  01A6               	line	14
 11842                           	
 11843                           l2164:	
 11844  082C                     	btfss	(___awdiv@divisor+1),7
 11845  082C  1FA1               	goto	u2001
 11846  082D  282F               	goto	u2000
 11847  082E  2830               u2001:
 11848  082F                     	goto	l2170
 11849  082F  2838               u2000:
 11850  0830                     	line	15
 11851                           	
 11852                           l2166:	
 11853  0830                     	comf	(___awdiv@divisor),f
 11854  0830  09A0               	comf	(___awdiv@divisor+1),f
 11855  0831  09A1               	incf	(___awdiv@divisor),f
 11856  0832  0AA0               	skipnz
 11857  0833  1903               	incf	(___awdiv@divisor+1),f
 11858  0834  0AA1               	line	16
 11859                           	
 11860                           l2168:	
 11861  0835                     	clrf	(___awdiv@sign)
 11862  0835  01A6               	incf	(___awdiv@sign),f
 11863  0836  0AA6               	goto	l2170
 11864  0837  2838               	line	17
 11865                           	
 11866                           l640:	
 11867  0838                     	line	18
 11868                           	
 11869                           l2170:	
 11870  0838                     	btfss	(___awdiv@dividend+1),7
 11871  0838  1FA3               	goto	u2011
 11872  0839  283B               	goto	u2010
 11873  083A  283C               u2011:
 11874  083B                     	goto	l2176
 11875  083B  2846               u2010:
 11876  083C                     	line	19
 11877                           	
 11878                           l2172:	
 11879  083C                     	comf	(___awdiv@dividend),f
 11880  083C  09A2               	comf	(___awdiv@dividend+1),f
 11881  083D  09A3               	incf	(___awdiv@dividend),f
 11882  083E  0AA2               	skipnz
 11883  083F  1903               	incf	(___awdiv@dividend+1),f
 11884  0840  0AA3               	line	20
 11885                           	
 11886                           l2174:	
 11887  0841                     	movlw	low(01h)
 11888  0841  3001               	movwf	(??___awdiv+0)+0
 11889  0842  00A4               	movf	(??___awdiv+0)+0,w
 11890  0843  0824               	xorwf	(___awdiv@sign),f
 11891  0844  06A6               	goto	l2176
 11892  0845  2846               	line	21
 11893                           	
 11894                           l641:	
 11895  0846                     	line	22
 11896                           	
 11897                           l2176:	
 11898  0846                     	clrf	(___awdiv@quotient)
 11899  0846  01A7               	clrf	(___awdiv@quotient+1)
 11900  0847  01A8               	line	23
 11901                           	
 11902                           l2178:	
 11903  0848                     	movf	((___awdiv@divisor)),w
 11904  0848  0820               iorwf	((___awdiv@divisor+1)),w
 11905  0849  0421               	btfsc	status,2
 11906  084A  1903               	goto	u2021
 11907  084B  284D               	goto	u2020
 11908  084C  284E               u2021:
 11909  084D                     	goto	l2198
 11910  084D  288B               u2020:
 11911  084E                     	line	24
 11912                           	
 11913                           l2180:	
 11914  084E                     	clrf	(___awdiv@counter)
 11915  084E  01A5               	incf	(___awdiv@counter),f
 11916  084F  0AA5               	line	25
 11917                           	goto	l2186
 11918  0850  285D               	
 11919                           l644:	
 11920  0851                     	line	26
 11921                           	
 11922                           l2182:	
 11923  0851                     	movlw	01h
 11924  0851  3001               	
 11925                           u2035:
 11926  0852                     	clrc
 11927  0852  1003               	rlf	(___awdiv@divisor),f
 11928  0853  0DA0               	rlf	(___awdiv@divisor+1),f
 11929  0854  0DA1               	addlw	-1
 11930  0855  3EFF               	skipz
 11931  0856  1D03               	goto	u2035
 11932  0857  2852               	line	27
 11933                           	
 11934                           l2184:	
 11935  0858                     	movlw	low(01h)
 11936  0858  3001               	movwf	(??___awdiv+0)+0
 11937  0859  00A4               	movf	(??___awdiv+0)+0,w
 11938  085A  0824               	addwf	(___awdiv@counter),f
 11939  085B  07A5               	goto	l2186
 11940  085C  285D               	line	28
 11941                           	
 11942                           l643:	
 11943  085D                     	line	25
 11944                           	
 11945                           l2186:	
 11946  085D                     	btfss	(___awdiv@divisor+1),(15)&7
 11947  085D  1FA1               	goto	u2041
 11948  085E  2860               	goto	u2040
 11949  085F  2861               u2041:
 11950  0860                     	goto	l2182
 11951  0860  2851               u2040:
 11952  0861                     	goto	l2188
 11953  0861  2863               	
 11954                           l645:	
 11955  0862                     	goto	l2188
 11956  0862  2863               	line	29
 11957                           	
 11958                           l646:	
 11959  0863                     	line	30
 11960                           	
 11961                           l2188:	
 11962  0863                     	movlw	01h
 11963  0863  3001               	
 11964                           u2055:
 11965  0864                     	clrc
 11966  0864  1003               	rlf	(___awdiv@quotient),f
 11967  0865  0DA7               	rlf	(___awdiv@quotient+1),f
 11968  0866  0DA8               	addlw	-1
 11969  0867  3EFF               	skipz
 11970  0868  1D03               	goto	u2055
 11971  0869  2864               	line	31
 11972                           	movf	(___awdiv@divisor+1),w
 11973  086A  0821               	subwf	(___awdiv@dividend+1),w
 11974  086B  0223               	skipz
 11975  086C  1D03               	goto	u2065
 11976  086D  2870               	movf	(___awdiv@divisor),w
 11977  086E  0820               	subwf	(___awdiv@dividend),w
 11978  086F  0222               u2065:
 11979  0870                     	skipc
 11980  0870  1C03               	goto	u2061
 11981  0871  2873               	goto	u2060
 11982  0872  2874               u2061:
 11983  0873                     	goto	l2194
 11984  0873  287C               u2060:
 11985  0874                     	line	32
 11986                           	
 11987                           l2190:	
 11988  0874                     	movf	(___awdiv@divisor),w
 11989  0874  0820               	subwf	(___awdiv@dividend),f
 11990  0875  02A2               	movf	(___awdiv@divisor+1),w
 11991  0876  0821               	skipc
 11992  0877  1C03               	decf	(___awdiv@dividend+1),f
 11993  0878  03A3               	subwf	(___awdiv@dividend+1),f
 11994  0879  02A3               	line	33
 11995                           	
 11996                           l2192:	
 11997  087A                     	bsf	(___awdiv@quotient)+(0/8),(0)&7
 11998  087A  1427               	goto	l2194
 11999  087B  287C               	line	34
 12000                           	
 12001                           l647:	
 12002  087C                     	line	35
 12003                           	
 12004                           l2194:	
 12005  087C                     	movlw	01h
 12006  087C  3001               	
 12007                           u2075:
 12008  087D                     	clrc
 12009  087D  1003               	rrf	(___awdiv@divisor+1),f
 12010  087E  0CA1               	rrf	(___awdiv@divisor),f
 12011  087F  0CA0               	addlw	-1
 12012  0880  3EFF               	skipz
 12013  0881  1D03               	goto	u2075
 12014  0882  287D               	line	36
 12015                           	
 12016                           l2196:	
 12017  0883                     	movlw	01h
 12018  0883  3001               	subwf	(___awdiv@counter),f
 12019  0884  02A5               	btfss	status,2
 12020  0885  1D03               	goto	u2081
 12021  0886  2888               	goto	u2080
 12022  0887  2889               u2081:
 12023  0888                     	goto	l2188
 12024  0888  2863               u2080:
 12025  0889                     	goto	l2198
 12026  0889  288B               	
 12027                           l648:	
 12028  088A                     	goto	l2198
 12029  088A  288B               	line	37
 12030                           	
 12031                           l642:	
 12032  088B                     	line	38
 12033                           	
 12034                           l2198:	
 12035  088B                     	movf	((___awdiv@sign)),w
 12036  088B  0826               	btfsc	status,2
 12037  088C  1903               	goto	u2091
 12038  088D  288F               	goto	u2090
 12039  088E  2890               u2091:
 12040  088F                     	goto	l2202
 12041  088F  2896               u2090:
 12042  0890                     	line	39
 12043                           	
 12044                           l2200:	
 12045  0890                     	comf	(___awdiv@quotient),f
 12046  0890  09A7               	comf	(___awdiv@quotient+1),f
 12047  0891  09A8               	incf	(___awdiv@quotient),f
 12048  0892  0AA7               	skipnz
 12049  0893  1903               	incf	(___awdiv@quotient+1),f
 12050  0894  0AA8               	goto	l2202
 12051  0895  2896               	
 12052                           l649:	
 12053  0896                     	line	40
 12054                           	
 12055                           l2202:	
 12056  0896                     	movf	(___awdiv@quotient+1),w
 12057  0896  0828               	movwf	(?___awdiv+1)
 12058  0897  00A1               	movf	(___awdiv@quotient),w
 12059  0898  0827               	movwf	(?___awdiv)
 12060  0899  00A0               	goto	l650
 12061  089A  289B               	
 12062                           l2204:	
 12063  089B                     	line	41
 12064                           	
 12065                           l650:	
 12066  089B                     	return
 12067  089B  0008               	opt stack 0
 12068                           GLOBAL	__end_of___awdiv
 12069                           	__end_of___awdiv:
 12070  089C                     	signat	___awdiv,8314
 12071                           	global	_I2C_Master_Init
 12072                           
 12073 ;; *************** function _I2C_Master_Init *****************
 12074 ;; Defined at:
 12075 ;;		line 13 in file "I2C.c"
 12076 ;; Parameters:    Size  Location     Type
 12077 ;;  c               4   14[BANK0 ] const unsigned long 
 12078 ;; Auto vars:     Size  Location     Type
 12079 ;;		None
 12080 ;; Return value:  Size  Location     Type
 12081 ;;                  1    wreg      void 
 12082 ;; Registers used:
 12083 ;;		wreg, status,2, status,0, pclath, cstack
 12084 ;; Tracked objects:
 12085 ;;		On entry : 0/0
 12086 ;;		On exit  : 0/0
 12087 ;;		Unchanged: 0/0
 12088 ;; Data sizes:     COMMON   BANK0   BANK1   BANK3   BANK2
 12089 ;;      Params:         0       4       0       0       0
 12090 ;;      Locals:         0       0       0       0       0
 12091 ;;      Temps:          0       4       0       0       0
 12092 ;;      Totals:         0       8       0       0       0
 12093 ;;Total ram usage:        8 bytes
 12094 ;; Hardware stack levels used:    1
 12095 ;; Hardware stack levels required when called:    5
 12096 ;; This function calls:
 12097 ;;		___lldiv
 12098 ;; This function is called by:
 12099 ;;		_main
 12100 ;; This function uses a non-reentrant model
 12101 ;;
 12102                           psect	text43,local,class=CODE,delta=2,merge=1,group=0
 12103                           	file	"I2C.c"
 12104                           	line	13
 12105                           global __ptext43
 12106                           __ptext43:	;psect for function _I2C_Master_Init
 12107  1535                     psect	text43
 12108                           	file	"I2C.c"
 12109                           	line	13
 12110                           	global	__size_of_I2C_Master_Init
 12111                           	__size_of_I2C_Master_Init	equ	__end_of_I2C_Master_Init-_I2C_Master_Init
 12112  003A                     	
 12113                           _I2C_Master_Init:	
 12114  1535                     ;incstack = 0
 12115                           	opt	stack 2
 12116                           ; Regs used in _I2C_Master_Init: [wreg+status,2+status,0+pclath+cstack]
 12117                           	line	15
 12118                           	
 12119                           l2908:	
 12120  1535                     ;I2C.c: 13: void I2C_Master_Init(const unsigned long c);I2C.c: 14: {;I2C.c: 15:     SSPC
                                 ON = 0b00101000;
 12121                           	movlw	low(028h)
 12122  1535  3028               	bcf	status, 5	;RP0=0, select bank0
 12123  1536  1283               	bcf	status, 6	;RP1=0, select bank0
 12124  1537  1303               	movwf	(20)	;volatile
 12125  1538  0094               	line	16
 12126                           	
 12127                           l2910:	
 12128  1539                     ;I2C.c: 16:     SSPCON2 = 0;
 12129                           	bsf	status, 5	;RP0=1, select bank1
 12130  1539  1683               	bcf	status, 6	;RP1=0, select bank1
 12131  153A  1303               	clrf	(145)^080h	;volatile
 12132  153B  0191               	line	17
 12133                           	
 12134                           l2912:	
 12135  153C                     ;I2C.c: 17:     SSPADD = (4000000/(4*c))-1;
 12136                           	bcf	status, 5	;RP0=0, select bank0
 12137  153C  1283               	bcf	status, 6	;RP1=0, select bank0
 12138  153D  1303               	movf	(I2C_Master_Init@c),w
 12139  153E  082E               	movwf	(??_I2C_Master_Init+0)+0
 12140  153F  00B2               	movf	(I2C_Master_Init@c+1),w
 12141  1540  082F               	movwf	((??_I2C_Master_Init+0)+0+1)
 12142  1541  00B3               	movf	(I2C_Master_Init@c+2),w
 12143  1542  0830               	movwf	((??_I2C_Master_Init+0)+0+2)
 12144  1543  00B4               	movf	(I2C_Master_Init@c+3),w
 12145  1544  0831               	movwf	((??_I2C_Master_Init+0)+0+3)
 12146  1545  00B5               	movlw	02h
 12147  1546  3002               u3415:
 12148  1547                     	clrc
 12149  1547  1003               	rlf	(??_I2C_Master_Init+0)+0,f
 12150  1548  0DB2               	rlf	(??_I2C_Master_Init+0)+1,f
 12151  1549  0DB3               	rlf	(??_I2C_Master_Init+0)+2,f
 12152  154A  0DB4               	rlf	(??_I2C_Master_Init+0)+3,f
 12153  154B  0DB5               u3410:
 12154  154C                     	addlw	-1
 12155  154C  3EFF               	skipz
 12156  154D  1D03               	goto	u3415
 12157  154E  2D47               	movf	3+(??_I2C_Master_Init+0)+0,w
 12158  154F  0835               	movwf	(___lldiv@divisor+3)
 12159  1550  00A3               	movf	2+(??_I2C_Master_Init+0)+0,w
 12160  1551  0834               	movwf	(___lldiv@divisor+2)
 12161  1552  00A2               	movf	1+(??_I2C_Master_Init+0)+0,w
 12162  1553  0833               	movwf	(___lldiv@divisor+1)
 12163  1554  00A1               	movf	0+(??_I2C_Master_Init+0)+0,w
 12164  1555  0832               	movwf	(___lldiv@divisor)
 12165  1556  00A0               
 12166                           	movlw	0
 12167  1557  3000               	movwf	(___lldiv@dividend+3)
 12168  1558  00A7               	movlw	03Dh
 12169  1559  303D               	movwf	(___lldiv@dividend+2)
 12170  155A  00A6               	movlw	09h
 12171  155B  3009               	movwf	(___lldiv@dividend+1)
 12172  155C  00A5               	movlw	0
 12173  155D  3000               	movwf	(___lldiv@dividend)
 12174  155E  00A4               
 12175                           	fcall	___lldiv
 12176  155F  160A  118A  2791  160A  118A  	bcf	status, 5	;RP0=0, select bank0
 12177  1564  1283               	bcf	status, 6	;RP1=0, select bank0
 12178  1565  1303               	movf	(0+(?___lldiv)),w
 12179  1566  0820               	addlw	0FFh
 12180  1567  3EFF               	bsf	status, 5	;RP0=1, select bank1
 12181  1568  1683               	bcf	status, 6	;RP1=0, select bank1
 12182  1569  1303               	movwf	(147)^080h	;volatile
 12183  156A  0093               	line	18
 12184                           	
 12185                           l2914:	
 12186  156B                     ;I2C.c: 18:     SSPSTAT = 0;
 12187                           	clrf	(148)^080h	;volatile
 12188  156B  0194               	line	19
 12189                           	
 12190                           l2916:	
 12191  156C                     ;I2C.c: 19:     TRISCbits.TRISC3 = 1;
 12192                           	bsf	(135)^080h,3	;volatile
 12193  156C  1587               	line	20
 12194                           	
 12195                           l2918:	
 12196  156D                     ;I2C.c: 20:     TRISCbits.TRISC4 = 1;
 12197                           	bsf	(135)^080h,4	;volatile
 12198  156D  1607               	line	21
 12199                           	
 12200                           l314:	
 12201  156E                     	return
 12202  156E  0008               	opt stack 0
 12203                           GLOBAL	__end_of_I2C_Master_Init
 12204                           	__end_of_I2C_Master_Init:
 12205  156F                     	signat	_I2C_Master_Init,4217
 12206                           	global	___lldiv
 12207                           
 12208 ;; *************** function ___lldiv *****************
 12209 ;; Defined at:
 12210 ;;		line 5 in file "C:\Program Files (x86)\Microchip\xc8\v2.00\pic\sources\c90\common\__lldiv.c"
 12211 ;; Parameters:    Size  Location     Type
 12212 ;;  divisor         4    0[BANK0 ] unsigned long 
 12213 ;;  dividend        4    4[BANK0 ] unsigned long 
 12214 ;; Auto vars:     Size  Location     Type
 12215 ;;  quotient        4    9[BANK0 ] unsigned long 
 12216 ;;  counter         1   13[BANK0 ] unsigned char 
 12217 ;; Return value:  Size  Location     Type
 12218 ;;                  4    0[BANK0 ] unsigned long 
 12219 ;; Registers used:
 12220 ;;		wreg, status,2, status,0
 12221 ;; Tracked objects:
 12222 ;;		On entry : 0/0
 12223 ;;		On exit  : 0/0
 12224 ;;		Unchanged: 0/0
 12225 ;; Data sizes:     COMMON   BANK0   BANK1   BANK3   BANK2
 12226 ;;      Params:         0       8       0       0       0
 12227 ;;      Locals:         0       5       0       0       0
 12228 ;;      Temps:          0       1       0       0       0
 12229 ;;      Totals:         0      14       0       0       0
 12230 ;;Total ram usage:       14 bytes
 12231 ;; Hardware stack levels used:    1
 12232 ;; Hardware stack levels required when called:    4
 12233 ;; This function calls:
 12234 ;;		Nothing
 12235 ;; This function is called by:
 12236 ;;		_I2C_Master_Init
 12237 ;; This function uses a non-reentrant model
 12238 ;;
 12239                           psect	text44,local,class=CODE,delta=2,merge=1,group=1
 12240                           	file	"C:\Program Files (x86)\Microchip\xc8\v2.00\pic\sources\c90\common\__lldiv.c"
 12241                           	line	5
 12242                           global __ptext44
 12243                           __ptext44:	;psect for function ___lldiv
 12244  1791                     psect	text44
 12245                           	file	"C:\Program Files (x86)\Microchip\xc8\v2.00\pic\sources\c90\common\__lldiv.c"
 12246                           	line	5
 12247                           	global	__size_of___lldiv
 12248                           	__size_of___lldiv	equ	__end_of___lldiv-___lldiv
 12249  006F                     	
 12250                           ___lldiv:	
 12251  1791                     ;incstack = 0
 12252                           	opt	stack 2
 12253                           ; Regs used in ___lldiv: [wreg+status,2+status,0]
 12254                           	line	13
 12255                           	
 12256                           l2830:	
 12257  1791                     	movlw	high highword(0)
 12258  1791  3000               	bcf	status, 5	;RP0=0, select bank0
 12259  1792  1283               	bcf	status, 6	;RP1=0, select bank0
 12260  1793  1303               	movwf	(___lldiv@quotient+3)
 12261  1794  00AC               	movlw	low highword(0)
 12262  1795  3000               	movwf	(___lldiv@quotient+2)
 12263  1796  00AB               	movlw	high(0)
 12264  1797  3000               	movwf	(___lldiv@quotient+1)
 12265  1798  00AA               	movlw	low(0)
 12266  1799  3000               	movwf	(___lldiv@quotient)
 12267  179A  00A9               
 12268                           	line	14
 12269                           	movf	(___lldiv@divisor+3),w
 12270  179B  0823               	iorwf	(___lldiv@divisor+2),w
 12271  179C  0422               	iorwf	(___lldiv@divisor+1),w
 12272  179D  0421               	iorwf	(___lldiv@divisor),w
 12273  179E  0420               	skipnz
 12274  179F  1903               	goto	u3341
 12275  17A0  2FA2               	goto	u3340
 12276  17A1  2FA3               u3341:
 12277  17A2                     	goto	l2850
 12278  17A2  2FF6               u3340:
 12279  17A3                     	line	15
 12280                           	
 12281                           l2832:	
 12282  17A3                     	clrf	(___lldiv@counter)
 12283  17A3  01AD               	incf	(___lldiv@counter),f
 12284  17A4  0AAD               	line	16
 12285                           	goto	l2836
 12286  17A5  2FB4               	
 12287                           l528:	
 12288  17A6                     	line	17
 12289                           	
 12290                           l2834:	
 12291  17A6                     	movlw	01h
 12292  17A6  3001               	movwf	(??___lldiv+0)+0
 12293  17A7  00A8               u3355:
 12294  17A8                     	clrc
 12295  17A8  1003               	rlf	(___lldiv@divisor),f
 12296  17A9  0DA0               	rlf	(___lldiv@divisor+1),f
 12297  17AA  0DA1               	rlf	(___lldiv@divisor+2),f
 12298  17AB  0DA2               	rlf	(___lldiv@divisor+3),f
 12299  17AC  0DA3               	decfsz	(??___lldiv+0)+0
 12300  17AD  0BA8               	goto	u3355
 12301  17AE  2FA8               	line	18
 12302                           	movlw	low(01h)
 12303  17AF  3001               	movwf	(??___lldiv+0)+0
 12304  17B0  00A8               	movf	(??___lldiv+0)+0,w
 12305  17B1  0828               	addwf	(___lldiv@counter),f
 12306  17B2  07AD               	goto	l2836
 12307  17B3  2FB4               	line	19
 12308                           	
 12309                           l527:	
 12310  17B4                     	line	16
 12311                           	
 12312                           l2836:	
 12313  17B4                     	btfss	(___lldiv@divisor+3),(31)&7
 12314  17B4  1FA3               	goto	u3361
 12315  17B5  2FB7               	goto	u3360
 12316  17B6  2FB8               u3361:
 12317  17B7                     	goto	l2834
 12318  17B7  2FA6               u3360:
 12319  17B8                     	goto	l2838
 12320  17B8  2FBA               	
 12321                           l529:	
 12322  17B9                     	goto	l2838
 12323  17B9  2FBA               	line	20
 12324                           	
 12325                           l530:	
 12326  17BA                     	line	21
 12327                           	
 12328                           l2838:	
 12329  17BA                     	movlw	01h
 12330  17BA  3001               	movwf	(??___lldiv+0)+0
 12331  17BB  00A8               u3375:
 12332  17BC                     	clrc
 12333  17BC  1003               	rlf	(___lldiv@quotient),f
 12334  17BD  0DA9               	rlf	(___lldiv@quotient+1),f
 12335  17BE  0DAA               	rlf	(___lldiv@quotient+2),f
 12336  17BF  0DAB               	rlf	(___lldiv@quotient+3),f
 12337  17C0  0DAC               	decfsz	(??___lldiv+0)+0
 12338  17C1  0BA8               	goto	u3375
 12339  17C2  2FBC               	line	22
 12340                           	
 12341                           l2840:	
 12342  17C3                     	movf	(___lldiv@divisor+3),w
 12343  17C3  0823               	subwf	(___lldiv@dividend+3),w
 12344  17C4  0227               	skipz
 12345  17C5  1D03               	goto	u3385
 12346  17C6  2FD1               	movf	(___lldiv@divisor+2),w
 12347  17C7  0822               	subwf	(___lldiv@dividend+2),w
 12348  17C8  0226               	skipz
 12349  17C9  1D03               	goto	u3385
 12350  17CA  2FD1               	movf	(___lldiv@divisor+1),w
 12351  17CB  0821               	subwf	(___lldiv@dividend+1),w
 12352  17CC  0225               	skipz
 12353  17CD  1D03               	goto	u3385
 12354  17CE  2FD1               	movf	(___lldiv@divisor),w
 12355  17CF  0820               	subwf	(___lldiv@dividend),w
 12356  17D0  0224               u3385:
 12357  17D1                     	skipc
 12358  17D1  1C03               	goto	u3381
 12359  17D2  2FD4               	goto	u3380
 12360  17D3  2FD5               u3381:
 12361  17D4                     	goto	l2846
 12362  17D4  2FE5               u3380:
 12363  17D5                     	line	23
 12364                           	
 12365                           l2842:	
 12366  17D5                     	movf	(___lldiv@divisor),w
 12367  17D5  0820               	subwf	(___lldiv@dividend),f
 12368  17D6  02A4               	movf	(___lldiv@divisor+1),w
 12369  17D7  0821               	skipc
 12370  17D8  1C03               	incfsz	(___lldiv@divisor+1),w
 12371  17D9  0F21               	subwf	(___lldiv@dividend+1),f
 12372  17DA  02A5               	movf	(___lldiv@divisor+2),w
 12373  17DB  0822               	skipc
 12374  17DC  1C03               	incfsz	(___lldiv@divisor+2),w
 12375  17DD  0F22               	subwf	(___lldiv@dividend+2),f
 12376  17DE  02A6               	movf	(___lldiv@divisor+3),w
 12377  17DF  0823               	skipc
 12378  17E0  1C03               	incfsz	(___lldiv@divisor+3),w
 12379  17E1  0F23               	subwf	(___lldiv@dividend+3),f
 12380  17E2  02A7               	line	24
 12381                           	
 12382                           l2844:	
 12383  17E3                     	bsf	(___lldiv@quotient)+(0/8),(0)&7
 12384  17E3  1429               	goto	l2846
 12385  17E4  2FE5               	line	25
 12386                           	
 12387                           l531:	
 12388  17E5                     	line	26
 12389                           	
 12390                           l2846:	
 12391  17E5                     	movlw	01h
 12392  17E5  3001               u3395:
 12393  17E6                     	clrc
 12394  17E6  1003               	rrf	(___lldiv@divisor+3),f
 12395  17E7  0CA3               	rrf	(___lldiv@divisor+2),f
 12396  17E8  0CA2               	rrf	(___lldiv@divisor+1),f
 12397  17E9  0CA1               	rrf	(___lldiv@divisor),f
 12398  17EA  0CA0               	addlw	-1
 12399  17EB  3EFF               	skipz
 12400  17EC  1D03               	goto	u3395
 12401  17ED  2FE6               
 12402                           	line	27
 12403                           	
 12404                           l2848:	
 12405  17EE                     	movlw	01h
 12406  17EE  3001               	subwf	(___lldiv@counter),f
 12407  17EF  02AD               	btfss	status,2
 12408  17F0  1D03               	goto	u3401
 12409  17F1  2FF3               	goto	u3400
 12410  17F2  2FF4               u3401:
 12411  17F3                     	goto	l2838
 12412  17F3  2FBA               u3400:
 12413  17F4                     	goto	l2850
 12414  17F4  2FF6               	
 12415                           l532:	
 12416  17F5                     	goto	l2850
 12417  17F5  2FF6               	line	28
 12418                           	
 12419                           l526:	
 12420  17F6                     	line	29
 12421                           	
 12422                           l2850:	
 12423  17F6                     	movf	(___lldiv@quotient+3),w
 12424  17F6  082C               	movwf	(?___lldiv+3)
 12425  17F7  00A3               	movf	(___lldiv@quotient+2),w
 12426  17F8  082B               	movwf	(?___lldiv+2)
 12427  17F9  00A2               	movf	(___lldiv@quotient+1),w
 12428  17FA  082A               	movwf	(?___lldiv+1)
 12429  17FB  00A1               	movf	(___lldiv@quotient),w
 12430  17FC  0829               	movwf	(?___lldiv)
 12431  17FD  00A0               
 12432                           	goto	l533
 12433  17FE  2FFF               	
 12434                           l2852:	
 12435  17FF                     	line	30
 12436                           	
 12437                           l533:	
 12438  17FF                     	return
 12439  17FF  0008               	opt stack 0
 12440                           GLOBAL	__end_of___lldiv
 12441                           	__end_of___lldiv:
 12442  1800                     	signat	___lldiv,8316
 12443                           	global	_isr
 12444                           
 12445 ;; *************** function _isr *****************
 12446 ;; Defined at:
 12447 ;;		line 95 in file "Proyecto1_master.c"
 12448 ;; Parameters:    Size  Location     Type
 12449 ;;		None
 12450 ;; Auto vars:     Size  Location     Type
 12451 ;;		None
 12452 ;; Return value:  Size  Location     Type
 12453 ;;                  1    wreg      void 
 12454 ;; Registers used:
 12455 ;;		wreg, status,2, status,0, pclath, cstack
 12456 ;; Tracked objects:
 12457 ;;		On entry : 0/0
 12458 ;;		On exit  : 0/0
 12459 ;;		Unchanged: 0/0
 12460 ;; Data sizes:     COMMON   BANK0   BANK1   BANK3   BANK2
 12461 ;;      Params:         0       0       0       0       0
 12462 ;;      Locals:         0       0       0       0       0
 12463 ;;      Temps:          5       0       0       0       0
 12464 ;;      Totals:         5       0       0       0       0
 12465 ;;Total ram usage:        5 bytes
 12466 ;; Hardware stack levels used:    1
 12467 ;; Hardware stack levels required when called:    3
 12468 ;; This function calls:
 12469 ;;		i1_lcd_clear
 12470 ;; This function is called by:
 12471 ;;		Interrupt level 1
 12472 ;; This function uses a non-reentrant model
 12473 ;;
 12474                           psect	text45,local,class=CODE,delta=2,merge=1,group=0
 12475                           	file	"Proyecto1_master.c"
 12476                           	line	95
 12477                           global __ptext45
 12478                           __ptext45:	;psect for function _isr
 12479  146B                     psect	text45
 12480                           	file	"Proyecto1_master.c"
 12481                           	line	95
 12482                           	global	__size_of_isr
 12483                           	__size_of_isr	equ	__end_of_isr-_isr
 12484  002F                     	
 12485                           _isr:	
 12486  146B                     ;incstack = 0
 12487 ;; hardware stack exceeded
 12488                           	opt	stack 0
 12489                           ; Regs used in _isr: [wreg+status,2+status,0+pclath+cstack]
 12490                           psect	intentry,class=CODE,delta=2
 12491                           global __pintentry
 12492                           __pintentry:
 12493  0004                     global interrupt_function
 12494                           interrupt_function:
 12495  0004                     	global saved_w
 12496                           	saved_w	set	btemp+0
 12497  007E                     	movwf	saved_w
 12498  0004  00FE               	swapf	status,w
 12499  0005  0E03               	movwf	(??_isr+3)
 12500  0006  00F7               	movf	pclath,w
 12501  0007  080A               	movwf	(??_isr+4)
 12502  0008  00F8               	ljmp	_isr
 12503  0009  160A  118A  2C6B   psect	text45
 12504                           	line	97
 12505                           	
 12506                           i1l3022:	
 12507  146B                     ;Proyecto1_master.c: 97:     if (INTCONbits.RBIF == 1){
 12508                           	btfss	(11),0	;volatile
 12509  146B  1C0B               	goto	u363_21
 12510  146C  2C6E               	goto	u363_20
 12511  146D  2C6F               u363_21:
 12512  146E                     	goto	i1l153
 12513  146E  2C93               u363_20:
 12514  146F                     	line	98
 12515                           	
 12516                           i1l3024:	
 12517  146F                     ;Proyecto1_master.c: 98:          INTCONbits.RBIF = 0;
 12518                           	bcf	(11),0	;volatile
 12519  146F  100B               	line	100
 12520                           ;Proyecto1_master.c: 100:         if (PORTBbits.RB4 == 1){
 12521                           	bcf	status, 5	;RP0=0, select bank0
 12522  1470  1283               	bcf	status, 6	;RP1=0, select bank0
 12523  1471  1303               	btfss	(6),4	;volatile
 12524  1472  1E06               	goto	u364_21
 12525  1473  2C75               	goto	u364_20
 12526  1474  2C76               u364_21:
 12527  1475                     	goto	i1l153
 12528  1475  2C93               u364_20:
 12529  1476                     	line	101
 12530                           	
 12531                           i1l3026:	
 12532  1476                     ;Proyecto1_master.c: 101:             modo++;
 12533                           	movlw	low(01h)
 12534  1476  3001               	movwf	(??_isr+0)+0
 12535  1477  00F4               	movf	(??_isr+0)+0,w
 12536  1478  0874               	bsf	status, 5	;RP0=1, select bank1
 12537  1479  1683               	bcf	status, 6	;RP1=0, select bank1
 12538  147A  1303               	addwf	(_modo)^080h,f
 12539  147B  07AC               	line	102
 12540                           	
 12541                           i1l3028:	
 12542  147C                     ;Proyecto1_master.c: 102:             lcd_clear();
 12543                           	fcall	i1_lcd_clear
 12544  147C  160A  118A  2290  160A  118A  	line	103
 12545                           	
 12546                           i1l3030:	
 12547  1481                     ;Proyecto1_master.c: 103:             limpiar_lcd=1;
 12548                           	bsf	status, 5	;RP0=1, select bank1
 12549  1481  1683               	bcf	status, 6	;RP1=0, select bank1
 12550  1482  1303               	clrf	(_limpiar_lcd)^080h
 12551  1483  01AB               	incf	(_limpiar_lcd)^080h,f
 12552  1484  0AAB               	line	104
 12553                           	
 12554                           i1l3032:	
 12555  1485                     ;Proyecto1_master.c: 104:             _delay((unsigned long)((200)*(8000000/4000.0)));
 12556                           	opt asmopt_push
 12557                           opt asmopt_off
 12558                           movlw  3
 12559  1485  3003               movwf	((??_isr+0)+0+2),f
 12560  1486  00F6               movlw	8
 12561  1487  3008               movwf	((??_isr+0)+0+1),f
 12562  1488  00F5               	movlw	119
 12563  1489  3077               movwf	((??_isr+0)+0),f
 12564  148A  00F4               	u376_27:
 12565  148B                     decfsz	((??_isr+0)+0),f
 12566  148B  0BF4               	goto	u376_27
 12567  148C  2C8B               	decfsz	((??_isr+0)+0+1),f
 12568  148D  0BF5               	goto	u376_27
 12569  148E  2C8B               	decfsz	((??_isr+0)+0+2),f
 12570  148F  0BF6               	goto	u376_27
 12571  1490  2C8B               opt asmopt_pop
 12572                           
 12573                           	goto	i1l153
 12574  1491  2C93               	line	105
 12575                           ;Proyecto1_master.c: 105:     }
 12576                           	
 12577                           i1l152:	
 12578  1492                     	goto	i1l153
 12579  1492  2C93               	line	107
 12580                           ;Proyecto1_master.c: 107: }
 12581                           	
 12582                           i1l151:	
 12583  1493                     	line	108
 12584                           	
 12585                           i1l153:	
 12586  1493                     	movf	(??_isr+4),w
 12587  1493  0878               	movwf	pclath
 12588  1494  008A               	swapf	(??_isr+3)^0FFFFFF80h,w
 12589  1495  0E77               	movwf	status
 12590  1496  0083               	swapf	saved_w,f
 12591  1497  0EFE               	swapf	saved_w,w
 12592  1498  0E7E               	retfie
 12593  1499  0009               	opt stack 0
 12594                           GLOBAL	__end_of_isr
 12595                           	__end_of_isr:
 12596  149A                     	signat	_isr,89
 12597                           	global	i1_lcd_clear
 12598                           
 12599 ;; *************** function i1_lcd_clear *****************
 12600 ;; Defined at:
 12601 ;;		line 105 in file "LCD.c"
 12602 ;; Parameters:    Size  Location     Type
 12603 ;;		None
 12604 ;; Auto vars:     Size  Location     Type
 12605 ;;		None
 12606 ;; Return value:  Size  Location     Type
 12607 ;;                  1    wreg      void 
 12608 ;; Registers used:
 12609 ;;		wreg, status,2, status,0, pclath, cstack
 12610 ;; Tracked objects:
 12611 ;;		On entry : 0/0
 12612 ;;		On exit  : 0/0
 12613 ;;		Unchanged: 0/0
 12614 ;; Data sizes:     COMMON   BANK0   BANK1   BANK3   BANK2
 12615 ;;      Params:         0       0       0       0       0
 12616 ;;      Locals:         0       0       0       0       0
 12617 ;;      Temps:          0       0       0       0       0
 12618 ;;      Totals:         0       0       0       0       0
 12619 ;;Total ram usage:        0 bytes
 12620 ;; Hardware stack levels used:    1
 12621 ;; Hardware stack levels required when called:    2
 12622 ;; This function calls:
 12623 ;;		i1_lcd_cmd
 12624 ;; This function is called by:
 12625 ;;		_isr
 12626 ;; This function uses a non-reentrant model
 12627 ;;
 12628                           psect	text46,local,class=CODE,delta=2,merge=1,group=0
 12629                           	file	"LCD.c"
 12630                           	line	105
 12631                           global __ptext46
 12632                           __ptext46:	;psect for function i1_lcd_clear
 12633  1290                     psect	text46
 12634                           	file	"LCD.c"
 12635                           	line	105
 12636                           	global	__size_ofi1_lcd_clear
 12637                           	__size_ofi1_lcd_clear	equ	__end_ofi1_lcd_clear-i1_lcd_clear
 12638  0007                     	
 12639                           i1_lcd_clear:	
 12640  1290                     ;incstack = 0
 12641 ;; hardware stack exceeded
 12642                           	opt	stack 0
 12643                           ; Regs used in i1_lcd_clear: [wreg+status,2+status,0+pclath+cstack]
 12644                           	line	107
 12645                           	
 12646                           i1l3020:	
 12647  1290                     ;LCD.c: 107:     lcd_cmd(0x01);
 12648                           	movlw	low(01h)
 12649  1290  3001               	fcall	i1_lcd_cmd
 12650  1291  160A  118A  231D  160A  118A  	line	108
 12651                           	
 12652                           i1l390:	
 12653  1296                     	return
 12654  1296  0008               	opt stack 0
 12655                           GLOBAL	__end_ofi1_lcd_clear
 12656                           	__end_ofi1_lcd_clear:
 12657  1297                     	signat	i1_lcd_clear,89
 12658                           	global	i1_lcd_cmd
 12659                           
 12660 ;; *************** function i1_lcd_cmd *****************
 12661 ;; Defined at:
 12662 ;;		line 75 in file "LCD.c"
 12663 ;; Parameters:    Size  Location     Type
 12664 ;;  a               1    wreg     unsigned char 
 12665 ;; Auto vars:     Size  Location     Type
 12666 ;;  a               1    3[COMMON] unsigned char 
 12667 ;; Return value:  Size  Location     Type
 12668 ;;                  1    wreg      void 
 12669 ;; Registers used:
 12670 ;;		wreg, status,2, status,0, pclath, cstack
 12671 ;; Tracked objects:
 12672 ;;		On entry : 0/0
 12673 ;;		On exit  : 0/0
 12674 ;;		Unchanged: 0/0
 12675 ;; Data sizes:     COMMON   BANK0   BANK1   BANK3   BANK2
 12676 ;;      Params:         0       0       0       0       0
 12677 ;;      Locals:         1       0       0       0       0
 12678 ;;      Temps:          2       0       0       0       0
 12679 ;;      Totals:         3       0       0       0       0
 12680 ;;Total ram usage:        3 bytes
 12681 ;; Hardware stack levels used:    1
 12682 ;; Hardware stack levels required when called:    1
 12683 ;; This function calls:
 12684 ;;		i1_lcd_port
 12685 ;; This function is called by:
 12686 ;;		i1_lcd_clear
 12687 ;; This function uses a non-reentrant model
 12688 ;;
 12689                           psect	text47,local,class=CODE,delta=2,merge=1,group=0
 12690                           	line	75
 12691                           global __ptext47
 12692                           __ptext47:	;psect for function i1_lcd_cmd
 12693  131D                     psect	text47
 12694                           	file	"LCD.c"
 12695                           	line	75
 12696                           	global	__size_ofi1_lcd_cmd
 12697                           	__size_ofi1_lcd_cmd	equ	__end_ofi1_lcd_cmd-i1_lcd_cmd
 12698  001A                     	
 12699                           i1_lcd_cmd:	
 12700  131D                     ;incstack = 0
 12701 ;; hardware stack exceeded
 12702                           	opt	stack 0
 12703                           ; Regs used in i1_lcd_cmd: [wreg+status,2+status,0+pclath+cstack]
 12704                           ;i1lcd_cmd@a stored from wreg
 12705                           	movwf	(i1lcd_cmd@a)
 12706  131D  00F3               	line	77
 12707                           	
 12708                           i1l2854:	
 12709  131E                     ;LCD.c: 77:     RB7 = 0;
 12710                           	bcf	status, 5	;RP0=0, select bank0
 12711  131E  1283               	bcf	status, 6	;RP1=0, select bank0
 12712  131F  1303               	bcf	(55/8),(55)&7	;volatile
 12713  1320  1386               	line	78
 12714                           	
 12715                           i1l2856:	
 12716  1321                     ;LCD.c: 78:     lcd_port(a);
 12717                           	movf	(i1lcd_cmd@a),w
 12718  1321  0873               	fcall	i1_lcd_port
 12719  1322  160A  118A  25E6  160A  118A  	line	80
 12720                           	
 12721                           i1l2858:	
 12722  1327                     ;LCD.c: 80:     RD7 = 1;
 12723                           	bcf	status, 5	;RP0=0, select bank0
 12724  1327  1283               	bcf	status, 6	;RP1=0, select bank0
 12725  1328  1303               	bsf	(71/8),(71)&7	;volatile
 12726  1329  1788               	line	81
 12727                           	
 12728                           i1l2860:	
 12729  132A                     ;LCD.c: 81:     _delay((unsigned long)((10)*(8000000/4000.0)));
 12730                           	opt asmopt_push
 12731                           opt asmopt_off
 12732                           movlw	26
 12733  132A  301A               movwf	((??i1_lcd_cmd+0)+0+1),f
 12734  132B  00F2               	movlw	248
 12735  132C  30F8               movwf	((??i1_lcd_cmd+0)+0),f
 12736  132D  00F1               	u377_27:
 12737  132E                     decfsz	((??i1_lcd_cmd+0)+0),f
 12738  132E  0BF1               	goto	u377_27
 12739  132F  2B2E               	decfsz	((??i1_lcd_cmd+0)+0+1),f
 12740  1330  0BF2               	goto	u377_27
 12741  1331  2B2E               	nop
 12742  1332  0000               opt asmopt_pop
 12743                           
 12744                           	line	82
 12745                           	
 12746                           i1l2862:	
 12747  1333                     ;LCD.c: 82:     RD7 = 0;
 12748                           	bcf	status, 5	;RP0=0, select bank0
 12749  1333  1283               	bcf	status, 6	;RP1=0, select bank0
 12750  1334  1303               	bcf	(71/8),(71)&7	;volatile
 12751  1335  1388               	line	83
 12752                           	
 12753                           i1l384:	
 12754  1336                     	return
 12755  1336  0008               	opt stack 0
 12756                           GLOBAL	__end_ofi1_lcd_cmd
 12757                           	__end_ofi1_lcd_cmd:
 12758  1337                     	signat	i1_lcd_cmd,89
 12759                           	global	i1_lcd_port
 12760                           
 12761 ;; *************** function i1_lcd_port *****************
 12762 ;; Defined at:
 12763 ;;		line 24 in file "LCD.c"
 12764 ;; Parameters:    Size  Location     Type
 12765 ;;  a               1    wreg     unsigned char 
 12766 ;; Auto vars:     Size  Location     Type
 12767 ;;  a               1    0[COMMON] unsigned char 
 12768 ;; Return value:  Size  Location     Type
 12769 ;;                  1    wreg      void 
 12770 ;; Registers used:
 12771 ;;		wreg
 12772 ;; Tracked objects:
 12773 ;;		On entry : 0/0
 12774 ;;		On exit  : 0/0
 12775 ;;		Unchanged: 0/0
 12776 ;; Data sizes:     COMMON   BANK0   BANK1   BANK3   BANK2
 12777 ;;      Params:         0       0       0       0       0
 12778 ;;      Locals:         1       0       0       0       0
 12779 ;;      Temps:          0       0       0       0       0
 12780 ;;      Totals:         1       0       0       0       0
 12781 ;;Total ram usage:        1 bytes
 12782 ;; Hardware stack levels used:    1
 12783 ;; This function calls:
 12784 ;;		Nothing
 12785 ;; This function is called by:
 12786 ;;		i1_lcd_cmd
 12787 ;; This function uses a non-reentrant model
 12788 ;;
 12789                           psect	text48,local,class=CODE,delta=2,merge=1,group=0
 12790                           	line	24
 12791                           global __ptext48
 12792                           __ptext48:	;psect for function i1_lcd_port
 12793  15E6                     psect	text48
 12794                           	file	"LCD.c"
 12795                           	line	24
 12796                           	global	__size_ofi1_lcd_port
 12797                           	__size_ofi1_lcd_port	equ	__end_ofi1_lcd_port-i1_lcd_port
 12798  003F                     	
 12799                           i1_lcd_port:	
 12800  15E6                     ;incstack = 0
 12801 ;; hardware stack exceeded
 12802                           	opt	stack 0
 12803                           ; Regs used in i1_lcd_port: [wreg]
 12804                           ;i1lcd_port@a stored from wreg
 12805                           	movwf	(i1lcd_port@a)
 12806  15E6  00F0               	line	26
 12807                           	
 12808                           i1l2744:	
 12809  15E7                     ;LCD.c: 26:     if(a & 1){
 12810                           	btfss	(i1lcd_port@a),(0)&7
 12811  15E7  1C70               	goto	u325_21
 12812  15E8  2DEA               	goto	u325_20
 12813  15E9  2DEB               u325_21:
 12814  15EA                     	goto	i1l365
 12815  15EA  2DEF               u325_20:
 12816  15EB                     	line	27
 12817                           	
 12818                           i1l2746:	
 12819  15EB                     ;LCD.c: 27:         RA0 = 1;
 12820                           	bcf	status, 5	;RP0=0, select bank0
 12821  15EB  1283               	bcf	status, 6	;RP1=0, select bank0
 12822  15EC  1303               	bsf	(40/8),(40)&7	;volatile
 12823  15ED  1405               	line	28
 12824                           ;LCD.c: 28:     } else {
 12825                           	goto	i1l366
 12826  15EE  2DF2               	
 12827                           i1l365:	
 12828  15EF                     	line	29
 12829                           ;LCD.c: 29:         RA0 = 0;
 12830                           	bcf	status, 5	;RP0=0, select bank0
 12831  15EF  1283               	bcf	status, 6	;RP1=0, select bank0
 12832  15F0  1303               	bcf	(40/8),(40)&7	;volatile
 12833  15F1  1005               	line	30
 12834                           ;LCD.c: 30:     }
 12835                           	
 12836                           i1l366:	
 12837  15F2                     	line	32
 12838                           ;LCD.c: 32:     if(a & 2){
 12839                           	btfss	(i1lcd_port@a),(1)&7
 12840  15F2  1CF0               	goto	u326_21
 12841  15F3  2DF5               	goto	u326_20
 12842  15F4  2DF6               u326_21:
 12843  15F5                     	goto	i1l367
 12844  15F5  2DF8               u326_20:
 12845  15F6                     	line	33
 12846                           	
 12847                           i1l2748:	
 12848  15F6                     ;LCD.c: 33:         RA1 = 1;
 12849                           	bsf	(41/8),(41)&7	;volatile
 12850  15F6  1485               	line	34
 12851                           ;LCD.c: 34:     } else {
 12852                           	goto	i1l368
 12853  15F7  2DF9               	
 12854                           i1l367:	
 12855  15F8                     	line	35
 12856                           ;LCD.c: 35:         RA1 = 0;
 12857                           	bcf	(41/8),(41)&7	;volatile
 12858  15F8  1085               	line	36
 12859                           ;LCD.c: 36:     }
 12860                           	
 12861                           i1l368:	
 12862  15F9                     	line	38
 12863                           ;LCD.c: 38:     if(a & 4){
 12864                           	btfss	(i1lcd_port@a),(2)&7
 12865  15F9  1D70               	goto	u327_21
 12866  15FA  2DFC               	goto	u327_20
 12867  15FB  2DFD               u327_21:
 12868  15FC                     	goto	i1l369
 12869  15FC  2DFF               u327_20:
 12870  15FD                     	line	39
 12871                           	
 12872                           i1l2750:	
 12873  15FD                     ;LCD.c: 39:         RA2 = 1;
 12874                           	bsf	(42/8),(42)&7	;volatile
 12875  15FD  1505               	line	40
 12876                           ;LCD.c: 40:     } else {
 12877                           	goto	i1l370
 12878  15FE  2E00               	
 12879                           i1l369:	
 12880  15FF                     	line	41
 12881                           ;LCD.c: 41:         RA2 = 0;
 12882                           	bcf	(42/8),(42)&7	;volatile
 12883  15FF  1105               	line	42
 12884                           ;LCD.c: 42:     }
 12885                           	
 12886                           i1l370:	
 12887  1600                     	line	44
 12888                           ;LCD.c: 44:     if(a & 8){
 12889                           	btfss	(i1lcd_port@a),(3)&7
 12890  1600  1DF0               	goto	u328_21
 12891  1601  2E03               	goto	u328_20
 12892  1602  2E04               u328_21:
 12893  1603                     	goto	i1l371
 12894  1603  2E06               u328_20:
 12895  1604                     	line	45
 12896                           	
 12897                           i1l2752:	
 12898  1604                     ;LCD.c: 45:         RA3 = 1;
 12899                           	bsf	(43/8),(43)&7	;volatile
 12900  1604  1585               	line	46
 12901                           ;LCD.c: 46:     } else {
 12902                           	goto	i1l372
 12903  1605  2E07               	
 12904                           i1l371:	
 12905  1606                     	line	47
 12906                           ;LCD.c: 47:         RA3 = 0;
 12907                           	bcf	(43/8),(43)&7	;volatile
 12908  1606  1185               	line	48
 12909                           ;LCD.c: 48:     }
 12910                           	
 12911                           i1l372:	
 12912  1607                     	line	50
 12913                           ;LCD.c: 50:     if(a & 16){
 12914                           	btfss	(i1lcd_port@a),(4)&7
 12915  1607  1E70               	goto	u329_21
 12916  1608  2E0A               	goto	u329_20
 12917  1609  2E0B               u329_21:
 12918  160A                     	goto	i1l373
 12919  160A  2E0D               u329_20:
 12920  160B                     	line	51
 12921                           	
 12922                           i1l2754:	
 12923  160B                     ;LCD.c: 51:         RA4 = 1;
 12924                           	bsf	(44/8),(44)&7	;volatile
 12925  160B  1605               	line	52
 12926                           ;LCD.c: 52:     } else {
 12927                           	goto	i1l374
 12928  160C  2E0E               	
 12929                           i1l373:	
 12930  160D                     	line	53
 12931                           ;LCD.c: 53:         RA4 = 0;
 12932                           	bcf	(44/8),(44)&7	;volatile
 12933  160D  1205               	line	54
 12934                           ;LCD.c: 54:     }
 12935                           	
 12936                           i1l374:	
 12937  160E                     	line	56
 12938                           ;LCD.c: 56:     if(a & 32){
 12939                           	btfss	(i1lcd_port@a),(5)&7
 12940  160E  1EF0               	goto	u330_21
 12941  160F  2E11               	goto	u330_20
 12942  1610  2E12               u330_21:
 12943  1611                     	goto	i1l375
 12944  1611  2E14               u330_20:
 12945  1612                     	line	57
 12946                           	
 12947                           i1l2756:	
 12948  1612                     ;LCD.c: 57:         RA5 = 1;
 12949                           	bsf	(45/8),(45)&7	;volatile
 12950  1612  1685               	line	58
 12951                           ;LCD.c: 58:     } else {
 12952                           	goto	i1l376
 12953  1613  2E15               	
 12954                           i1l375:	
 12955  1614                     	line	59
 12956                           ;LCD.c: 59:         RA5 = 0;
 12957                           	bcf	(45/8),(45)&7	;volatile
 12958  1614  1285               	line	60
 12959                           ;LCD.c: 60:     }
 12960                           	
 12961                           i1l376:	
 12962  1615                     	line	62
 12963                           ;LCD.c: 62:     if(a & 64){
 12964                           	btfss	(i1lcd_port@a),(6)&7
 12965  1615  1F70               	goto	u331_21
 12966  1616  2E18               	goto	u331_20
 12967  1617  2E19               u331_21:
 12968  1618                     	goto	i1l377
 12969  1618  2E1B               u331_20:
 12970  1619                     	line	63
 12971                           	
 12972                           i1l2758:	
 12973  1619                     ;LCD.c: 63:         RA6 = 1;
 12974                           	bsf	(46/8),(46)&7	;volatile
 12975  1619  1705               	line	64
 12976                           ;LCD.c: 64:     } else {
 12977                           	goto	i1l378
 12978  161A  2E1C               	
 12979                           i1l377:	
 12980  161B                     	line	65
 12981                           ;LCD.c: 65:         RA6 = 0;
 12982                           	bcf	(46/8),(46)&7	;volatile
 12983  161B  1305               	line	66
 12984                           ;LCD.c: 66:     }
 12985                           	
 12986                           i1l378:	
 12987  161C                     	line	68
 12988                           ;LCD.c: 68:     if(a & 128){
 12989                           	btfss	(i1lcd_port@a),(7)&7
 12990  161C  1FF0               	goto	u332_21
 12991  161D  2E1F               	goto	u332_20
 12992  161E  2E20               u332_21:
 12993  161F                     	goto	i1l379
 12994  161F  2E22               u332_20:
 12995  1620                     	line	69
 12996                           	
 12997                           i1l2760:	
 12998  1620                     ;LCD.c: 69:         RA7 = 1;
 12999                           	bsf	(47/8),(47)&7	;volatile
 13000  1620  1785               	line	70
 13001                           ;LCD.c: 70:     } else {
 13002                           	goto	i1l381
 13003  1621  2E24               	
 13004                           i1l379:	
 13005  1622                     	line	71
 13006                           ;LCD.c: 71:         RA7 = 0;
 13007                           	bcf	(47/8),(47)&7	;volatile
 13008  1622  1385               	goto	i1l381
 13009  1623  2E24               	line	72
 13010                           ;LCD.c: 72:     }
 13011                           	
 13012                           i1l380:	
 13013  1624                     	line	73
 13014                           	
 13015                           i1l381:	
 13016  1624                     	return
 13017  1624  0008               	opt stack 0
 13018                           GLOBAL	__end_ofi1_lcd_port
 13019                           	__end_ofi1_lcd_port:
 13020  1625                     	signat	i1_lcd_port,89
 13021                           global	___latbits
 13022                           ___latbits	equ	2
 13023  0002                     	global	btemp
 13024                           	btemp set 07Eh
 13025  007E                     
 13026                           	DABS	1,126,2	;btemp
 13027                           	global	wtemp0
 13028                           	wtemp0 set btemp+0
 13029  007E                     	end


Data Sizes:
    Strings     86
    Constant    0
    Data        12
    BSS         32
    Persistent  0
    Stack       0

Auto Spaces:
    Space          Size  Autos    Used
    COMMON           14      9      14
    BANK0            80     78      80
    BANK1            80      8      45
    BANK3            96      0       0
    BANK2            96      0       0

Pointer List with Targets:

    lcd_write_string@a	PTR unsigned char  size(2) Largest target is 16
		 -> STR_15(CODE[15]), STR_14(CODE[16]), STR_13(CODE[2]), s1(BANK1[5]), 
		 -> STR_12(CODE[2]), STR_11(CODE[2]), STR_10(CODE[2]), STR_9(CODE[2]), 
		 -> STR_8(CODE[6]), STR_7(CODE[9]), STR_6(CODE[13]), STR_5(CODE[10]), 
		 -> STR_4(CODE[6]), STR_3(CODE[7]), STR_2(CODE[6]), STR_1(CODE[7]), 


Critical Paths under _main in COMMON

    None.

Critical Paths under _isr in COMMON

    i1_lcd_clear->i1_lcd_cmd
    i1_lcd_cmd->i1_lcd_port

Critical Paths under _main in BANK0

    _lcd_init->_lcd_cmd
    _boton_lcd->_slave_1
    _slave_2->_I2C_Master_Write
    _lcd_clear->_lcd_cmd
    _slave_1->_b0
    _b2->___fltol
    _b1->___fltol
    _b0->___fltol
    ___xxtofl->___wmul
    ___fltol->___fladd
    ___flneg->___xxtofl
    ___fladd->___flneg
    _separa_digitos_rtc->___awdiv
    _mostrar_lcd->_lcd_write_string
    _lcd_write_string->_lcd_write_char
    _lcd_write_char->_lcd_port
    _lcd_set_cursor->_lcd_cmd
    _lcd_cmd->_lcd_port
    _Update_Current_Date_Time->_I2C_Master_Write
    _BCD_2_DEC->_I2C_Master_Read
    _BCD_2_DEC->___wmul
    _Set_Time_Date->_I2C_Master_Write
    _I2C_Master_Write->_DEC_2_BCD
    _DEC_2_BCD->___awdiv
    _I2C_Master_Init->___lldiv

Critical Paths under _isr in BANK0

    None.

Critical Paths under _main in BANK1

    _boton_lcd->_slave_1

Critical Paths under _isr in BANK1

    None.

Critical Paths under _main in BANK3

    None.

Critical Paths under _isr in BANK3

    None.

Critical Paths under _main in BANK2

    None.

Critical Paths under _isr in BANK2

    None.

Call Graph Tables:

 ---------------------------------------------------------------------------------
 (Depth) Function   	        Calls       Base Space   Used Autos Params    Refs
 ---------------------------------------------------------------------------------
 (0) _main                                                 2     2      0   52140
                                             76 BANK0      2     2      0
                    _I2C_Master_Init
                      _Set_Time_Date
           _Update_Current_Date_Time
                       _apagar_luces
                          _boton_lcd
                   _check_infrarrojo
               _configInterrupciones
                        _configPorts
                       _initOsci8MHZ
                          _lcd_clear
                           _lcd_init
                     _lcd_set_cursor
                   _lcd_write_string
                    _primera_llamada
                    _segunda_llamada
                    _tercera_llamada
 ---------------------------------------------------------------------------------
 (1) _tercera_llamada                                      5     3      2     218
                                              0 BANK0      5     3      2
 ---------------------------------------------------------------------------------
 (1) _segunda_llamada                                      5     3      2     218
                                              0 BANK0      5     3      2
 ---------------------------------------------------------------------------------
 (1) _primera_llamada                                      5     3      2     218
                                              0 BANK0      5     3      2
 ---------------------------------------------------------------------------------
 (1) _lcd_init                                             2     2      0     374
                                              4 BANK0      2     2      0
                            _lcd_cmd
                           _lcd_port
 ---------------------------------------------------------------------------------
 (1) _initOsci8MHZ                                         0     0      0       0
 ---------------------------------------------------------------------------------
 (1) _configPorts                                          0     0      0       0
 ---------------------------------------------------------------------------------
 (1) _configInterrupciones                                 0     0      0       0
 ---------------------------------------------------------------------------------
 (1) _check_infrarrojo                                     2     2      0       0
                                              0 BANK0      2     2      0
 ---------------------------------------------------------------------------------
 (1) _boton_lcd                                            0     0      0   39085
                     _lcd_set_cursor
                     _lcd_write_char
                   _lcd_write_string
                        _mostrar_lcd
                 _separa_digitos_rtc
                            _slave_1
                            _slave_2
 ---------------------------------------------------------------------------------
 (2) _slave_2                                              3     3      0    5399
                                             15 BANK0      3     3      0
                    _I2C_Master_Read
                   _I2C_Master_Start
                    _I2C_Master_Stop
                   _I2C_Master_Write
                          _lcd_clear
                     _lcd_set_cursor
                   _lcd_write_string
 ---------------------------------------------------------------------------------
 (1) _lcd_clear                                            0     0      0     198
                            _lcd_cmd
 ---------------------------------------------------------------------------------
 (2) _slave_1                                             13    13      0   24706
                                             71 BANK0      5     5      0
                                              0 BANK1      8     8      0
                    _I2C_Master_Read
                   _I2C_Master_Start
                    _I2C_Master_Stop
                   _I2C_Master_Write
                           ___xxtofl
                                 _b0
                                 _b1
                                 _b2
                     _lcd_set_cursor
                     _lcd_write_char
                   _lcd_write_string
 ---------------------------------------------------------------------------------
 (3) _b2                                                  11     7      4    2384
                                             59 BANK0      7     3      4
                            ___fldiv
                            ___fltol
                           ___xxtofl (ARG)
                           _num_case
 ---------------------------------------------------------------------------------
 (3) _b1                                                  11     7      4    7981
                                             59 BANK0     11     7      4
                            ___awdiv
                            ___fladd
                            ___fldiv
                            ___flneg
                            ___fltol
                             ___wmul
                           ___xxtofl
                           _num_case
 ---------------------------------------------------------------------------------
 (3) _b0                                                  12     8      4    8194
                                             59 BANK0     12     8      4
                            ___awdiv
                             ___bmul
                            ___fladd
                            ___fldiv
                            ___flneg
                            ___fltol
                             ___wmul
                           ___xxtofl
                           _num_case
 ---------------------------------------------------------------------------------
 (4) _num_case                                             4     4      0      54
                                              0 BANK0      4     4      0
 ---------------------------------------------------------------------------------
 (4) ___xxtofl                                            14    10      4     702
                                              6 BANK0     14    10      4
                             ___wmul (ARG)
 ---------------------------------------------------------------------------------
 (4) ___fltol                                             11     7      4     609
                                             48 BANK0     11     7      4
                            ___fladd (ARG)
                            ___fldiv (ARG)
                            ___flneg (ARG)
                             ___wmul (ARG)
                           ___xxtofl (ARG)
 ---------------------------------------------------------------------------------
 (4) ___flneg                                              4     0      4     197
                                             20 BANK0      4     0      4
                             ___wmul (ARG)
                           ___xxtofl (ARG)
 ---------------------------------------------------------------------------------
 (4) ___fldiv                                             26    18      8    1577
                                              0 BANK0     26    18      8
 ---------------------------------------------------------------------------------
 (4) ___fladd                                             24    16      8    2414
                                             24 BANK0     24    16      8
                            ___flneg (ARG)
                             ___wmul (ARG)
                           ___xxtofl (ARG)
 ---------------------------------------------------------------------------------
 (4) ___bmul                                               4     3      1     168
                                              0 BANK0      4     3      1
 ---------------------------------------------------------------------------------
 (2) _separa_digitos_rtc                                   1     1      0    3028
                                              9 BANK0      1     1      0
                            ___awdiv
                            ___awmod
 ---------------------------------------------------------------------------------
 (2) _mostrar_lcd                                          1     1      0    2976
                                             11 BANK0      1     1      0
                     _lcd_set_cursor
                     _lcd_write_char
                   _lcd_write_string
 ---------------------------------------------------------------------------------
 (1) _lcd_write_string                                     7     5      2    1504
                                              4 BANK0      7     5      2
                     _lcd_write_char
 ---------------------------------------------------------------------------------
 (2) _lcd_write_char                                       3     3      0     198
                                              1 BANK0      3     3      0
                           _lcd_port
 ---------------------------------------------------------------------------------
 (1) _lcd_set_cursor                                       2     1      1    1274
                                              4 BANK0      2     1      1
                            _lcd_cmd
 ---------------------------------------------------------------------------------
 (2) _lcd_cmd                                              3     3      0     198
                                              1 BANK0      3     3      0
                           _lcd_port
 ---------------------------------------------------------------------------------
 (3) _lcd_port                                             1     1      0     176
                                              0 BANK0      1     1      0
 ---------------------------------------------------------------------------------
 (1) _apagar_luces                                         3     3      0      22
                                              0 BANK0      3     3      0
 ---------------------------------------------------------------------------------
 (1) _Update_Current_Date_Time                             0     0      0    3471
                          _BCD_2_DEC
                    _I2C_Master_Read
                   _I2C_Master_Start
                    _I2C_Master_Stop
                   _I2C_Master_Write
 ---------------------------------------------------------------------------------
 (3) _I2C_Master_Read                                      6     4      2     805
                                              0 BANK0      6     4      2
                    _I2C_Master_Wait
 ---------------------------------------------------------------------------------
 (2) _BCD_2_DEC                                            4     2      2    1048
                                              6 BANK0      4     2      2
                    _I2C_Master_Read (ARG)
                             ___wmul
 ---------------------------------------------------------------------------------
 (4) ___wmul                                               6     2      4     548
                                              0 BANK0      6     2      4
 ---------------------------------------------------------------------------------
 (1) _Set_Time_Date                                        0     0      0    5146
                          _DEC_2_BCD
                   _I2C_Master_Start
                    _I2C_Master_Stop
                   _I2C_Master_Write
 ---------------------------------------------------------------------------------
 (3) _I2C_Master_Write                                     2     0      2    1618
                                             13 BANK0      2     0      2
                          _DEC_2_BCD (ARG)
                    _I2C_Master_Wait
 ---------------------------------------------------------------------------------
 (3) _I2C_Master_Stop                                      0     0      0       0
                    _I2C_Master_Wait
 ---------------------------------------------------------------------------------
 (3) _I2C_Master_Start                                     0     0      0       0
                    _I2C_Master_Wait
 ---------------------------------------------------------------------------------
 (4) _I2C_Master_Wait                                      0     0      0       0
 ---------------------------------------------------------------------------------
 (2) _DEC_2_BCD                                            4     2      2    3528
                                              9 BANK0      4     2      2
                            ___awdiv
                            ___awmod
 ---------------------------------------------------------------------------------
 (3) ___awmod                                              7     3      4    1360
                                              0 BANK0      7     3      4
 ---------------------------------------------------------------------------------
 (4) ___awdiv                                              9     5      4    1668
                                              0 BANK0      9     5      4
 ---------------------------------------------------------------------------------
 (1) _I2C_Master_Init                                      8     4      4     412
                                             14 BANK0      8     4      4
                            ___lldiv
 ---------------------------------------------------------------------------------
 (2) ___lldiv                                             14     6      8     314
                                              0 BANK0     14     6      8
 ---------------------------------------------------------------------------------
 Estimated maximum stack depth 4
 ---------------------------------------------------------------------------------
 (Depth) Function   	        Calls       Base Space   Used Autos Params    Refs
 ---------------------------------------------------------------------------------
 (6) _isr                                                  5     5      0     198
                                              4 COMMON     5     5      0
                        i1_lcd_clear
 ---------------------------------------------------------------------------------
 (7) i1_lcd_clear                                          0     0      0     198
                          i1_lcd_cmd
 ---------------------------------------------------------------------------------
 (8) i1_lcd_cmd                                            3     3      0     198
                                              1 COMMON     3     3      0
                         i1_lcd_port
 ---------------------------------------------------------------------------------
 (9) i1_lcd_port                                           1     1      0     176
                                              0 COMMON     1     1      0
 ---------------------------------------------------------------------------------
 Estimated maximum stack depth 9
 ---------------------------------------------------------------------------------

 Call Graph Graphs:

 _main (ROOT)
   _I2C_Master_Init
     ___lldiv
   _Set_Time_Date
     _DEC_2_BCD
       ___awdiv
       ___awmod
     _I2C_Master_Start
       _I2C_Master_Wait
     _I2C_Master_Stop
       _I2C_Master_Wait
     _I2C_Master_Write
       _DEC_2_BCD (ARG)
         ___awdiv
         ___awmod
       _I2C_Master_Wait (ARG)
   _Update_Current_Date_Time
     _BCD_2_DEC
       _I2C_Master_Read (ARG)
         _I2C_Master_Wait
       ___wmul (ARG)
     _I2C_Master_Read
       _I2C_Master_Wait
     _I2C_Master_Start
       _I2C_Master_Wait
     _I2C_Master_Stop
       _I2C_Master_Wait
     _I2C_Master_Write
       _DEC_2_BCD (ARG)
         ___awdiv
         ___awmod
       _I2C_Master_Wait (ARG)
   _apagar_luces
   _boton_lcd
     _lcd_set_cursor
       _lcd_cmd
         _lcd_port
     _lcd_write_char
       _lcd_port
     _lcd_write_string
       _lcd_write_char
         _lcd_port
     _mostrar_lcd
       _lcd_set_cursor
         _lcd_cmd
           _lcd_port
       _lcd_write_char
         _lcd_port
       _lcd_write_string
         _lcd_write_char
           _lcd_port
     _separa_digitos_rtc
       ___awdiv
       ___awmod
     _slave_1
       _I2C_Master_Read
         _I2C_Master_Wait
       _I2C_Master_Start
         _I2C_Master_Wait
       _I2C_Master_Stop
         _I2C_Master_Wait
       _I2C_Master_Write
         _DEC_2_BCD (ARG)
           ___awdiv
           ___awmod
         _I2C_Master_Wait (ARG)
       ___xxtofl
         ___wmul (ARG)
       _b0
         ___awdiv
         ___bmul
         ___fladd
           ___flneg (ARG)
             ___wmul (ARG)
             ___xxtofl (ARG)
               ___wmul (ARG)
           ___wmul (ARG)
           ___xxtofl (ARG)
             ___wmul (ARG)
         ___fldiv
         ___flneg
           ___wmul (ARG)
           ___xxtofl (ARG)
             ___wmul (ARG)
         ___fltol
           ___fladd (ARG)
             ___flneg (ARG)
               ___wmul (ARG)
               ___xxtofl (ARG)
                 ___wmul (ARG)
             ___wmul (ARG)
             ___xxtofl (ARG)
               ___wmul (ARG)
           ___fldiv (ARG)
           ___flneg (ARG)
             ___wmul (ARG)
             ___xxtofl (ARG)
               ___wmul (ARG)
           ___wmul (ARG)
           ___xxtofl (ARG)
             ___wmul (ARG)
         ___wmul
         ___xxtofl
           ___wmul (ARG)
         _num_case
       _b1
         ___awdiv
         ___fladd
           ___flneg (ARG)
             ___wmul (ARG)
             ___xxtofl (ARG)
               ___wmul (ARG)
           ___wmul (ARG)
           ___xxtofl (ARG)
             ___wmul (ARG)
         ___fldiv
         ___flneg
           ___wmul (ARG)
           ___xxtofl (ARG)
             ___wmul (ARG)
         ___fltol
           ___fladd (ARG)
             ___flneg (ARG)
               ___wmul (ARG)
               ___xxtofl (ARG)
                 ___wmul (ARG)
             ___wmul (ARG)
             ___xxtofl (ARG)
               ___wmul (ARG)
           ___fldiv (ARG)
           ___flneg (ARG)
             ___wmul (ARG)
             ___xxtofl (ARG)
               ___wmul (ARG)
           ___wmul (ARG)
           ___xxtofl (ARG)
             ___wmul (ARG)
         ___wmul
         ___xxtofl
           ___wmul (ARG)
         _num_case
       _b2
         ___fldiv
         ___fltol
           ___fladd (ARG)
             ___flneg (ARG)
               ___wmul (ARG)
               ___xxtofl (ARG)
                 ___wmul (ARG)
             ___wmul (ARG)
             ___xxtofl (ARG)
               ___wmul (ARG)
           ___fldiv (ARG)
           ___flneg (ARG)
             ___wmul (ARG)
             ___xxtofl (ARG)
               ___wmul (ARG)
           ___wmul (ARG)
           ___xxtofl (ARG)
             ___wmul (ARG)
         ___xxtofl (ARG)
           ___wmul (ARG)
         _num_case (ARG)
       _lcd_set_cursor
         _lcd_cmd
           _lcd_port
       _lcd_write_char
         _lcd_port
       _lcd_write_string
         _lcd_write_char
           _lcd_port
     _slave_2
       _I2C_Master_Read
         _I2C_Master_Wait
       _I2C_Master_Start
         _I2C_Master_Wait
       _I2C_Master_Stop
         _I2C_Master_Wait
       _I2C_Master_Write
         _DEC_2_BCD (ARG)
           ___awdiv
           ___awmod
         _I2C_Master_Wait (ARG)
       _lcd_clear
         _lcd_cmd
           _lcd_port
       _lcd_set_cursor
         _lcd_cmd
           _lcd_port
       _lcd_write_string
         _lcd_write_char
           _lcd_port
   _check_infrarrojo
   _configInterrupciones
   _configPorts
   _initOsci8MHZ
   _lcd_clear
     _lcd_cmd
       _lcd_port
   _lcd_init
     _lcd_cmd
       _lcd_port
     _lcd_port
   _lcd_set_cursor
     _lcd_cmd
       _lcd_port
   _lcd_write_string
     _lcd_write_char
       _lcd_port
   _primera_llamada
   _segunda_llamada
   _tercera_llamada

 _isr (ROOT)
   i1_lcd_clear
     i1_lcd_cmd
       i1_lcd_port

 Address spaces:
Name               Size   Autos  Total    Cost      Usage
BANK3               60      0       0       9        0.0%
BITBANK3            60      0       0       8        0.0%
SFR3                 0      0       0       4        0.0%
BITSFR3              0      0       0       4        0.0%
BANK2               60      0       0      11        0.0%
BITBANK2            60      0       0      10        0.0%
SFR2                 0      0       0       5        0.0%
BITSFR2              0      0       0       5        0.0%
BANK1               50      8      2D       7       56.3%
BITBANK1            50      0       0       6        0.0%
SFR1                 0      0       0       2        0.0%
BITSFR1              0      0       0       2        0.0%
BANK0               50     4E      50       5      100.0%
BITBANK0            50      0       0       4        0.0%
SFR0                 0      0       0       1        0.0%
BITSFR0              0      0       0       1        0.0%
COMMON               E      9       E       1      100.0%
BITCOMMON            E      0       0       0        0.0%
CODE                 0      0       0       0        0.0%
DATA                 0      0      8B      12        0.0%
ABS                  0      0      8B       3        0.0%
NULL                 0      0       0       0        0.0%
STACK                0      0       0       2        0.0%
EEDATA             100      0       0       0        0.0%


Microchip Technology PIC Macro Assembler V2.00 build -1524193055 
Symbol Table                                                                                   Sat Feb 29 11:34:53 2020

                     ___fldiv@aexp 0039                       ___fldiv@bexp 0038  
                                pc 0002                       ___fldiv@sign 0031  
                   ___bmul@product 0022                        __CFG_CP$OFF 0000  
                               _b0 0BB5                                 _b1 0A5A  
                               _b2 156F                       ___awdiv@sign 0026  
                               _s1 00B8                 __size_of_DEC_2_BCD 0037  
                               fsr 0004                ___wmul@multiplicand 0022  
                 ?_segunda_llamada 0020                                ?_b0 005B  
                              ?_b1 005B                                ?_b2 005B  
                              l202 1309                                l211 1534  
                              l220 14A5                                l221 14C1  
                              l205 12AC                                b0@m 005B  
                              l214 0D33                                l230 08FD  
                              l222 14C0                                l231 0913  
                              l223 14CA                                l320 12E7  
                              l208 13E3                                l240 1729  
                              l232 0913                                l224 14CA  
                              l160 0A55                                l217 069D  
                              l241 16D3                                l161 0A56  
                              b1@m 005B                                l314 156E  
                              l402 164F                                l250 172B  
                              l242 16D8                                l170 0E87  
                              l162 0A57                                l323 12C5  
                              l403 162A                                l243 16DD  
                              l227 0FFF                                l171 0ED5  
                              l163 0A57                                l332 12D8  
                              l404 166C                                l180 07DE  
                              l244 16E2                                l172 0EAA  
                              l317 12DA                                l405 166C  
                              l245 16E7                                l253 15A8  
                              l173 0ED4                                b2@m 005B  
                              l318 12DA                                l238 1701  
                              l246 16EC                                l174 0EC8  
                              l166 0E34                                l190 143D  
                              l158 09FE                                l319 12E7  
                              l335 14F2                                l183 0BB4  
                              l247 16F1                                l239 16CE  
                              l167 0ED7                                l175 0ED3  
                              l191 143D                                l159 0A53  
                              l336 14F5                                l520 133C  
                              l248 16F6                                l256 0B05  
                              l176 0ED2                                l168 0E64  
                              l329 12CE                                l337 14FD  
                              l521 1345                                l249 16FB  
                              l169 0ED6                                l177 0ED7  
                              l530 17BA                                l370 15C1  
                              l522 134F                                l186 1410  
                              l194 146A                                l531 17E5  
                              l371 15C7                                l523 1351  
                              l259 0C72                                l187 1410  
                              l195 146A                                l532 17F5  
                              l380 15E5                                l372 15C8  
                              l533 17FF                                l381 15E5  
                              l373 15CE                                l365 15B2  
                              l285 12A4                                l526 17F6  
                              l198 0828                                l374 15CF  
                              l366 15B3                                l390 129D  
                              l527 17B4                                l199 0828  
                              l375 15D5                                l367 15B9  
                              l528 17A6                                l640 0838  
                              l376 15D6                                l368 15BA  
                              l384 136D                                l800 0160  
                              l529 17B9                                l641 0846  
                              l377 15DC                                l369 15C0  
                              l393 137E                                l801 01B3  
                              _AR1 00A7                                l650 089B  
                              l642 088B                                l378 15DD  
                              l394 138F                                l810 022E  
                              l802 0173                                l643 085D  
                              l379 15E3                                l395 138E  
                              l811 023D                                l803 02FF  
                              l387 16C9                                l644 0851  
                              l660 1771                                l396 138F  
                              l820 0293                                l812 0254  
                              l804 01B2                                l645 0862  
                              l661 177F                                l653 173B  
                              l821 028A                                l813 0276  
                              l805 019B                                l646 0863  
                              l662 178B                                l654 1745  
                              l830 02E8                                l822 0292  
                              l814 0255                                l806 019E  
                              l910 0D84                                l647 087C  
                              l663 1790                                l655 1780  
                              l399 07FA                                l831 02EF  
                              l823 0291                                l815 0263  
                              l807 01A4                                l911 0DA0  
                              l648 088A                                l656 175A  
                              l496 1395                                l832 02F3  
                              l824 02CE                                l808 027C  
                              l816 026A                                l840 0329  
                              l920 0DEE                                l912 0D85  
                              l904 0D50                                l649 0896  
                              l657 174E                                l497 139F  
                              l833 02FF                                l825 02CE  
                              l817 026D                                l809 022F  
                              l841 0326                                l913 0DA7  
                              l905 0D58                                l658 175F  
                              l498 13B4                                l826 02CD  
                              l818 0275                                l850 0419  
                              l842 0332                                l690 0998  
                              l682 0933                                l914 0DB4  
                              l906 0D6A                                l659 1760  
                              l499 13B9                                l827 02E9  
                              l819 027B                                l851 03CB  
                              l843 0343                                l691 098D  
                              l683 09AF                                l915 0DA8  
                              l907 0DF7                                l860 044F  
                              l852 03F2                                l844 0359  
                              l692 099E                                l684 097C  
                              l908 0D7D                                l829 02D9  
                              l861 0474                                l853 03E8  
                              l845 0356                                l693 09AF  
                              l685 0968                                l917 0DBF  
                              l909 0D6F                                l790 00AD  
                              l782 0057                                l870 04F4  
                              l862 046B                                l854 0414  
                              l846 0361                                l678 12F5  
                              l686 0969                                l918 0DBF  
                              l791 00F9                                l783 006D  
                              l863 0473                                l855 0420  
                              l847 0383                                l839 0313  
                              l679 12F6                                l687 097B  
                              l919 0DCB                                l792 00BC  
                              l784 006A                                l864 0472  
                              l856 042A                                l848 0508  
                              l688 099F                                l793 0132  
                              l785 0076                                l865 04AC  
                              l857 044A                                l849 039A  
                              l689 098C                                l794 0160  
                              l786 0083                                l866 04AB  
                              l858 042B                                l795 0157  
                              l787 008F                                l867 04C8  
                              l859 043A                                l796 0133  
                              l788 00A5                                l868 04E4  
                              l797 0140                                l789 00A2  
                              l869 04F0                                l798 0143  
                              l799 0149                                _GIE 005F  
                              _RA0 0028                                _RA1 0029  
                              _RA2 002A                                _RA3 002B  
                              _RA4 002C                                _RA5 002D  
                              _RA6 002E                                _RA7 002F  
                              _RB7 0037                                _RD7 0047  
                     __CFG_CPD$OFF 0000                                _day 00C1  
                              _min 007B                                _sec 006E  
                              _isr 146B                                _pot 00A0  
                              fsr0 0004                                indf 0000  
                     ___awmod@sign 0026                         i1_lcd_port 15E6  
                             ??_b0 005F                               ??_b1 005F  
                             ??_b2 005F                    ?_lcd_set_cursor 0024  
                     __CFG_LVP$OFF 0000                       ___fltol@exp1 005A  
                             l2100 16F1                               l2102 16F6  
                             l2110 1729                               l2200 0890  
                             l2120 12D9                               l3000 0813  
                             l2112 172B                               l2104 16FB  
                             l2202 0896                               l2122 12E0  
                             l3002 0824                               l2130 135F  
                             l2210 12F5                               l2106 1700  
                             l3010 14AC                               l2204 089B  
                             l2140 13A6                               l2060 15B7  
                             l2132 136A                               l2124 1355  
                             l2300 00C0                               l2212 12F6  
                             l2220 0933                               l2108 1701  
                             l3012 14B4                               l3004 149A  
                             l2142 13AD                               l2134 1390  
                             l2070 15DA                               l2062 15BE  
                             l2126 1356                               l2150 133C  
                             l2310 00D4                               l2302 00C4  
                             l2206 12E8                               l2230 0957  
                             l2222 0948                               l2214 0914  
                             l3014 14B5                               l3006 14A0  
                             l2144 13B4                               l2136 1395  
                             l2072 15E1                               l2064 15C5  
                             l2056 15AC                               l2128 135C  
                             l2080 07EC                               l2160 1351  
                             l2152 1340                               l2400 026D  
                             l2320 00E8                               l2312 00D8  
                             l2304 00C8                               l2208 12F2  
                             l2240 0982                               l2232 095E  
                             l2224 0949                               l2216 0929  
                             l3112 1709                               l3016 14C1  
                             l3008 14A5                               l3040 09D3  
                             b0@p0 0065                               l2170 0838  
                             l2162 0829                               l2146 13B9  
                             l2138 1399                               l2066 15CC  
                             l2058 15B0                               l2082 07F7  
                             l2074 07E2                               l2154 1345  
                             l2410 0281                               l2402 0272  
                             l2330 00FA                               l2322 00EC  
                             l2314 00DC                               l2306 00CC  
                             l2250 0044                               l2242 098B  
                             l2234 0967                               l2226 0951  
                             l2218 0932                               l2090 16D8  
                             l3018 14C8                               l3050 09FC  
                             l3042 09DE                               l3034 09B0  
                             l2180 084E                               l2172 083C  
                             l2164 082C                               l2068 15D3  
                             l2076 07E3                               l2156 1347  
                             l2148 133A                               l2420 02A6  
                             l2412 0287                               l2404 0276  
                             l2340 0147                               l2332 0116  
                             l2324 00F0                               l2316 00E0  
                             l2308 00D0                               l2260 005C  
                             l2252 004B                               l2500 03B1  
                             l2244 098D                               l2236 0969  
                             l2228 0953                               l2092 16DD  
                             l2084 16CD                               l3060 0A28  
                             l3052 09FE                               l3044 09F3  
                             l3036 09B5                               l2190 0874  
                             l2182 0851                               l2174 0841  
                             l2166 0830                               l2078 07E9  
                             l2158 134F                               l2430 02E1  
                             l2422 02AA                               l2414 028E  
                             l2406 027C                               l2350 0169  
                             l2342 0149                               l2334 0137  
                             l2326 00F4                               l2318 00E4  
                             l2270 0076                               l2262 0061  
                             l2254 0051                               l2510 03D0  
                             l2502 03B9                               l2246 099F  
                             l2238 097C                               l2094 16E2  
                             l2086 16CE                               l3070 0A4F  
                             l3062 0A38                               l3054 0A03  
                             l3046 09F8                               l3038 09BA  
                             l2192 087A                               l2184 0858  
                             l2176 0846                               l2168 0835  
                             l2440 02FA                               l2432 02E6  
                             l2424 02C8                               l2416 0293  
                             l2408 027D                               l2360 0192  
                             l2352 0172                               l2344 0152  
                             l2336 0140                               l2328 00F9  
                             l2280 008D                               l2272 007B  
                             l2264 006A                               l2256 0055  
                             l2520 0404                               l2512 03E2  
                             l2504 03C1                               l2248 09A4  
                             l2600 0D6F                               l2096 16E7  
                             l2088 16D3                               l3072 0A53  
                             l3064 0A3E                               l3056 0A08  
                             l3048 09FB                               b1@p1 0065  
                             l2194 087C                               l2186 085D  
                             l2178 0848                               l2442 02FE  
                             l2434 02E9                               l2426 02D3  
                             l2418 0298                               l2370 01AD  
                             l2362 019B                               l2354 0173  
                             l2338 0143                               l2346 0157  
                             l2290 00A3                               l2282 008F  
                             l2274 0081                               l2266 006B  
                             l2258 0057                               l2530 0428  
                             l2522 0405                               l2514 03E6  
                             l2506 03C9                               l2450 0311  
                             l2610 0DA8                               l2602 0D7D  
                             l2098 16EC                               l3066 0A43  
                             l3058 0A18                               l2196 0883  
                             l2188 0863                               l2436 02ED  
                             l2428 02D9                               l2380 021F  
                             l2364 019E                               l2356 018A  
                             l2348 0164                               l2372 01B3  
                             l2284 0094                               l2292 00A5  
                             l2276 0083                               l2268 006D  
                             l2540 0443                               l2532 042B  
                             l2524 0414                               l2516 03E8  
                             l2508 03CB                               l2460 0327  
                             l2452 0313                               l2444 0300  
                             l2620 0DE3                               l2612 0DB4  
                             l2604 0D85                               l2700 159B  
                             l3068 0A4A                               l2198 088B  
                             l2710 1733                               l2438 02EF  
                             l2390 0255                               l2374 01C9  
                             l2382 022F                               l2366 01A2  
                             l2358 018E                               l2294 00B3  
                             l2286 0099                               l2278 0089  
                             l2550 0468                               l2534 0434  
                             l2542 044A                               l2518 03F2  
                             l2526 0419                               l2470 0341  
                             l2454 0318                               l2462 0329  
                             l2446 0307                               l2622 0DE8  
                             l2614 0DB8                               l2606 0D89  
                             l2702 15A6                               l2630 1297  
                             l2720 174B                               l2712 1738  
                             l2640 1371                               l2632 1625  
                             l2392 025E                               l2384 0245  
                             l2376 0218                               l2368 01A4  
                             l2296 00B7                               l2288 00A2  
                             l2560 048B                               l2552 046F  
                             l2544 044F                               l2536 0438  
                             l2528 0420                               l2480 0357  
                             l2472 0343                               l2464 0332  
                             l2456 031D                               l2448 030D  
                             l2624 0DEC                               l2616 0DC3  
                             l2608 0D97                               l2704 15A8  
                             l2800 0FEE                               l2730 176A  
                             l2722 174E                               l2714 173B  
                             l2706 172C                               l2650 12C2  
                             l2642 1376                               l2634 162A  
                             l2394 0262                               l2386 024A  
                             l2378 021A                               l2298 00BC  
                             l2570 04D7                               l2562 04A4  
                             l2554 0474                               l2546 0450  
                             l2538 043A                               l2490 0382  
                             l2474 0348                               l2482 0359  
                             l2466 0337                               l2458 0326  
                             l2626 0DEE                               l2618 0DCD  
                             l2802 0FF4                               l2810 08D4  
                             b2@p2 0061                               l2740 178B  
                             l2732 1771                               l2724 1755  
                             l2716 173F                               l2708 172F  
                             l2652 12CF                               l2660 14CB  
                             l2644 137E                               l2636 1646  
                             l2396 0267                               l2388 0253  
                             l2580 04F0                               l2572 04DB  
                             l2556 0479                               l2564 04AC  
                             l2548 0454                               l2484 0369  
                             l2492 0383                               l2476 034D  
                             l2468 033D                               l2628 0DF7  
                             l2820 0907                               l2812 08DE  
                             l2804 089C                               l2900 16B1  
                             l2830 1791                               l2910 1539  
                             l2742 1790                               l2734 1778  
                             l2726 175A                               l2718 1745  
                             l2654 12D4                               l2822 13BA  
                             l2670 14EE                               l2662 14D0  
                             l2646 1386                               l2638 164F  
                             l2398 026A                               l2582 04FF  
                             l2574 04E3                               l2566 04B9  
                             l2558 0487                               l2494 0388  
                             l2486 0375                               l2478 0356  
                             l2590 0D40                               l2814 08E9  
                             l2806 08C3                               l2902 16B7  
                             l2840 17C3                               l2832 17A3  
                             l2912 153C                               l2728 1760  
                             l2736 1780                               l2648 12BD  
                             l2656 12C6                               l2920 0C73  
                             l2824 13E3                               l2672 14F6  
                             l2664 14D8                               l2584 0508  
                             l2576 04EA                               l2568 04C8  
                             l2496 0399                               l2488 0379  
                             l2592 0D50                               l2680 0C53  
                             l2816 08F7                               l2808 08CD  
                             l2904 16BD                               l2842 17D5  
                             l2834 17A6                               l2850 17F6  
                             l2914 156B                               l2738 1785  
                             l2826 14FE                               l2658 12CB  
                             l2674 14FD                               l2666 14E1  
                             l2922 0509                               l2770 0B38  
                             l2762 069E                               l2578 04EE  
                             l2498 039A                               l2594 0D60  
                             l2586 0D37                               l2682 0C65  
                             l2690 0AE2                               l2818 08FD  
                             l2930 0E14                               l2906 16C3  
                             l2852 17FF                               l2844 17E3  
                             l2836 17B4                               l2916 156C  
                             l2908 1535                               l2828 1534  
                             l2668 14E6                               l2780 0B99  
                             l2772 0B41                               l2764 0B06  
                             l2596 0D69                               l2588 0D3C  
                             l2684 0C70                               l2676 0BB5  
                             l2692 0AF8                               l2940 0E45  
                             l2932 0E29                               l2924 0DF8  
                             l2846 17E5                               l2838 17BA  
                             l2918 156D                               l2774 0B7C  
                             l2766 0B24                               l2598 0D6A  
                             l2686 0C72                               l2678 0C3D  
                             l2694 0B03                               l2790 0F47  
                             l2782 0ED8                               l2950 0E76  
                             l2942 0E50                               l2934 0E2E  
                             l2926 0DFF                               l2870 12FC  
                             l2848 17EE                               l2776 0B87  
                             l2768 0B2F                               l2696 0B05  
                             l2688 0A5A                               l2792 0F69  
                             l2784 0EFF                               l2960 0EA4  
                             l2952 0E81                               l2944 0E5A  
                             l2928 0E09                               l2936 0E34  
                             l2880 1305                               l2872 12FF  
                             l2864 129E                               l2778 0B90  
                             l2698 156F                               l2794 0F96  
                             l2786 0F0E                               l2970 0ED0  
                             l2962 0EAA                               l2954 0E87  
                             l2938 0E3B                               l2946 0E64  
                             l2882 1308                               l2874 1302  
                             l2866 12F7                               l2890 167E  
                             l2796 0FB8                               l2788 0F18  
                             l2964 0EB2                               l2956 0E8F  
                             l2948 0E6C                               l2884 12A5  
                             l2876 1303                               l2868 12FA  
                             l2892 168E                               l2972 13E7  
                             l2980 1414                               l2798 0FE3  
                             l2966 0EBC                               l2958 0E99  
                             l2878 1304                               l2894 1698  
                             l2886 166D                               l2974 13F4  
                             l2982 1421                               l2990 144E  
                             l2968 0EC8                               l2896 16A5  
                             l2888 1678                               l2976 1401  
                             l2984 142E                               l2992 145B  
                             l2898 16AB                               l2978 140E  
                             l2986 143B                               l2994 1468  
                             l2996 0805                               l2988 1441  
                             l2998 080C                               ?_isr 0070  
                             STR_1 104F                               STR_2 1056  
                             STR_3 104F                               STR_4 1056  
                             STR_5 103C                               STR_6 102F  
                             STR_7 1046                               STR_8 105C  
                             STR_9 1062                               u2000 0830  
                             u2001 082F                               u2010 083C  
                             u2011 083B                               u2020 084E  
                             u2100 12F2                               u2021 084D  
                             u2101 12F1                               u2110 0929  
                             u2111 0928                               u2040 0861  
                             u2200 09A4                               u2120 0941  
                             u3000 0D83                               u2041 0860  
                             u2201 09A3                               u3001 0D82  
                             u2210 0055                               u2130 0957  
                             u2035 0852                               u2211 0054  
                             u2131 0956                               u2060 0874  
                             u3100 1634                               u2300 0116  
                             u2220 005C                               u2140 095E  
                             u3020 0DA6                               u2061 0873  
                             u2301 0115                               u2221 005B  
                             u2141 095D                               u2125 093C  
                             u3021 0DA5                               u3110 1659  
                             u2310 0121                               u2230 0061  
                             u2055 0864                               u2311 011F  
                             u2231 0060                               u3015 0D98  
                             u2080 0889                               u3200 175E  
                             u3120 166B                               u2400 018E  
                             u2320 0122                               u2240 0081  
                             u2160 097A                               u3040 0DB8  
                             u2081 0888                               u2065 0870  
                             u3201 175D                               u3121 166A  
                             u2401 018D                               u2305 0112  
                             u2241 0080                               u2161 0979  
                             u3041 0DB7                               u2090 0890  
                             u3210 176A                               u3130 1376  
                             u2410 0192                               u2330 0137  
                             u2250 008D                               u2170 0982  
                             u3050 0DBE                               u2091 088F  
                             u2075 087D                               u3211 1769  
                             u3131 1375                               u2411 0191  
                             u2331 0136                               u2251 008C  
                             u2171 0981                               u2155 096A  
                             u3051 0DBD                               u3035 0DAC  
                             u3140 1386                               u2420 01A2  
                             u2340 0147                               u2260 0094  
                             u3060 0DC3                               u3141 1385  
                             u2421 01A1                               u2341 0146  
                             u2261 0093                               u3061 0DC2  
                             u3230 177E                               u3150 14EE  
                             u2510 0262                               u2270 0099  
                             u2190 099D                               u3070 0DD8  
                             u3231 177D                               u3215 1766  
                             u3151 14ED                               u2511 0261  
                             u2271 0098                               u2191 099C  
                             u3400 17F4                               u3240 1785  
                             u3160 1733                               u2600 02B9  
                             u2520 0267                               u2440 01C9  
                             u2360 015F                               u2280 00B3  
                             u3080 0DE8                               u3401 17F3  
                             u3241 1784                               u3225 1772  
                             u3161 1732                               u2521 0266  
                             u2505 0257                               u2441 01C8  
                             u2361 015E                               u2281 00B2  
                             u2185 098F                               u3081 0DE7  
                             u3410 154C                               u3170 173F  
                             u2610 02C8                               u2530 0272  
                             u2450 01EF                               u2370 0164  
                             u2290 00B7                               u3090 0DEC  
                             u3330 08D4                               u3171 173E  
                             u2611 02C7                               u2531 0271  
                             u2451 01F0                               u2443 01C5  
                             u2435 01A6                               u2371 0163  
                             u2355 014B                               u2291 00B6  
                             u3091 0DEB                               u3075 0DD3  
                             u3331 08D3                               u3340 17A3  
                             u3180 174B                               u1900 15DA  
                             u2620 02D3                               u2540 027A  
                             u2460 0201                               u2452 01F5  
                             u2380 0169                               u2700 0341  
                             u3420 0DFF                               u3500 140E  
                             u3341 17A2                               u3181 174A  
                             u1901 15D9                               u2621 02D2  
                             u2605 02B4                               u2541 0279  
                             u2461 0202                               u2453 01F6  
                             u2381 0168                               u2701 0340  
                             u3421 0DFE                               u3501 140D  
                             u1910 15E1                               u2630 02D8  
                             u2550 0281                               u2470 021F  
                             u2462 0207                               u2710 0348  
                             u3430 0E3B                               u3510 1421  
                             u3415 1547                               u1911 15E0  
                             u2631 02D7                               u2551 0280  
                             u2471 021E                               u2463 0208  
                             u2391 017C                               u2711 0347  
                             u3431 0E3A                               u3511 1420  
                             u3360 17B8                               u1920 12E0  
                             u1840 15B0                               u2640 02E6  
                             u2560 0287                               u2480 0245  
                             u2392 0183                               u2800 0404  
                             u2720 034D                               u3440 0E6C  
                             u3600 14A0                               u3520 142E  
                             u3361 17B7                               u1921 12DF  
                             u1841 15AF                               u2641 02E5  
                             u2561 0286                               u2481 0244  
                             u2393 018A                               u2801 0403  
                             u2721 034C                               u3441 0E6B  
                             u3601 149F                               u3505 140A  
                             u3521 142D                               u1930 12E6  
                             u1850 15B7                               u2650 02ED  
                             u2570 028E                               u2490 024A  
                             u2810 041F                               u2730 0369  
                             u3450 0E8F                               u3610 14AC  
                             u3530 143B                               u3355 17A8  
                             u3195 174F                               u1931 12E5  
                             u1851 15B6                               u2651 02EC  
                             u2571 028D                               u2491 0249  
                             u2811 041E                               u2731 0368  
                             u3451 0E8E                               u3611 14AB  
                             u3531 143A                               u3515 141D  
                             u3380 17D5                               u1940 1399  
                             u1860 15BE                               u2660 02FE  
                             u2580 0298                               u2900 0479  
                             u2820 0428                               u2740 0388  
                             u3460 0EB2                               u3620 14C8  
                             u3540 144E                               u3381 17D4  
                             u1941 1398                               u1861 15BD  
                             u2661 02FD                               u2581 0297  
                             u2901 0478                               u2821 0427  
                             u2805 0400                               u2741 0387  
                             u3461 0EB1                               u3621 14C7  
                             u3525 142A                               u3541 144D  
                             u1870 15C5                               u2590 02AA  
                             u2910 048B                               u2750 03D0  
                             u2670 0311                               u3470 0ED0  
                             u3550 145B                               u3375 17BC  
                             u1871 15C4                               u2591 02A9  
                             u2911 048A                               u2751 03CF  
                             u2671 0310                               u3471 0ECF  
                             u3535 1437                               u3551 145A  
                             u1880 15CC                               u2920 049A  
                             u2840 0438                               u2680 0318  
                             u3480 13F4                               u3560 1468  
                             u3385 17D1                               u1881 15CB  
                             u2841 0437                               u2681 0317  
                             u3481 13F3                               u3561 1467  
                             u3545 144A                               u1970 13B3  
                             u3570 080C                               u1890 15D3  
                             u2930 04B9                               u2690 031D  
                             u3490 1401                               u3650 0A4A  
                             u3395 17E6                               u1971 13B2  
                             u1955 13A0                               u3571 080B  
                             u1891 15D2                               u2931 04B8  
                             u2835 042D                               u2691 031C  
                             u3707 14BB                               u3491 1400  
                             u3555 1457                               u3651 0A49  
                             _PEIE 005E                               u3580 0813  
                             u1980 1340                               u2940 04D7  
                             u2860 044E                               u2780 03E6  
                             u1965 13A7                               u3581 0812  
                             u1981 133F                               u2941 04D6  
                             u2925 0495                               u2861 044D  
                             u2781 03E5                               u2765 03D2  
                             u3717 08C9                               u3485 13F0  
                             u3565 1464                               u3590 0824  
                             u1990 134E                               u2950 04EE  
                             u2870 0454                               u3591 0823  
                             u1991 134D                               u2951 04ED  
                             u2935 04B5                               u2871 0453  
                             u2855 043C                               u2775 03DB  
                             u3727 08F1                               u3495 13FD  
                             u2880 0468                               u2960 0D3C  
                             u2945 04D3                               u2881 0467  
                             u2961 0D3B                               u3737 0F07  
                             u2890 046F                               u2970 0D40  
                             u3595 0820                               u3747 07F2  
                             u2891 046E                               u2795 03EA  
                             u2971 0D3F                               u3667 1673  
                             u2980 0D60                               u3757 1365  
                             u2981 0D5F                               u3677 1684  
                             u3687 1694                               u3697 16A2  
                             u2995 0D74                    lcd_write_char@a 0023  
                     __CFG_WRT$OFF 0000             __end_of_lcd_write_char 07FB  
                             _date 00C3                               _main 09B0  
                             _hour 0079                               _modo 00AC  
                             _sens 00A8                               _year 00BD  
                             btemp 007E                               start 000C  
                    __CFG_IESO$OFF 0000                    ___fldiv@new_exp 0032  
                      i1_lcd_clear 1290                  ___bmul@multiplier 0023  
                       i1lcd_cmd@a 0073               __end_of_apagar_luces 0829  
                            ??_isr 0074                   ?_I2C_Master_Init 002E  
                 ?_I2C_Master_Read 0020                   ?_I2C_Master_Wait 0070  
                 ?_I2C_Master_Stop 0070                              b0@bb0 0064  
                            b0@bb1 0063                              b0@bb2 0062  
                            b1@bb1 0063                              b1@bb2 0062  
                    ___fltol@sign1 0059                              b2@bb2 0060  
                  __end_of___fladd 0300                              ?_main 0070  
                  __end_of___fldiv 0509                    __end_of___awdiv 089C  
                  __end_of___flneg 12F7                              STR_10 1062  
                            STR_11 1054                              STR_12 1054  
                            STR_13 1064                              STR_14 1010  
                            STR_15 1020                      __CFG_WDTE$OFF 0000  
                  __end_of___awmod 1791                    __end_of___fltol 09B0  
                            _ANSEL 0188                    __end_of___lldiv 1800  
                  ___awdiv@divisor 0020                              i1l151 1493  
                            i1l152 1492                              i1l153 1493  
                            i1l370 1600                              i1l371 1606  
                            i1l380 1624                              i1l372 1607  
                            i1l381 1624                              i1l373 160D  
                            i1l365 15EF                              i1l374 160E  
                            i1l366 15F2                              i1l390 1296  
                            i1l375 1614                              i1l367 15F8  
                            i1l376 1615                              i1l368 15F9  
                            i1l384 1336                              i1l377 161B  
                            i1l369 15FF                              i1l378 161C  
                            i1l379 1622                    ___awdiv@counter 0025  
                            _PORTA 0005       __end_of_configInterrupciones 12AD  
                            _PORTB 0006                              _PORTD 0008  
                            _PORTE 0009                              _TRISA 0085  
                            _TRISB 0086                              _TRISD 0088  
                            _SSPIE 0463                              _TRISE 0089  
                            _SSPIF 0063                     __CFG_FCMEN$OFF 0000  
                  __end_of_lcd_cmd 136E                  __end_of_BCD_2_DEC 13E4  
                            _min_0 00B6                              _min_1 00B5  
                            _sec_0 007D                              _sec_1 00B7  
                            _month 00BF                              _sismo 00A9  
                   __CFG_BOREN$OFF 0000                              pclath 000A  
                  __end_of_slave_1 1000                    __end_of_slave_2 0914  
                __end_of_DEC_2_BCD 1535                    ?_lcd_write_char 0070  
                            status 0003                              wtemp0 007E  
                 _check_infrarrojo 149A                     __CFG_MCLRE$OFF 0000  
                  __initialization 000F                 __size_ofi1_lcd_cmd 001A  
                  _tercera_llamada 143E                       __end_of_main 0A5A  
                      i1lcd_port@a 0070                      ?_initOsci8MHZ 0070  
         __size_of_primera_llamada 002D                             ??_main 006C  
                ?_I2C_Master_Start 0070                  ?_I2C_Master_Write 002D  
                      ?i1_lcd_port 0070                 ??_I2C_Master_Start 0020  
               ??_I2C_Master_Write 002F                   ___awdiv@dividend 0022  
                           _ANSELH 0189                             i1l3020 1290  
                           i1l3030 1481                             i1l3022 146B  
                           i1l3032 1485                             i1l3024 146F  
                           i1l3026 1476                             i1l3028 147C  
                           i1l2750 15FD                             i1l2760 1620  
                           i1l2752 1604                             i1l2744 15E7  
                           i1l2754 160B                             i1l2746 15EB  
                           i1l2756 1612                             i1l2748 15F6  
                           i1l2860 132A                             i1l2758 1619  
                           i1l2862 1333                             i1l2854 131E  
                           i1l2856 1321                             i1l2858 1327  
                           u330_20 1612                             u330_21 1611  
                           u331_20 1619                             u331_21 1618  
                           u332_20 1620                             u332_21 161F  
                           u325_20 15EB                             u325_21 15EA  
                           u326_20 15F6                             u326_21 15F5  
                           u327_20 15FD                             u327_21 15FC  
                           u328_20 1604                             u328_21 1603  
                           u329_20 160B                             u329_21 160A  
                           u363_20 146F                             u363_21 146E  
                           u364_20 1476                             u364_21 1475  
                           u376_27 148B                             u377_27 132E  
                           _SSPADD 0093                             _TRISC3 043B  
                           _TRISC4 043C                             _SSPCON 0014  
                           _SSPBUF 0013                   __end_of___xxtofl 0DF8  
                   __CFG_PWRTE$OFF 0000                   __end_of_lcd_init 16CA  
                 __end_of_lcd_port 15E6                             ___bmul 1337  
             __size_of_configPorts 0013                          ??___fladd 0040  
                           ___wmul 1390                          ??___fldiv 0028  
                           _date_0 00B2                          ??___awdiv 0024  
                           _date_1 00B1                          ??___flneg 0038  
                        ??___awmod 0024                          ??___fltol 0054  
                        ??___lldiv 0028                     ??_initOsci8MHZ 0020  
                           _hour_0 00B4                             _hour_1 00B3  
                 segunda_llamada@h 0024                   segunda_llamada@m 0020  
                 segunda_llamada@s 0021                             _s_humo 00A5  
                 ___awdiv@quotient 0027                    ___awmod@divisor 0020  
         __end_of_lcd_write_string 166D                             _year_0 00AE  
                           _year_1 00AD                    ___awmod@counter 0025  
 __end_of_Update_Current_Date_Time 069E                          ??_lcd_cmd 0021  
                     __pdataCOMMON 0079                       ?_mostrar_lcd 0070  
                 __end_of_num_case 172C                             saved_w 007E  
                        ??_slave_1 0067                          ??_slave_2 002F  
                __end_ofi1_lcd_cmd 1337                       ___xxtofl@arg 0030  
                lcd_write_string@a 0024                       ___xxtofl@exp 002F  
                lcd_write_string@i 0029                       ___xxtofl@val 0026  
          __end_of__initialization 0040                         ___flneg@f1 0034  
          __end_of_tercera_llamada 146B              __size_of_apagar_luces 0027  
                       ___fltol@f1 0050                ___bmul@multiplicand 0020  
             _configInterrupciones 12A5                     __pcstackCOMMON 0070  
                     __pidataBANK1 12B5                __size_ofi1_lcd_port 003F  
                       __end_of_b0 0C73                         __end_of_b1 0B06  
                       __end_of_b2 15A9                   ??_lcd_set_cursor 0025  
      __size_of_separa_digitos_rtc 0141                  ??_primera_llamada 0022  
               __size_of_lcd_clear 0007                       _apagar_luces 0802  
               __size_of_boton_lcd 00E0                         __pbssBANK0 006E  
                       __pbssBANK1 00A0              ?_configInterrupciones 0070  
                 primera_llamada@h 0024                   primera_llamada@m 0020  
                 primera_llamada@s 0021                       ?i1_lcd_clear 0070  
                       __pmaintext 09B0                            ?___bmul 0020  
                          ?___wmul 0020                         __pintentry 0004  
                          b0@local 0066                            b1@local 0064  
         __end_of_check_infrarrojo 14CB                          ?___xxtofl 0026  
         _Update_Current_Date_Time 0509             __size_of_Set_Time_Date 00C1  
         __size_of_segunda_llamada 002D                   ??_lcd_write_char 0021  
                          _SSPCON2 0091                          ?_lcd_init 0070  
                          _SSPSTAT 0094                          ?_lcd_port 0070  
                       __stringtab 1000               __end_of_initOsci8MHZ 12A5  
                        _BCD_2_DEC 13BA                   ?_tercera_llamada 0020  
                        _DEC_2_BCD 14FE                  __end_of_lcd_clear 129E  
                        ?_num_case 0070                    __size_of___bmul 001B  
                          ___fladd 0044                            ___fldiv 0300  
                          ___awdiv 0829                            ___flneg 12E8  
                          ___awmod 172C                            ___fltol 0914  
                          ___lldiv 1791                    __size_of___wmul 002A  
                __end_of_boton_lcd 0ED8                            __ptext1 143E  
                          __ptext2 1411                            __ptext3 13E4  
                          __ptext4 166D                            __ptext5 129E  
                          __ptext6 12F7                            __ptext7 12A5  
                          __ptext8 149A                            __ptext9 0DF8  
                          _lcd_cmd 1352                       __size_of_isr 002F  
                       ??___xxtofl 002A                   ___awmod@dividend 0022  
                          _month_0 00B0                            _month_1 00AF  
         __size_of_I2C_Master_Init 003A           __size_of_I2C_Master_Read 0033  
                          _slave_1 0ED8                            _slave_2 089C  
                     ??i1_lcd_port 0070           __size_of_I2C_Master_Wait 000F  
         __size_of_I2C_Master_Stop 0009               __size_of_mostrar_lcd 00AF  
                          clrloop0 12AE                         ??_lcd_init 0024  
                       ??_lcd_port 0020               end_of_initialization 0040  
                       ?_BCD_2_DEC 0026                        num_case@num 0022  
           ??_configInterrupciones 0020          __size_of_I2C_Master_Start 0009  
                       ?_DEC_2_BCD 0029          __size_of_I2C_Master_Write 000A  
                  ___lldiv@divisor 0020                    ___lldiv@counter 002D  
                    _Set_Time_Date 0C73                         ??_num_case 0020  
                 I2C_Master_Init@c 002E                   I2C_Master_Read@a 0020  
               __end_ofi1_lcd_port 1625                      apagar_luces@t 0022  
                        _PORTBbits 0006                  ?_lcd_write_string 0024  
                        _PORTDbits 0008                        ___fladd@grs 004F  
               ??_lcd_write_string 0026                      ___xxtofl@sign 002E  
                        _TRISCbits 0087                        ___fldiv@grs 0034  
                      ___fldiv@rem 002D                          i1_lcd_cmd 131D  
                ??_segunda_llamada 0022                      ??_configPorts 0020  
                   ?_Set_Time_Date 0070                BCD_2_DEC@to_convert 0026  
             __size_ofi1_lcd_clear 0007                    _primera_llamada 13E4  
                   __end_of___bmul 1352                     __end_of___wmul 13BA  
                    __pidataCOMMON 07FB                start_initialization 000F  
            __size_of_initOsci8MHZ 0007                        __end_of_isr 149A  
                      ??_BCD_2_DEC 0028                         ?i1_lcd_cmd 0070  
                ??_I2C_Master_Init 0032                  ??_I2C_Master_Read 0022  
                ??_I2C_Master_Wait 0020                  ??_I2C_Master_Stop 0020  
         __CFG_FOSC$INTRC_NOCLKOUT 0000                        ??_DEC_2_BCD 002B  
                         ??___bmul 0021                           ??___wmul 0024  
                       init_fetch0 130A                      _s_temperatura 00A6  
                      __pdataBANK1 00BD                __end_of_configPorts 130A  
       ??_Update_Current_Date_Time 002F                       _initOsci8MHZ 129E  
       __end_of_separa_digitos_rtc 07DF                          ___fladd@a 003C  
                        ___fladd@b 0038                          ___fldiv@a 0020  
                        ___fldiv@b 0024                        __pbssCOMMON 007D  
                        ___latbits 0002                  ?_check_infrarrojo 0070  
                    __pcstackBANK0 0020                      __pcstackBANK1 00C5  
                __size_of___xxtofl 00C4                 ??_check_infrarrojo 0020  
                __size_of_lcd_init 005D                  __size_of_lcd_port 003D  
                  ??_Set_Time_Date 002F                   _I2C_Master_Start 12BD  
          __end_of_primera_llamada 1411                   _I2C_Master_Write 12CF  
                         ?___fladd 0038                           ?___fldiv 0020  
                         ?___awdiv 0020                           ?___flneg 0034  
                         ?___awmod 0020                           ?___fltol 0050  
                         ?___lldiv 0020                  __size_of_num_case 0062  
                        _lcd_clear 1297                          __pstrings 1000  
                         ?_lcd_cmd 0070                          _boton_lcd 0DF8  
                         ?_slave_1 0070                           ?_slave_2 0070  
                 tercera_llamada@h 0024                   tercera_llamada@m 0020  
                 tercera_llamada@s 0021                        __size_of_b0 00BE  
                      __size_of_b1 00AC                        __size_of_b2 003A  
          __size_of_lcd_set_cursor 0022                        ??i1_lcd_cmd 0071  
                interrupt_function 0004                     ___wmul@product 0024  
                         _IOCBbits 0096                          _s_temblor 00A4  
                        clear_ram0 12AD                    lcd_set_cursor@a 0025  
                  lcd_set_cursor@b 0024                        _configPorts 12F7  
         __size_of_tercera_llamada 002D                         ?_lcd_clear 0070  
                      __stringbase 100F                  ___wmul@multiplier 0020  
                       ?_boton_lcd 0070                      ??_mostrar_lcd 002B  
                        lcd_port@a 0020                    _segunda_llamada 1411  
              I2C_Master_Read@temp 0024          __size_of_lcd_write_string 0048  
                 ?_primera_llamada 0020            __size_of_lcd_write_char 001C  
    __size_of_configInterrupciones 0008                   __size_of___fladd 02BC  
                 __size_of___fldiv 0209                   __size_of___awdiv 0073  
                 __size_of___flneg 000F                   __size_of___awmod 0065  
                 __size_of___fltol 009C                   __size_of___lldiv 006F  
               __end_of__stringtab 1010                   __size_of_lcd_cmd 001C  
                  _I2C_Master_Init 1535                    _I2C_Master_Read 14CB  
                         ___xxtofl 0D34                    _I2C_Master_Wait 12D9  
                  _I2C_Master_Stop 12C6                      ?_apagar_luces 0070  
                         __ptext10 089C                           __ptext11 1297  
                         __ptext20 0300                           __ptext12 0ED8  
                         __ptext21 0044                           __ptext13 156F  
                         __ptext30 0802                           __ptext22 1337  
                         __ptext14 0A5A                           __ptext31 0509  
                         __ptext23 069E                           __ptext15 0BB5  
                         __ptext40 14FE                           __ptext32 14CB  
                         __ptext24 0B06                           __ptext16 16CA  
                         __ptext41 172C                           __ptext33 13BA  
                         __ptext25 1625                           __ptext17 0D34  
                         __ptext42 0829                           __ptext34 1390  
                         __ptext26 07DF                           __ptext18 0914  
                         __ptext43 1535                           __ptext35 0C73  
                         __ptext27 136E                           __ptext19 12E8  
                         __ptext44 1791                           __ptext36 12CF  
                         __ptext28 1352                           __ptext45 146B  
                         __ptext37 12C6                           __ptext29 15A9  
                         __ptext46 1290                           __ptext38 12BD  
                         __ptext47 131D                           __ptext39 12D9  
                         __ptext48 15E6                   __size_of_slave_1 0128  
                 __size_of_slave_2 0078                       _slave_1$1187 00C5  
                     _slave_1$1188 00C9                  __CFG_BOR4V$BOR40V 0000  
                         _lcd_init 166D                           _lcd_port 15A9  
              __end_of_mostrar_lcd 0BB5                        _limpiar_lcd 00AB  
                    __size_of_main 00AA                      ??i1_lcd_clear 0074  
                        num_case@r 0023                           _num_case 16CA  
                         lcd_cmd@a 0023                        ??_lcd_clear 0024  
          __end_of_segunda_llamada 143E                        ??_boton_lcd 006C  
                ??_tercera_llamada 0022           __end_of_I2C_Master_Start 12C6  
         __end_of_I2C_Master_Write 12D9                         _INTCONbits 000B  
                   ??_apagar_luces 0020                           init_ram0 130E  
                         intlevel1 0000                     _lcd_set_cursor 136E  
               _separa_digitos_rtc 069E                   ___lldiv@dividend 0024  
        __size_of_check_infrarrojo 0031                          stringcode 100A  
              ?_separa_digitos_rtc 0070                         _OSCCONbits 008F  
          __end_of_I2C_Master_Init 156F            __end_of_I2C_Master_Read 14FE  
          __end_of_I2C_Master_Wait 12E8            __end_of_I2C_Master_Stop 12CF  
              __end_ofi1_lcd_clear 1297                        _temperatura 00AA  
                 ___lldiv@quotient 0029                  I2C_Master_Write@d 002D  
             ??_separa_digitos_rtc 0029                        _mostrar_lcd 0B06  
                         stringdir 100A                           stringtab 1000  
                      _SSPCON2bits 0091             __end_of_lcd_set_cursor 1390  
                    ___fladd@signs 004C  __size_of_Update_Current_Date_Time 0195  
        ?_Update_Current_Date_Time 0070                   _lcd_write_string 1625  
                     ___fladd@aexp 004D                       ___fladd@bexp 004E  
                   _lcd_write_char 07DF                       ?_configPorts 0070  
            __end_of_Set_Time_Date 0D34                DEC_2_BCD@to_convert 0029  
               __size_of_BCD_2_DEC 002A  
