

Microchip Technology PIC LITE Macro Assembler V2.00 build -1524193055 
                                                                                               Sat Feb 29 12:17:42 2020

Microchip Technology Omniscient Code Generator v2.00 (Free mode) build 20180527130849
     1  0000                     
      + 0000                     
     2                           ; Version 2.00
     3                           ; Generated 27/05/2018 GMT
     4                           
     5                           ; 
     6                           ; Copyright © 2018, Microchip Technology Inc. and its subsidiaries ("Microchip")
     7                           ; All rights reserved.
     8                           ; 
     9                           ; This software is developed by Microchip Technology Inc. and its subsidiaries ("Microch
                                 ip").
    10                           ; 
    11                           ; Redistribution and use in source and binary forms, with or without modification, are
    12                           ; permitted provided that the following conditions are met:
    13                           ; 
    14                           ;     1. Redistributions of source code must retain the above copyright notice, this lis
                                 t of
    15                           ;        conditions and the following disclaimer.
    16                           ; 
    17                           ;     2. Redistributions in binary form must reproduce the above copyright notice, this 
                                 list
    18                           ;        of conditions and the following disclaimer in the documentation and/or other
    19                           ;        materials provided with the distribution.
    20                           ; 
    21                           ;     3. Microchip's name may not be used to endorse or promote products derived from th
                                 is
    22                           ;        software without specific prior written permission.
    23                           ; 
    24                           ; THIS SOFTWARE IS PROVIDED BY MICROCHIP "AS IS" AND ANY EXPRESS OR IMPLIED WARRANTIES,

    25                           ; INCLUDING, BUT NOT LIMITED TO, THE IMPLIED WARRANTIES OF MERCHANTABILITY AND FITNESS F
                                 OR
    26                           ; PURPOSE ARE DISCLAIMED.  IN NO EVENT SHALL MICROCHIP BE LIABLE FOR ANY DIRECT, INDIREC
                                 T,
    27                           ; INCIDENTAL, SPECIAL, EXEMPLARY, OR CONSEQUENTIAL DAMAGES (INCLUDING BUT NOT LIMITED TO
                                 
    28                           ; PROCUREMENT OF SUBSTITUTE GOODS OR SERVICES; LOSS OF USE, DATA OR PROFITS; OR BUSINESS
                                 
    29                           ; INTERRUPTION) HOWSOEVER CAUSED AND ON ANY THEORY OF LIABILITY, WHETHER IN CONTRACT, ST
                                 RICT
    30                           ; LIABILITY, OR TORT (INCLUDING NEGLIGENCE OR OTHERWISE) ARISING IN ANY WAY OUT OF THE U
                                 SE OF
    31                           ; THIS SOFTWARE, EVEN IF ADVISED OF THE POSSIBILITY OF SUCH DAMAGE.
    32                           ; 
    33                           
    34                           
    35                           ; 
    36                           ; Code-generator required, PIC16F887 Definitions
    37                           ; 
    38  0004                     fsr0 equ 04h
    39  0004                     indf equ 00h
    40  0000                     indf0 equ 00h
    41  0000                     pc equ 02h
    42  0002                     pcl equ 02h
    43  0002                     pclath equ 0Ah
    44  000A                     status equ 03h
    45  0003                     
     2                           opt pagewidth 120
     3  0000                     byte0	macro	val
     4                           	(getbyte(val,0))
     5                           endm
     6  0000                     byte1	macro	val
     7                           	(getbyte(val,1))
     8                           endm
     9  0000                     byte2	macro	val
    10                           	(getbyte(val,2))
    11                           endm
    12  0000                     byte3	macro	val
    13                           	(getbyte(val,3))
    14                           endm
    15  0000                     byte4	macro	val
    16                           	(getbyte(val,4))
    17                           endm
    18  0000                     byte5	macro	val
    19                           	(getbyte(val,5))
    20                           endm
    21  0000                     byte6	macro	val
    22                           	(getbyte(val,6))
    23                           endm
    24  0000                     byte7	macro	val
    25                           	(getbyte(val,7))
    26                           endm
    27  0000                     getword	macro	val,pos
    28                           	(((val) >> (8 * pos)) and 0xffff)
    29                           endm
    30  0000                     word0	macro	val
    31                           	(getword(val,0))
    32                           endm
    33  0000                     word1	macro	val
    34                           	(getword(val,2))
    35                           endm
    36  0000                     word2	macro	val
    37                           	(getword(val,4))
    38                           endm
    39  0000                     word3	macro	val
    40                           	(getword(val,6))
    41                           endm
    42  0000                     gettword	macro	val,pos
    43                           	(((val) >> (8 * pos)) and 0xffffff)
    44                           endm
    45  0000                     tword0	macro	val
    46                           	(gettword(val,0))
    47                           endm
    48  0000                     tword1	macro	val
    49                           	(gettword(val,3))
    50                           endm
    51  0000                     tword2	macro	val
    52                           	(gettword(val,6))
    53                           endm
    54  0000                     getdword	macro	val,pos
    55                           	(((val) >> (8 * pos)) and 0xffffffff)
    56                           endm
    57  0000                     dword0	macro	val
    58                           	(getdword(val,0))
    59                           endm
    60  0000                     dword1	macro	val
    61                           	(getdword(val,4))
    62                           endm
    63  0000                     clrc	macro
    64                           	bcf	3,0
    65                           	endm
    66  0000                     clrz	macro
    67                           	bcf	3,2
    68                           	endm
    69  0000                     setc	macro
    70                           	bsf	3,0
    71                           	endm
    72  0000                     setz	macro
    73                           	bsf	3,2
    74                           	endm
    75  0000                     skipc	macro
    76                           	btfss	3,0
    77                           	endm
    78  0000                     skipz	macro
    79                           	btfss	3,2
    80                           	endm
    81  0000                     skipnc	macro
    82                           	btfsc	3,0
    83                           	endm
    84  0000                     skipnz	macro
    85                           	btfsc	3,2
    86                           	endm
    87  0000                     # 54 "C:\Program Files (x86)\Microchip\xc8\v2.00\pic\include\pic16f887.h"
    88                           INDF equ 00h ;# 
    89  0000                     # 61 "C:\Program Files (x86)\Microchip\xc8\v2.00\pic\include\pic16f887.h"
    90                           TMR0 equ 01h ;# 
    91  0001                     # 68 "C:\Program Files (x86)\Microchip\xc8\v2.00\pic\include\pic16f887.h"
    92                           PCL equ 02h ;# 
    93  0002                     # 75 "C:\Program Files (x86)\Microchip\xc8\v2.00\pic\include\pic16f887.h"
    94                           STATUS equ 03h ;# 
    95  0003                     # 161 "C:\Program Files (x86)\Microchip\xc8\v2.00\pic\include\pic16f887.h"
    96                           FSR equ 04h ;# 
    97  0004                     # 168 "C:\Program Files (x86)\Microchip\xc8\v2.00\pic\include\pic16f887.h"
    98                           PORTA equ 05h ;# 
    99  0005                     # 230 "C:\Program Files (x86)\Microchip\xc8\v2.00\pic\include\pic16f887.h"
   100                           PORTB equ 06h ;# 
   101  0006                     # 292 "C:\Program Files (x86)\Microchip\xc8\v2.00\pic\include\pic16f887.h"
   102                           PORTC equ 07h ;# 
   103  0007                     # 354 "C:\Program Files (x86)\Microchip\xc8\v2.00\pic\include\pic16f887.h"
   104                           PORTD equ 08h ;# 
   105  0008                     # 416 "C:\Program Files (x86)\Microchip\xc8\v2.00\pic\include\pic16f887.h"
   106                           PORTE equ 09h ;# 
   107  0009                     # 454 "C:\Program Files (x86)\Microchip\xc8\v2.00\pic\include\pic16f887.h"
   108                           PCLATH equ 0Ah ;# 
   109  000A                     # 461 "C:\Program Files (x86)\Microchip\xc8\v2.00\pic\include\pic16f887.h"
   110                           INTCON equ 0Bh ;# 
   111  000B                     # 539 "C:\Program Files (x86)\Microchip\xc8\v2.00\pic\include\pic16f887.h"
   112                           PIR1 equ 0Ch ;# 
   113  000C                     # 595 "C:\Program Files (x86)\Microchip\xc8\v2.00\pic\include\pic16f887.h"
   114                           PIR2 equ 0Dh ;# 
   115  000D                     # 652 "C:\Program Files (x86)\Microchip\xc8\v2.00\pic\include\pic16f887.h"
   116                           TMR1 equ 0Eh ;# 
   117  000E                     # 659 "C:\Program Files (x86)\Microchip\xc8\v2.00\pic\include\pic16f887.h"
   118                           TMR1L equ 0Eh ;# 
   119  000E                     # 666 "C:\Program Files (x86)\Microchip\xc8\v2.00\pic\include\pic16f887.h"
   120                           TMR1H equ 0Fh ;# 
   121  000F                     # 673 "C:\Program Files (x86)\Microchip\xc8\v2.00\pic\include\pic16f887.h"
   122                           T1CON equ 010h ;# 
   123  0010                     # 767 "C:\Program Files (x86)\Microchip\xc8\v2.00\pic\include\pic16f887.h"
   124                           TMR2 equ 011h ;# 
   125  0011                     # 774 "C:\Program Files (x86)\Microchip\xc8\v2.00\pic\include\pic16f887.h"
   126                           T2CON equ 012h ;# 
   127  0012                     # 845 "C:\Program Files (x86)\Microchip\xc8\v2.00\pic\include\pic16f887.h"
   128                           SSPBUF equ 013h ;# 
   129  0013                     # 852 "C:\Program Files (x86)\Microchip\xc8\v2.00\pic\include\pic16f887.h"
   130                           SSPCON equ 014h ;# 
   131  0014                     # 922 "C:\Program Files (x86)\Microchip\xc8\v2.00\pic\include\pic16f887.h"
   132                           CCPR1 equ 015h ;# 
   133  0015                     # 929 "C:\Program Files (x86)\Microchip\xc8\v2.00\pic\include\pic16f887.h"
   134                           CCPR1L equ 015h ;# 
   135  0015                     # 936 "C:\Program Files (x86)\Microchip\xc8\v2.00\pic\include\pic16f887.h"
   136                           CCPR1H equ 016h ;# 
   137  0016                     # 943 "C:\Program Files (x86)\Microchip\xc8\v2.00\pic\include\pic16f887.h"
   138                           CCP1CON equ 017h ;# 
   139  0017                     # 1040 "C:\Program Files (x86)\Microchip\xc8\v2.00\pic\include\pic16f887.h"
   140                           RCSTA equ 018h ;# 
   141  0018                     # 1135 "C:\Program Files (x86)\Microchip\xc8\v2.00\pic\include\pic16f887.h"
   142                           TXREG equ 019h ;# 
   143  0019                     # 1142 "C:\Program Files (x86)\Microchip\xc8\v2.00\pic\include\pic16f887.h"
   144                           RCREG equ 01Ah ;# 
   145  001A                     # 1149 "C:\Program Files (x86)\Microchip\xc8\v2.00\pic\include\pic16f887.h"
   146                           CCPR2 equ 01Bh ;# 
   147  001B                     # 1156 "C:\Program Files (x86)\Microchip\xc8\v2.00\pic\include\pic16f887.h"
   148                           CCPR2L equ 01Bh ;# 
   149  001B                     # 1163 "C:\Program Files (x86)\Microchip\xc8\v2.00\pic\include\pic16f887.h"
   150                           CCPR2H equ 01Ch ;# 
   151  001C                     # 1170 "C:\Program Files (x86)\Microchip\xc8\v2.00\pic\include\pic16f887.h"
   152                           CCP2CON equ 01Dh ;# 
   153  001D                     # 1240 "C:\Program Files (x86)\Microchip\xc8\v2.00\pic\include\pic16f887.h"
   154                           ADRESH equ 01Eh ;# 
   155  001E                     # 1247 "C:\Program Files (x86)\Microchip\xc8\v2.00\pic\include\pic16f887.h"
   156                           ADCON0 equ 01Fh ;# 
   157  001F                     # 1348 "C:\Program Files (x86)\Microchip\xc8\v2.00\pic\include\pic16f887.h"
   158                           OPTION_REG equ 081h ;# 
   159  0081                     # 1418 "C:\Program Files (x86)\Microchip\xc8\v2.00\pic\include\pic16f887.h"
   160                           TRISA equ 085h ;# 
   161  0085                     # 1480 "C:\Program Files (x86)\Microchip\xc8\v2.00\pic\include\pic16f887.h"
   162                           TRISB equ 086h ;# 
   163  0086                     # 1542 "C:\Program Files (x86)\Microchip\xc8\v2.00\pic\include\pic16f887.h"
   164                           TRISC equ 087h ;# 
   165  0087                     # 1604 "C:\Program Files (x86)\Microchip\xc8\v2.00\pic\include\pic16f887.h"
   166                           TRISD equ 088h ;# 
   167  0088                     # 1666 "C:\Program Files (x86)\Microchip\xc8\v2.00\pic\include\pic16f887.h"
   168                           TRISE equ 089h ;# 
   169  0089                     # 1704 "C:\Program Files (x86)\Microchip\xc8\v2.00\pic\include\pic16f887.h"
   170                           PIE1 equ 08Ch ;# 
   171  008C                     # 1760 "C:\Program Files (x86)\Microchip\xc8\v2.00\pic\include\pic16f887.h"
   172                           PIE2 equ 08Dh ;# 
   173  008D                     # 1817 "C:\Program Files (x86)\Microchip\xc8\v2.00\pic\include\pic16f887.h"
   174                           PCON equ 08Eh ;# 
   175  008E                     # 1864 "C:\Program Files (x86)\Microchip\xc8\v2.00\pic\include\pic16f887.h"
   176                           OSCCON equ 08Fh ;# 
   177  008F                     # 1929 "C:\Program Files (x86)\Microchip\xc8\v2.00\pic\include\pic16f887.h"
   178                           OSCTUNE equ 090h ;# 
   179  0090                     # 1981 "C:\Program Files (x86)\Microchip\xc8\v2.00\pic\include\pic16f887.h"
   180                           SSPCON2 equ 091h ;# 
   181  0091                     # 2043 "C:\Program Files (x86)\Microchip\xc8\v2.00\pic\include\pic16f887.h"
   182                           PR2 equ 092h ;# 
   183  0092                     # 2050 "C:\Program Files (x86)\Microchip\xc8\v2.00\pic\include\pic16f887.h"
   184                           SSPADD equ 093h ;# 
   185  0093                     # 2057 "C:\Program Files (x86)\Microchip\xc8\v2.00\pic\include\pic16f887.h"
   186                           SSPMSK equ 093h ;# 
   187  0093                     # 2062 "C:\Program Files (x86)\Microchip\xc8\v2.00\pic\include\pic16f887.h"
   188                           MSK equ 093h ;# 
   189  0093                     # 2179 "C:\Program Files (x86)\Microchip\xc8\v2.00\pic\include\pic16f887.h"
   190                           SSPSTAT equ 094h ;# 
   191  0094                     # 2348 "C:\Program Files (x86)\Microchip\xc8\v2.00\pic\include\pic16f887.h"
   192                           WPUB equ 095h ;# 
   193  0095                     # 2418 "C:\Program Files (x86)\Microchip\xc8\v2.00\pic\include\pic16f887.h"
   194                           IOCB equ 096h ;# 
   195  0096                     # 2488 "C:\Program Files (x86)\Microchip\xc8\v2.00\pic\include\pic16f887.h"
   196                           VRCON equ 097h ;# 
   197  0097                     # 2558 "C:\Program Files (x86)\Microchip\xc8\v2.00\pic\include\pic16f887.h"
   198                           TXSTA equ 098h ;# 
   199  0098                     # 2644 "C:\Program Files (x86)\Microchip\xc8\v2.00\pic\include\pic16f887.h"
   200                           SPBRG equ 099h ;# 
   201  0099                     # 2706 "C:\Program Files (x86)\Microchip\xc8\v2.00\pic\include\pic16f887.h"
   202                           SPBRGH equ 09Ah ;# 
   203  009A                     # 2776 "C:\Program Files (x86)\Microchip\xc8\v2.00\pic\include\pic16f887.h"
   204                           PWM1CON equ 09Bh ;# 
   205  009B                     # 2846 "C:\Program Files (x86)\Microchip\xc8\v2.00\pic\include\pic16f887.h"
   206                           ECCPAS equ 09Ch ;# 
   207  009C                     # 2928 "C:\Program Files (x86)\Microchip\xc8\v2.00\pic\include\pic16f887.h"
   208                           PSTRCON equ 09Dh ;# 
   209  009D                     # 2972 "C:\Program Files (x86)\Microchip\xc8\v2.00\pic\include\pic16f887.h"
   210                           ADRESL equ 09Eh ;# 
   211  009E                     # 2979 "C:\Program Files (x86)\Microchip\xc8\v2.00\pic\include\pic16f887.h"
   212                           ADCON1 equ 09Fh ;# 
   213  009F                     # 3013 "C:\Program Files (x86)\Microchip\xc8\v2.00\pic\include\pic16f887.h"
   214                           WDTCON equ 0105h ;# 
   215  0105                     # 3066 "C:\Program Files (x86)\Microchip\xc8\v2.00\pic\include\pic16f887.h"
   216                           CM1CON0 equ 0107h ;# 
   217  0107                     # 3131 "C:\Program Files (x86)\Microchip\xc8\v2.00\pic\include\pic16f887.h"
   218                           CM2CON0 equ 0108h ;# 
   219  0108                     # 3196 "C:\Program Files (x86)\Microchip\xc8\v2.00\pic\include\pic16f887.h"
   220                           CM2CON1 equ 0109h ;# 
   221  0109                     # 3247 "C:\Program Files (x86)\Microchip\xc8\v2.00\pic\include\pic16f887.h"
   222                           EEDATA equ 010Ch ;# 
   223  010C                     # 3252 "C:\Program Files (x86)\Microchip\xc8\v2.00\pic\include\pic16f887.h"
   224                           EEDAT equ 010Ch ;# 
   225  010C                     # 3259 "C:\Program Files (x86)\Microchip\xc8\v2.00\pic\include\pic16f887.h"
   226                           EEADR equ 010Dh ;# 
   227  010D                     # 3266 "C:\Program Files (x86)\Microchip\xc8\v2.00\pic\include\pic16f887.h"
   228                           EEDATH equ 010Eh ;# 
   229  010E                     # 3273 "C:\Program Files (x86)\Microchip\xc8\v2.00\pic\include\pic16f887.h"
   230                           EEADRH equ 010Fh ;# 
   231  010F                     # 3280 "C:\Program Files (x86)\Microchip\xc8\v2.00\pic\include\pic16f887.h"
   232                           SRCON equ 0185h ;# 
   233  0185                     # 3337 "C:\Program Files (x86)\Microchip\xc8\v2.00\pic\include\pic16f887.h"
   234                           BAUDCTL equ 0187h ;# 
   235  0187                     # 3389 "C:\Program Files (x86)\Microchip\xc8\v2.00\pic\include\pic16f887.h"
   236                           ANSEL equ 0188h ;# 
   237  0188                     # 3451 "C:\Program Files (x86)\Microchip\xc8\v2.00\pic\include\pic16f887.h"
   238                           ANSELH equ 0189h ;# 
   239  0189                     # 3501 "C:\Program Files (x86)\Microchip\xc8\v2.00\pic\include\pic16f887.h"
   240                           EECON1 equ 018Ch ;# 
   241  018C                     # 3546 "C:\Program Files (x86)\Microchip\xc8\v2.00\pic\include\pic16f887.h"
   242                           EECON2 equ 018Dh ;# 
   243  018D                     # 54 "C:\Program Files (x86)\Microchip\xc8\v2.00\pic\include\pic16f887.h"
   244                           INDF equ 00h ;# 
   245  0000                     # 61 "C:\Program Files (x86)\Microchip\xc8\v2.00\pic\include\pic16f887.h"
   246                           TMR0 equ 01h ;# 
   247  0001                     # 68 "C:\Program Files (x86)\Microchip\xc8\v2.00\pic\include\pic16f887.h"
   248                           PCL equ 02h ;# 
   249  0002                     # 75 "C:\Program Files (x86)\Microchip\xc8\v2.00\pic\include\pic16f887.h"
   250                           STATUS equ 03h ;# 
   251  0003                     # 161 "C:\Program Files (x86)\Microchip\xc8\v2.00\pic\include\pic16f887.h"
   252                           FSR equ 04h ;# 
   253  0004                     # 168 "C:\Program Files (x86)\Microchip\xc8\v2.00\pic\include\pic16f887.h"
   254                           PORTA equ 05h ;# 
   255  0005                     # 230 "C:\Program Files (x86)\Microchip\xc8\v2.00\pic\include\pic16f887.h"
   256                           PORTB equ 06h ;# 
   257  0006                     # 292 "C:\Program Files (x86)\Microchip\xc8\v2.00\pic\include\pic16f887.h"
   258                           PORTC equ 07h ;# 
   259  0007                     # 354 "C:\Program Files (x86)\Microchip\xc8\v2.00\pic\include\pic16f887.h"
   260                           PORTD equ 08h ;# 
   261  0008                     # 416 "C:\Program Files (x86)\Microchip\xc8\v2.00\pic\include\pic16f887.h"
   262                           PORTE equ 09h ;# 
   263  0009                     # 454 "C:\Program Files (x86)\Microchip\xc8\v2.00\pic\include\pic16f887.h"
   264                           PCLATH equ 0Ah ;# 
   265  000A                     # 461 "C:\Program Files (x86)\Microchip\xc8\v2.00\pic\include\pic16f887.h"
   266                           INTCON equ 0Bh ;# 
   267  000B                     # 539 "C:\Program Files (x86)\Microchip\xc8\v2.00\pic\include\pic16f887.h"
   268                           PIR1 equ 0Ch ;# 
   269  000C                     # 595 "C:\Program Files (x86)\Microchip\xc8\v2.00\pic\include\pic16f887.h"
   270                           PIR2 equ 0Dh ;# 
   271  000D                     # 652 "C:\Program Files (x86)\Microchip\xc8\v2.00\pic\include\pic16f887.h"
   272                           TMR1 equ 0Eh ;# 
   273  000E                     # 659 "C:\Program Files (x86)\Microchip\xc8\v2.00\pic\include\pic16f887.h"
   274                           TMR1L equ 0Eh ;# 
   275  000E                     # 666 "C:\Program Files (x86)\Microchip\xc8\v2.00\pic\include\pic16f887.h"
   276                           TMR1H equ 0Fh ;# 
   277  000F                     # 673 "C:\Program Files (x86)\Microchip\xc8\v2.00\pic\include\pic16f887.h"
   278                           T1CON equ 010h ;# 
   279  0010                     # 767 "C:\Program Files (x86)\Microchip\xc8\v2.00\pic\include\pic16f887.h"
   280                           TMR2 equ 011h ;# 
   281  0011                     # 774 "C:\Program Files (x86)\Microchip\xc8\v2.00\pic\include\pic16f887.h"
   282                           T2CON equ 012h ;# 
   283  0012                     # 845 "C:\Program Files (x86)\Microchip\xc8\v2.00\pic\include\pic16f887.h"
   284                           SSPBUF equ 013h ;# 
   285  0013                     # 852 "C:\Program Files (x86)\Microchip\xc8\v2.00\pic\include\pic16f887.h"
   286                           SSPCON equ 014h ;# 
   287  0014                     # 922 "C:\Program Files (x86)\Microchip\xc8\v2.00\pic\include\pic16f887.h"
   288                           CCPR1 equ 015h ;# 
   289  0015                     # 929 "C:\Program Files (x86)\Microchip\xc8\v2.00\pic\include\pic16f887.h"
   290                           CCPR1L equ 015h ;# 
   291  0015                     # 936 "C:\Program Files (x86)\Microchip\xc8\v2.00\pic\include\pic16f887.h"
   292                           CCPR1H equ 016h ;# 
   293  0016                     # 943 "C:\Program Files (x86)\Microchip\xc8\v2.00\pic\include\pic16f887.h"
   294                           CCP1CON equ 017h ;# 
   295  0017                     # 1040 "C:\Program Files (x86)\Microchip\xc8\v2.00\pic\include\pic16f887.h"
   296                           RCSTA equ 018h ;# 
   297  0018                     # 1135 "C:\Program Files (x86)\Microchip\xc8\v2.00\pic\include\pic16f887.h"
   298                           TXREG equ 019h ;# 
   299  0019                     # 1142 "C:\Program Files (x86)\Microchip\xc8\v2.00\pic\include\pic16f887.h"
   300                           RCREG equ 01Ah ;# 
   301  001A                     # 1149 "C:\Program Files (x86)\Microchip\xc8\v2.00\pic\include\pic16f887.h"
   302                           CCPR2 equ 01Bh ;# 
   303  001B                     # 1156 "C:\Program Files (x86)\Microchip\xc8\v2.00\pic\include\pic16f887.h"
   304                           CCPR2L equ 01Bh ;# 
   305  001B                     # 1163 "C:\Program Files (x86)\Microchip\xc8\v2.00\pic\include\pic16f887.h"
   306                           CCPR2H equ 01Ch ;# 
   307  001C                     # 1170 "C:\Program Files (x86)\Microchip\xc8\v2.00\pic\include\pic16f887.h"
   308                           CCP2CON equ 01Dh ;# 
   309  001D                     # 1240 "C:\Program Files (x86)\Microchip\xc8\v2.00\pic\include\pic16f887.h"
   310                           ADRESH equ 01Eh ;# 
   311  001E                     # 1247 "C:\Program Files (x86)\Microchip\xc8\v2.00\pic\include\pic16f887.h"
   312                           ADCON0 equ 01Fh ;# 
   313  001F                     # 1348 "C:\Program Files (x86)\Microchip\xc8\v2.00\pic\include\pic16f887.h"
   314                           OPTION_REG equ 081h ;# 
   315  0081                     # 1418 "C:\Program Files (x86)\Microchip\xc8\v2.00\pic\include\pic16f887.h"
   316                           TRISA equ 085h ;# 
   317  0085                     # 1480 "C:\Program Files (x86)\Microchip\xc8\v2.00\pic\include\pic16f887.h"
   318                           TRISB equ 086h ;# 
   319  0086                     # 1542 "C:\Program Files (x86)\Microchip\xc8\v2.00\pic\include\pic16f887.h"
   320                           TRISC equ 087h ;# 
   321  0087                     # 1604 "C:\Program Files (x86)\Microchip\xc8\v2.00\pic\include\pic16f887.h"
   322                           TRISD equ 088h ;# 
   323  0088                     # 1666 "C:\Program Files (x86)\Microchip\xc8\v2.00\pic\include\pic16f887.h"
   324                           TRISE equ 089h ;# 
   325  0089                     # 1704 "C:\Program Files (x86)\Microchip\xc8\v2.00\pic\include\pic16f887.h"
   326                           PIE1 equ 08Ch ;# 
   327  008C                     # 1760 "C:\Program Files (x86)\Microchip\xc8\v2.00\pic\include\pic16f887.h"
   328                           PIE2 equ 08Dh ;# 
   329  008D                     # 1817 "C:\Program Files (x86)\Microchip\xc8\v2.00\pic\include\pic16f887.h"
   330                           PCON equ 08Eh ;# 
   331  008E                     # 1864 "C:\Program Files (x86)\Microchip\xc8\v2.00\pic\include\pic16f887.h"
   332                           OSCCON equ 08Fh ;# 
   333  008F                     # 1929 "C:\Program Files (x86)\Microchip\xc8\v2.00\pic\include\pic16f887.h"
   334                           OSCTUNE equ 090h ;# 
   335  0090                     # 1981 "C:\Program Files (x86)\Microchip\xc8\v2.00\pic\include\pic16f887.h"
   336                           SSPCON2 equ 091h ;# 
   337  0091                     # 2043 "C:\Program Files (x86)\Microchip\xc8\v2.00\pic\include\pic16f887.h"
   338                           PR2 equ 092h ;# 
   339  0092                     # 2050 "C:\Program Files (x86)\Microchip\xc8\v2.00\pic\include\pic16f887.h"
   340                           SSPADD equ 093h ;# 
   341  0093                     # 2057 "C:\Program Files (x86)\Microchip\xc8\v2.00\pic\include\pic16f887.h"
   342                           SSPMSK equ 093h ;# 
   343  0093                     # 2062 "C:\Program Files (x86)\Microchip\xc8\v2.00\pic\include\pic16f887.h"
   344                           MSK equ 093h ;# 
   345  0093                     # 2179 "C:\Program Files (x86)\Microchip\xc8\v2.00\pic\include\pic16f887.h"
   346                           SSPSTAT equ 094h ;# 
   347  0094                     # 2348 "C:\Program Files (x86)\Microchip\xc8\v2.00\pic\include\pic16f887.h"
   348                           WPUB equ 095h ;# 
   349  0095                     # 2418 "C:\Program Files (x86)\Microchip\xc8\v2.00\pic\include\pic16f887.h"
   350                           IOCB equ 096h ;# 
   351  0096                     # 2488 "C:\Program Files (x86)\Microchip\xc8\v2.00\pic\include\pic16f887.h"
   352                           VRCON equ 097h ;# 
   353  0097                     # 2558 "C:\Program Files (x86)\Microchip\xc8\v2.00\pic\include\pic16f887.h"
   354                           TXSTA equ 098h ;# 
   355  0098                     # 2644 "C:\Program Files (x86)\Microchip\xc8\v2.00\pic\include\pic16f887.h"
   356                           SPBRG equ 099h ;# 
   357  0099                     # 2706 "C:\Program Files (x86)\Microchip\xc8\v2.00\pic\include\pic16f887.h"
   358                           SPBRGH equ 09Ah ;# 
   359  009A                     # 2776 "C:\Program Files (x86)\Microchip\xc8\v2.00\pic\include\pic16f887.h"
   360                           PWM1CON equ 09Bh ;# 
   361  009B                     # 2846 "C:\Program Files (x86)\Microchip\xc8\v2.00\pic\include\pic16f887.h"
   362                           ECCPAS equ 09Ch ;# 
   363  009C                     # 2928 "C:\Program Files (x86)\Microchip\xc8\v2.00\pic\include\pic16f887.h"
   364                           PSTRCON equ 09Dh ;# 
   365  009D                     # 2972 "C:\Program Files (x86)\Microchip\xc8\v2.00\pic\include\pic16f887.h"
   366                           ADRESL equ 09Eh ;# 
   367  009E                     # 2979 "C:\Program Files (x86)\Microchip\xc8\v2.00\pic\include\pic16f887.h"
   368                           ADCON1 equ 09Fh ;# 
   369  009F                     # 3013 "C:\Program Files (x86)\Microchip\xc8\v2.00\pic\include\pic16f887.h"
   370                           WDTCON equ 0105h ;# 
   371  0105                     # 3066 "C:\Program Files (x86)\Microchip\xc8\v2.00\pic\include\pic16f887.h"
   372                           CM1CON0 equ 0107h ;# 
   373  0107                     # 3131 "C:\Program Files (x86)\Microchip\xc8\v2.00\pic\include\pic16f887.h"
   374                           CM2CON0 equ 0108h ;# 
   375  0108                     # 3196 "C:\Program Files (x86)\Microchip\xc8\v2.00\pic\include\pic16f887.h"
   376                           CM2CON1 equ 0109h ;# 
   377  0109                     # 3247 "C:\Program Files (x86)\Microchip\xc8\v2.00\pic\include\pic16f887.h"
   378                           EEDATA equ 010Ch ;# 
   379  010C                     # 3252 "C:\Program Files (x86)\Microchip\xc8\v2.00\pic\include\pic16f887.h"
   380                           EEDAT equ 010Ch ;# 
   381  010C                     # 3259 "C:\Program Files (x86)\Microchip\xc8\v2.00\pic\include\pic16f887.h"
   382                           EEADR equ 010Dh ;# 
   383  010D                     # 3266 "C:\Program Files (x86)\Microchip\xc8\v2.00\pic\include\pic16f887.h"
   384                           EEDATH equ 010Eh ;# 
   385  010E                     # 3273 "C:\Program Files (x86)\Microchip\xc8\v2.00\pic\include\pic16f887.h"
   386                           EEADRH equ 010Fh ;# 
   387  010F                     # 3280 "C:\Program Files (x86)\Microchip\xc8\v2.00\pic\include\pic16f887.h"
   388                           SRCON equ 0185h ;# 
   389  0185                     # 3337 "C:\Program Files (x86)\Microchip\xc8\v2.00\pic\include\pic16f887.h"
   390                           BAUDCTL equ 0187h ;# 
   391  0187                     # 3389 "C:\Program Files (x86)\Microchip\xc8\v2.00\pic\include\pic16f887.h"
   392                           ANSEL equ 0188h ;# 
   393  0188                     # 3451 "C:\Program Files (x86)\Microchip\xc8\v2.00\pic\include\pic16f887.h"
   394                           ANSELH equ 0189h ;# 
   395  0189                     # 3501 "C:\Program Files (x86)\Microchip\xc8\v2.00\pic\include\pic16f887.h"
   396                           EECON1 equ 018Ch ;# 
   397  018C                     # 3546 "C:\Program Files (x86)\Microchip\xc8\v2.00\pic\include\pic16f887.h"
   398                           EECON2 equ 018Dh ;# 
   399  018D                     # 54 "C:\Program Files (x86)\Microchip\xc8\v2.00\pic\include\pic16f887.h"
   400                           INDF equ 00h ;# 
   401  0000                     # 61 "C:\Program Files (x86)\Microchip\xc8\v2.00\pic\include\pic16f887.h"
   402                           TMR0 equ 01h ;# 
   403  0001                     # 68 "C:\Program Files (x86)\Microchip\xc8\v2.00\pic\include\pic16f887.h"
   404                           PCL equ 02h ;# 
   405  0002                     # 75 "C:\Program Files (x86)\Microchip\xc8\v2.00\pic\include\pic16f887.h"
   406                           STATUS equ 03h ;# 
   407  0003                     # 161 "C:\Program Files (x86)\Microchip\xc8\v2.00\pic\include\pic16f887.h"
   408                           FSR equ 04h ;# 
   409  0004                     # 168 "C:\Program Files (x86)\Microchip\xc8\v2.00\pic\include\pic16f887.h"
   410                           PORTA equ 05h ;# 
   411  0005                     # 230 "C:\Program Files (x86)\Microchip\xc8\v2.00\pic\include\pic16f887.h"
   412                           PORTB equ 06h ;# 
   413  0006                     # 292 "C:\Program Files (x86)\Microchip\xc8\v2.00\pic\include\pic16f887.h"
   414                           PORTC equ 07h ;# 
   415  0007                     # 354 "C:\Program Files (x86)\Microchip\xc8\v2.00\pic\include\pic16f887.h"
   416                           PORTD equ 08h ;# 
   417  0008                     # 416 "C:\Program Files (x86)\Microchip\xc8\v2.00\pic\include\pic16f887.h"
   418                           PORTE equ 09h ;# 
   419  0009                     # 454 "C:\Program Files (x86)\Microchip\xc8\v2.00\pic\include\pic16f887.h"
   420                           PCLATH equ 0Ah ;# 
   421  000A                     # 461 "C:\Program Files (x86)\Microchip\xc8\v2.00\pic\include\pic16f887.h"
   422                           INTCON equ 0Bh ;# 
   423  000B                     # 539 "C:\Program Files (x86)\Microchip\xc8\v2.00\pic\include\pic16f887.h"
   424                           PIR1 equ 0Ch ;# 
   425  000C                     # 595 "C:\Program Files (x86)\Microchip\xc8\v2.00\pic\include\pic16f887.h"
   426                           PIR2 equ 0Dh ;# 
   427  000D                     # 652 "C:\Program Files (x86)\Microchip\xc8\v2.00\pic\include\pic16f887.h"
   428                           TMR1 equ 0Eh ;# 
   429  000E                     # 659 "C:\Program Files (x86)\Microchip\xc8\v2.00\pic\include\pic16f887.h"
   430                           TMR1L equ 0Eh ;# 
   431  000E                     # 666 "C:\Program Files (x86)\Microchip\xc8\v2.00\pic\include\pic16f887.h"
   432                           TMR1H equ 0Fh ;# 
   433  000F                     # 673 "C:\Program Files (x86)\Microchip\xc8\v2.00\pic\include\pic16f887.h"
   434                           T1CON equ 010h ;# 
   435  0010                     # 767 "C:\Program Files (x86)\Microchip\xc8\v2.00\pic\include\pic16f887.h"
   436                           TMR2 equ 011h ;# 
   437  0011                     # 774 "C:\Program Files (x86)\Microchip\xc8\v2.00\pic\include\pic16f887.h"
   438                           T2CON equ 012h ;# 
   439  0012                     # 845 "C:\Program Files (x86)\Microchip\xc8\v2.00\pic\include\pic16f887.h"
   440                           SSPBUF equ 013h ;# 
   441  0013                     # 852 "C:\Program Files (x86)\Microchip\xc8\v2.00\pic\include\pic16f887.h"
   442                           SSPCON equ 014h ;# 
   443  0014                     # 922 "C:\Program Files (x86)\Microchip\xc8\v2.00\pic\include\pic16f887.h"
   444                           CCPR1 equ 015h ;# 
   445  0015                     # 929 "C:\Program Files (x86)\Microchip\xc8\v2.00\pic\include\pic16f887.h"
   446                           CCPR1L equ 015h ;# 
   447  0015                     # 936 "C:\Program Files (x86)\Microchip\xc8\v2.00\pic\include\pic16f887.h"
   448                           CCPR1H equ 016h ;# 
   449  0016                     # 943 "C:\Program Files (x86)\Microchip\xc8\v2.00\pic\include\pic16f887.h"
   450                           CCP1CON equ 017h ;# 
   451  0017                     # 1040 "C:\Program Files (x86)\Microchip\xc8\v2.00\pic\include\pic16f887.h"
   452                           RCSTA equ 018h ;# 
   453  0018                     # 1135 "C:\Program Files (x86)\Microchip\xc8\v2.00\pic\include\pic16f887.h"
   454                           TXREG equ 019h ;# 
   455  0019                     # 1142 "C:\Program Files (x86)\Microchip\xc8\v2.00\pic\include\pic16f887.h"
   456                           RCREG equ 01Ah ;# 
   457  001A                     # 1149 "C:\Program Files (x86)\Microchip\xc8\v2.00\pic\include\pic16f887.h"
   458                           CCPR2 equ 01Bh ;# 
   459  001B                     # 1156 "C:\Program Files (x86)\Microchip\xc8\v2.00\pic\include\pic16f887.h"
   460                           CCPR2L equ 01Bh ;# 
   461  001B                     # 1163 "C:\Program Files (x86)\Microchip\xc8\v2.00\pic\include\pic16f887.h"
   462                           CCPR2H equ 01Ch ;# 
   463  001C                     # 1170 "C:\Program Files (x86)\Microchip\xc8\v2.00\pic\include\pic16f887.h"
   464                           CCP2CON equ 01Dh ;# 
   465  001D                     # 1240 "C:\Program Files (x86)\Microchip\xc8\v2.00\pic\include\pic16f887.h"
   466                           ADRESH equ 01Eh ;# 
   467  001E                     # 1247 "C:\Program Files (x86)\Microchip\xc8\v2.00\pic\include\pic16f887.h"
   468                           ADCON0 equ 01Fh ;# 
   469  001F                     # 1348 "C:\Program Files (x86)\Microchip\xc8\v2.00\pic\include\pic16f887.h"
   470                           OPTION_REG equ 081h ;# 
   471  0081                     # 1418 "C:\Program Files (x86)\Microchip\xc8\v2.00\pic\include\pic16f887.h"
   472                           TRISA equ 085h ;# 
   473  0085                     # 1480 "C:\Program Files (x86)\Microchip\xc8\v2.00\pic\include\pic16f887.h"
   474                           TRISB equ 086h ;# 
   475  0086                     # 1542 "C:\Program Files (x86)\Microchip\xc8\v2.00\pic\include\pic16f887.h"
   476                           TRISC equ 087h ;# 
   477  0087                     # 1604 "C:\Program Files (x86)\Microchip\xc8\v2.00\pic\include\pic16f887.h"
   478                           TRISD equ 088h ;# 
   479  0088                     # 1666 "C:\Program Files (x86)\Microchip\xc8\v2.00\pic\include\pic16f887.h"
   480                           TRISE equ 089h ;# 
   481  0089                     # 1704 "C:\Program Files (x86)\Microchip\xc8\v2.00\pic\include\pic16f887.h"
   482                           PIE1 equ 08Ch ;# 
   483  008C                     # 1760 "C:\Program Files (x86)\Microchip\xc8\v2.00\pic\include\pic16f887.h"
   484                           PIE2 equ 08Dh ;# 
   485  008D                     # 1817 "C:\Program Files (x86)\Microchip\xc8\v2.00\pic\include\pic16f887.h"
   486                           PCON equ 08Eh ;# 
   487  008E                     # 1864 "C:\Program Files (x86)\Microchip\xc8\v2.00\pic\include\pic16f887.h"
   488                           OSCCON equ 08Fh ;# 
   489  008F                     # 1929 "C:\Program Files (x86)\Microchip\xc8\v2.00\pic\include\pic16f887.h"
   490                           OSCTUNE equ 090h ;# 
   491  0090                     # 1981 "C:\Program Files (x86)\Microchip\xc8\v2.00\pic\include\pic16f887.h"
   492                           SSPCON2 equ 091h ;# 
   493  0091                     # 2043 "C:\Program Files (x86)\Microchip\xc8\v2.00\pic\include\pic16f887.h"
   494                           PR2 equ 092h ;# 
   495  0092                     # 2050 "C:\Program Files (x86)\Microchip\xc8\v2.00\pic\include\pic16f887.h"
   496                           SSPADD equ 093h ;# 
   497  0093                     # 2057 "C:\Program Files (x86)\Microchip\xc8\v2.00\pic\include\pic16f887.h"
   498                           SSPMSK equ 093h ;# 
   499  0093                     # 2062 "C:\Program Files (x86)\Microchip\xc8\v2.00\pic\include\pic16f887.h"
   500                           MSK equ 093h ;# 
   501  0093                     # 2179 "C:\Program Files (x86)\Microchip\xc8\v2.00\pic\include\pic16f887.h"
   502                           SSPSTAT equ 094h ;# 
   503  0094                     # 2348 "C:\Program Files (x86)\Microchip\xc8\v2.00\pic\include\pic16f887.h"
   504                           WPUB equ 095h ;# 
   505  0095                     # 2418 "C:\Program Files (x86)\Microchip\xc8\v2.00\pic\include\pic16f887.h"
   506                           IOCB equ 096h ;# 
   507  0096                     # 2488 "C:\Program Files (x86)\Microchip\xc8\v2.00\pic\include\pic16f887.h"
   508                           VRCON equ 097h ;# 
   509  0097                     # 2558 "C:\Program Files (x86)\Microchip\xc8\v2.00\pic\include\pic16f887.h"
   510                           TXSTA equ 098h ;# 
   511  0098                     # 2644 "C:\Program Files (x86)\Microchip\xc8\v2.00\pic\include\pic16f887.h"
   512                           SPBRG equ 099h ;# 
   513  0099                     # 2706 "C:\Program Files (x86)\Microchip\xc8\v2.00\pic\include\pic16f887.h"
   514                           SPBRGH equ 09Ah ;# 
   515  009A                     # 2776 "C:\Program Files (x86)\Microchip\xc8\v2.00\pic\include\pic16f887.h"
   516                           PWM1CON equ 09Bh ;# 
   517  009B                     # 2846 "C:\Program Files (x86)\Microchip\xc8\v2.00\pic\include\pic16f887.h"
   518                           ECCPAS equ 09Ch ;# 
   519  009C                     # 2928 "C:\Program Files (x86)\Microchip\xc8\v2.00\pic\include\pic16f887.h"
   520                           PSTRCON equ 09Dh ;# 
   521  009D                     # 2972 "C:\Program Files (x86)\Microchip\xc8\v2.00\pic\include\pic16f887.h"
   522                           ADRESL equ 09Eh ;# 
   523  009E                     # 2979 "C:\Program Files (x86)\Microchip\xc8\v2.00\pic\include\pic16f887.h"
   524                           ADCON1 equ 09Fh ;# 
   525  009F                     # 3013 "C:\Program Files (x86)\Microchip\xc8\v2.00\pic\include\pic16f887.h"
   526                           WDTCON equ 0105h ;# 
   527  0105                     # 3066 "C:\Program Files (x86)\Microchip\xc8\v2.00\pic\include\pic16f887.h"
   528                           CM1CON0 equ 0107h ;# 
   529  0107                     # 3131 "C:\Program Files (x86)\Microchip\xc8\v2.00\pic\include\pic16f887.h"
   530                           CM2CON0 equ 0108h ;# 
   531  0108                     # 3196 "C:\Program Files (x86)\Microchip\xc8\v2.00\pic\include\pic16f887.h"
   532                           CM2CON1 equ 0109h ;# 
   533  0109                     # 3247 "C:\Program Files (x86)\Microchip\xc8\v2.00\pic\include\pic16f887.h"
   534                           EEDATA equ 010Ch ;# 
   535  010C                     # 3252 "C:\Program Files (x86)\Microchip\xc8\v2.00\pic\include\pic16f887.h"
   536                           EEDAT equ 010Ch ;# 
   537  010C                     # 3259 "C:\Program Files (x86)\Microchip\xc8\v2.00\pic\include\pic16f887.h"
   538                           EEADR equ 010Dh ;# 
   539  010D                     # 3266 "C:\Program Files (x86)\Microchip\xc8\v2.00\pic\include\pic16f887.h"
   540                           EEDATH equ 010Eh ;# 
   541  010E                     # 3273 "C:\Program Files (x86)\Microchip\xc8\v2.00\pic\include\pic16f887.h"
   542                           EEADRH equ 010Fh ;# 
   543  010F                     # 3280 "C:\Program Files (x86)\Microchip\xc8\v2.00\pic\include\pic16f887.h"
   544                           SRCON equ 0185h ;# 
   545  0185                     # 3337 "C:\Program Files (x86)\Microchip\xc8\v2.00\pic\include\pic16f887.h"
   546                           BAUDCTL equ 0187h ;# 
   547  0187                     # 3389 "C:\Program Files (x86)\Microchip\xc8\v2.00\pic\include\pic16f887.h"
   548                           ANSEL equ 0188h ;# 
   549  0188                     # 3451 "C:\Program Files (x86)\Microchip\xc8\v2.00\pic\include\pic16f887.h"
   550                           ANSELH equ 0189h ;# 
   551  0189                     # 3501 "C:\Program Files (x86)\Microchip\xc8\v2.00\pic\include\pic16f887.h"
   552                           EECON1 equ 018Ch ;# 
   553  018C                     # 3546 "C:\Program Files (x86)\Microchip\xc8\v2.00\pic\include\pic16f887.h"
   554                           EECON2 equ 018Dh ;# 
   555  018D                     # 54 "C:\Program Files (x86)\Microchip\xc8\v2.00\pic\include\pic16f887.h"
   556                           INDF equ 00h ;# 
   557  0000                     # 61 "C:\Program Files (x86)\Microchip\xc8\v2.00\pic\include\pic16f887.h"
   558                           TMR0 equ 01h ;# 
   559  0001                     # 68 "C:\Program Files (x86)\Microchip\xc8\v2.00\pic\include\pic16f887.h"
   560                           PCL equ 02h ;# 
   561  0002                     # 75 "C:\Program Files (x86)\Microchip\xc8\v2.00\pic\include\pic16f887.h"
   562                           STATUS equ 03h ;# 
   563  0003                     # 161 "C:\Program Files (x86)\Microchip\xc8\v2.00\pic\include\pic16f887.h"
   564                           FSR equ 04h ;# 
   565  0004                     # 168 "C:\Program Files (x86)\Microchip\xc8\v2.00\pic\include\pic16f887.h"
   566                           PORTA equ 05h ;# 
   567  0005                     # 230 "C:\Program Files (x86)\Microchip\xc8\v2.00\pic\include\pic16f887.h"
   568                           PORTB equ 06h ;# 
   569  0006                     # 292 "C:\Program Files (x86)\Microchip\xc8\v2.00\pic\include\pic16f887.h"
   570                           PORTC equ 07h ;# 
   571  0007                     # 354 "C:\Program Files (x86)\Microchip\xc8\v2.00\pic\include\pic16f887.h"
   572                           PORTD equ 08h ;# 
   573  0008                     # 416 "C:\Program Files (x86)\Microchip\xc8\v2.00\pic\include\pic16f887.h"
   574                           PORTE equ 09h ;# 
   575  0009                     # 454 "C:\Program Files (x86)\Microchip\xc8\v2.00\pic\include\pic16f887.h"
   576                           PCLATH equ 0Ah ;# 
   577  000A                     # 461 "C:\Program Files (x86)\Microchip\xc8\v2.00\pic\include\pic16f887.h"
   578                           INTCON equ 0Bh ;# 
   579  000B                     # 539 "C:\Program Files (x86)\Microchip\xc8\v2.00\pic\include\pic16f887.h"
   580                           PIR1 equ 0Ch ;# 
   581  000C                     # 595 "C:\Program Files (x86)\Microchip\xc8\v2.00\pic\include\pic16f887.h"
   582                           PIR2 equ 0Dh ;# 
   583  000D                     # 652 "C:\Program Files (x86)\Microchip\xc8\v2.00\pic\include\pic16f887.h"
   584                           TMR1 equ 0Eh ;# 
   585  000E                     # 659 "C:\Program Files (x86)\Microchip\xc8\v2.00\pic\include\pic16f887.h"
   586                           TMR1L equ 0Eh ;# 
   587  000E                     # 666 "C:\Program Files (x86)\Microchip\xc8\v2.00\pic\include\pic16f887.h"
   588                           TMR1H equ 0Fh ;# 
   589  000F                     # 673 "C:\Program Files (x86)\Microchip\xc8\v2.00\pic\include\pic16f887.h"
   590                           T1CON equ 010h ;# 
   591  0010                     # 767 "C:\Program Files (x86)\Microchip\xc8\v2.00\pic\include\pic16f887.h"
   592                           TMR2 equ 011h ;# 
   593  0011                     # 774 "C:\Program Files (x86)\Microchip\xc8\v2.00\pic\include\pic16f887.h"
   594                           T2CON equ 012h ;# 
   595  0012                     # 845 "C:\Program Files (x86)\Microchip\xc8\v2.00\pic\include\pic16f887.h"
   596                           SSPBUF equ 013h ;# 
   597  0013                     # 852 "C:\Program Files (x86)\Microchip\xc8\v2.00\pic\include\pic16f887.h"
   598                           SSPCON equ 014h ;# 
   599  0014                     # 922 "C:\Program Files (x86)\Microchip\xc8\v2.00\pic\include\pic16f887.h"
   600                           CCPR1 equ 015h ;# 
   601  0015                     # 929 "C:\Program Files (x86)\Microchip\xc8\v2.00\pic\include\pic16f887.h"
   602                           CCPR1L equ 015h ;# 
   603  0015                     # 936 "C:\Program Files (x86)\Microchip\xc8\v2.00\pic\include\pic16f887.h"
   604                           CCPR1H equ 016h ;# 
   605  0016                     # 943 "C:\Program Files (x86)\Microchip\xc8\v2.00\pic\include\pic16f887.h"
   606                           CCP1CON equ 017h ;# 
   607  0017                     # 1040 "C:\Program Files (x86)\Microchip\xc8\v2.00\pic\include\pic16f887.h"
   608                           RCSTA equ 018h ;# 
   609  0018                     # 1135 "C:\Program Files (x86)\Microchip\xc8\v2.00\pic\include\pic16f887.h"
   610                           TXREG equ 019h ;# 
   611  0019                     # 1142 "C:\Program Files (x86)\Microchip\xc8\v2.00\pic\include\pic16f887.h"
   612                           RCREG equ 01Ah ;# 
   613  001A                     # 1149 "C:\Program Files (x86)\Microchip\xc8\v2.00\pic\include\pic16f887.h"
   614                           CCPR2 equ 01Bh ;# 
   615  001B                     # 1156 "C:\Program Files (x86)\Microchip\xc8\v2.00\pic\include\pic16f887.h"
   616                           CCPR2L equ 01Bh ;# 
   617  001B                     # 1163 "C:\Program Files (x86)\Microchip\xc8\v2.00\pic\include\pic16f887.h"
   618                           CCPR2H equ 01Ch ;# 
   619  001C                     # 1170 "C:\Program Files (x86)\Microchip\xc8\v2.00\pic\include\pic16f887.h"
   620                           CCP2CON equ 01Dh ;# 
   621  001D                     # 1240 "C:\Program Files (x86)\Microchip\xc8\v2.00\pic\include\pic16f887.h"
   622                           ADRESH equ 01Eh ;# 
   623  001E                     # 1247 "C:\Program Files (x86)\Microchip\xc8\v2.00\pic\include\pic16f887.h"
   624                           ADCON0 equ 01Fh ;# 
   625  001F                     # 1348 "C:\Program Files (x86)\Microchip\xc8\v2.00\pic\include\pic16f887.h"
   626                           OPTION_REG equ 081h ;# 
   627  0081                     # 1418 "C:\Program Files (x86)\Microchip\xc8\v2.00\pic\include\pic16f887.h"
   628                           TRISA equ 085h ;# 
   629  0085                     # 1480 "C:\Program Files (x86)\Microchip\xc8\v2.00\pic\include\pic16f887.h"
   630                           TRISB equ 086h ;# 
   631  0086                     # 1542 "C:\Program Files (x86)\Microchip\xc8\v2.00\pic\include\pic16f887.h"
   632                           TRISC equ 087h ;# 
   633  0087                     # 1604 "C:\Program Files (x86)\Microchip\xc8\v2.00\pic\include\pic16f887.h"
   634                           TRISD equ 088h ;# 
   635  0088                     # 1666 "C:\Program Files (x86)\Microchip\xc8\v2.00\pic\include\pic16f887.h"
   636                           TRISE equ 089h ;# 
   637  0089                     # 1704 "C:\Program Files (x86)\Microchip\xc8\v2.00\pic\include\pic16f887.h"
   638                           PIE1 equ 08Ch ;# 
   639  008C                     # 1760 "C:\Program Files (x86)\Microchip\xc8\v2.00\pic\include\pic16f887.h"
   640                           PIE2 equ 08Dh ;# 
   641  008D                     # 1817 "C:\Program Files (x86)\Microchip\xc8\v2.00\pic\include\pic16f887.h"
   642                           PCON equ 08Eh ;# 
   643  008E                     # 1864 "C:\Program Files (x86)\Microchip\xc8\v2.00\pic\include\pic16f887.h"
   644                           OSCCON equ 08Fh ;# 
   645  008F                     # 1929 "C:\Program Files (x86)\Microchip\xc8\v2.00\pic\include\pic16f887.h"
   646                           OSCTUNE equ 090h ;# 
   647  0090                     # 1981 "C:\Program Files (x86)\Microchip\xc8\v2.00\pic\include\pic16f887.h"
   648                           SSPCON2 equ 091h ;# 
   649  0091                     # 2043 "C:\Program Files (x86)\Microchip\xc8\v2.00\pic\include\pic16f887.h"
   650                           PR2 equ 092h ;# 
   651  0092                     # 2050 "C:\Program Files (x86)\Microchip\xc8\v2.00\pic\include\pic16f887.h"
   652                           SSPADD equ 093h ;# 
   653  0093                     # 2057 "C:\Program Files (x86)\Microchip\xc8\v2.00\pic\include\pic16f887.h"
   654                           SSPMSK equ 093h ;# 
   655  0093                     # 2062 "C:\Program Files (x86)\Microchip\xc8\v2.00\pic\include\pic16f887.h"
   656                           MSK equ 093h ;# 
   657  0093                     # 2179 "C:\Program Files (x86)\Microchip\xc8\v2.00\pic\include\pic16f887.h"
   658                           SSPSTAT equ 094h ;# 
   659  0094                     # 2348 "C:\Program Files (x86)\Microchip\xc8\v2.00\pic\include\pic16f887.h"
   660                           WPUB equ 095h ;# 
   661  0095                     # 2418 "C:\Program Files (x86)\Microchip\xc8\v2.00\pic\include\pic16f887.h"
   662                           IOCB equ 096h ;# 
   663  0096                     # 2488 "C:\Program Files (x86)\Microchip\xc8\v2.00\pic\include\pic16f887.h"
   664                           VRCON equ 097h ;# 
   665  0097                     # 2558 "C:\Program Files (x86)\Microchip\xc8\v2.00\pic\include\pic16f887.h"
   666                           TXSTA equ 098h ;# 
   667  0098                     # 2644 "C:\Program Files (x86)\Microchip\xc8\v2.00\pic\include\pic16f887.h"
   668                           SPBRG equ 099h ;# 
   669  0099                     # 2706 "C:\Program Files (x86)\Microchip\xc8\v2.00\pic\include\pic16f887.h"
   670                           SPBRGH equ 09Ah ;# 
   671  009A                     # 2776 "C:\Program Files (x86)\Microchip\xc8\v2.00\pic\include\pic16f887.h"
   672                           PWM1CON equ 09Bh ;# 
   673  009B                     # 2846 "C:\Program Files (x86)\Microchip\xc8\v2.00\pic\include\pic16f887.h"
   674                           ECCPAS equ 09Ch ;# 
   675  009C                     # 2928 "C:\Program Files (x86)\Microchip\xc8\v2.00\pic\include\pic16f887.h"
   676                           PSTRCON equ 09Dh ;# 
   677  009D                     # 2972 "C:\Program Files (x86)\Microchip\xc8\v2.00\pic\include\pic16f887.h"
   678                           ADRESL equ 09Eh ;# 
   679  009E                     # 2979 "C:\Program Files (x86)\Microchip\xc8\v2.00\pic\include\pic16f887.h"
   680                           ADCON1 equ 09Fh ;# 
   681  009F                     # 3013 "C:\Program Files (x86)\Microchip\xc8\v2.00\pic\include\pic16f887.h"
   682                           WDTCON equ 0105h ;# 
   683  0105                     # 3066 "C:\Program Files (x86)\Microchip\xc8\v2.00\pic\include\pic16f887.h"
   684                           CM1CON0 equ 0107h ;# 
   685  0107                     # 3131 "C:\Program Files (x86)\Microchip\xc8\v2.00\pic\include\pic16f887.h"
   686                           CM2CON0 equ 0108h ;# 
   687  0108                     # 3196 "C:\Program Files (x86)\Microchip\xc8\v2.00\pic\include\pic16f887.h"
   688                           CM2CON1 equ 0109h ;# 
   689  0109                     # 3247 "C:\Program Files (x86)\Microchip\xc8\v2.00\pic\include\pic16f887.h"
   690                           EEDATA equ 010Ch ;# 
   691  010C                     # 3252 "C:\Program Files (x86)\Microchip\xc8\v2.00\pic\include\pic16f887.h"
   692                           EEDAT equ 010Ch ;# 
   693  010C                     # 3259 "C:\Program Files (x86)\Microchip\xc8\v2.00\pic\include\pic16f887.h"
   694                           EEADR equ 010Dh ;# 
   695  010D                     # 3266 "C:\Program Files (x86)\Microchip\xc8\v2.00\pic\include\pic16f887.h"
   696                           EEDATH equ 010Eh ;# 
   697  010E                     # 3273 "C:\Program Files (x86)\Microchip\xc8\v2.00\pic\include\pic16f887.h"
   698                           EEADRH equ 010Fh ;# 
   699  010F                     # 3280 "C:\Program Files (x86)\Microchip\xc8\v2.00\pic\include\pic16f887.h"
   700                           SRCON equ 0185h ;# 
   701  0185                     # 3337 "C:\Program Files (x86)\Microchip\xc8\v2.00\pic\include\pic16f887.h"
   702                           BAUDCTL equ 0187h ;# 
   703  0187                     # 3389 "C:\Program Files (x86)\Microchip\xc8\v2.00\pic\include\pic16f887.h"
   704                           ANSEL equ 0188h ;# 
   705  0188                     # 3451 "C:\Program Files (x86)\Microchip\xc8\v2.00\pic\include\pic16f887.h"
   706                           ANSELH equ 0189h ;# 
   707  0189                     # 3501 "C:\Program Files (x86)\Microchip\xc8\v2.00\pic\include\pic16f887.h"
   708                           EECON1 equ 018Ch ;# 
   709  018C                     # 3546 "C:\Program Files (x86)\Microchip\xc8\v2.00\pic\include\pic16f887.h"
   710                           EECON2 equ 018Dh ;# 
   711  018D                     # 54 "C:\Program Files (x86)\Microchip\xc8\v2.00\pic\include\pic16f887.h"
   712                           INDF equ 00h ;# 
   713  0000                     # 61 "C:\Program Files (x86)\Microchip\xc8\v2.00\pic\include\pic16f887.h"
   714                           TMR0 equ 01h ;# 
   715  0001                     # 68 "C:\Program Files (x86)\Microchip\xc8\v2.00\pic\include\pic16f887.h"
   716                           PCL equ 02h ;# 
   717  0002                     # 75 "C:\Program Files (x86)\Microchip\xc8\v2.00\pic\include\pic16f887.h"
   718                           STATUS equ 03h ;# 
   719  0003                     # 161 "C:\Program Files (x86)\Microchip\xc8\v2.00\pic\include\pic16f887.h"
   720                           FSR equ 04h ;# 
   721  0004                     # 168 "C:\Program Files (x86)\Microchip\xc8\v2.00\pic\include\pic16f887.h"
   722                           PORTA equ 05h ;# 
   723  0005                     # 230 "C:\Program Files (x86)\Microchip\xc8\v2.00\pic\include\pic16f887.h"
   724                           PORTB equ 06h ;# 
   725  0006                     # 292 "C:\Program Files (x86)\Microchip\xc8\v2.00\pic\include\pic16f887.h"
   726                           PORTC equ 07h ;# 
   727  0007                     # 354 "C:\Program Files (x86)\Microchip\xc8\v2.00\pic\include\pic16f887.h"
   728                           PORTD equ 08h ;# 
   729  0008                     # 416 "C:\Program Files (x86)\Microchip\xc8\v2.00\pic\include\pic16f887.h"
   730                           PORTE equ 09h ;# 
   731  0009                     # 454 "C:\Program Files (x86)\Microchip\xc8\v2.00\pic\include\pic16f887.h"
   732                           PCLATH equ 0Ah ;# 
   733  000A                     # 461 "C:\Program Files (x86)\Microchip\xc8\v2.00\pic\include\pic16f887.h"
   734                           INTCON equ 0Bh ;# 
   735  000B                     # 539 "C:\Program Files (x86)\Microchip\xc8\v2.00\pic\include\pic16f887.h"
   736                           PIR1 equ 0Ch ;# 
   737  000C                     # 595 "C:\Program Files (x86)\Microchip\xc8\v2.00\pic\include\pic16f887.h"
   738                           PIR2 equ 0Dh ;# 
   739  000D                     # 652 "C:\Program Files (x86)\Microchip\xc8\v2.00\pic\include\pic16f887.h"
   740                           TMR1 equ 0Eh ;# 
   741  000E                     # 659 "C:\Program Files (x86)\Microchip\xc8\v2.00\pic\include\pic16f887.h"
   742                           TMR1L equ 0Eh ;# 
   743  000E                     # 666 "C:\Program Files (x86)\Microchip\xc8\v2.00\pic\include\pic16f887.h"
   744                           TMR1H equ 0Fh ;# 
   745  000F                     # 673 "C:\Program Files (x86)\Microchip\xc8\v2.00\pic\include\pic16f887.h"
   746                           T1CON equ 010h ;# 
   747  0010                     # 767 "C:\Program Files (x86)\Microchip\xc8\v2.00\pic\include\pic16f887.h"
   748                           TMR2 equ 011h ;# 
   749  0011                     # 774 "C:\Program Files (x86)\Microchip\xc8\v2.00\pic\include\pic16f887.h"
   750                           T2CON equ 012h ;# 
   751  0012                     # 845 "C:\Program Files (x86)\Microchip\xc8\v2.00\pic\include\pic16f887.h"
   752                           SSPBUF equ 013h ;# 
   753  0013                     # 852 "C:\Program Files (x86)\Microchip\xc8\v2.00\pic\include\pic16f887.h"
   754                           SSPCON equ 014h ;# 
   755  0014                     # 922 "C:\Program Files (x86)\Microchip\xc8\v2.00\pic\include\pic16f887.h"
   756                           CCPR1 equ 015h ;# 
   757  0015                     # 929 "C:\Program Files (x86)\Microchip\xc8\v2.00\pic\include\pic16f887.h"
   758                           CCPR1L equ 015h ;# 
   759  0015                     # 936 "C:\Program Files (x86)\Microchip\xc8\v2.00\pic\include\pic16f887.h"
   760                           CCPR1H equ 016h ;# 
   761  0016                     # 943 "C:\Program Files (x86)\Microchip\xc8\v2.00\pic\include\pic16f887.h"
   762                           CCP1CON equ 017h ;# 
   763  0017                     # 1040 "C:\Program Files (x86)\Microchip\xc8\v2.00\pic\include\pic16f887.h"
   764                           RCSTA equ 018h ;# 
   765  0018                     # 1135 "C:\Program Files (x86)\Microchip\xc8\v2.00\pic\include\pic16f887.h"
   766                           TXREG equ 019h ;# 
   767  0019                     # 1142 "C:\Program Files (x86)\Microchip\xc8\v2.00\pic\include\pic16f887.h"
   768                           RCREG equ 01Ah ;# 
   769  001A                     # 1149 "C:\Program Files (x86)\Microchip\xc8\v2.00\pic\include\pic16f887.h"
   770                           CCPR2 equ 01Bh ;# 
   771  001B                     # 1156 "C:\Program Files (x86)\Microchip\xc8\v2.00\pic\include\pic16f887.h"
   772                           CCPR2L equ 01Bh ;# 
   773  001B                     # 1163 "C:\Program Files (x86)\Microchip\xc8\v2.00\pic\include\pic16f887.h"
   774                           CCPR2H equ 01Ch ;# 
   775  001C                     # 1170 "C:\Program Files (x86)\Microchip\xc8\v2.00\pic\include\pic16f887.h"
   776                           CCP2CON equ 01Dh ;# 
   777  001D                     # 1240 "C:\Program Files (x86)\Microchip\xc8\v2.00\pic\include\pic16f887.h"
   778                           ADRESH equ 01Eh ;# 
   779  001E                     # 1247 "C:\Program Files (x86)\Microchip\xc8\v2.00\pic\include\pic16f887.h"
   780                           ADCON0 equ 01Fh ;# 
   781  001F                     # 1348 "C:\Program Files (x86)\Microchip\xc8\v2.00\pic\include\pic16f887.h"
   782                           OPTION_REG equ 081h ;# 
   783  0081                     # 1418 "C:\Program Files (x86)\Microchip\xc8\v2.00\pic\include\pic16f887.h"
   784                           TRISA equ 085h ;# 
   785  0085                     # 1480 "C:\Program Files (x86)\Microchip\xc8\v2.00\pic\include\pic16f887.h"
   786                           TRISB equ 086h ;# 
   787  0086                     # 1542 "C:\Program Files (x86)\Microchip\xc8\v2.00\pic\include\pic16f887.h"
   788                           TRISC equ 087h ;# 
   789  0087                     # 1604 "C:\Program Files (x86)\Microchip\xc8\v2.00\pic\include\pic16f887.h"
   790                           TRISD equ 088h ;# 
   791  0088                     # 1666 "C:\Program Files (x86)\Microchip\xc8\v2.00\pic\include\pic16f887.h"
   792                           TRISE equ 089h ;# 
   793  0089                     # 1704 "C:\Program Files (x86)\Microchip\xc8\v2.00\pic\include\pic16f887.h"
   794                           PIE1 equ 08Ch ;# 
   795  008C                     # 1760 "C:\Program Files (x86)\Microchip\xc8\v2.00\pic\include\pic16f887.h"
   796                           PIE2 equ 08Dh ;# 
   797  008D                     # 1817 "C:\Program Files (x86)\Microchip\xc8\v2.00\pic\include\pic16f887.h"
   798                           PCON equ 08Eh ;# 
   799  008E                     # 1864 "C:\Program Files (x86)\Microchip\xc8\v2.00\pic\include\pic16f887.h"
   800                           OSCCON equ 08Fh ;# 
   801  008F                     # 1929 "C:\Program Files (x86)\Microchip\xc8\v2.00\pic\include\pic16f887.h"
   802                           OSCTUNE equ 090h ;# 
   803  0090                     # 1981 "C:\Program Files (x86)\Microchip\xc8\v2.00\pic\include\pic16f887.h"
   804                           SSPCON2 equ 091h ;# 
   805  0091                     # 2043 "C:\Program Files (x86)\Microchip\xc8\v2.00\pic\include\pic16f887.h"
   806                           PR2 equ 092h ;# 
   807  0092                     # 2050 "C:\Program Files (x86)\Microchip\xc8\v2.00\pic\include\pic16f887.h"
   808                           SSPADD equ 093h ;# 
   809  0093                     # 2057 "C:\Program Files (x86)\Microchip\xc8\v2.00\pic\include\pic16f887.h"
   810                           SSPMSK equ 093h ;# 
   811  0093                     # 2062 "C:\Program Files (x86)\Microchip\xc8\v2.00\pic\include\pic16f887.h"
   812                           MSK equ 093h ;# 
   813  0093                     # 2179 "C:\Program Files (x86)\Microchip\xc8\v2.00\pic\include\pic16f887.h"
   814                           SSPSTAT equ 094h ;# 
   815  0094                     # 2348 "C:\Program Files (x86)\Microchip\xc8\v2.00\pic\include\pic16f887.h"
   816                           WPUB equ 095h ;# 
   817  0095                     # 2418 "C:\Program Files (x86)\Microchip\xc8\v2.00\pic\include\pic16f887.h"
   818                           IOCB equ 096h ;# 
   819  0096                     # 2488 "C:\Program Files (x86)\Microchip\xc8\v2.00\pic\include\pic16f887.h"
   820                           VRCON equ 097h ;# 
   821  0097                     # 2558 "C:\Program Files (x86)\Microchip\xc8\v2.00\pic\include\pic16f887.h"
   822                           TXSTA equ 098h ;# 
   823  0098                     # 2644 "C:\Program Files (x86)\Microchip\xc8\v2.00\pic\include\pic16f887.h"
   824                           SPBRG equ 099h ;# 
   825  0099                     # 2706 "C:\Program Files (x86)\Microchip\xc8\v2.00\pic\include\pic16f887.h"
   826                           SPBRGH equ 09Ah ;# 
   827  009A                     # 2776 "C:\Program Files (x86)\Microchip\xc8\v2.00\pic\include\pic16f887.h"
   828                           PWM1CON equ 09Bh ;# 
   829  009B                     # 2846 "C:\Program Files (x86)\Microchip\xc8\v2.00\pic\include\pic16f887.h"
   830                           ECCPAS equ 09Ch ;# 
   831  009C                     # 2928 "C:\Program Files (x86)\Microchip\xc8\v2.00\pic\include\pic16f887.h"
   832                           PSTRCON equ 09Dh ;# 
   833  009D                     # 2972 "C:\Program Files (x86)\Microchip\xc8\v2.00\pic\include\pic16f887.h"
   834                           ADRESL equ 09Eh ;# 
   835  009E                     # 2979 "C:\Program Files (x86)\Microchip\xc8\v2.00\pic\include\pic16f887.h"
   836                           ADCON1 equ 09Fh ;# 
   837  009F                     # 3013 "C:\Program Files (x86)\Microchip\xc8\v2.00\pic\include\pic16f887.h"
   838                           WDTCON equ 0105h ;# 
   839  0105                     # 3066 "C:\Program Files (x86)\Microchip\xc8\v2.00\pic\include\pic16f887.h"
   840                           CM1CON0 equ 0107h ;# 
   841  0107                     # 3131 "C:\Program Files (x86)\Microchip\xc8\v2.00\pic\include\pic16f887.h"
   842                           CM2CON0 equ 0108h ;# 
   843  0108                     # 3196 "C:\Program Files (x86)\Microchip\xc8\v2.00\pic\include\pic16f887.h"
   844                           CM2CON1 equ 0109h ;# 
   845  0109                     # 3247 "C:\Program Files (x86)\Microchip\xc8\v2.00\pic\include\pic16f887.h"
   846                           EEDATA equ 010Ch ;# 
   847  010C                     # 3252 "C:\Program Files (x86)\Microchip\xc8\v2.00\pic\include\pic16f887.h"
   848                           EEDAT equ 010Ch ;# 
   849  010C                     # 3259 "C:\Program Files (x86)\Microchip\xc8\v2.00\pic\include\pic16f887.h"
   850                           EEADR equ 010Dh ;# 
   851  010D                     # 3266 "C:\Program Files (x86)\Microchip\xc8\v2.00\pic\include\pic16f887.h"
   852                           EEDATH equ 010Eh ;# 
   853  010E                     # 3273 "C:\Program Files (x86)\Microchip\xc8\v2.00\pic\include\pic16f887.h"
   854                           EEADRH equ 010Fh ;# 
   855  010F                     # 3280 "C:\Program Files (x86)\Microchip\xc8\v2.00\pic\include\pic16f887.h"
   856                           SRCON equ 0185h ;# 
   857  0185                     # 3337 "C:\Program Files (x86)\Microchip\xc8\v2.00\pic\include\pic16f887.h"
   858                           BAUDCTL equ 0187h ;# 
   859  0187                     # 3389 "C:\Program Files (x86)\Microchip\xc8\v2.00\pic\include\pic16f887.h"
   860                           ANSEL equ 0188h ;# 
   861  0188                     # 3451 "C:\Program Files (x86)\Microchip\xc8\v2.00\pic\include\pic16f887.h"
   862                           ANSELH equ 0189h ;# 
   863  0189                     # 3501 "C:\Program Files (x86)\Microchip\xc8\v2.00\pic\include\pic16f887.h"
   864                           EECON1 equ 018Ch ;# 
   865  018C                     # 3546 "C:\Program Files (x86)\Microchip\xc8\v2.00\pic\include\pic16f887.h"
   866                           EECON2 equ 018Dh ;# 
   867  018D                     	FNCALL	_main,_I2C_Master_Init
   868                           	FNCALL	_main,_Set_Time_Date
   869                           	FNCALL	_main,_Update_Current_Date_Time
   870                           	FNCALL	_main,_apagar_luces
   871                           	FNCALL	_main,_boton_lcd
   872                           	FNCALL	_main,_check_infrarrojo
   873                           	FNCALL	_main,_configInterrupciones
   874                           	FNCALL	_main,_configPorts
   875                           	FNCALL	_main,_initOsci8MHZ
   876                           	FNCALL	_main,_lcd_clear
   877                           	FNCALL	_main,_lcd_init
   878                           	FNCALL	_main,_lcd_set_cursor
   879                           	FNCALL	_main,_lcd_write_string
   880                           	FNCALL	_main,_primera_llamada
   881                           	FNCALL	_main,_segunda_llamada
   882                           	FNCALL	_main,_tercera_llamada
   883                           	FNCALL	_lcd_init,_lcd_cmd
   884                           	FNCALL	_lcd_init,_lcd_port
   885                           	FNCALL	_boton_lcd,_lcd_set_cursor
   886                           	FNCALL	_boton_lcd,_lcd_write_char
   887                           	FNCALL	_boton_lcd,_lcd_write_string
   888                           	FNCALL	_boton_lcd,_mostrar_lcd
   889                           	FNCALL	_boton_lcd,_separa_digitos_rtc
   890                           	FNCALL	_boton_lcd,_slave_1
   891                           	FNCALL	_boton_lcd,_slave_2
   892                           	FNCALL	_boton_lcd,_slave_3
   893                           	FNCALL	_slave_3,_I2C_Master_Read
   894                           	FNCALL	_slave_3,_I2C_Master_Start
   895                           	FNCALL	_slave_3,_I2C_Master_Stop
   896                           	FNCALL	_slave_3,_I2C_Master_Write
   897                           	FNCALL	_slave_3,_lcd_set_cursor
   898                           	FNCALL	_slave_3,_lcd_write_string
   899                           	FNCALL	_slave_2,_I2C_Master_Read
   900                           	FNCALL	_slave_2,_I2C_Master_Start
   901                           	FNCALL	_slave_2,_I2C_Master_Stop
   902                           	FNCALL	_slave_2,_I2C_Master_Write
   903                           	FNCALL	_slave_2,_lcd_clear
   904                           	FNCALL	_slave_2,_lcd_set_cursor
   905                           	FNCALL	_slave_2,_lcd_write_string
   906                           	FNCALL	_lcd_clear,_lcd_cmd
   907                           	FNCALL	_slave_1,_I2C_Master_Read
   908                           	FNCALL	_slave_1,_I2C_Master_Start
   909                           	FNCALL	_slave_1,_I2C_Master_Stop
   910                           	FNCALL	_slave_1,_I2C_Master_Write
   911                           	FNCALL	_slave_1,___xxtofl
   912                           	FNCALL	_slave_1,_b0
   913                           	FNCALL	_slave_1,_b1
   914                           	FNCALL	_slave_1,_b2
   915                           	FNCALL	_slave_1,_lcd_set_cursor
   916                           	FNCALL	_slave_1,_lcd_write_char
   917                           	FNCALL	_slave_1,_lcd_write_string
   918                           	FNCALL	_b2,___fldiv
   919                           	FNCALL	_b2,___fltol
   920                           	FNCALL	_b2,_num_case
   921                           	FNCALL	_b1,___awdiv
   922                           	FNCALL	_b1,___fladd
   923                           	FNCALL	_b1,___fldiv
   924                           	FNCALL	_b1,___flneg
   925                           	FNCALL	_b1,___fltol
   926                           	FNCALL	_b1,___wmul
   927                           	FNCALL	_b1,___xxtofl
   928                           	FNCALL	_b1,_num_case
   929                           	FNCALL	_b0,___awdiv
   930                           	FNCALL	_b0,___bmul
   931                           	FNCALL	_b0,___fladd
   932                           	FNCALL	_b0,___fldiv
   933                           	FNCALL	_b0,___flneg
   934                           	FNCALL	_b0,___fltol
   935                           	FNCALL	_b0,___wmul
   936                           	FNCALL	_b0,___xxtofl
   937                           	FNCALL	_b0,_num_case
   938                           	FNCALL	_separa_digitos_rtc,___awdiv
   939                           	FNCALL	_separa_digitos_rtc,___awmod
   940                           	FNCALL	_mostrar_lcd,_lcd_set_cursor
   941                           	FNCALL	_mostrar_lcd,_lcd_write_char
   942                           	FNCALL	_mostrar_lcd,_lcd_write_string
   943                           	FNCALL	_lcd_write_string,_lcd_write_char
   944                           	FNCALL	_lcd_write_char,_lcd_port
   945                           	FNCALL	_lcd_set_cursor,_lcd_cmd
   946                           	FNCALL	_lcd_cmd,_lcd_port
   947                           	FNCALL	_Update_Current_Date_Time,_BCD_2_DEC
   948                           	FNCALL	_Update_Current_Date_Time,_I2C_Master_Read
   949                           	FNCALL	_Update_Current_Date_Time,_I2C_Master_Start
   950                           	FNCALL	_Update_Current_Date_Time,_I2C_Master_Stop
   951                           	FNCALL	_Update_Current_Date_Time,_I2C_Master_Write
   952                           	FNCALL	_I2C_Master_Read,_I2C_Master_Wait
   953                           	FNCALL	_BCD_2_DEC,___wmul
   954                           	FNCALL	_Set_Time_Date,_DEC_2_BCD
   955                           	FNCALL	_Set_Time_Date,_I2C_Master_Start
   956                           	FNCALL	_Set_Time_Date,_I2C_Master_Stop
   957                           	FNCALL	_Set_Time_Date,_I2C_Master_Write
   958                           	FNCALL	_I2C_Master_Write,_I2C_Master_Wait
   959                           	FNCALL	_I2C_Master_Stop,_I2C_Master_Wait
   960                           	FNCALL	_I2C_Master_Start,_I2C_Master_Wait
   961                           	FNCALL	_DEC_2_BCD,___awdiv
   962                           	FNCALL	_DEC_2_BCD,___awmod
   963                           	FNCALL	_I2C_Master_Init,___lldiv
   964                           	FNROOT	_main
   965                           	FNCALL	_isr,i1_lcd_clear
   966                           	FNCALL	i1_lcd_clear,i1_lcd_cmd
   967                           	FNCALL	i1_lcd_cmd,i1_lcd_port
   968                           	FNCALL	intlevel1,_isr
   969                           	global	intlevel1
   970                           	FNROOT	intlevel1
   971                           	global	_min
   972                           	global	_year
   973                           	global	_month
   974                           	global	_date
   975                           	global	_hour
   976                           psect	idataCOMMON,class=CODE,space=0,delta=2,noexec
   977                           global __pidataCOMMON
   978                           __pidataCOMMON:
   979  1158                     	file	"Proyecto1_master.c"
   980                           	line	85
   981                           
   982                           ;initializer for _min
   983                           	retlw	037h
   984  1158  3437               	retlw	0
   985  1159  3400               
   986                           psect	idataBANK1,class=CODE,space=0,delta=2,noexec
   987                           global __pidataBANK1
   988                           __pidataBANK1:
   989  119B                     	line	90
   990                           
   991                           ;initializer for _year
   992                           	retlw	014h
   993  119B  3414               	retlw	0
   994  119C  3400               
   995                           	line	89
   996                           
   997                           ;initializer for _month
   998                           	retlw	02h
   999  119D  3402               	retlw	0
  1000  119E  3400               
  1001                           	line	88
  1002                           
  1003                           ;initializer for _day
  1004                           	retlw	01h
  1005  119F  3401               	retlw	0
  1006  11A0  3400               
  1007                           	line	87
  1008                           
  1009                           ;initializer for _date
  1010                           	retlw	018h
  1011  11A1  3418               	retlw	0
  1012  11A2  3400               
  1013                           	line	86
  1014                           
  1015                           ;initializer for _hour
  1016                           	retlw	0Ah
  1017  11A3  340A               	retlw	0
  1018  11A4  3400               
  1019                           	global	_sec
  1020                           	global	_sec_1
  1021                           	global	_sec_0
  1022                           	global	_s_temblor
  1023                           	global	_s_humo
  1024                           	global	_AR1
  1025                           	global	_decenas
  1026                           	global	_unidades
  1027                           	global	_humo
  1028                           	global	_sismo
  1029                           	global	_temperatura
  1030                           	global	_limpiar_lcd
  1031                           	global	_modo
  1032                           	global	_year_1
  1033                           	global	_year_0
  1034                           	global	_month_1
  1035                           	global	_month_0
  1036                           	global	_date_1
  1037                           	global	_date_0
  1038                           	global	_hour_1
  1039                           	global	_hour_0
  1040                           	global	_min_1
  1041                           	global	_min_0
  1042                           	global	_s1
  1043                           	global	_SSPBUF
  1044                           _SSPBUF	set	0x13
  1045  0013                     	global	_SSPCON
  1046                           _SSPCON	set	0x14
  1047  0014                     	global	_PORTDbits
  1048                           _PORTDbits	set	0x8
  1049  0008                     	global	_PORTB
  1050                           _PORTB	set	0x6
  1051  0006                     	global	_PORTE
  1052                           _PORTE	set	0x9
  1053  0009                     	global	_PORTD
  1054                           _PORTD	set	0x8
  1055  0008                     	global	_PORTA
  1056                           _PORTA	set	0x5
  1057  0005                     	global	_PORTBbits
  1058                           _PORTBbits	set	0x6
  1059  0006                     	global	_INTCONbits
  1060                           _INTCONbits	set	0xB
  1061  000B                     	global	_RD7
  1062                           _RD7	set	0x47
  1063  0047                     	global	_RB7
  1064                           _RB7	set	0x37
  1065  0037                     	global	_RA7
  1066                           _RA7	set	0x2F
  1067  002F                     	global	_RA6
  1068                           _RA6	set	0x2E
  1069  002E                     	global	_RA5
  1070                           _RA5	set	0x2D
  1071  002D                     	global	_RA4
  1072                           _RA4	set	0x2C
  1073  002C                     	global	_RA3
  1074                           _RA3	set	0x2B
  1075  002B                     	global	_RA2
  1076                           _RA2	set	0x2A
  1077  002A                     	global	_RA1
  1078                           _RA1	set	0x29
  1079  0029                     	global	_RA0
  1080                           _RA0	set	0x28
  1081  0028                     	global	_SSPIF
  1082                           _SSPIF	set	0x63
  1083  0063                     	global	_PEIE
  1084                           _PEIE	set	0x5E
  1085  005E                     	global	_GIE
  1086                           _GIE	set	0x5F
  1087  005F                     	global	_SSPCON2bits
  1088                           _SSPCON2bits	set	0x91
  1089  0091                     	global	_TRISCbits
  1090                           _TRISCbits	set	0x87
  1091  0087                     	global	_SSPSTAT
  1092                           _SSPSTAT	set	0x94
  1093  0094                     	global	_SSPADD
  1094                           _SSPADD	set	0x93
  1095  0093                     	global	_SSPCON2
  1096                           _SSPCON2	set	0x91
  1097  0091                     	global	_OSCCONbits
  1098                           _OSCCONbits	set	0x8F
  1099  008F                     	global	_IOCBbits
  1100                           _IOCBbits	set	0x96
  1101  0096                     	global	_TRISB
  1102                           _TRISB	set	0x86
  1103  0086                     	global	_TRISE
  1104                           _TRISE	set	0x89
  1105  0089                     	global	_TRISD
  1106                           _TRISD	set	0x88
  1107  0088                     	global	_TRISA
  1108                           _TRISA	set	0x85
  1109  0085                     	global	_SSPIE
  1110                           _SSPIE	set	0x463
  1111  0463                     	global	_TRISC4
  1112                           _TRISC4	set	0x43C
  1113  043C                     	global	_TRISC3
  1114                           _TRISC3	set	0x43B
  1115  043B                     	global	_ANSELH
  1116                           _ANSELH	set	0x189
  1117  0189                     	global	_ANSEL
  1118                           _ANSEL	set	0x188
  1119  0188                     psect	strings,class=STRING,delta=2,noexec
  1120                           global __pstrings
  1121                           __pstrings:
  1122  0800                     stringtab:
  1123  0800                     	global    __stringtab
  1124                           __stringtab:
  1125  0800                     ;	String table - string pointers are 1 byte each
  1126                           	btfsc	(btemp+1),7
  1127  0800  1BFF               	ljmp	stringcode
  1128  0801  280A               	bcf	status,7
  1129  0802  1383               	btfsc	(btemp+1),0
  1130  0803  187F               	bsf	status,7
  1131  0804  1783               	movf	indf,w
  1132  0805  0800               	incf fsr
  1133  0806  0A84               skipnz
  1134  0807  1903               incf btemp+1
  1135  0808  0AFF               	return
  1136  0809  0008               stringcode:stringdir:
  1137  080A                     movlw high(stringdir)
      + 080A                     stringdir:	
  1138  080A  3008               movwf pclath
  1139  080B  008A               movf fsr,w
  1140  080C  0804               incf fsr
  1141  080D  0A84               	addwf pc
  1142  080E  0782               	global __stringbase
  1143                           __stringbase:
  1144  080F                     	retlw	0
  1145  080F  3400               psect	strings
  1146                           	global    __end_of__stringtab
  1147                           __end_of__stringtab:
  1148  0810                     	
  1149                           STR_14:	
  1150  0810                     	retlw	69	;'E'
  1151  0810  3445               	retlw	115	;'s'
  1152  0811  3473               	retlw	116	;'t'
  1153  0812  3474               	retlw	97	;'a'
  1154  0813  3461               	retlw	32	;' '
  1155  0814  3420               	retlw	116	;'t'
  1156  0815  3474               	retlw	101	;'e'
  1157  0816  3465               	retlw	109	;'m'
  1158  0817  346D               	retlw	98	;'b'
  1159  0818  3462               	retlw	108	;'l'
  1160  0819  346C               	retlw	97	;'a'
  1161  081A  3461               	retlw	110	;'n'
  1162  081B  346E               	retlw	100	;'d'
  1163  081C  3464               	retlw	111	;'o'
  1164  081D  346F               	retlw	33	;'!'
  1165  081E  3421               	retlw	0
  1166  081F  3400               psect	strings
  1167                           	
  1168                           STR_15:	
  1169  0820                     	retlw	84	;'T'
  1170  0820  3454               	retlw	114	;'r'
  1171  0821  3472               	retlw	97	;'a'
  1172  0822  3461               	retlw	110	;'n'
  1173  0823  346E               	retlw	113	;'q'
  1174  0824  3471               	retlw	117	;'u'
  1175  0825  3475               	retlw	105	;'i'
  1176  0826  3469               	retlw	108	;'l'
  1177  0827  346C               	retlw	111	;'o'
  1178  0828  346F               	retlw	32	;' '
  1179  0829  3420               	retlw	112	;'p'
  1180  082A  3470               	retlw	114	;'r'
  1181  082B  3472               	retlw	114	;'r'
  1182  082C  3472               	retlw	111	;'o'
  1183  082D  346F               	retlw	0
  1184  082E  3400               psect	strings
  1185                           	
  1186                           STR_6:	
  1187  082F                     	retlw	84	;'T'
  1188  082F  3454               	retlw	101	;'e'
  1189  0830  3465               	retlw	109	;'m'
  1190  0831  346D               	retlw	112	;'p'
  1191  0832  3470               	retlw	101	;'e'
  1192  0833  3465               	retlw	114	;'r'
  1193  0834  3472               	retlw	97	;'a'
  1194  0835  3461               	retlw	116	;'t'
  1195  0836  3474               	retlw	117	;'u'
  1196  0837  3475               	retlw	114	;'r'
  1197  0838  3472               	retlw	97	;'a'
  1198  0839  3461               	retlw	58	;':'
  1199  083A  343A               	retlw	0
  1200  083B  3400               psect	strings
  1201                           	
  1202                           STR_5:	
  1203  083C                     	retlw	67	;'C'
  1204  083C  3443               	retlw	111	;'o'
  1205  083D  346F               	retlw	110	;'n'
  1206  083E  346E               	retlw	116	;'t'
  1207  083F  3474               	retlw	97	;'a'
  1208  0840  3461               	retlw	100	;'d'
  1209  0841  3464               	retlw	111	;'o'
  1210  0842  346F               	retlw	114	;'r'
  1211  0843  3472               	retlw	58	;':'
  1212  0844  343A               	retlw	0
  1213  0845  3400               psect	strings
  1214                           	
  1215                           STR_17:	
  1216  0846                     	retlw	65	;'A'
  1217  0846  3441               	retlw	117	;'u'
  1218  0847  3475               	retlw	115	;'s'
  1219  0848  3473               	retlw	101	;'e'
  1220  0849  3465               	retlw	110	;'n'
  1221  084A  346E               	retlw	116	;'t'
  1222  084B  3474               	retlw	101	;'e'
  1223  084C  3465               	retlw	32	;' '
  1224  084D  3420               	retlw	0
  1225  084E  3400               psect	strings
  1226                           	
  1227                           STR_7:	
  1228  084F                     	retlw	84	;'T'
  1229  084F  3454               	retlw	101	;'e'
  1230  0850  3465               	retlw	109	;'m'
  1231  0851  346D               	retlw	98	;'b'
  1232  0852  3462               	retlw	108	;'l'
  1233  0853  346C               	retlw	111	;'o'
  1234  0854  346F               	retlw	114	;'r'
  1235  0855  3472               	retlw	58	;':'
  1236  0856  343A               	retlw	0
  1237  0857  3400               psect	strings
  1238                           	
  1239                           STR_16:	
  1240  0858                     	retlw	80	;'P'
  1241  0858  3450               	retlw	114	;'r'
  1242  0859  3472               	retlw	101	;'e'
  1243  085A  3465               	retlw	115	;'s'
  1244  085B  3473               	retlw	101	;'e'
  1245  085C  3465               	retlw	110	;'n'
  1246  085D  346E               	retlw	116	;'t'
  1247  085E  3474               	retlw	101	;'e'
  1248  085F  3465               	retlw	0
  1249  0860  3400               psect	strings
  1250                           	
  1251                           STR_1:	
  1252  0861                     	retlw	70	;'F'
  1253  0861  3446               	retlw	101	;'e'
  1254  0862  3465               	retlw	99	;'c'
  1255  0863  3463               	retlw	104	;'h'
  1256  0864  3468               	retlw	97	;'a'
  1257  0865  3461               	retlw	58	;':'
  1258  0866  343A               	retlw	0
  1259  0867  3400               psect	strings
  1260                           	
  1261                           STR_2:	
  1262  0868                     	retlw	72	;'H'
  1263  0868  3448               	retlw	111	;'o'
  1264  0869  346F               	retlw	114	;'r'
  1265  086A  3472               	retlw	97	;'a'
  1266  086B  3461               	retlw	58	;':'
  1267  086C  343A               	retlw	0
  1268  086D  3400               psect	strings
  1269                           	
  1270                           STR_8:	
  1271  086E                     	retlw	72	;'H'
  1272  086E  3448               	retlw	117	;'u'
  1273  086F  3475               	retlw	109	;'m'
  1274  0870  346D               	retlw	111	;'o'
  1275  0871  346F               	retlw	58	;':'
  1276  0872  343A               	retlw	0
  1277  0873  3400               psect	strings
  1278                           	
  1279                           STR_9:	
  1280  0874                     	retlw	47	;'/'
  1281  0874  342F               	retlw	0
  1282  0875  3400               psect	strings
  1283                           	
  1284                           STR_13:	
  1285  0876                     	retlw	67	;'C'
  1286  0876  3443               	retlw	0
  1287  0877  3400               psect	strings
  1288                           STR_4	equ	STR_2+0
  1289  0868                     STR_3	equ	STR_1+0
  1290  0861                     STR_11	equ	STR_1+5
  1291  0866                     STR_12	equ	STR_1+5
  1292  0866                     STR_10	equ	STR_9+0
  1293  0874                     ; #config settings
  1294                           global __CFG_FOSC$INTRC_NOCLKOUT
  1295                           __CFG_FOSC$INTRC_NOCLKOUT equ 0x0
  1296  0000                     global __CFG_WDTE$OFF
  1297                           __CFG_WDTE$OFF equ 0x0
  1298  0000                     global __CFG_PWRTE$OFF
  1299                           __CFG_PWRTE$OFF equ 0x0
  1300  0000                     global __CFG_MCLRE$OFF
  1301                           __CFG_MCLRE$OFF equ 0x0
  1302  0000                     global __CFG_CP$OFF
  1303                           __CFG_CP$OFF equ 0x0
  1304  0000                     global __CFG_CPD$OFF
  1305                           __CFG_CPD$OFF equ 0x0
  1306  0000                     global __CFG_BOREN$OFF
  1307                           __CFG_BOREN$OFF equ 0x0
  1308  0000                     global __CFG_IESO$OFF
  1309                           __CFG_IESO$OFF equ 0x0
  1310  0000                     global __CFG_FCMEN$OFF
  1311                           __CFG_FCMEN$OFF equ 0x0
  1312  0000                     global __CFG_LVP$OFF
  1313                           __CFG_LVP$OFF equ 0x0
  1314  0000                     global __CFG_BOR4V$BOR40V
  1315                           __CFG_BOR4V$BOR40V equ 0x0
  1316  0000                     global __CFG_WRT$OFF
  1317                           __CFG_WRT$OFF equ 0x0
  1318  0000                     	file	"C:\Users\JOSPEL~1\AppData\Local\Temp\spes."
  1319                           	line	#
  1320                           psect cinit,class=CODE,delta=2
  1321                           global start_initialization
  1322                           start_initialization:
  1323  000F                     
  1324                           global __initialization
  1325                           __initialization:
  1326  000F                     psect	bssCOMMON,class=COMMON,space=1,noexec
  1327                           global __pbssCOMMON
  1328                           __pbssCOMMON:
  1329  0079                     _sec:
  1330  0079                            ds      2
  1331  0079                     
  1332                           _sec_1:
  1333  007B                            ds      1
  1334  007B                     
  1335                           psect	dataCOMMON,class=COMMON,space=1,noexec
  1336                           global __pdataCOMMON
  1337                           __pdataCOMMON:
  1338  007C                     	file	"Proyecto1_master.c"
  1339                           	line	85
  1340                           _min:
  1341  007C                            ds      2
  1342  007C                     
  1343                           psect	bssBANK0,class=BANK0,space=1,noexec
  1344                           global __pbssBANK0
  1345                           __pbssBANK0:
  1346  006F                     _sec_0:
  1347  006F                            ds      1
  1348  006F                     
  1349                           psect	bssBANK1,class=BANK1,space=1,noexec
  1350                           global __pbssBANK1
  1351                           __pbssBANK1:
  1352  00A0                     _pot:
  1353  00A0                            ds      4
  1354  00A0                     
  1355                           _s_temblor:
  1356  00A4                            ds      1
  1357  00A4                     
  1358                           _s_humo:
  1359  00A5                            ds      1
  1360  00A5                     
  1361                           _s_temperatura:
  1362  00A6                            ds      1
  1363  00A6                     
  1364                           _AR1:
  1365  00A7                            ds      1
  1366  00A7                     
  1367                           _decenas:
  1368  00A8                            ds      1
  1369  00A8                     
  1370                           _unidades:
  1371  00A9                            ds      1
  1372  00A9                     
  1373                           _humo:
  1374  00AA                            ds      1
  1375  00AA                     
  1376                           _sismo:
  1377  00AB                            ds      1
  1378  00AB                     
  1379                           _temperatura:
  1380  00AC                            ds      1
  1381  00AC                     
  1382                           _limpiar_lcd:
  1383  00AD                            ds      1
  1384  00AD                     
  1385                           _modo:
  1386  00AE                            ds      1
  1387  00AE                     
  1388                           _year_1:
  1389  00AF                            ds      1
  1390  00AF                     
  1391                           _year_0:
  1392  00B0                            ds      1
  1393  00B0                     
  1394                           _month_1:
  1395  00B1                            ds      1
  1396  00B1                     
  1397                           _month_0:
  1398  00B2                            ds      1
  1399  00B2                     
  1400                           _date_1:
  1401  00B3                            ds      1
  1402  00B3                     
  1403                           _date_0:
  1404  00B4                            ds      1
  1405  00B4                     
  1406                           _hour_1:
  1407  00B5                            ds      1
  1408  00B5                     
  1409                           _hour_0:
  1410  00B6                            ds      1
  1411  00B6                     
  1412                           _min_1:
  1413  00B7                            ds      1
  1414  00B7                     
  1415                           _min_0:
  1416  00B8                            ds      1
  1417  00B8                     
  1418                           _s1:
  1419  00B9                            ds      5
  1420  00B9                     
  1421                           psect	dataBANK1,class=BANK1,space=1,noexec
  1422                           global __pdataBANK1
  1423                           __pdataBANK1:
  1424  00BE                     	file	"Proyecto1_master.c"
  1425                           	line	90
  1426                           _year:
  1427  00BE                            ds      2
  1428  00BE                     
  1429                           psect	dataBANK1
  1430                           	file	"Proyecto1_master.c"
  1431                           	line	89
  1432                           _month:
  1433  00C0                            ds      2
  1434  00C0                     
  1435                           psect	dataBANK1
  1436                           	file	"Proyecto1_master.c"
  1437                           	line	88
  1438                           _day:
  1439  00C2                            ds      2
  1440  00C2                     
  1441                           psect	dataBANK1
  1442                           	file	"Proyecto1_master.c"
  1443                           	line	87
  1444                           _date:
  1445  00C4                            ds      2
  1446  00C4                     
  1447                           psect	dataBANK1
  1448                           	file	"Proyecto1_master.c"
  1449                           	line	86
  1450                           _hour:
  1451  00C6                            ds      2
  1452  00C6                     
  1453                           	file	"C:\Users\JOSPEL~1\AppData\Local\Temp\spes."
  1454                           	line	#
  1455                           global btemp
  1456                           psect inittext,class=CODE,delta=2
  1457                           global init_fetch0,btemp
  1458                           ;	Called with low address in FSR and high address in W
  1459                           init_fetch0:
  1460  11D6                     	movf btemp,w
  1461  11D6  087E               	movwf pclath
  1462  11D7  008A               	movf btemp+1,w
  1463  11D8  087F               	movwf pc
  1464  11D9  0082               global init_ram0
  1465                           ;Called with:
  1466                           ;	high address of idata address in btemp 
  1467                           ;	low address of idata address in btemp+1 
  1468                           ;	low address of data in FSR
  1469                           ;	high address + 1 of data in btemp-1
  1470                           init_ram0:
  1471  11DA                     	fcall init_fetch0
  1472  11DA  160A  118A  21D6  160A  118A  	movwf indf,f
  1473  11DF  0080               	incf fsr,f
  1474  11E0  0A84               	movf fsr,w
  1475  11E1  0804               	xorwf btemp-1,w
  1476  11E2  067D               	btfsc status,2
  1477  11E3  1903               	retlw 0
  1478  11E4  3400               	incf btemp+1,f
  1479  11E5  0AFF               	btfsc status,2
  1480  11E6  1903               	incf btemp,f
  1481  11E7  0AFE               	goto init_ram0
  1482  11E8  29DA               ; Initialize objects allocated to BANK1
  1483                           psect cinit,class=CODE,delta=2,merge=1
  1484                           global init_ram0, __pidataBANK1
  1485                           	bcf	status, 7	;select IRP bank0
  1486  000F  1383               	movlw low(__pdataBANK1+10)
  1487  0010  30C8               	movwf btemp-1,f
  1488  0011  00FD               	movlw high(__pidataBANK1)
  1489  0012  3011               	movwf btemp,f
  1490  0013  00FE               	movlw low(__pidataBANK1)
  1491  0014  309B               	movwf btemp+1,f
  1492  0015  00FF               	movlw low(__pdataBANK1)
  1493  0016  30BE               	movwf fsr,f
  1494  0017  0084               	fcall init_ram0
  1495  0018  160A  118A  21DA  120A  118A  ; Initialize objects allocated to COMMON
  1496                           	global __pidataCOMMON
  1497                           psect cinit,class=CODE,delta=2,merge=1
  1498                           	fcall	__pidataCOMMON+0		;fetch initializer
  1499  001D  160A  118A  2158  120A  118A  	movwf	__pdataCOMMON+0&07fh		
  1500  0022  00FC               	fcall	__pidataCOMMON+1		;fetch initializer
  1501  0023  160A  118A  2159  120A  118A  	movwf	__pdataCOMMON+1&07fh		
  1502  0028  00FD               	line	#
  1503                           psect clrtext,class=CODE,delta=2
  1504                           global clear_ram0
  1505                           ;	Called with FSR containing the base address, and
  1506                           ;	W with the last address+1
  1507                           clear_ram0:
  1508  1177                     	clrwdt			;clear the watchdog before getting into this loop
  1509  1177  0064               clrloop0:
  1510  1178                     	clrf	indf		;clear RAM location pointed to by FSR
  1511  1178  0180               	incf	fsr,f		;increment pointer
  1512  1179  0A84               	xorwf	fsr,w		;XOR with final address
  1513  117A  0604               	btfsc	status,2	;have we reached the end yet?
  1514  117B  1903               	retlw	0		;all done for this memory range, return
  1515  117C  3400               	xorwf	fsr,w		;XOR again to restore value
  1516  117D  0604               	goto	clrloop0		;do the next byte
  1517  117E  2978               
  1518                           ; Clear objects allocated to BANK1
  1519                           psect cinit,class=CODE,delta=2,merge=1
  1520                           	movlw	low(__pbssBANK1)
  1521  0029  30A0               	movwf	fsr
  1522  002A  0084               	movlw	low((__pbssBANK1)+01Eh)
  1523  002B  30BE               	fcall	clear_ram0
  1524  002C  160A  118A  2177  120A  118A  ; Clear objects allocated to BANK0
  1525                           psect cinit,class=CODE,delta=2,merge=1
  1526                           	clrf	((__pbssBANK0)+0)&07Fh
  1527  0031  01EF               ; Clear objects allocated to COMMON
  1528                           psect cinit,class=CODE,delta=2,merge=1
  1529                           	clrf	((__pbssCOMMON)+0)&07Fh
  1530  0032  01F9               	clrf	((__pbssCOMMON)+1)&07Fh
  1531  0033  01FA               	clrf	((__pbssCOMMON)+2)&07Fh
  1532  0034  01FB               psect cinit,class=CODE,delta=2,merge=1
  1533                           global end_of_initialization,__end_of__initialization
  1534                           
  1535                           ;End of C runtime variable initialization code
  1536                           
  1537                           end_of_initialization:
  1538  0035                     __end_of__initialization:
  1539  0035                     clrf status
  1540  0035  0183               ljmp _main	;jump to C main() function
  1541  0036  120A  158A  2983   psect	cstackBANK1,class=BANK1,space=1,noexec
  1542                           global __pcstackBANK1
  1543                           __pcstackBANK1:
  1544  00C8                     	global	_slave_1$1192
  1545                           _slave_1$1192:	; 4 bytes @ 0x0
  1546  00C8                     	ds	4
  1547  00C8                     	global	_slave_1$1193
  1548                           _slave_1$1193:	; 4 bytes @ 0x4
  1549  00CC                     	ds	4
  1550  00CC                     psect	cstackCOMMON,class=COMMON,space=1,noexec
  1551                           global __pcstackCOMMON
  1552                           __pcstackCOMMON:
  1553  0070                     ?_lcd_clear:	; 1 bytes @ 0x0
  1554  0070                     ?_initOsci8MHZ:	; 1 bytes @ 0x0
  1555  0070                     ?_configPorts:	; 1 bytes @ 0x0
  1556  0070                     ?_configInterrupciones:	; 1 bytes @ 0x0
  1557  0070                     ?_lcd_init:	; 1 bytes @ 0x0
  1558  0070                     ?_Set_Time_Date:	; 1 bytes @ 0x0
  1559  0070                     ?_Update_Current_Date_Time:	; 1 bytes @ 0x0
  1560  0070                     ?_boton_lcd:	; 1 bytes @ 0x0
  1561  0070                     ?_apagar_luces:	; 1 bytes @ 0x0
  1562  0070                     ?_check_infrarrojo:	; 1 bytes @ 0x0
  1563  0070                     ?_separa_digitos_rtc:	; 1 bytes @ 0x0
  1564  0070                     ?_mostrar_lcd:	; 1 bytes @ 0x0
  1565  0070                     ?_lcd_write_char:	; 1 bytes @ 0x0
  1566  0070                     ?_slave_1:	; 1 bytes @ 0x0
  1567  0070                     ?_slave_2:	; 1 bytes @ 0x0
  1568  0070                     ?_slave_3:	; 1 bytes @ 0x0
  1569  0070                     ?_I2C_Master_Start:	; 1 bytes @ 0x0
  1570  0070                     ?_I2C_Master_Stop:	; 1 bytes @ 0x0
  1571  0070                     ?_isr:	; 1 bytes @ 0x0
  1572  0070                     ?_main:	; 1 bytes @ 0x0
  1573  0070                     ?_num_case:	; 1 bytes @ 0x0
  1574  0070                     ?_I2C_Master_Wait:	; 1 bytes @ 0x0
  1575  0070                     ?_lcd_port:	; 1 bytes @ 0x0
  1576  0070                     ?_lcd_cmd:	; 1 bytes @ 0x0
  1577  0070                     ?i1_lcd_port:	; 1 bytes @ 0x0
  1578  0070                     ??i1_lcd_port:	; 1 bytes @ 0x0
  1579  0070                     ?i1_lcd_cmd:	; 1 bytes @ 0x0
  1580  0070                     ?i1_lcd_clear:	; 1 bytes @ 0x0
  1581  0070                     	global	i1lcd_port@a
  1582                           i1lcd_port@a:	; 1 bytes @ 0x0
  1583  0070                     	ds	1
  1584  0070                     ??i1_lcd_cmd:	; 1 bytes @ 0x1
  1585  0071                     	ds	2
  1586  0071                     	global	i1lcd_cmd@a
  1587                           i1lcd_cmd@a:	; 1 bytes @ 0x3
  1588  0073                     	ds	1
  1589  0073                     ??_isr:	; 1 bytes @ 0x4
  1590  0074                     ??i1_lcd_clear:	; 1 bytes @ 0x4
  1591  0074                     	ds	5
  1592  0074                     psect	cstackBANK0,class=BANK0,space=1,noexec
  1593                           global __pcstackBANK0
  1594                           __pcstackBANK0:
  1595  0020                     ??_initOsci8MHZ:	; 1 bytes @ 0x0
  1596  0020                     ??_configPorts:	; 1 bytes @ 0x0
  1597  0020                     ??_configInterrupciones:	; 1 bytes @ 0x0
  1598  0020                     ?_primera_llamada:	; 1 bytes @ 0x0
  1599  0020                     ?_segunda_llamada:	; 1 bytes @ 0x0
  1600  0020                     ?_tercera_llamada:	; 1 bytes @ 0x0
  1601  0020                     ??_apagar_luces:	; 1 bytes @ 0x0
  1602  0020                     ??_check_infrarrojo:	; 1 bytes @ 0x0
  1603  0020                     ??_I2C_Master_Start:	; 1 bytes @ 0x0
  1604  0020                     ??_I2C_Master_Stop:	; 1 bytes @ 0x0
  1605  0020                     ??_num_case:	; 1 bytes @ 0x0
  1606  0020                     ??_I2C_Master_Wait:	; 1 bytes @ 0x0
  1607  0020                     ??_lcd_port:	; 1 bytes @ 0x0
  1608  0020                     ?___bmul:	; 1 bytes @ 0x0
  1609  0020                     	global	?_I2C_Master_Read
  1610                           ?_I2C_Master_Read:	; 2 bytes @ 0x0
  1611  0020                     	global	?___wmul
  1612                           ?___wmul:	; 2 bytes @ 0x0
  1613  0020                     	global	?___awdiv
  1614                           ?___awdiv:	; 2 bytes @ 0x0
  1615  0020                     	global	?___awmod
  1616                           ?___awmod:	; 2 bytes @ 0x0
  1617  0020                     	global	?___lldiv
  1618                           ?___lldiv:	; 4 bytes @ 0x0
  1619  0020                     	global	?___fldiv
  1620                           ?___fldiv:	; 4 bytes @ 0x0
  1621  0020                     	global	primera_llamada@m
  1622                           primera_llamada@m:	; 1 bytes @ 0x0
  1623  0020                     	global	segunda_llamada@m
  1624                           segunda_llamada@m:	; 1 bytes @ 0x0
  1625  0020                     	global	tercera_llamada@m
  1626                           tercera_llamada@m:	; 1 bytes @ 0x0
  1627  0020                     	global	lcd_port@a
  1628                           lcd_port@a:	; 1 bytes @ 0x0
  1629  0020                     	global	___bmul@multiplicand
  1630                           ___bmul@multiplicand:	; 1 bytes @ 0x0
  1631  0020                     	global	I2C_Master_Read@a
  1632                           I2C_Master_Read@a:	; 2 bytes @ 0x0
  1633  0020                     	global	___wmul@multiplier
  1634                           ___wmul@multiplier:	; 2 bytes @ 0x0
  1635  0020                     	global	___awdiv@divisor
  1636                           ___awdiv@divisor:	; 2 bytes @ 0x0
  1637  0020                     	global	___awmod@divisor
  1638                           ___awmod@divisor:	; 2 bytes @ 0x0
  1639  0020                     	global	___lldiv@divisor
  1640                           ___lldiv@divisor:	; 4 bytes @ 0x0
  1641  0020                     	global	___fldiv@a
  1642                           ___fldiv@a:	; 4 bytes @ 0x0
  1643  0020                     	ds	1
  1644  0020                     ??_lcd_write_char:	; 1 bytes @ 0x1
  1645  0021                     ??_lcd_cmd:	; 1 bytes @ 0x1
  1646  0021                     ??___bmul:	; 1 bytes @ 0x1
  1647  0021                     	global	primera_llamada@s
  1648                           primera_llamada@s:	; 1 bytes @ 0x1
  1649  0021                     	global	segunda_llamada@s
  1650                           segunda_llamada@s:	; 1 bytes @ 0x1
  1651  0021                     	global	tercera_llamada@s
  1652                           tercera_llamada@s:	; 1 bytes @ 0x1
  1653  0021                     	ds	1
  1654  0021                     ??_primera_llamada:	; 1 bytes @ 0x2
  1655  0022                     ??_segunda_llamada:	; 1 bytes @ 0x2
  1656  0022                     ??_tercera_llamada:	; 1 bytes @ 0x2
  1657  0022                     ??_I2C_Master_Read:	; 1 bytes @ 0x2
  1658  0022                     	global	apagar_luces@t
  1659                           apagar_luces@t:	; 1 bytes @ 0x2
  1660  0022                     	global	num_case@num
  1661                           num_case@num:	; 1 bytes @ 0x2
  1662  0022                     	global	___bmul@product
  1663                           ___bmul@product:	; 1 bytes @ 0x2
  1664  0022                     	global	___wmul@multiplicand
  1665                           ___wmul@multiplicand:	; 2 bytes @ 0x2
  1666  0022                     	global	___awdiv@dividend
  1667                           ___awdiv@dividend:	; 2 bytes @ 0x2
  1668  0022                     	global	___awmod@dividend
  1669                           ___awmod@dividend:	; 2 bytes @ 0x2
  1670  0022                     	ds	1
  1671  0022                     	global	num_case@r
  1672                           num_case@r:	; 1 bytes @ 0x3
  1673  0023                     	global	lcd_cmd@a
  1674                           lcd_cmd@a:	; 1 bytes @ 0x3
  1675  0023                     	global	lcd_write_char@a
  1676                           lcd_write_char@a:	; 1 bytes @ 0x3
  1677  0023                     	global	___bmul@multiplier
  1678                           ___bmul@multiplier:	; 1 bytes @ 0x3
  1679  0023                     	ds	1
  1680  0023                     ??_lcd_clear:	; 1 bytes @ 0x4
  1681  0024                     ??_lcd_init:	; 1 bytes @ 0x4
  1682  0024                     ?_lcd_write_string:	; 1 bytes @ 0x4
  1683  0024                     ?_lcd_set_cursor:	; 1 bytes @ 0x4
  1684  0024                     ??___wmul:	; 1 bytes @ 0x4
  1685  0024                     ??___awdiv:	; 1 bytes @ 0x4
  1686  0024                     ??___awmod:	; 1 bytes @ 0x4
  1687  0024                     	global	primera_llamada@h
  1688                           primera_llamada@h:	; 1 bytes @ 0x4
  1689  0024                     	global	segunda_llamada@h
  1690                           segunda_llamada@h:	; 1 bytes @ 0x4
  1691  0024                     	global	tercera_llamada@h
  1692                           tercera_llamada@h:	; 1 bytes @ 0x4
  1693  0024                     	global	lcd_set_cursor@b
  1694                           lcd_set_cursor@b:	; 1 bytes @ 0x4
  1695  0024                     	global	I2C_Master_Read@temp
  1696                           I2C_Master_Read@temp:	; 2 bytes @ 0x4
  1697  0024                     	global	lcd_write_string@a
  1698                           lcd_write_string@a:	; 2 bytes @ 0x4
  1699  0024                     	global	___wmul@product
  1700                           ___wmul@product:	; 2 bytes @ 0x4
  1701  0024                     	global	___lldiv@dividend
  1702                           ___lldiv@dividend:	; 4 bytes @ 0x4
  1703  0024                     	global	___fldiv@b
  1704                           ___fldiv@b:	; 4 bytes @ 0x4
  1705  0024                     	ds	1
  1706  0024                     ??_lcd_set_cursor:	; 1 bytes @ 0x5
  1707  0025                     	global	lcd_set_cursor@a
  1708                           lcd_set_cursor@a:	; 1 bytes @ 0x5
  1709  0025                     	global	___awdiv@counter
  1710                           ___awdiv@counter:	; 1 bytes @ 0x5
  1711  0025                     	global	___awmod@counter
  1712                           ___awmod@counter:	; 1 bytes @ 0x5
  1713  0025                     	ds	1
  1714  0025                     ??_lcd_write_string:	; 1 bytes @ 0x6
  1715  0026                     	global	?_BCD_2_DEC
  1716                           ?_BCD_2_DEC:	; 2 bytes @ 0x6
  1717  0026                     	global	?___xxtofl
  1718                           ?___xxtofl:	; 4 bytes @ 0x6
  1719  0026                     	global	___awdiv@sign
  1720                           ___awdiv@sign:	; 1 bytes @ 0x6
  1721  0026                     	global	___awmod@sign
  1722                           ___awmod@sign:	; 1 bytes @ 0x6
  1723  0026                     	global	BCD_2_DEC@to_convert
  1724                           BCD_2_DEC@to_convert:	; 2 bytes @ 0x6
  1725  0026                     	global	___xxtofl@val
  1726                           ___xxtofl@val:	; 4 bytes @ 0x6
  1727  0026                     	ds	1
  1728  0026                     	global	___awdiv@quotient
  1729                           ___awdiv@quotient:	; 2 bytes @ 0x7
  1730  0027                     	ds	1
  1731  0027                     ??_BCD_2_DEC:	; 1 bytes @ 0x8
  1732  0028                     ??___lldiv:	; 1 bytes @ 0x8
  1733  0028                     ??___fldiv:	; 1 bytes @ 0x8
  1734  0028                     	ds	1
  1735  0028                     ??_separa_digitos_rtc:	; 1 bytes @ 0x9
  1736  0029                     	global	?_DEC_2_BCD
  1737                           ?_DEC_2_BCD:	; 2 bytes @ 0x9
  1738  0029                     	global	DEC_2_BCD@to_convert
  1739                           DEC_2_BCD@to_convert:	; 2 bytes @ 0x9
  1740  0029                     	global	lcd_write_string@i
  1741                           lcd_write_string@i:	; 2 bytes @ 0x9
  1742  0029                     	global	___lldiv@quotient
  1743                           ___lldiv@quotient:	; 4 bytes @ 0x9
  1744  0029                     	ds	1
  1745  0029                     ??___xxtofl:	; 1 bytes @ 0xA
  1746  002A                     	ds	1
  1747  002A                     ??_mostrar_lcd:	; 1 bytes @ 0xB
  1748  002B                     ??_DEC_2_BCD:	; 1 bytes @ 0xB
  1749  002B                     	ds	2
  1750  002B                     ?_I2C_Master_Write:	; 1 bytes @ 0xD
  1751  002D                     	global	___lldiv@counter
  1752                           ___lldiv@counter:	; 1 bytes @ 0xD
  1753  002D                     	global	I2C_Master_Write@d
  1754                           I2C_Master_Write@d:	; 2 bytes @ 0xD
  1755  002D                     	global	___fldiv@rem
  1756                           ___fldiv@rem:	; 4 bytes @ 0xD
  1757  002D                     	ds	1
  1758  002D                     ?_I2C_Master_Init:	; 1 bytes @ 0xE
  1759  002E                     	global	___xxtofl@sign
  1760                           ___xxtofl@sign:	; 1 bytes @ 0xE
  1761  002E                     	global	I2C_Master_Init@c
  1762                           I2C_Master_Init@c:	; 4 bytes @ 0xE
  1763  002E                     	ds	1
  1764  002E                     ??_Set_Time_Date:	; 1 bytes @ 0xF
  1765  002F                     ??_Update_Current_Date_Time:	; 1 bytes @ 0xF
  1766  002F                     ??_slave_2:	; 1 bytes @ 0xF
  1767  002F                     ??_slave_3:	; 1 bytes @ 0xF
  1768  002F                     ??_I2C_Master_Write:	; 1 bytes @ 0xF
  1769  002F                     	global	___xxtofl@exp
  1770                           ___xxtofl@exp:	; 1 bytes @ 0xF
  1771  002F                     	ds	1
  1772  002F                     	global	___xxtofl@arg
  1773                           ___xxtofl@arg:	; 4 bytes @ 0x10
  1774  0030                     	ds	1
  1775  0030                     	global	___fldiv@sign
  1776                           ___fldiv@sign:	; 1 bytes @ 0x11
  1777  0031                     	ds	1
  1778  0031                     ??_I2C_Master_Init:	; 1 bytes @ 0x12
  1779  0032                     	global	___fldiv@new_exp
  1780                           ___fldiv@new_exp:	; 2 bytes @ 0x12
  1781  0032                     	ds	2
  1782  0032                     	global	?___flneg
  1783                           ?___flneg:	; 4 bytes @ 0x14
  1784  0034                     	global	___flneg@f1
  1785                           ___flneg@f1:	; 4 bytes @ 0x14
  1786  0034                     	global	___fldiv@grs
  1787                           ___fldiv@grs:	; 4 bytes @ 0x14
  1788  0034                     	ds	4
  1789  0034                     ??___flneg:	; 1 bytes @ 0x18
  1790  0038                     	global	?___fladd
  1791                           ?___fladd:	; 4 bytes @ 0x18
  1792  0038                     	global	___fldiv@bexp
  1793                           ___fldiv@bexp:	; 1 bytes @ 0x18
  1794  0038                     	global	___fladd@b
  1795                           ___fladd@b:	; 4 bytes @ 0x18
  1796  0038                     	ds	1
  1797  0038                     	global	___fldiv@aexp
  1798                           ___fldiv@aexp:	; 1 bytes @ 0x19
  1799  0039                     	ds	3
  1800  0039                     	global	___fladd@a
  1801                           ___fladd@a:	; 4 bytes @ 0x1C
  1802  003C                     	ds	4
  1803  003C                     ??___fladd:	; 1 bytes @ 0x20
  1804  0040                     	ds	12
  1805  0040                     	global	___fladd@signs
  1806                           ___fladd@signs:	; 1 bytes @ 0x2C
  1807  004C                     	ds	1
  1808  004C                     	global	___fladd@aexp
  1809                           ___fladd@aexp:	; 1 bytes @ 0x2D
  1810  004D                     	ds	1
  1811  004D                     	global	___fladd@bexp
  1812                           ___fladd@bexp:	; 1 bytes @ 0x2E
  1813  004E                     	ds	1
  1814  004E                     	global	___fladd@grs
  1815                           ___fladd@grs:	; 1 bytes @ 0x2F
  1816  004F                     	ds	1
  1817  004F                     	global	?___fltol
  1818                           ?___fltol:	; 4 bytes @ 0x30
  1819  0050                     	global	___fltol@f1
  1820                           ___fltol@f1:	; 4 bytes @ 0x30
  1821  0050                     	ds	4
  1822  0050                     ??___fltol:	; 1 bytes @ 0x34
  1823  0054                     	ds	5
  1824  0054                     	global	___fltol@sign1
  1825                           ___fltol@sign1:	; 1 bytes @ 0x39
  1826  0059                     	ds	1
  1827  0059                     	global	___fltol@exp1
  1828                           ___fltol@exp1:	; 1 bytes @ 0x3A
  1829  005A                     	ds	1
  1830  005A                     ?_b0:	; 1 bytes @ 0x3B
  1831  005B                     ?_b1:	; 1 bytes @ 0x3B
  1832  005B                     ?_b2:	; 1 bytes @ 0x3B
  1833  005B                     	global	b2@m
  1834                           b2@m:	; 4 bytes @ 0x3B
  1835  005B                     	global	b1@m
  1836                           b1@m:	; 4 bytes @ 0x3B
  1837  005B                     	global	b0@m
  1838                           b0@m:	; 4 bytes @ 0x3B
  1839  005B                     	ds	4
  1840  005B                     ??_b0:	; 1 bytes @ 0x3F
  1841  005F                     ??_b1:	; 1 bytes @ 0x3F
  1842  005F                     ??_b2:	; 1 bytes @ 0x3F
  1843  005F                     	ds	1
  1844  005F                     	global	b2@bb2
  1845                           b2@bb2:	; 1 bytes @ 0x40
  1846  0060                     	ds	1
  1847  0060                     	global	b2@p2
  1848                           b2@p2:	; 1 bytes @ 0x41
  1849  0061                     	ds	1
  1850  0061                     	global	b1@bb2
  1851                           b1@bb2:	; 1 bytes @ 0x42
  1852  0062                     	global	b0@bb2
  1853                           b0@bb2:	; 1 bytes @ 0x42
  1854  0062                     	ds	1
  1855  0062                     	global	b1@bb1
  1856                           b1@bb1:	; 1 bytes @ 0x43
  1857  0063                     	global	b0@bb1
  1858                           b0@bb1:	; 1 bytes @ 0x43
  1859  0063                     	ds	1
  1860  0063                     	global	b1@local
  1861                           b1@local:	; 1 bytes @ 0x44
  1862  0064                     	global	b0@bb0
  1863                           b0@bb0:	; 1 bytes @ 0x44
  1864  0064                     	ds	1
  1865  0064                     	global	b1@p1
  1866                           b1@p1:	; 1 bytes @ 0x45
  1867  0065                     	global	b0@p0
  1868                           b0@p0:	; 1 bytes @ 0x45
  1869  0065                     	ds	1
  1870  0065                     	global	b0@local
  1871                           b0@local:	; 1 bytes @ 0x46
  1872  0066                     	ds	1
  1873  0066                     ??_slave_1:	; 1 bytes @ 0x47
  1874  0067                     	ds	5
  1875  0067                     ??_boton_lcd:	; 1 bytes @ 0x4C
  1876  006C                     	ds	1
  1877  006C                     ??_main:	; 1 bytes @ 0x4D
  1878  006D                     	ds	2
  1879  006D                     ;!
  1880                           ;!Data Sizes:
  1881                           ;!    Strings     104
  1882                           ;!    Constant    0
  1883                           ;!    Data        12
  1884                           ;!    BSS         34
  1885                           ;!    Persistent  0
  1886                           ;!    Stack       0
  1887                           ;!
  1888                           ;!Auto Spaces:
  1889                           ;!    Space          Size  Autos    Used
  1890                           ;!    COMMON           14      9      14
  1891                           ;!    BANK0            80     79      80
  1892                           ;!    BANK1            80      8      48
  1893                           ;!    BANK3            96      0       0
  1894                           ;!    BANK2            96      0       0
  1895                           
  1896                           ;!
  1897                           ;!Pointer List with Targets:
  1898                           ;!
  1899                           ;!    lcd_write_string@a	PTR unsigned char  size(2) Largest target is 16
  1900                           ;!		 -> STR_17(CODE[9]), STR_16(CODE[9]), STR_15(CODE[15]), STR_14(CODE[16]), 
  1901                           ;!		 -> STR_13(CODE[2]), s1(BANK1[5]), STR_12(CODE[2]), STR_11(CODE[2]), 
  1902                           ;!		 -> STR_10(CODE[2]), STR_9(CODE[2]), STR_8(CODE[6]), STR_7(CODE[9]), 
  1903                           ;!		 -> STR_6(CODE[13]), STR_5(CODE[10]), STR_4(CODE[6]), STR_3(CODE[7]), 
  1904                           ;!		 -> STR_2(CODE[6]), STR_1(CODE[7]), 
  1905                           ;!
  1906                           
  1907                           
  1908                           ;!
  1909                           ;!Critical Paths under _main in COMMON
  1910                           ;!
  1911                           ;!    None.
  1912                           ;!
  1913                           ;!Critical Paths under _isr in COMMON
  1914                           ;!
  1915                           ;!    i1_lcd_clear->i1_lcd_cmd
  1916                           ;!    i1_lcd_cmd->i1_lcd_port
  1917                           ;!
  1918                           ;!Critical Paths under _main in BANK0
  1919                           ;!
  1920                           ;!    _main->_boton_lcd
  1921                           ;!    _lcd_init->_lcd_cmd
  1922                           ;!    _boton_lcd->_slave_1
  1923                           ;!    _slave_3->_I2C_Master_Write
  1924                           ;!    _slave_2->_I2C_Master_Write
  1925                           ;!    _lcd_clear->_lcd_cmd
  1926                           ;!    _slave_1->_b0
  1927                           ;!    _b2->___fltol
  1928                           ;!    _b1->___fltol
  1929                           ;!    _b0->___fltol
  1930                           ;!    ___xxtofl->___wmul
  1931                           ;!    ___fltol->___fladd
  1932                           ;!    ___flneg->___xxtofl
  1933                           ;!    ___fladd->___flneg
  1934                           ;!    _separa_digitos_rtc->___awdiv
  1935                           ;!    _mostrar_lcd->_lcd_write_string
  1936                           ;!    _lcd_write_string->_lcd_write_char
  1937                           ;!    _lcd_write_char->_lcd_port
  1938                           ;!    _lcd_set_cursor->_lcd_cmd
  1939                           ;!    _lcd_cmd->_lcd_port
  1940                           ;!    _Update_Current_Date_Time->_I2C_Master_Write
  1941                           ;!    _BCD_2_DEC->_I2C_Master_Read
  1942                           ;!    _BCD_2_DEC->___wmul
  1943                           ;!    _Set_Time_Date->_I2C_Master_Write
  1944                           ;!    _I2C_Master_Write->_DEC_2_BCD
  1945                           ;!    _DEC_2_BCD->___awdiv
  1946                           ;!    _I2C_Master_Init->___lldiv
  1947                           ;!
  1948                           ;!Critical Paths under _isr in BANK0
  1949                           ;!
  1950                           ;!    None.
  1951                           ;!
  1952                           ;!Critical Paths under _main in BANK1
  1953                           ;!
  1954                           ;!    _boton_lcd->_slave_1
  1955                           ;!
  1956                           ;!Critical Paths under _isr in BANK1
  1957                           ;!
  1958                           ;!    None.
  1959                           ;!
  1960                           ;!Critical Paths under _main in BANK3
  1961                           ;!
  1962                           ;!    None.
  1963                           ;!
  1964                           ;!Critical Paths under _isr in BANK3
  1965                           ;!
  1966                           ;!    None.
  1967                           ;!
  1968                           ;!Critical Paths under _main in BANK2
  1969                           ;!
  1970                           ;!    None.
  1971                           ;!
  1972                           ;!Critical Paths under _isr in BANK2
  1973                           ;!
  1974                           ;!    None.
  1975                           
  1976 ;;
  1977 ;;Main: autosize = 0, tempsize = 2, incstack = 0, save=0
  1978 ;;
  1979                           
  1980                           ;!
  1981                           ;!Call Graph Tables:
  1982                           ;!
  1983                           ;! ---------------------------------------------------------------------------------
  1984                           ;! (Depth) Function   	        Calls       Base Space   Used Autos Params    Refs
  1985                           ;! ---------------------------------------------------------------------------------
  1986                           ;! (0) _main                                                 2     2      0   59849
  1987                           ;!                                             77 BANK0      2     2      0
  1988                           ;!                    _I2C_Master_Init
  1989                           ;!                      _Set_Time_Date
  1990                           ;!           _Update_Current_Date_Time
  1991                           ;!                       _apagar_luces
  1992                           ;!                          _boton_lcd
  1993                           ;!                   _check_infrarrojo
  1994                           ;!               _configInterrupciones
  1995                           ;!                        _configPorts
  1996                           ;!                       _initOsci8MHZ
  1997                           ;!                          _lcd_clear
  1998                           ;!                           _lcd_init
  1999                           ;!                     _lcd_set_cursor
  2000                           ;!                   _lcd_write_string
  2001                           ;!                    _primera_llamada
  2002                           ;!                    _segunda_llamada
  2003                           ;!                    _tercera_llamada
  2004                           ;! ---------------------------------------------------------------------------------
  2005                           ;! (1) _tercera_llamada                                      5     3      2     218
  2006                           ;!                                              0 BANK0      5     3      2
  2007                           ;! ---------------------------------------------------------------------------------
  2008                           ;! (1) _segunda_llamada                                      5     3      2     218
  2009                           ;!                                              0 BANK0      5     3      2
  2010                           ;! ---------------------------------------------------------------------------------
  2011                           ;! (1) _primera_llamada                                      5     3      2     218
  2012                           ;!                                              0 BANK0      5     3      2
  2013                           ;! ---------------------------------------------------------------------------------
  2014                           ;! (1) _lcd_init                                             2     2      0     374
  2015                           ;!                                              4 BANK0      2     2      0
  2016                           ;!                            _lcd_cmd
  2017                           ;!                           _lcd_port
  2018                           ;! ---------------------------------------------------------------------------------
  2019                           ;! (1) _initOsci8MHZ                                         0     0      0       0
  2020                           ;! ---------------------------------------------------------------------------------
  2021                           ;! (1) _configPorts                                          0     0      0       0
  2022                           ;! ---------------------------------------------------------------------------------
  2023                           ;! (1) _configInterrupciones                                 0     0      0       0
  2024                           ;! ---------------------------------------------------------------------------------
  2025                           ;! (1) _check_infrarrojo                                     2     2      0       0
  2026                           ;!                                              0 BANK0      2     2      0
  2027                           ;! ---------------------------------------------------------------------------------
  2028                           ;! (1) _boton_lcd                                            1     1      0   46262
  2029                           ;!                                             76 BANK0      1     1      0
  2030                           ;!                     _lcd_set_cursor
  2031                           ;!                     _lcd_write_char
  2032                           ;!                   _lcd_write_string
  2033                           ;!                        _mostrar_lcd
  2034                           ;!                 _separa_digitos_rtc
  2035                           ;!                            _slave_1
  2036                           ;!                            _slave_2
  2037                           ;!                            _slave_3
  2038                           ;! ---------------------------------------------------------------------------------
  2039                           ;! (2) _slave_3                                              3     3      0    5657
  2040                           ;!                                             15 BANK0      3     3      0
  2041                           ;!                    _I2C_Master_Read
  2042                           ;!                   _I2C_Master_Start
  2043                           ;!                    _I2C_Master_Stop
  2044                           ;!                   _I2C_Master_Write
  2045                           ;!                     _lcd_set_cursor
  2046                           ;!                   _lcd_write_string
  2047                           ;! ---------------------------------------------------------------------------------
  2048                           ;! (2) _slave_2                                              3     3      0    5855
  2049                           ;!                                             15 BANK0      3     3      0
  2050                           ;!                    _I2C_Master_Read
  2051                           ;!                   _I2C_Master_Start
  2052                           ;!                    _I2C_Master_Stop
  2053                           ;!                   _I2C_Master_Write
  2054                           ;!                          _lcd_clear
  2055                           ;!                     _lcd_set_cursor
  2056                           ;!                   _lcd_write_string
  2057                           ;! ---------------------------------------------------------------------------------
  2058                           ;! (1) _lcd_clear                                            0     0      0     198
  2059                           ;!                            _lcd_cmd
  2060                           ;! ---------------------------------------------------------------------------------
  2061                           ;! (2) _slave_1                                             13    13      0   25162
  2062                           ;!                                             71 BANK0      5     5      0
  2063                           ;!                                              0 BANK1      8     8      0
  2064                           ;!                    _I2C_Master_Read
  2065                           ;!                   _I2C_Master_Start
  2066                           ;!                    _I2C_Master_Stop
  2067                           ;!                   _I2C_Master_Write
  2068                           ;!                           ___xxtofl
  2069                           ;!                                 _b0
  2070                           ;!                                 _b1
  2071                           ;!                                 _b2
  2072                           ;!                     _lcd_set_cursor
  2073                           ;!                     _lcd_write_char
  2074                           ;!                   _lcd_write_string
  2075                           ;! ---------------------------------------------------------------------------------
  2076                           ;! (3) _b2                                                  11     7      4    2384
  2077                           ;!                                             59 BANK0      7     3      4
  2078                           ;!                            ___fldiv
  2079                           ;!                            ___fltol
  2080                           ;!                           ___xxtofl (ARG)
  2081                           ;!                           _num_case
  2082                           ;! ---------------------------------------------------------------------------------
  2083                           ;! (3) _b1                                                  11     7      4    7981
  2084                           ;!                                             59 BANK0     11     7      4
  2085                           ;!                            ___awdiv
  2086                           ;!                            ___fladd
  2087                           ;!                            ___fldiv
  2088                           ;!                            ___flneg
  2089                           ;!                            ___fltol
  2090                           ;!                             ___wmul
  2091                           ;!                           ___xxtofl
  2092                           ;!                           _num_case
  2093                           ;! ---------------------------------------------------------------------------------
  2094                           ;! (3) _b0                                                  12     8      4    8194
  2095                           ;!                                             59 BANK0     12     8      4
  2096                           ;!                            ___awdiv
  2097                           ;!                             ___bmul
  2098                           ;!                            ___fladd
  2099                           ;!                            ___fldiv
  2100                           ;!                            ___flneg
  2101                           ;!                            ___fltol
  2102                           ;!                             ___wmul
  2103                           ;!                           ___xxtofl
  2104                           ;!                           _num_case
  2105                           ;! ---------------------------------------------------------------------------------
  2106                           ;! (4) _num_case                                             4     4      0      54
  2107                           ;!                                              0 BANK0      4     4      0
  2108                           ;! ---------------------------------------------------------------------------------
  2109                           ;! (4) ___xxtofl                                            14    10      4     702
  2110                           ;!                                              6 BANK0     14    10      4
  2111                           ;!                             ___wmul (ARG)
  2112                           ;! ---------------------------------------------------------------------------------
  2113                           ;! (4) ___fltol                                             11     7      4     609
  2114                           ;!                                             48 BANK0     11     7      4
  2115                           ;!                            ___fladd (ARG)
  2116                           ;!                            ___fldiv (ARG)
  2117                           ;!                            ___flneg (ARG)
  2118                           ;!                             ___wmul (ARG)
  2119                           ;!                           ___xxtofl (ARG)
  2120                           ;! ---------------------------------------------------------------------------------
  2121                           ;! (4) ___flneg                                              4     0      4     197
  2122                           ;!                                             20 BANK0      4     0      4
  2123                           ;!                             ___wmul (ARG)
  2124                           ;!                           ___xxtofl (ARG)
  2125                           ;! ---------------------------------------------------------------------------------
  2126                           ;! (4) ___fldiv                                             26    18      8    1577
  2127                           ;!                                              0 BANK0     26    18      8
  2128                           ;! ---------------------------------------------------------------------------------
  2129                           ;! (4) ___fladd                                             24    16      8    2414
  2130                           ;!                                             24 BANK0     24    16      8
  2131                           ;!                            ___flneg (ARG)
  2132                           ;!                             ___wmul (ARG)
  2133                           ;!                           ___xxtofl (ARG)
  2134                           ;! ---------------------------------------------------------------------------------
  2135                           ;! (4) ___bmul                                               4     3      1     168
  2136                           ;!                                              0 BANK0      4     3      1
  2137                           ;! ---------------------------------------------------------------------------------
  2138                           ;! (2) _separa_digitos_rtc                                   1     1      0    3028
  2139                           ;!                                              9 BANK0      1     1      0
  2140                           ;!                            ___awdiv
  2141                           ;!                            ___awmod
  2142                           ;! ---------------------------------------------------------------------------------
  2143                           ;! (2) _mostrar_lcd                                          1     1      0    3280
  2144                           ;!                                             11 BANK0      1     1      0
  2145                           ;!                     _lcd_set_cursor
  2146                           ;!                     _lcd_write_char
  2147                           ;!                   _lcd_write_string
  2148                           ;! ---------------------------------------------------------------------------------
  2149                           ;! (1) _lcd_write_string                                     7     5      2    1656
  2150                           ;!                                              4 BANK0      7     5      2
  2151                           ;!                     _lcd_write_char
  2152                           ;! ---------------------------------------------------------------------------------
  2153                           ;! (2) _lcd_write_char                                       3     3      0     198
  2154                           ;!                                              1 BANK0      3     3      0
  2155                           ;!                           _lcd_port
  2156                           ;! ---------------------------------------------------------------------------------
  2157                           ;! (1) _lcd_set_cursor                                       2     1      1    1426
  2158                           ;!                                              4 BANK0      2     1      1
  2159                           ;!                            _lcd_cmd
  2160                           ;! ---------------------------------------------------------------------------------
  2161                           ;! (2) _lcd_cmd                                              3     3      0     198
  2162                           ;!                                              1 BANK0      3     3      0
  2163                           ;!                           _lcd_port
  2164                           ;! ---------------------------------------------------------------------------------
  2165                           ;! (3) _lcd_port                                             1     1      0     176
  2166                           ;!                                              0 BANK0      1     1      0
  2167                           ;! ---------------------------------------------------------------------------------
  2168                           ;! (1) _apagar_luces                                         3     3      0      22
  2169                           ;!                                              0 BANK0      3     3      0
  2170                           ;! ---------------------------------------------------------------------------------
  2171                           ;! (1) _Update_Current_Date_Time                             0     0      0    3623
  2172                           ;!                          _BCD_2_DEC
  2173                           ;!                    _I2C_Master_Read
  2174                           ;!                   _I2C_Master_Start
  2175                           ;!                    _I2C_Master_Stop
  2176                           ;!                   _I2C_Master_Write
  2177                           ;! ---------------------------------------------------------------------------------
  2178                           ;! (3) _I2C_Master_Read                                      6     4      2     881
  2179                           ;!                                              0 BANK0      6     4      2
  2180                           ;!                    _I2C_Master_Wait
  2181                           ;! ---------------------------------------------------------------------------------
  2182                           ;! (2) _BCD_2_DEC                                            4     2      2    1048
  2183                           ;!                                              6 BANK0      4     2      2
  2184                           ;!                    _I2C_Master_Read (ARG)
  2185                           ;!                             ___wmul
  2186                           ;! ---------------------------------------------------------------------------------
  2187                           ;! (4) ___wmul                                               6     2      4     548
  2188                           ;!                                              0 BANK0      6     2      4
  2189                           ;! ---------------------------------------------------------------------------------
  2190                           ;! (1) _Set_Time_Date                                        0     0      0    5222
  2191                           ;!                          _DEC_2_BCD
  2192                           ;!                   _I2C_Master_Start
  2193                           ;!                    _I2C_Master_Stop
  2194                           ;!                   _I2C_Master_Write
  2195                           ;! ---------------------------------------------------------------------------------
  2196                           ;! (3) _I2C_Master_Write                                     2     0      2    1694
  2197                           ;!                                             13 BANK0      2     0      2
  2198                           ;!                          _DEC_2_BCD (ARG)
  2199                           ;!                    _I2C_Master_Wait
  2200                           ;! ---------------------------------------------------------------------------------
  2201                           ;! (3) _I2C_Master_Stop                                      0     0      0       0
  2202                           ;!                    _I2C_Master_Wait
  2203                           ;! ---------------------------------------------------------------------------------
  2204                           ;! (3) _I2C_Master_Start                                     0     0      0       0
  2205                           ;!                    _I2C_Master_Wait
  2206                           ;! ---------------------------------------------------------------------------------
  2207                           ;! (4) _I2C_Master_Wait                                      0     0      0       0
  2208                           ;! ---------------------------------------------------------------------------------
  2209                           ;! (2) _DEC_2_BCD                                            4     2      2    3528
  2210                           ;!                                              9 BANK0      4     2      2
  2211                           ;!                            ___awdiv
  2212                           ;!                            ___awmod
  2213                           ;! ---------------------------------------------------------------------------------
  2214                           ;! (3) ___awmod                                              7     3      4    1360
  2215                           ;!                                              0 BANK0      7     3      4
  2216                           ;! ---------------------------------------------------------------------------------
  2217                           ;! (4) ___awdiv                                              9     5      4    1668
  2218                           ;!                                              0 BANK0      9     5      4
  2219                           ;! ---------------------------------------------------------------------------------
  2220                           ;! (1) _I2C_Master_Init                                      8     4      4     412
  2221                           ;!                                             14 BANK0      8     4      4
  2222                           ;!                            ___lldiv
  2223                           ;! ---------------------------------------------------------------------------------
  2224                           ;! (2) ___lldiv                                             14     6      8     314
  2225                           ;!                                              0 BANK0     14     6      8
  2226                           ;! ---------------------------------------------------------------------------------
  2227                           ;! Estimated maximum stack depth 4
  2228                           ;! ---------------------------------------------------------------------------------
  2229                           ;! (Depth) Function   	        Calls       Base Space   Used Autos Params    Refs
  2230                           ;! ---------------------------------------------------------------------------------
  2231                           ;! (6) _isr                                                  5     5      0     198
  2232                           ;!                                              4 COMMON     5     5      0
  2233                           ;!                        i1_lcd_clear
  2234                           ;! ---------------------------------------------------------------------------------
  2235                           ;! (7) i1_lcd_clear                                          0     0      0     198
  2236                           ;!                          i1_lcd_cmd
  2237                           ;! ---------------------------------------------------------------------------------
  2238                           ;! (8) i1_lcd_cmd                                            3     3      0     198
  2239                           ;!                                              1 COMMON     3     3      0
  2240                           ;!                         i1_lcd_port
  2241                           ;! ---------------------------------------------------------------------------------
  2242                           ;! (9) i1_lcd_port                                           1     1      0     176
  2243                           ;!                                              0 COMMON     1     1      0
  2244                           ;! ---------------------------------------------------------------------------------
  2245                           ;! Estimated maximum stack depth 9
  2246                           ;! ---------------------------------------------------------------------------------
  2247                           ;!
  2248                           ;! Call Graph Graphs:
  2249                           ;!
  2250                           ;! _main (ROOT)
  2251                           ;!   _I2C_Master_Init
  2252                           ;!     ___lldiv
  2253                           ;!   _Set_Time_Date
  2254                           ;!     _DEC_2_BCD
  2255                           ;!       ___awdiv
  2256                           ;!       ___awmod
  2257                           ;!     _I2C_Master_Start
  2258                           ;!       _I2C_Master_Wait
  2259                           ;!     _I2C_Master_Stop
  2260                           ;!       _I2C_Master_Wait
  2261                           ;!     _I2C_Master_Write
  2262                           ;!       _DEC_2_BCD (ARG)
  2263                           ;!         ___awdiv
  2264                           ;!         ___awmod
  2265                           ;!       _I2C_Master_Wait (ARG)
  2266                           ;!   _Update_Current_Date_Time
  2267                           ;!     _BCD_2_DEC
  2268                           ;!       _I2C_Master_Read (ARG)
  2269                           ;!         _I2C_Master_Wait
  2270                           ;!       ___wmul (ARG)
  2271                           ;!     _I2C_Master_Read
  2272                           ;!       _I2C_Master_Wait
  2273                           ;!     _I2C_Master_Start
  2274                           ;!       _I2C_Master_Wait
  2275                           ;!     _I2C_Master_Stop
  2276                           ;!       _I2C_Master_Wait
  2277                           ;!     _I2C_Master_Write
  2278                           ;!       _DEC_2_BCD (ARG)
  2279                           ;!         ___awdiv
  2280                           ;!         ___awmod
  2281                           ;!       _I2C_Master_Wait (ARG)
  2282                           ;!   _apagar_luces
  2283                           ;!   _boton_lcd
  2284                           ;!     _lcd_set_cursor
  2285                           ;!       _lcd_cmd
  2286                           ;!         _lcd_port
  2287                           ;!     _lcd_write_char
  2288                           ;!       _lcd_port
  2289                           ;!     _lcd_write_string
  2290                           ;!       _lcd_write_char
  2291                           ;!         _lcd_port
  2292                           ;!     _mostrar_lcd
  2293                           ;!       _lcd_set_cursor
  2294                           ;!         _lcd_cmd
  2295                           ;!           _lcd_port
  2296                           ;!       _lcd_write_char
  2297                           ;!         _lcd_port
  2298                           ;!       _lcd_write_string
  2299                           ;!         _lcd_write_char
  2300                           ;!           _lcd_port
  2301                           ;!     _separa_digitos_rtc
  2302                           ;!       ___awdiv
  2303                           ;!       ___awmod
  2304                           ;!     _slave_1
  2305                           ;!       _I2C_Master_Read
  2306                           ;!         _I2C_Master_Wait
  2307                           ;!       _I2C_Master_Start
  2308                           ;!         _I2C_Master_Wait
  2309                           ;!       _I2C_Master_Stop
  2310                           ;!         _I2C_Master_Wait
  2311                           ;!       _I2C_Master_Write
  2312                           ;!         _DEC_2_BCD (ARG)
  2313                           ;!           ___awdiv
  2314                           ;!           ___awmod
  2315                           ;!         _I2C_Master_Wait (ARG)
  2316                           ;!       ___xxtofl
  2317                           ;!         ___wmul (ARG)
  2318                           ;!       _b0
  2319                           ;!         ___awdiv
  2320                           ;!         ___bmul
  2321                           ;!         ___fladd
  2322                           ;!           ___flneg (ARG)
  2323                           ;!             ___wmul (ARG)
  2324                           ;!             ___xxtofl (ARG)
  2325                           ;!               ___wmul (ARG)
  2326                           ;!           ___wmul (ARG)
  2327                           ;!           ___xxtofl (ARG)
  2328                           ;!             ___wmul (ARG)
  2329                           ;!         ___fldiv
  2330                           ;!         ___flneg
  2331                           ;!           ___wmul (ARG)
  2332                           ;!           ___xxtofl (ARG)
  2333                           ;!             ___wmul (ARG)
  2334                           ;!         ___fltol
  2335                           ;!           ___fladd (ARG)
  2336                           ;!             ___flneg (ARG)
  2337                           ;!               ___wmul (ARG)
  2338                           ;!               ___xxtofl (ARG)
  2339                           ;!                 ___wmul (ARG)
  2340                           ;!             ___wmul (ARG)
  2341                           ;!             ___xxtofl (ARG)
  2342                           ;!               ___wmul (ARG)
  2343                           ;!           ___fldiv (ARG)
  2344                           ;!           ___flneg (ARG)
  2345                           ;!             ___wmul (ARG)
  2346                           ;!             ___xxtofl (ARG)
  2347                           ;!               ___wmul (ARG)
  2348                           ;!           ___wmul (ARG)
  2349                           ;!           ___xxtofl (ARG)
  2350                           ;!             ___wmul (ARG)
  2351                           ;!         ___wmul
  2352                           ;!         ___xxtofl
  2353                           ;!           ___wmul (ARG)
  2354                           ;!         _num_case
  2355                           ;!       _b1
  2356                           ;!         ___awdiv
  2357                           ;!         ___fladd
  2358                           ;!           ___flneg (ARG)
  2359                           ;!             ___wmul (ARG)
  2360                           ;!             ___xxtofl (ARG)
  2361                           ;!               ___wmul (ARG)
  2362                           ;!           ___wmul (ARG)
  2363                           ;!           ___xxtofl (ARG)
  2364                           ;!             ___wmul (ARG)
  2365                           ;!         ___fldiv
  2366                           ;!         ___flneg
  2367                           ;!           ___wmul (ARG)
  2368                           ;!           ___xxtofl (ARG)
  2369                           ;!             ___wmul (ARG)
  2370                           ;!         ___fltol
  2371                           ;!           ___fladd (ARG)
  2372                           ;!             ___flneg (ARG)
  2373                           ;!               ___wmul (ARG)
  2374                           ;!               ___xxtofl (ARG)
  2375                           ;!                 ___wmul (ARG)
  2376                           ;!             ___wmul (ARG)
  2377                           ;!             ___xxtofl (ARG)
  2378                           ;!               ___wmul (ARG)
  2379                           ;!           ___fldiv (ARG)
  2380                           ;!           ___flneg (ARG)
  2381                           ;!             ___wmul (ARG)
  2382                           ;!             ___xxtofl (ARG)
  2383                           ;!               ___wmul (ARG)
  2384                           ;!           ___wmul (ARG)
  2385                           ;!           ___xxtofl (ARG)
  2386                           ;!             ___wmul (ARG)
  2387                           ;!         ___wmul
  2388                           ;!         ___xxtofl
  2389                           ;!           ___wmul (ARG)
  2390                           ;!         _num_case
  2391                           ;!       _b2
  2392                           ;!         ___fldiv
  2393                           ;!         ___fltol
  2394                           ;!           ___fladd (ARG)
  2395                           ;!             ___flneg (ARG)
  2396                           ;!               ___wmul (ARG)
  2397                           ;!               ___xxtofl (ARG)
  2398                           ;!                 ___wmul (ARG)
  2399                           ;!             ___wmul (ARG)
  2400                           ;!             ___xxtofl (ARG)
  2401                           ;!               ___wmul (ARG)
  2402                           ;!           ___fldiv (ARG)
  2403                           ;!           ___flneg (ARG)
  2404                           ;!             ___wmul (ARG)
  2405                           ;!             ___xxtofl (ARG)
  2406                           ;!               ___wmul (ARG)
  2407                           ;!           ___wmul (ARG)
  2408                           ;!           ___xxtofl (ARG)
  2409                           ;!             ___wmul (ARG)
  2410                           ;!         ___xxtofl (ARG)
  2411                           ;!           ___wmul (ARG)
  2412                           ;!         _num_case (ARG)
  2413                           ;!       _lcd_set_cursor
  2414                           ;!         _lcd_cmd
  2415                           ;!           _lcd_port
  2416                           ;!       _lcd_write_char
  2417                           ;!         _lcd_port
  2418                           ;!       _lcd_write_string
  2419                           ;!         _lcd_write_char
  2420                           ;!           _lcd_port
  2421                           ;!     _slave_2
  2422                           ;!       _I2C_Master_Read
  2423                           ;!         _I2C_Master_Wait
  2424                           ;!       _I2C_Master_Start
  2425                           ;!         _I2C_Master_Wait
  2426                           ;!       _I2C_Master_Stop
  2427                           ;!         _I2C_Master_Wait
  2428                           ;!       _I2C_Master_Write
  2429                           ;!         _DEC_2_BCD (ARG)
  2430                           ;!           ___awdiv
  2431                           ;!           ___awmod
  2432                           ;!         _I2C_Master_Wait (ARG)
  2433                           ;!       _lcd_clear
  2434                           ;!         _lcd_cmd
  2435                           ;!           _lcd_port
  2436                           ;!       _lcd_set_cursor
  2437                           ;!         _lcd_cmd
  2438                           ;!           _lcd_port
  2439                           ;!       _lcd_write_string
  2440                           ;!         _lcd_write_char
  2441                           ;!           _lcd_port
  2442                           ;!     _slave_3
  2443                           ;!       _I2C_Master_Read
  2444                           ;!         _I2C_Master_Wait
  2445                           ;!       _I2C_Master_Start
  2446                           ;!         _I2C_Master_Wait
  2447                           ;!       _I2C_Master_Stop
  2448                           ;!         _I2C_Master_Wait
  2449                           ;!       _I2C_Master_Write
  2450                           ;!         _DEC_2_BCD (ARG)
  2451                           ;!           ___awdiv
  2452                           ;!           ___awmod
  2453                           ;!         _I2C_Master_Wait (ARG)
  2454                           ;!       _lcd_set_cursor
  2455                           ;!         _lcd_cmd
  2456                           ;!           _lcd_port
  2457                           ;!       _lcd_write_string
  2458                           ;!         _lcd_write_char
  2459                           ;!           _lcd_port
  2460                           ;!   _check_infrarrojo
  2461                           ;!   _configInterrupciones
  2462                           ;!   _configPorts
  2463                           ;!   _initOsci8MHZ
  2464                           ;!   _lcd_clear
  2465                           ;!     _lcd_cmd
  2466                           ;!       _lcd_port
  2467                           ;!   _lcd_init
  2468                           ;!     _lcd_cmd
  2469                           ;!       _lcd_port
  2470                           ;!     _lcd_port
  2471                           ;!   _lcd_set_cursor
  2472                           ;!     _lcd_cmd
  2473                           ;!       _lcd_port
  2474                           ;!   _lcd_write_string
  2475                           ;!     _lcd_write_char
  2476                           ;!       _lcd_port
  2477                           ;!   _primera_llamada
  2478                           ;!   _segunda_llamada
  2479                           ;!   _tercera_llamada
  2480                           ;!
  2481                           ;! _isr (ROOT)
  2482                           ;!   i1_lcd_clear
  2483                           ;!     i1_lcd_cmd
  2484                           ;!       i1_lcd_port
  2485                           ;!
  2486                           
  2487                           ;! Address spaces:
  2488                           
  2489                           ;!Name               Size   Autos  Total    Cost      Usage
  2490                           ;!BANK3               60      0       0       9        0.0%
  2491                           ;!BITBANK3            60      0       0       8        0.0%
  2492                           ;!SFR3                 0      0       0       4        0.0%
  2493                           ;!BITSFR3              0      0       0       4        0.0%
  2494                           ;!BANK2               60      0       0      11        0.0%
  2495                           ;!BITBANK2            60      0       0      10        0.0%
  2496                           ;!SFR2                 0      0       0       5        0.0%
  2497                           ;!BITSFR2              0      0       0       5        0.0%
  2498                           ;!BANK1               50      8      30       7       60.0%
  2499                           ;!BITBANK1            50      0       0       6        0.0%
  2500                           ;!SFR1                 0      0       0       2        0.0%
  2501                           ;!BITSFR1              0      0       0       2        0.0%
  2502                           ;!BANK0               50     4F      50       5      100.0%
  2503                           ;!BITBANK0            50      0       0       4        0.0%
  2504                           ;!SFR0                 0      0       0       1        0.0%
  2505                           ;!BITSFR0              0      0       0       1        0.0%
  2506                           ;!COMMON               E      9       E       1      100.0%
  2507                           ;!BITCOMMON            E      0       0       0        0.0%
  2508                           ;!CODE                 0      0       0       0        0.0%
  2509                           ;!DATA                 0      0      8E      12        0.0%
  2510                           ;!ABS                  0      0      8E       3        0.0%
  2511                           ;!NULL                 0      0       0       0        0.0%
  2512                           ;!STACK                0      0       0       2        0.0%
  2513                           ;!EEDATA             100      0       0       0        0.0%
  2514                           
  2515                           	global	_main
  2516                           
  2517 ;; *************** function _main *****************
  2518 ;; Defined at:
  2519 ;;		line 112 in file "Proyecto1_master.c"
  2520 ;; Parameters:    Size  Location     Type
  2521 ;;		None
  2522 ;; Auto vars:     Size  Location     Type
  2523 ;;		None
  2524 ;; Return value:  Size  Location     Type
  2525 ;;                  1    wreg      void 
  2526 ;; Registers used:
  2527 ;;		wreg, fsr0l, fsr0h, status,2, status,0, btemp+1, pclath, cstack
  2528 ;; Tracked objects:
  2529 ;;		On entry : B00/0
  2530 ;;		On exit  : 0/0
  2531 ;;		Unchanged: 0/0
  2532 ;; Data sizes:     COMMON   BANK0   BANK1   BANK3   BANK2
  2533 ;;      Params:         0       0       0       0       0
  2534 ;;      Locals:         0       0       0       0       0
  2535 ;;      Temps:          0       2       0       0       0
  2536 ;;      Totals:         0       2       0       0       0
  2537 ;;Total ram usage:        2 bytes
  2538 ;; Hardware stack levels required when called:    9
  2539 ;; This function calls:
  2540 ;;		_I2C_Master_Init
  2541 ;;		_Set_Time_Date
  2542 ;;		_Update_Current_Date_Time
  2543 ;;		_apagar_luces
  2544 ;;		_boton_lcd
  2545 ;;		_check_infrarrojo
  2546 ;;		_configInterrupciones
  2547 ;;		_configPorts
  2548 ;;		_initOsci8MHZ
  2549 ;;		_lcd_clear
  2550 ;;		_lcd_init
  2551 ;;		_lcd_set_cursor
  2552 ;;		_lcd_write_string
  2553 ;;		_primera_llamada
  2554 ;;		_segunda_llamada
  2555 ;;		_tercera_llamada
  2556 ;; This function is called by:
  2557 ;;		Startup code after reset
  2558 ;; This function uses a non-reentrant model
  2559 ;;
  2560                           psect	maintext,global,class=CODE,delta=2,split=1,group=0
  2561                           	file	"Proyecto1_master.c"
  2562                           	line	112
  2563                           global __pmaintext
  2564                           __pmaintext:	;psect for function _main
  2565  0983                     psect	maintext
  2566                           	file	"Proyecto1_master.c"
  2567                           	line	112
  2568                           	global	__size_of_main
  2569                           	__size_of_main	equ	__end_of_main-_main
  2570  00AA                     	
  2571                           _main:	
  2572  0983                     ;incstack = 0
  2573 ;; hardware stack exceeded
  2574                           	opt	stack 0
  2575                           ; Regs used in _main: [wreg-fsr0h+status,2+status,0+btemp+1+pclath+cstack]
  2576                           	line	113
  2577                           	
  2578                           l3104:	
  2579  0983                     ;Proyecto1_master.c: 113:     initOsci8MHZ();
  2580                           	fcall	_initOsci8MHZ
  2581  0983  160A  118A  2168  120A  158A  	line	114
  2582                           	
  2583                           l3106:	
  2584  0988                     ;Proyecto1_master.c: 114:     configPorts();
  2585                           	fcall	_configPorts
  2586  0988  160A  118A  21C3  120A  158A  	line	115
  2587                           	
  2588                           l3108:	
  2589  098D                     ;Proyecto1_master.c: 115:     configInterrupciones();
  2590                           	fcall	_configInterrupciones
  2591  098D  160A  118A  216F  120A  158A  	line	116
  2592                           ;Proyecto1_master.c: 116:     lcd_init();
  2593                           	fcall	_lcd_init
  2594  0992  160A  118A  257E  120A  158A  	line	117
  2595                           ;Proyecto1_master.c: 117:     I2C_Master_Init(100000);
  2596                           	movlw	0
  2597  0997  3000               	bcf	status, 5	;RP0=0, select bank0
  2598  0998  1283               	bcf	status, 6	;RP1=0, select bank0
  2599  0999  1303               	movwf	(I2C_Master_Init@c+3)
  2600  099A  00B1               	movlw	01h
  2601  099B  3001               	movwf	(I2C_Master_Init@c+2)
  2602  099C  00B0               	movlw	086h
  2603  099D  3086               	movwf	(I2C_Master_Init@c+1)
  2604  099E  00AF               	movlw	0A0h
  2605  099F  30A0               	movwf	(I2C_Master_Init@c)
  2606  09A0  00AE               
  2607                           	fcall	_I2C_Master_Init
  2608  09A1  160A  118A  2446  120A  158A  	line	120
  2609                           	
  2610                           l3110:	
  2611  09A6                     ;Proyecto1_master.c: 120:     lcd_write_string("Fecha:");
  2612                           	movlw	(low((((STR_1)-__stringbase)|8000h)))&0ffh
  2613  09A6  3052               	bcf	status, 5	;RP0=0, select bank0
  2614  09A7  1283               	bcf	status, 6	;RP1=0, select bank0
  2615  09A8  1303               	movwf	(lcd_write_string@a)
  2616  09A9  00A4               	movlw	80h
  2617  09AA  3080               	movwf	(lcd_write_string@a+1)
  2618  09AB  00A5               	fcall	_lcd_write_string
  2619  09AC  160A  118A  2536  120A  158A  	line	121
  2620                           	
  2621                           l3112:	
  2622  09B1                     ;Proyecto1_master.c: 121:     lcd_set_cursor(2, 1);
  2623                           	bcf	status, 5	;RP0=0, select bank0
  2624  09B1  1283               	bcf	status, 6	;RP1=0, select bank0
  2625  09B2  1303               	clrf	(lcd_set_cursor@b)
  2626  09B3  01A4               	incf	(lcd_set_cursor@b),f
  2627  09B4  0AA4               	movlw	low(02h)
  2628  09B5  3002               	fcall	_lcd_set_cursor
  2629  09B6  160A  118A  223C  120A  158A  	line	122
  2630                           ;Proyecto1_master.c: 122:     lcd_write_string("Hora:");
  2631                           	movlw	(low((((STR_2)-__stringbase)|8000h)))&0ffh
  2632  09BB  3059               	bcf	status, 5	;RP0=0, select bank0
  2633  09BC  1283               	bcf	status, 6	;RP1=0, select bank0
  2634  09BD  1303               	movwf	(lcd_write_string@a)
  2635  09BE  00A4               	movlw	80h
  2636  09BF  3080               	movwf	(lcd_write_string@a+1)
  2637  09C0  00A5               	fcall	_lcd_write_string
  2638  09C1  160A  118A  2536  120A  158A  	line	125
  2639                           	
  2640                           l3114:	
  2641  09C6                     ;Proyecto1_master.c: 125:     Set_Time_Date();
  2642                           	fcall	_Set_Time_Date
  2643  09C6  120A  158A  250A  120A  158A  	line	127
  2644                           	
  2645                           l3116:	
  2646  09CB                     ;Proyecto1_master.c: 127:     s_humo = 0;
  2647                           	bsf	status, 5	;RP0=1, select bank1
  2648  09CB  1683               	bcf	status, 6	;RP1=0, select bank1
  2649  09CC  1303               	clrf	(_s_humo)^080h
  2650  09CD  01A5               	line	128
  2651                           	
  2652                           l3118:	
  2653  09CE                     ;Proyecto1_master.c: 128:     s_temblor = 0;
  2654                           	clrf	(_s_temblor)^080h
  2655  09CE  01A4               	line	129
  2656                           	
  2657                           l3120:	
  2658  09CF                     ;Proyecto1_master.c: 129:     modo=0;
  2659                           	clrf	(_modo)^080h
  2660  09CF  01AE               	goto	l3122
  2661  09D0  29D1               	line	131
  2662                           ;Proyecto1_master.c: 131:     while(1){
  2663                           	
  2664                           l164:	
  2665  09D1                     	line	133
  2666                           	
  2667                           l3122:	
  2668  09D1                     ;Proyecto1_master.c: 133:         Update_Current_Date_Time();
  2669                           	fcall	_Update_Current_Date_Time
  2670  09D1  120A  118A  24FE  120A  158A  	line	134
  2671                           	
  2672                           l3124:	
  2673  09D6                     ;Proyecto1_master.c: 134:         boton_lcd();
  2674                           	fcall	_boton_lcd
  2675  09D6  120A  158A  25D1  120A  158A  	line	137
  2676                           	
  2677                           l3126:	
  2678  09DB                     ;Proyecto1_master.c: 137:         primera_llamada(10, 55, 5);
  2679                           	movlw	low(037h)
  2680  09DB  3037               	bcf	status, 5	;RP0=0, select bank0
  2681  09DC  1283               	bcf	status, 6	;RP1=0, select bank0
  2682  09DD  1303               	movwf	(??_main+0)+0
  2683  09DE  00ED               	movf	(??_main+0)+0,w
  2684  09DF  086D               	movwf	(primera_llamada@m)
  2685  09E0  00A0               	movlw	low(05h)
  2686  09E1  3005               	movwf	(??_main+1)+0
  2687  09E2  00EE               	movf	(??_main+1)+0,w
  2688  09E3  086E               	movwf	(primera_llamada@s)
  2689  09E4  00A1               	movlw	low(0Ah)
  2690  09E5  300A               	fcall	_primera_llamada
  2691  09E6  160A  118A  2370  120A  158A  	line	138
  2692                           	
  2693                           l3128:	
  2694  09EB                     ;Proyecto1_master.c: 138:         segunda_llamada(10, 55, 10);
  2695                           	movlw	low(037h)
  2696  09EB  3037               	bcf	status, 5	;RP0=0, select bank0
  2697  09EC  1283               	bcf	status, 6	;RP1=0, select bank0
  2698  09ED  1303               	movwf	(??_main+0)+0
  2699  09EE  00ED               	movf	(??_main+0)+0,w
  2700  09EF  086D               	movwf	(segunda_llamada@m)
  2701  09F0  00A0               	movlw	low(0Ah)
  2702  09F1  300A               	movwf	(??_main+1)+0
  2703  09F2  00EE               	movf	(??_main+1)+0,w
  2704  09F3  086E               	movwf	(segunda_llamada@s)
  2705  09F4  00A1               	movlw	low(0Ah)
  2706  09F5  300A               	fcall	_segunda_llamada
  2707  09F6  160A  118A  23A5  120A  158A  	line	139
  2708                           	
  2709                           l3130:	
  2710  09FB                     ;Proyecto1_master.c: 139:         tercera_llamada(10, 55, 15);
  2711                           	movlw	low(037h)
  2712  09FB  3037               	bcf	status, 5	;RP0=0, select bank0
  2713  09FC  1283               	bcf	status, 6	;RP1=0, select bank0
  2714  09FD  1303               	movwf	(??_main+0)+0
  2715  09FE  00ED               	movf	(??_main+0)+0,w
  2716  09FF  086D               	movwf	(tercera_llamada@m)
  2717  0A00  00A0               	movlw	low(0Fh)
  2718  0A01  300F               	movwf	(??_main+1)+0
  2719  0A02  00EE               	movf	(??_main+1)+0,w
  2720  0A03  086E               	movwf	(tercera_llamada@s)
  2721  0A04  00A1               	movlw	low(0Ah)
  2722  0A05  300A               	fcall	_tercera_llamada
  2723  0A06  160A  118A  23DA  120A  158A  	line	140
  2724                           	
  2725                           l3132:	
  2726  0A0B                     ;Proyecto1_master.c: 140:         apagar_luces(5);
  2727                           	movlw	low(05h)
  2728  0A0B  3005               	fcall	_apagar_luces
  2729  0A0C  160A  118A  22B2  120A  158A  	line	141
  2730                           	
  2731                           l3134:	
  2732  0A11                     ;Proyecto1_master.c: 141:         check_infrarrojo();
  2733                           	fcall	_check_infrarrojo
  2734  0A11  160A  118A  230C  120A  158A  	line	151
  2735                           	
  2736                           l3136:	
  2737  0A16                     ;Proyecto1_master.c: 151:         if(limpiar_lcd==1){
  2738                           	bsf	status, 5	;RP0=1, select bank1
  2739  0A16  1683               	bcf	status, 6	;RP1=0, select bank1
  2740  0A17  1303               		decf	((_limpiar_lcd)^080h),w
  2741  0A18  032D               	btfss	status,2
  2742  0A19  1D03               	goto	u3711
  2743  0A1A  2A1C               	goto	u3710
  2744  0A1B  2A1D               u3711:
  2745  0A1C                     	goto	l3142
  2746  0A1C  2A26               u3710:
  2747  0A1D                     	line	152
  2748                           	
  2749                           l3138:	
  2750  0A1D                     ;Proyecto1_master.c: 152:             lcd_clear();
  2751                           	fcall	_lcd_clear
  2752  0A1D  160A  118A  2161  120A  158A  	line	153
  2753                           	
  2754                           l3140:	
  2755  0A22                     ;Proyecto1_master.c: 153:             limpiar_lcd=0;
  2756                           	bsf	status, 5	;RP0=1, select bank1
  2757  0A22  1683               	bcf	status, 6	;RP1=0, select bank1
  2758  0A23  1303               	clrf	(_limpiar_lcd)^080h
  2759  0A24  01AD               	line	154
  2760                           ;Proyecto1_master.c: 154:         }else
  2761                           	goto	l3122
  2762  0A25  29D1               	
  2763                           l165:	
  2764  0A26                     	line	155
  2765                           	
  2766                           l3142:	
  2767  0A26                     ;Proyecto1_master.c: 155:             limpiar_lcd=0;
  2768                           	clrf	(_limpiar_lcd)^080h
  2769  0A26  01AD               	goto	l3122
  2770  0A27  29D1               	
  2771                           l166:	
  2772  0A28                     	goto	l3122
  2773  0A28  29D1               	line	158
  2774                           ;Proyecto1_master.c: 158:     }
  2775                           	
  2776                           l167:	
  2777  0A29                     	goto	l3122
  2778  0A29  29D1               	
  2779                           l168:	
  2780  0A2A                     	line	160
  2781                           ;Proyecto1_master.c: 159:     return;
  2782                           	
  2783                           l169:	
  2784  0A2A                     	global	start
  2785                           	ljmp	start
  2786  0A2A  120A  118A  280C   	opt stack 0
  2787                           GLOBAL	__end_of_main
  2788                           	__end_of_main:
  2789  0A2D                     	signat	_main,89
  2790                           	global	_tercera_llamada
  2791                           
  2792 ;; *************** function _tercera_llamada *****************
  2793 ;; Defined at:
  2794 ;;		line 263 in file "Proyecto1_master.c"
  2795 ;; Parameters:    Size  Location     Type
  2796 ;;  h               1    wreg     unsigned char 
  2797 ;;  m               1    0[BANK0 ] unsigned char 
  2798 ;;  s               1    1[BANK0 ] unsigned char 
  2799 ;; Auto vars:     Size  Location     Type
  2800 ;;  h               1    4[BANK0 ] unsigned char 
  2801 ;; Return value:  Size  Location     Type
  2802 ;;                  1    wreg      void 
  2803 ;; Registers used:
  2804 ;;		wreg
  2805 ;; Tracked objects:
  2806 ;;		On entry : 0/0
  2807 ;;		On exit  : 0/0
  2808 ;;		Unchanged: 0/0
  2809 ;; Data sizes:     COMMON   BANK0   BANK1   BANK3   BANK2
  2810 ;;      Params:         0       2       0       0       0
  2811 ;;      Locals:         0       1       0       0       0
  2812 ;;      Temps:          0       2       0       0       0
  2813 ;;      Totals:         0       5       0       0       0
  2814 ;;Total ram usage:        5 bytes
  2815 ;; Hardware stack levels used:    1
  2816 ;; Hardware stack levels required when called:    4
  2817 ;; This function calls:
  2818 ;;		Nothing
  2819 ;; This function is called by:
  2820 ;;		_main
  2821 ;; This function uses a non-reentrant model
  2822 ;;
  2823                           psect	text1,local,class=CODE,delta=2,merge=1,group=0
  2824                           	line	263
  2825                           global __ptext1
  2826                           __ptext1:	;psect for function _tercera_llamada
  2827  13DA                     psect	text1
  2828                           	file	"Proyecto1_master.c"
  2829                           	line	263
  2830                           	global	__size_of_tercera_llamada
  2831                           	__size_of_tercera_llamada	equ	__end_of_tercera_llamada-_tercera_llamada
  2832  0035                     	
  2833                           _tercera_llamada:	
  2834  13DA                     ;incstack = 0
  2835                           	opt	stack 3
  2836                           ; Regs used in _tercera_llamada: [wreg]
  2837                           ;tercera_llamada@h stored from wreg
  2838                           	bcf	status, 5	;RP0=0, select bank0
  2839  13DA  1283               	bcf	status, 6	;RP1=0, select bank0
  2840  13DB  1303               	movwf	(tercera_llamada@h)
  2841  13DC  00A4               	line	266
  2842                           	
  2843                           l3058:	
  2844  13DD                     ;Proyecto1_master.c: 266:     if(hour==h && min==m && sec==s){
  2845                           	movf	(tercera_llamada@h),w
  2846  13DD  0824               	movwf	(??_tercera_llamada+0)+0
  2847  13DE  00A2               	clrf	(??_tercera_llamada+0)+0+1
  2848  13DF  01A3               	bsf	status, 5	;RP0=1, select bank1
  2849  13E0  1683               	bcf	status, 6	;RP1=0, select bank1
  2850  13E1  1303               	movf	(_hour+1)^080h,w
  2851  13E2  0847               	bcf	status, 5	;RP0=0, select bank0
  2852  13E3  1283               	bcf	status, 6	;RP1=0, select bank0
  2853  13E4  1303               	xorwf	1+(??_tercera_llamada+0)+0,w
  2854  13E5  0623               	skipz
  2855  13E6  1D03               	goto	u3605
  2856  13E7  2BEE               	bsf	status, 5	;RP0=1, select bank1
  2857  13E8  1683               	bcf	status, 6	;RP1=0, select bank1
  2858  13E9  1303               	movf	(_hour)^080h,w
  2859  13EA  0846               	bcf	status, 5	;RP0=0, select bank0
  2860  13EB  1283               	bcf	status, 6	;RP1=0, select bank0
  2861  13EC  1303               	xorwf	0+(??_tercera_llamada+0)+0,w
  2862  13ED  0622               u3605:
  2863  13EE                     
  2864                           	skipz
  2865  13EE  1D03               	goto	u3601
  2866  13EF  2BF1               	goto	u3600
  2867  13F0  2BF2               u3601:
  2868  13F1                     	goto	l203
  2869  13F1  2C0E               u3600:
  2870  13F2                     	
  2871                           l3060:	
  2872  13F2                     	movf	(tercera_llamada@m),w
  2873  13F2  0820               	movwf	(??_tercera_llamada+0)+0
  2874  13F3  00A2               	clrf	(??_tercera_llamada+0)+0+1
  2875  13F4  01A3               	movf	(_min+1),w
  2876  13F5  087D               	xorwf	1+(??_tercera_llamada+0)+0,w
  2877  13F6  0623               	skipz
  2878  13F7  1D03               	goto	u3615
  2879  13F8  2BFB               	movf	(_min),w
  2880  13F9  087C               	xorwf	0+(??_tercera_llamada+0)+0,w
  2881  13FA  0622               u3615:
  2882  13FB                     
  2883                           	skipz
  2884  13FB  1D03               	goto	u3611
  2885  13FC  2BFE               	goto	u3610
  2886  13FD  2BFF               u3611:
  2887  13FE                     	goto	l203
  2888  13FE  2C0E               u3610:
  2889  13FF                     	
  2890                           l3062:	
  2891  13FF                     	movf	(tercera_llamada@s),w
  2892  13FF  0821               	movwf	(??_tercera_llamada+0)+0
  2893  1400  00A2               	clrf	(??_tercera_llamada+0)+0+1
  2894  1401  01A3               	movf	(_sec+1),w
  2895  1402  087A               	xorwf	1+(??_tercera_llamada+0)+0,w
  2896  1403  0623               	skipz
  2897  1404  1D03               	goto	u3625
  2898  1405  2C08               	movf	(_sec),w
  2899  1406  0879               	xorwf	0+(??_tercera_llamada+0)+0,w
  2900  1407  0622               u3625:
  2901  1408                     
  2902                           	skipz
  2903  1408  1D03               	goto	u3621
  2904  1409  2C0B               	goto	u3620
  2905  140A  2C0C               u3621:
  2906  140B                     	goto	l203
  2907  140B  2C0E               u3620:
  2908  140C                     	line	267
  2909                           	
  2910                           l3064:	
  2911  140C                     ;Proyecto1_master.c: 267:         PORTBbits.RB2 = 1;
  2912                           	bsf	(6),2	;volatile
  2913  140C  1506               	goto	l203
  2914  140D  2C0E               	line	268
  2915                           ;Proyecto1_master.c: 268:     }
  2916                           	
  2917                           l202:	
  2918  140E                     	line	269
  2919                           	
  2920                           l203:	
  2921  140E                     	return
  2922  140E  0008               	opt stack 0
  2923                           GLOBAL	__end_of_tercera_llamada
  2924                           	__end_of_tercera_llamada:
  2925  140F                     	signat	_tercera_llamada,12409
  2926                           	global	_segunda_llamada
  2927                           
  2928 ;; *************** function _segunda_llamada *****************
  2929 ;; Defined at:
  2930 ;;		line 255 in file "Proyecto1_master.c"
  2931 ;; Parameters:    Size  Location     Type
  2932 ;;  h               1    wreg     unsigned char 
  2933 ;;  m               1    0[BANK0 ] unsigned char 
  2934 ;;  s               1    1[BANK0 ] unsigned char 
  2935 ;; Auto vars:     Size  Location     Type
  2936 ;;  h               1    4[BANK0 ] unsigned char 
  2937 ;; Return value:  Size  Location     Type
  2938 ;;                  1    wreg      void 
  2939 ;; Registers used:
  2940 ;;		wreg
  2941 ;; Tracked objects:
  2942 ;;		On entry : 0/0
  2943 ;;		On exit  : 0/0
  2944 ;;		Unchanged: 0/0
  2945 ;; Data sizes:     COMMON   BANK0   BANK1   BANK3   BANK2
  2946 ;;      Params:         0       2       0       0       0
  2947 ;;      Locals:         0       1       0       0       0
  2948 ;;      Temps:          0       2       0       0       0
  2949 ;;      Totals:         0       5       0       0       0
  2950 ;;Total ram usage:        5 bytes
  2951 ;; Hardware stack levels used:    1
  2952 ;; Hardware stack levels required when called:    4
  2953 ;; This function calls:
  2954 ;;		Nothing
  2955 ;; This function is called by:
  2956 ;;		_main
  2957 ;; This function uses a non-reentrant model
  2958 ;;
  2959                           psect	text2,local,class=CODE,delta=2,merge=1,group=0
  2960                           	line	255
  2961                           global __ptext2
  2962                           __ptext2:	;psect for function _segunda_llamada
  2963  13A5                     psect	text2
  2964                           	file	"Proyecto1_master.c"
  2965                           	line	255
  2966                           	global	__size_of_segunda_llamada
  2967                           	__size_of_segunda_llamada	equ	__end_of_segunda_llamada-_segunda_llamada
  2968  0035                     	
  2969                           _segunda_llamada:	
  2970  13A5                     ;incstack = 0
  2971                           	opt	stack 3
  2972                           ; Regs used in _segunda_llamada: [wreg]
  2973                           ;segunda_llamada@h stored from wreg
  2974                           	bcf	status, 5	;RP0=0, select bank0
  2975  13A5  1283               	bcf	status, 6	;RP1=0, select bank0
  2976  13A6  1303               	movwf	(segunda_llamada@h)
  2977  13A7  00A4               	line	258
  2978                           	
  2979                           l3050:	
  2980  13A8                     ;Proyecto1_master.c: 258:     if(hour==h && min==m && sec==s){
  2981                           	movf	(segunda_llamada@h),w
  2982  13A8  0824               	movwf	(??_segunda_llamada+0)+0
  2983  13A9  00A2               	clrf	(??_segunda_llamada+0)+0+1
  2984  13AA  01A3               	bsf	status, 5	;RP0=1, select bank1
  2985  13AB  1683               	bcf	status, 6	;RP1=0, select bank1
  2986  13AC  1303               	movf	(_hour+1)^080h,w
  2987  13AD  0847               	bcf	status, 5	;RP0=0, select bank0
  2988  13AE  1283               	bcf	status, 6	;RP1=0, select bank0
  2989  13AF  1303               	xorwf	1+(??_segunda_llamada+0)+0,w
  2990  13B0  0623               	skipz
  2991  13B1  1D03               	goto	u3575
  2992  13B2  2BB9               	bsf	status, 5	;RP0=1, select bank1
  2993  13B3  1683               	bcf	status, 6	;RP1=0, select bank1
  2994  13B4  1303               	movf	(_hour)^080h,w
  2995  13B5  0846               	bcf	status, 5	;RP0=0, select bank0
  2996  13B6  1283               	bcf	status, 6	;RP1=0, select bank0
  2997  13B7  1303               	xorwf	0+(??_segunda_llamada+0)+0,w
  2998  13B8  0622               u3575:
  2999  13B9                     
  3000                           	skipz
  3001  13B9  1D03               	goto	u3571
  3002  13BA  2BBC               	goto	u3570
  3003  13BB  2BBD               u3571:
  3004  13BC                     	goto	l199
  3005  13BC  2BD9               u3570:
  3006  13BD                     	
  3007                           l3052:	
  3008  13BD                     	movf	(segunda_llamada@m),w
  3009  13BD  0820               	movwf	(??_segunda_llamada+0)+0
  3010  13BE  00A2               	clrf	(??_segunda_llamada+0)+0+1
  3011  13BF  01A3               	movf	(_min+1),w
  3012  13C0  087D               	xorwf	1+(??_segunda_llamada+0)+0,w
  3013  13C1  0623               	skipz
  3014  13C2  1D03               	goto	u3585
  3015  13C3  2BC6               	movf	(_min),w
  3016  13C4  087C               	xorwf	0+(??_segunda_llamada+0)+0,w
  3017  13C5  0622               u3585:
  3018  13C6                     
  3019                           	skipz
  3020  13C6  1D03               	goto	u3581
  3021  13C7  2BC9               	goto	u3580
  3022  13C8  2BCA               u3581:
  3023  13C9                     	goto	l199
  3024  13C9  2BD9               u3580:
  3025  13CA                     	
  3026                           l3054:	
  3027  13CA                     	movf	(segunda_llamada@s),w
  3028  13CA  0821               	movwf	(??_segunda_llamada+0)+0
  3029  13CB  00A2               	clrf	(??_segunda_llamada+0)+0+1
  3030  13CC  01A3               	movf	(_sec+1),w
  3031  13CD  087A               	xorwf	1+(??_segunda_llamada+0)+0,w
  3032  13CE  0623               	skipz
  3033  13CF  1D03               	goto	u3595
  3034  13D0  2BD3               	movf	(_sec),w
  3035  13D1  0879               	xorwf	0+(??_segunda_llamada+0)+0,w
  3036  13D2  0622               u3595:
  3037  13D3                     
  3038                           	skipz
  3039  13D3  1D03               	goto	u3591
  3040  13D4  2BD6               	goto	u3590
  3041  13D5  2BD7               u3591:
  3042  13D6                     	goto	l199
  3043  13D6  2BD9               u3590:
  3044  13D7                     	line	259
  3045                           	
  3046                           l3056:	
  3047  13D7                     ;Proyecto1_master.c: 259:         PORTBbits.RB1 = 1;
  3048                           	bsf	(6),1	;volatile
  3049  13D7  1486               	goto	l199
  3050  13D8  2BD9               	line	260
  3051                           ;Proyecto1_master.c: 260:     }
  3052                           	
  3053                           l198:	
  3054  13D9                     	line	261
  3055                           	
  3056                           l199:	
  3057  13D9                     	return
  3058  13D9  0008               	opt stack 0
  3059                           GLOBAL	__end_of_segunda_llamada
  3060                           	__end_of_segunda_llamada:
  3061  13DA                     	signat	_segunda_llamada,12409
  3062                           	global	_primera_llamada
  3063                           
  3064 ;; *************** function _primera_llamada *****************
  3065 ;; Defined at:
  3066 ;;		line 247 in file "Proyecto1_master.c"
  3067 ;; Parameters:    Size  Location     Type
  3068 ;;  h               1    wreg     unsigned char 
  3069 ;;  m               1    0[BANK0 ] unsigned char 
  3070 ;;  s               1    1[BANK0 ] unsigned char 
  3071 ;; Auto vars:     Size  Location     Type
  3072 ;;  h               1    4[BANK0 ] unsigned char 
  3073 ;; Return value:  Size  Location     Type
  3074 ;;                  1    wreg      void 
  3075 ;; Registers used:
  3076 ;;		wreg
  3077 ;; Tracked objects:
  3078 ;;		On entry : 0/0
  3079 ;;		On exit  : 0/0
  3080 ;;		Unchanged: 0/0
  3081 ;; Data sizes:     COMMON   BANK0   BANK1   BANK3   BANK2
  3082 ;;      Params:         0       2       0       0       0
  3083 ;;      Locals:         0       1       0       0       0
  3084 ;;      Temps:          0       2       0       0       0
  3085 ;;      Totals:         0       5       0       0       0
  3086 ;;Total ram usage:        5 bytes
  3087 ;; Hardware stack levels used:    1
  3088 ;; Hardware stack levels required when called:    4
  3089 ;; This function calls:
  3090 ;;		Nothing
  3091 ;; This function is called by:
  3092 ;;		_main
  3093 ;; This function uses a non-reentrant model
  3094 ;;
  3095                           psect	text3,local,class=CODE,delta=2,merge=1,group=0
  3096                           	line	247
  3097                           global __ptext3
  3098                           __ptext3:	;psect for function _primera_llamada
  3099  1370                     psect	text3
  3100                           	file	"Proyecto1_master.c"
  3101                           	line	247
  3102                           	global	__size_of_primera_llamada
  3103                           	__size_of_primera_llamada	equ	__end_of_primera_llamada-_primera_llamada
  3104  0035                     	
  3105                           _primera_llamada:	
  3106  1370                     ;incstack = 0
  3107                           	opt	stack 3
  3108                           ; Regs used in _primera_llamada: [wreg]
  3109                           ;primera_llamada@h stored from wreg
  3110                           	bcf	status, 5	;RP0=0, select bank0
  3111  1370  1283               	bcf	status, 6	;RP1=0, select bank0
  3112  1371  1303               	movwf	(primera_llamada@h)
  3113  1372  00A4               	line	250
  3114                           	
  3115                           l3042:	
  3116  1373                     ;Proyecto1_master.c: 250:     if(hour==h && min==m && sec==s){
  3117                           	movf	(primera_llamada@h),w
  3118  1373  0824               	movwf	(??_primera_llamada+0)+0
  3119  1374  00A2               	clrf	(??_primera_llamada+0)+0+1
  3120  1375  01A3               	bsf	status, 5	;RP0=1, select bank1
  3121  1376  1683               	bcf	status, 6	;RP1=0, select bank1
  3122  1377  1303               	movf	(_hour+1)^080h,w
  3123  1378  0847               	bcf	status, 5	;RP0=0, select bank0
  3124  1379  1283               	bcf	status, 6	;RP1=0, select bank0
  3125  137A  1303               	xorwf	1+(??_primera_llamada+0)+0,w
  3126  137B  0623               	skipz
  3127  137C  1D03               	goto	u3545
  3128  137D  2B84               	bsf	status, 5	;RP0=1, select bank1
  3129  137E  1683               	bcf	status, 6	;RP1=0, select bank1
  3130  137F  1303               	movf	(_hour)^080h,w
  3131  1380  0846               	bcf	status, 5	;RP0=0, select bank0
  3132  1381  1283               	bcf	status, 6	;RP1=0, select bank0
  3133  1382  1303               	xorwf	0+(??_primera_llamada+0)+0,w
  3134  1383  0622               u3545:
  3135  1384                     
  3136                           	skipz
  3137  1384  1D03               	goto	u3541
  3138  1385  2B87               	goto	u3540
  3139  1386  2B88               u3541:
  3140  1387                     	goto	l195
  3141  1387  2BA4               u3540:
  3142  1388                     	
  3143                           l3044:	
  3144  1388                     	movf	(primera_llamada@m),w
  3145  1388  0820               	movwf	(??_primera_llamada+0)+0
  3146  1389  00A2               	clrf	(??_primera_llamada+0)+0+1
  3147  138A  01A3               	movf	(_min+1),w
  3148  138B  087D               	xorwf	1+(??_primera_llamada+0)+0,w
  3149  138C  0623               	skipz
  3150  138D  1D03               	goto	u3555
  3151  138E  2B91               	movf	(_min),w
  3152  138F  087C               	xorwf	0+(??_primera_llamada+0)+0,w
  3153  1390  0622               u3555:
  3154  1391                     
  3155                           	skipz
  3156  1391  1D03               	goto	u3551
  3157  1392  2B94               	goto	u3550
  3158  1393  2B95               u3551:
  3159  1394                     	goto	l195
  3160  1394  2BA4               u3550:
  3161  1395                     	
  3162                           l3046:	
  3163  1395                     	movf	(primera_llamada@s),w
  3164  1395  0821               	movwf	(??_primera_llamada+0)+0
  3165  1396  00A2               	clrf	(??_primera_llamada+0)+0+1
  3166  1397  01A3               	movf	(_sec+1),w
  3167  1398  087A               	xorwf	1+(??_primera_llamada+0)+0,w
  3168  1399  0623               	skipz
  3169  139A  1D03               	goto	u3565
  3170  139B  2B9E               	movf	(_sec),w
  3171  139C  0879               	xorwf	0+(??_primera_llamada+0)+0,w
  3172  139D  0622               u3565:
  3173  139E                     
  3174                           	skipz
  3175  139E  1D03               	goto	u3561
  3176  139F  2BA1               	goto	u3560
  3177  13A0  2BA2               u3561:
  3178  13A1                     	goto	l195
  3179  13A1  2BA4               u3560:
  3180  13A2                     	line	251
  3181                           	
  3182                           l3048:	
  3183  13A2                     ;Proyecto1_master.c: 251:         PORTBbits.RB0 = 1;
  3184                           	bsf	(6),0	;volatile
  3185  13A2  1406               	goto	l195
  3186  13A3  2BA4               	line	252
  3187                           ;Proyecto1_master.c: 252:     }
  3188                           	
  3189                           l194:	
  3190  13A4                     	line	253
  3191                           	
  3192                           l195:	
  3193  13A4                     	return
  3194  13A4  0008               	opt stack 0
  3195                           GLOBAL	__end_of_primera_llamada
  3196                           	__end_of_primera_llamada:
  3197  13A5                     	signat	_primera_llamada,12409
  3198                           	global	_lcd_init
  3199                           
  3200 ;; *************** function _lcd_init *****************
  3201 ;; Defined at:
  3202 ;;		line 85 in file "LCD.c"
  3203 ;; Parameters:    Size  Location     Type
  3204 ;;		None
  3205 ;; Auto vars:     Size  Location     Type
  3206 ;;		None
  3207 ;; Return value:  Size  Location     Type
  3208 ;;                  1    wreg      void 
  3209 ;; Registers used:
  3210 ;;		wreg, status,2, status,0, pclath, cstack
  3211 ;; Tracked objects:
  3212 ;;		On entry : 0/0
  3213 ;;		On exit  : 0/0
  3214 ;;		Unchanged: 0/0
  3215 ;; Data sizes:     COMMON   BANK0   BANK1   BANK3   BANK2
  3216 ;;      Params:         0       0       0       0       0
  3217 ;;      Locals:         0       0       0       0       0
  3218 ;;      Temps:          0       2       0       0       0
  3219 ;;      Totals:         0       2       0       0       0
  3220 ;;Total ram usage:        2 bytes
  3221 ;; Hardware stack levels used:    1
  3222 ;; Hardware stack levels required when called:    6
  3223 ;; This function calls:
  3224 ;;		_lcd_cmd
  3225 ;;		_lcd_port
  3226 ;; This function is called by:
  3227 ;;		_main
  3228 ;; This function uses a non-reentrant model
  3229 ;;
  3230                           psect	text4,local,class=CODE,delta=2,merge=1,group=0
  3231                           	file	"LCD.c"
  3232                           	line	85
  3233                           global __ptext4
  3234                           __ptext4:	;psect for function _lcd_init
  3235  157E                     psect	text4
  3236                           	file	"LCD.c"
  3237                           	line	85
  3238                           	global	__size_of_lcd_init
  3239                           	__size_of_lcd_init	equ	__end_of_lcd_init-_lcd_init
  3240  005D                     	
  3241                           _lcd_init:	
  3242  157E                     ;incstack = 0
  3243                           	opt	stack 1
  3244                           ; Regs used in _lcd_init: [wreg+status,2+status,0+pclath+cstack]
  3245                           	line	87
  3246                           	
  3247                           l2942:	
  3248  157E                     ;LCD.c: 87:     _delay((unsigned long)((15)*(8000000/4000.0)));
  3249                           	opt asmopt_push
  3250                           opt asmopt_off
  3251                           movlw	39
  3252  157E  3027               	bcf	status, 5	;RP0=0, select bank0
  3253  157F  1283               	bcf	status, 6	;RP1=0, select bank0
  3254  1580  1303               movwf	((??_lcd_init+0)+0+1),f
  3255  1581  00A5               	movlw	244
  3256  1582  30F4               movwf	((??_lcd_init+0)+0),f
  3257  1583  00A4               	u3727:
  3258  1584                     decfsz	((??_lcd_init+0)+0),f
  3259  1584  0BA4               	goto	u3727
  3260  1585  2D84               	decfsz	((??_lcd_init+0)+0+1),f
  3261  1586  0BA5               	goto	u3727
  3262  1587  2D84               	nop
  3263  1588  0000               opt asmopt_pop
  3264                           
  3265                           	line	88
  3266                           	
  3267                           l2944:	
  3268  1589                     ;LCD.c: 88:     lcd_port(0x00);
  3269                           	movlw	low(0)
  3270  1589  3000               	fcall	_lcd_port
  3271  158A  160A  118A  24BA  160A  118A  	line	89
  3272                           	
  3273                           l2946:	
  3274  158F                     ;LCD.c: 89:     _delay((unsigned long)((20)*(8000000/4000.0)));
  3275                           	opt asmopt_push
  3276                           opt asmopt_off
  3277                           movlw	52
  3278  158F  3034               	bcf	status, 5	;RP0=0, select bank0
  3279  1590  1283               	bcf	status, 6	;RP1=0, select bank0
  3280  1591  1303               movwf	((??_lcd_init+0)+0+1),f
  3281  1592  00A5               	movlw	241
  3282  1593  30F1               movwf	((??_lcd_init+0)+0),f
  3283  1594  00A4               	u3737:
  3284  1595                     decfsz	((??_lcd_init+0)+0),f
  3285  1595  0BA4               	goto	u3737
  3286  1596  2D95               	decfsz	((??_lcd_init+0)+0+1),f
  3287  1597  0BA5               	goto	u3737
  3288  1598  2D95               opt asmopt_pop
  3289                           
  3290                           	line	90
  3291                           ;LCD.c: 90:     lcd_cmd(0x30);
  3292                           	movlw	low(030h)
  3293  1599  3030               	fcall	_lcd_cmd
  3294  159A  160A  118A  2204  160A  118A  	line	91
  3295                           	
  3296                           l2948:	
  3297  159F                     ;LCD.c: 91:  _delay((unsigned long)((5)*(8000000/4000.0)));
  3298                           	opt asmopt_push
  3299                           opt asmopt_off
  3300                           movlw	13
  3301  159F  300D               	bcf	status, 5	;RP0=0, select bank0
  3302  15A0  1283               	bcf	status, 6	;RP1=0, select bank0
  3303  15A1  1303               movwf	((??_lcd_init+0)+0+1),f
  3304  15A2  00A5               	movlw	251
  3305  15A3  30FB               movwf	((??_lcd_init+0)+0),f
  3306  15A4  00A4               	u3747:
  3307  15A5                     decfsz	((??_lcd_init+0)+0),f
  3308  15A5  0BA4               	goto	u3747
  3309  15A6  2DA5               	decfsz	((??_lcd_init+0)+0+1),f
  3310  15A7  0BA5               	goto	u3747
  3311  15A8  2DA5               opt asmopt_pop
  3312                           
  3313                           	line	92
  3314                           	
  3315                           l2950:	
  3316  15A9                     ;LCD.c: 92:     lcd_cmd(0x30);
  3317                           	movlw	low(030h)
  3318  15A9  3030               	fcall	_lcd_cmd
  3319  15AA  160A  118A  2204  160A  118A  	line	93
  3320                           ;LCD.c: 93:  _delay((unsigned long)((160)*(8000000/4000000.0)));
  3321                           	opt asmopt_push
  3322                           opt asmopt_off
  3323                           	movlw	105
  3324  15AF  3069               	bcf	status, 5	;RP0=0, select bank0
  3325  15B0  1283               	bcf	status, 6	;RP1=0, select bank0
  3326  15B1  1303               movwf	((??_lcd_init+0)+0),f
  3327  15B2  00A4               	u3757:
  3328  15B3                     decfsz	(??_lcd_init+0)+0,f
  3329  15B3  0BA4               	goto	u3757
  3330  15B4  2DB3               	nop2
  3331  15B5  2DB6               opt asmopt_pop
  3332                           
  3333                           	line	94
  3334                           	
  3335                           l2952:	
  3336  15B6                     ;LCD.c: 94:     lcd_cmd(0x30);
  3337                           	movlw	low(030h)
  3338  15B6  3030               	fcall	_lcd_cmd
  3339  15B7  160A  118A  2204  160A  118A  	line	97
  3340                           	
  3341                           l2954:	
  3342  15BC                     ;LCD.c: 97:     lcd_cmd(0x38);
  3343                           	movlw	low(038h)
  3344  15BC  3038               	fcall	_lcd_cmd
  3345  15BD  160A  118A  2204  160A  118A  	line	98
  3346                           	
  3347                           l2956:	
  3348  15C2                     ;LCD.c: 98:     lcd_cmd(0x10);
  3349                           	movlw	low(010h)
  3350  15C2  3010               	fcall	_lcd_cmd
  3351  15C3  160A  118A  2204  160A  118A  	line	99
  3352                           	
  3353                           l2958:	
  3354  15C8                     ;LCD.c: 99:     lcd_cmd(0x01);
  3355                           	movlw	low(01h)
  3356  15C8  3001               	fcall	_lcd_cmd
  3357  15C9  160A  118A  2204  160A  118A  	line	100
  3358                           	
  3359                           l2960:	
  3360  15CE                     ;LCD.c: 100:     lcd_cmd(0x06);
  3361                           	movlw	low(06h)
  3362  15CE  3006               	fcall	_lcd_cmd
  3363  15CF  160A  118A  2204  160A  118A  	line	101
  3364                           	
  3365                           l2962:	
  3366  15D4                     ;LCD.c: 101:     lcd_cmd(0x0C);
  3367                           	movlw	low(0Ch)
  3368  15D4  300C               	fcall	_lcd_cmd
  3369  15D5  160A  118A  2204  160A  118A  	line	103
  3370                           	
  3371                           l397:	
  3372  15DA                     	return
  3373  15DA  0008               	opt stack 0
  3374                           GLOBAL	__end_of_lcd_init
  3375                           	__end_of_lcd_init:
  3376  15DB                     	signat	_lcd_init,89
  3377                           	global	_initOsci8MHZ
  3378                           
  3379 ;; *************** function _initOsci8MHZ *****************
  3380 ;; Defined at:
  3381 ;;		line 58 in file "oscilador.c"
  3382 ;; Parameters:    Size  Location     Type
  3383 ;;		None
  3384 ;; Auto vars:     Size  Location     Type
  3385 ;;		None
  3386 ;; Return value:  Size  Location     Type
  3387 ;;                  1    wreg      void 
  3388 ;; Registers used:
  3389 ;;		None
  3390 ;; Tracked objects:
  3391 ;;		On entry : 0/0
  3392 ;;		On exit  : 0/0
  3393 ;;		Unchanged: 0/0
  3394 ;; Data sizes:     COMMON   BANK0   BANK1   BANK3   BANK2
  3395 ;;      Params:         0       0       0       0       0
  3396 ;;      Locals:         0       0       0       0       0
  3397 ;;      Temps:          0       0       0       0       0
  3398 ;;      Totals:         0       0       0       0       0
  3399 ;;Total ram usage:        0 bytes
  3400 ;; Hardware stack levels used:    1
  3401 ;; Hardware stack levels required when called:    4
  3402 ;; This function calls:
  3403 ;;		Nothing
  3404 ;; This function is called by:
  3405 ;;		_main
  3406 ;; This function uses a non-reentrant model
  3407 ;;
  3408                           psect	text5,local,class=CODE,delta=2,merge=1,group=0
  3409                           	file	"oscilador.c"
  3410                           	line	58
  3411                           global __ptext5
  3412                           __ptext5:	;psect for function _initOsci8MHZ
  3413  1168                     psect	text5
  3414                           	file	"oscilador.c"
  3415                           	line	58
  3416                           	global	__size_of_initOsci8MHZ
  3417                           	__size_of_initOsci8MHZ	equ	__end_of_initOsci8MHZ-_initOsci8MHZ
  3418  0007                     	
  3419                           _initOsci8MHZ:	
  3420  1168                     ;incstack = 0
  3421                           	opt	stack 3
  3422                           ; Regs used in _initOsci8MHZ: []
  3423                           	line	59
  3424                           	
  3425                           l2920:	
  3426  1168                     ;oscilador.c: 59:     OSCCONbits.IRCF0 = 1;
  3427                           	bsf	status, 5	;RP0=1, select bank1
  3428  1168  1683               	bcf	status, 6	;RP1=0, select bank1
  3429  1169  1303               	bsf	(143)^080h,4	;volatile
  3430  116A  160F               	line	60
  3431                           ;oscilador.c: 60:     OSCCONbits.IRCF1 = 1;
  3432                           	bsf	(143)^080h,5	;volatile
  3433  116B  168F               	line	61
  3434                           ;oscilador.c: 61:     OSCCONbits.IRCF2 = 1;
  3435                           	bsf	(143)^080h,6	;volatile
  3436  116C  170F               	line	62
  3437                           ;oscilador.c: 62:     OSCCONbits.SCS = 1;
  3438                           	bsf	(143)^080h,0	;volatile
  3439  116D  140F               	line	63
  3440                           	
  3441                           l295:	
  3442  116E                     	return
  3443  116E  0008               	opt stack 0
  3444                           GLOBAL	__end_of_initOsci8MHZ
  3445                           	__end_of_initOsci8MHZ:
  3446  116F                     	signat	_initOsci8MHZ,89
  3447                           	global	_configPorts
  3448                           
  3449 ;; *************** function _configPorts *****************
  3450 ;; Defined at:
  3451 ;;		line 281 in file "Proyecto1_master.c"
  3452 ;; Parameters:    Size  Location     Type
  3453 ;;		None
  3454 ;; Auto vars:     Size  Location     Type
  3455 ;;		None
  3456 ;; Return value:  Size  Location     Type
  3457 ;;                  1    wreg      void 
  3458 ;; Registers used:
  3459 ;;		wreg, status,2
  3460 ;; Tracked objects:
  3461 ;;		On entry : 0/0
  3462 ;;		On exit  : 0/0
  3463 ;;		Unchanged: 0/0
  3464 ;; Data sizes:     COMMON   BANK0   BANK1   BANK3   BANK2
  3465 ;;      Params:         0       0       0       0       0
  3466 ;;      Locals:         0       0       0       0       0
  3467 ;;      Temps:          0       0       0       0       0
  3468 ;;      Totals:         0       0       0       0       0
  3469 ;;Total ram usage:        0 bytes
  3470 ;; Hardware stack levels used:    1
  3471 ;; Hardware stack levels required when called:    4
  3472 ;; This function calls:
  3473 ;;		Nothing
  3474 ;; This function is called by:
  3475 ;;		_main
  3476 ;; This function uses a non-reentrant model
  3477 ;;
  3478                           psect	text6,local,class=CODE,delta=2,merge=1,group=0
  3479                           	file	"Proyecto1_master.c"
  3480                           	line	281
  3481                           global __ptext6
  3482                           __ptext6:	;psect for function _configPorts
  3483  11C3                     psect	text6
  3484                           	file	"Proyecto1_master.c"
  3485                           	line	281
  3486                           	global	__size_of_configPorts
  3487                           	__size_of_configPorts	equ	__end_of_configPorts-_configPorts
  3488  0013                     	
  3489                           _configPorts:	
  3490  11C3                     ;incstack = 0
  3491                           	opt	stack 3
  3492                           ; Regs used in _configPorts: [wreg+status,2]
  3493                           	line	282
  3494                           	
  3495                           l2922:	
  3496  11C3                     ;Proyecto1_master.c: 282:     TRISA = 0;
  3497                           	bsf	status, 5	;RP0=1, select bank1
  3498  11C3  1683               	bcf	status, 6	;RP1=0, select bank1
  3499  11C4  1303               	clrf	(133)^080h	;volatile
  3500  11C5  0185               	line	284
  3501                           	
  3502                           l2924:	
  3503  11C6                     ;Proyecto1_master.c: 284:     TRISD = 0b00000001;
  3504                           	movlw	low(01h)
  3505  11C6  3001               	movwf	(136)^080h	;volatile
  3506  11C7  0088               	line	285
  3507                           	
  3508                           l2926:	
  3509  11C8                     ;Proyecto1_master.c: 285:     TRISE = 0;
  3510                           	clrf	(137)^080h	;volatile
  3511  11C8  0189               	line	286
  3512                           ;Proyecto1_master.c: 286:     TRISB = 0b00010000;
  3513                           	movlw	low(010h)
  3514  11C9  3010               	movwf	(134)^080h	;volatile
  3515  11CA  0086               	line	288
  3516                           	
  3517                           l2928:	
  3518  11CB                     ;Proyecto1_master.c: 288:     PORTA = 0;
  3519                           	bcf	status, 5	;RP0=0, select bank0
  3520  11CB  1283               	bcf	status, 6	;RP1=0, select bank0
  3521  11CC  1303               	clrf	(5)	;volatile
  3522  11CD  0185               	line	290
  3523                           	
  3524                           l2930:	
  3525  11CE                     ;Proyecto1_master.c: 290:     PORTD = 0;
  3526                           	clrf	(8)	;volatile
  3527  11CE  0188               	line	291
  3528                           	
  3529                           l2932:	
  3530  11CF                     ;Proyecto1_master.c: 291:     PORTE = 0;
  3531                           	clrf	(9)	;volatile
  3532  11CF  0189               	line	292
  3533                           	
  3534                           l2934:	
  3535  11D0                     ;Proyecto1_master.c: 292:     PORTB = 0;
  3536                           	clrf	(6)	;volatile
  3537  11D0  0186               	line	295
  3538                           	
  3539                           l2936:	
  3540  11D1                     ;Proyecto1_master.c: 295:     ANSEL = 0;
  3541                           	bsf	status, 5	;RP0=1, select bank3
  3542  11D1  1683               	bsf	status, 6	;RP1=1, select bank3
  3543  11D2  1703               	clrf	(392)^0180h	;volatile
  3544  11D3  0188               	line	296
  3545                           	
  3546                           l2938:	
  3547  11D4                     ;Proyecto1_master.c: 296:     ANSELH = 0;
  3548                           	clrf	(393)^0180h	;volatile
  3549  11D4  0189               	line	298
  3550                           	
  3551                           l210:	
  3552  11D5                     	return
  3553  11D5  0008               	opt stack 0
  3554                           GLOBAL	__end_of_configPorts
  3555                           	__end_of_configPorts:
  3556  11D6                     	signat	_configPorts,89
  3557                           	global	_configInterrupciones
  3558                           
  3559 ;; *************** function _configInterrupciones *****************
  3560 ;; Defined at:
  3561 ;;		line 300 in file "Proyecto1_master.c"
  3562 ;; Parameters:    Size  Location     Type
  3563 ;;		None
  3564 ;; Auto vars:     Size  Location     Type
  3565 ;;		None
  3566 ;; Return value:  Size  Location     Type
  3567 ;;                  1    wreg      void 
  3568 ;; Registers used:
  3569 ;;		None
  3570 ;; Tracked objects:
  3571 ;;		On entry : 0/0
  3572 ;;		On exit  : 0/0
  3573 ;;		Unchanged: 0/0
  3574 ;; Data sizes:     COMMON   BANK0   BANK1   BANK3   BANK2
  3575 ;;      Params:         0       0       0       0       0
  3576 ;;      Locals:         0       0       0       0       0
  3577 ;;      Temps:          0       0       0       0       0
  3578 ;;      Totals:         0       0       0       0       0
  3579 ;;Total ram usage:        0 bytes
  3580 ;; Hardware stack levels used:    1
  3581 ;; Hardware stack levels required when called:    4
  3582 ;; This function calls:
  3583 ;;		Nothing
  3584 ;; This function is called by:
  3585 ;;		_main
  3586 ;; This function uses a non-reentrant model
  3587 ;;
  3588                           psect	text7,local,class=CODE,delta=2,merge=1,group=0
  3589                           	line	300
  3590                           global __ptext7
  3591                           __ptext7:	;psect for function _configInterrupciones
  3592  116F                     psect	text7
  3593                           	file	"Proyecto1_master.c"
  3594                           	line	300
  3595                           	global	__size_of_configInterrupciones
  3596                           	__size_of_configInterrupciones	equ	__end_of_configInterrupciones-_configInterrupciones

  3597  0008                     	
  3598                           _configInterrupciones:	
  3599  116F                     ;incstack = 0
  3600                           	opt	stack 3
  3601                           ; Regs used in _configInterrupciones: []
  3602                           	line	301
  3603                           	
  3604                           l2940:	
  3605  116F                     ;Proyecto1_master.c: 301:     INTCONbits.GIE = 1;
  3606                           	bsf	(11),7	;volatile
  3607  116F  178B               	line	302
  3608                           ;Proyecto1_master.c: 302:     INTCONbits.PEIE = 1;
  3609                           	bsf	(11),6	;volatile
  3610  1170  170B               	line	304
  3611                           ;Proyecto1_master.c: 304:     INTCONbits.RBIE = 1;
  3612                           	bsf	(11),3	;volatile
  3613  1171  158B               	line	305
  3614                           ;Proyecto1_master.c: 305:     INTCONbits.RBIF = 0;
  3615                           	bcf	(11),0	;volatile
  3616  1172  100B               	line	306
  3617                           ;Proyecto1_master.c: 306:     IOCBbits.IOCB4 = 1;
  3618                           	bsf	status, 5	;RP0=1, select bank1
  3619  1173  1683               	bcf	status, 6	;RP1=0, select bank1
  3620  1174  1303               	bsf	(150)^080h,4	;volatile
  3621  1175  1616               	line	307
  3622                           	
  3623                           l213:	
  3624  1176                     	return
  3625  1176  0008               	opt stack 0
  3626                           GLOBAL	__end_of_configInterrupciones
  3627                           	__end_of_configInterrupciones:
  3628  1177                     	signat	_configInterrupciones,89
  3629                           	global	_check_infrarrojo
  3630                           
  3631 ;; *************** function _check_infrarrojo *****************
  3632 ;; Defined at:
  3633 ;;		line 394 in file "Proyecto1_master.c"
  3634 ;; Parameters:    Size  Location     Type
  3635 ;;		None
  3636 ;; Auto vars:     Size  Location     Type
  3637 ;;		None
  3638 ;; Return value:  Size  Location     Type
  3639 ;;                  1    wreg      void 
  3640 ;; Registers used:
  3641 ;;		wreg, status,2, status,0
  3642 ;; Tracked objects:
  3643 ;;		On entry : 0/0
  3644 ;;		On exit  : 0/0
  3645 ;;		Unchanged: 0/0
  3646 ;; Data sizes:     COMMON   BANK0   BANK1   BANK3   BANK2
  3647 ;;      Params:         0       0       0       0       0
  3648 ;;      Locals:         0       0       0       0       0
  3649 ;;      Temps:          0       2       0       0       0
  3650 ;;      Totals:         0       2       0       0       0
  3651 ;;Total ram usage:        2 bytes
  3652 ;; Hardware stack levels used:    1
  3653 ;; Hardware stack levels required when called:    4
  3654 ;; This function calls:
  3655 ;;		Nothing
  3656 ;; This function is called by:
  3657 ;;		_main
  3658 ;; This function uses a non-reentrant model
  3659 ;;
  3660                           psect	text8,local,class=CODE,delta=2,merge=1,group=0
  3661                           	line	394
  3662                           global __ptext8
  3663                           __ptext8:	;psect for function _check_infrarrojo
  3664  130C                     psect	text8
  3665                           	file	"Proyecto1_master.c"
  3666                           	line	394
  3667                           	global	__size_of_check_infrarrojo
  3668                           	__size_of_check_infrarrojo	equ	__end_of_check_infrarrojo-_check_infrarrojo
  3669  0031                     	
  3670                           _check_infrarrojo:	
  3671  130C                     ;incstack = 0
  3672                           	opt	stack 3
  3673                           ; Regs used in _check_infrarrojo: [wreg+status,2+status,0]
  3674                           	line	395
  3675                           	
  3676                           l3074:	
  3677  130C                     ;Proyecto1_master.c: 395:     if (PORTDbits.RD0 == 0){
  3678                           	bcf	status, 5	;RP0=0, select bank0
  3679  130C  1283               	bcf	status, 6	;RP1=0, select bank0
  3680  130D  1303               	btfsc	(8),0	;volatile
  3681  130E  1808               	goto	u3661
  3682  130F  2B11               	goto	u3660
  3683  1310  2B12               u3661:
  3684  1311                     	goto	l3078
  3685  1311  2B17               u3660:
  3686  1312                     	line	396
  3687                           	
  3688                           l3076:	
  3689  1312                     ;Proyecto1_master.c: 396:             AR1=1;
  3690                           	bsf	status, 5	;RP0=1, select bank1
  3691  1312  1683               	bcf	status, 6	;RP1=0, select bank1
  3692  1313  1303               	clrf	(_AR1)^080h
  3693  1314  01A7               	incf	(_AR1)^080h,f
  3694  1315  0AA7               	line	397
  3695                           ;Proyecto1_master.c: 397:         }
  3696                           	goto	l3086
  3697  1316  2B33               	line	398
  3698                           ;Proyecto1_master.c: 398:         else {
  3699                           	
  3700                           l228:	
  3701  1317                     	line	400
  3702                           	
  3703                           l3078:	
  3704  1317                     ;Proyecto1_master.c: 400:             if(AR1 == 1){
  3705                           	bsf	status, 5	;RP0=1, select bank1
  3706  1317  1683               	bcf	status, 6	;RP1=0, select bank1
  3707  1318  1303               		decf	((_AR1)^080h),w
  3708  1319  0327               	btfss	status,2
  3709  131A  1D03               	goto	u3671
  3710  131B  2B1D               	goto	u3670
  3711  131C  2B1E               u3671:
  3712  131D                     	goto	l3086
  3713  131D  2B33               u3670:
  3714  131E                     	line	401
  3715                           	
  3716                           l3080:	
  3717  131E                     ;Proyecto1_master.c: 401:                 unidades++;
  3718                           	movlw	low(01h)
  3719  131E  3001               	bcf	status, 5	;RP0=0, select bank0
  3720  131F  1283               	bcf	status, 6	;RP1=0, select bank0
  3721  1320  1303               	movwf	(??_check_infrarrojo+0)+0
  3722  1321  00A0               	movf	(??_check_infrarrojo+0)+0,w
  3723  1322  0820               	bsf	status, 5	;RP0=1, select bank1
  3724  1323  1683               	bcf	status, 6	;RP1=0, select bank1
  3725  1324  1303               	addwf	(_unidades)^080h,f
  3726  1325  07A9               	line	402
  3727                           	
  3728                           l3082:	
  3729  1326                     ;Proyecto1_master.c: 402:                 AR1 = 0;
  3730                           	clrf	(_AR1)^080h
  3731  1326  01A7               	line	403
  3732                           	
  3733                           l3084:	
  3734  1327                     ;Proyecto1_master.c: 403:                 _delay((unsigned long)((5)*(8000000/4000.0)));
                                 
  3735                           	opt asmopt_push
  3736                           opt asmopt_off
  3737                           movlw	13
  3738  1327  300D               	bcf	status, 5	;RP0=0, select bank0
  3739  1328  1283               	bcf	status, 6	;RP1=0, select bank0
  3740  1329  1303               movwf	((??_check_infrarrojo+0)+0+1),f
  3741  132A  00A1               	movlw	251
  3742  132B  30FB               movwf	((??_check_infrarrojo+0)+0),f
  3743  132C  00A0               	u3767:
  3744  132D                     decfsz	((??_check_infrarrojo+0)+0),f
  3745  132D  0BA0               	goto	u3767
  3746  132E  2B2D               	decfsz	((??_check_infrarrojo+0)+0+1),f
  3747  132F  0BA1               	goto	u3767
  3748  1330  2B2D               opt asmopt_pop
  3749                           
  3750                           	goto	l3086
  3751  1331  2B33               	line	404
  3752                           ;Proyecto1_master.c: 404:             }
  3753                           	
  3754                           l230:	
  3755  1332                     	goto	l3086
  3756  1332  2B33               	line	406
  3757                           ;Proyecto1_master.c: 406:         }
  3758                           	
  3759                           l229:	
  3760  1333                     	line	407
  3761                           	
  3762                           l3086:	
  3763  1333                     ;Proyecto1_master.c: 407:         if (unidades==255){
  3764                           	bsf	status, 5	;RP0=1, select bank1
  3765  1333  1683               	bcf	status, 6	;RP1=0, select bank1
  3766  1334  1303               		incf	((_unidades)^080h),w
  3767  1335  0A29               	btfss	status,2
  3768  1336  1D03               	goto	u3681
  3769  1337  2B39               	goto	u3680
  3770  1338  2B3A               u3681:
  3771  1339                     	goto	l232
  3772  1339  2B3C               u3680:
  3773  133A                     	line	408
  3774                           	
  3775                           l3088:	
  3776  133A                     ;Proyecto1_master.c: 408:                 unidades = 0;
  3777                           	clrf	(_unidades)^080h
  3778  133A  01A9               	goto	l232
  3779  133B  2B3C               	line	409
  3780                           ;Proyecto1_master.c: 409:                 }
  3781                           	
  3782                           l231:	
  3783  133C                     	line	410
  3784                           	
  3785                           l232:	
  3786  133C                     	return
  3787  133C  0008               	opt stack 0
  3788                           GLOBAL	__end_of_check_infrarrojo
  3789                           	__end_of_check_infrarrojo:
  3790  133D                     	signat	_check_infrarrojo,89
  3791                           	global	_boton_lcd
  3792                           
  3793 ;; *************** function _boton_lcd *****************
  3794 ;; Defined at:
  3795 ;;		line 162 in file "Proyecto1_master.c"
  3796 ;; Parameters:    Size  Location     Type
  3797 ;;		None
  3798 ;; Auto vars:     Size  Location     Type
  3799 ;;		None
  3800 ;; Return value:  Size  Location     Type
  3801 ;;                  1    wreg      void 
  3802 ;; Registers used:
  3803 ;;		wreg, fsr0l, fsr0h, status,2, status,0, btemp+1, pclath, cstack
  3804 ;; Tracked objects:
  3805 ;;		On entry : 0/0
  3806 ;;		On exit  : 0/0
  3807 ;;		Unchanged: 0/0
  3808 ;; Data sizes:     COMMON   BANK0   BANK1   BANK3   BANK2
  3809 ;;      Params:         0       0       0       0       0
  3810 ;;      Locals:         0       0       0       0       0
  3811 ;;      Temps:          0       1       0       0       0
  3812 ;;      Totals:         0       1       0       0       0
  3813 ;;Total ram usage:        1 bytes
  3814 ;; Hardware stack levels used:    1
  3815 ;; Hardware stack levels required when called:    8
  3816 ;; This function calls:
  3817 ;;		_lcd_set_cursor
  3818 ;;		_lcd_write_char
  3819 ;;		_lcd_write_string
  3820 ;;		_mostrar_lcd
  3821 ;;		_separa_digitos_rtc
  3822 ;;		_slave_1
  3823 ;;		_slave_2
  3824 ;;		_slave_3
  3825 ;; This function is called by:
  3826 ;;		_main
  3827 ;; This function uses a non-reentrant model
  3828 ;;
  3829                           psect	text9,local,class=CODE,delta=2,merge=1,group=0
  3830                           	line	162
  3831                           global __ptext9
  3832                           __ptext9:	;psect for function _boton_lcd
  3833  0DD1                     psect	text9
  3834                           	file	"Proyecto1_master.c"
  3835                           	line	162
  3836                           	global	__size_of_boton_lcd
  3837                           	__size_of_boton_lcd	equ	__end_of_boton_lcd-_boton_lcd
  3838  0107                     	
  3839                           _boton_lcd:	
  3840  0DD1                     ;incstack = 0
  3841 ;; hardware stack exceeded
  3842                           	opt	stack 0
  3843                           ; Regs used in _boton_lcd: [wreg-fsr0h+status,2+status,0+btemp+1+pclath+cstack]
  3844                           	line	163
  3845                           	
  3846                           l2980:	
  3847  0DD1                     ;Proyecto1_master.c: 163:     if(modo==0){
  3848                           	bsf	status, 5	;RP0=1, select bank1
  3849  0DD1  1683               	bcf	status, 6	;RP1=0, select bank1
  3850  0DD2  1303               	movf	((_modo)^080h),w
  3851  0DD3  082E               	btfss	status,2
  3852  0DD4  1D03               	goto	u3461
  3853  0DD5  2DD7               	goto	u3460
  3854  0DD6  2DD8               u3461:
  3855  0DD7                     	goto	l2992
  3856  0DD7  2E0D               u3460:
  3857  0DD8                     	line	164
  3858                           	
  3859                           l2982:	
  3860  0DD8                     ;Proyecto1_master.c: 164:         lcd_set_cursor(1, 1);
  3861                           	bcf	status, 5	;RP0=0, select bank0
  3862  0DD8  1283               	bcf	status, 6	;RP1=0, select bank0
  3863  0DD9  1303               	clrf	(lcd_set_cursor@b)
  3864  0DDA  01A4               	incf	(lcd_set_cursor@b),f
  3865  0DDB  0AA4               	movlw	low(01h)
  3866  0DDC  3001               	fcall	_lcd_set_cursor
  3867  0DDD  160A  118A  223C  120A  158A  	line	165
  3868                           	
  3869                           l2984:	
  3870  0DE2                     ;Proyecto1_master.c: 165:         lcd_write_string("Fecha:");
  3871                           	movlw	(low((((STR_3)-__stringbase)|8000h)))&0ffh
  3872  0DE2  3052               	bcf	status, 5	;RP0=0, select bank0
  3873  0DE3  1283               	bcf	status, 6	;RP1=0, select bank0
  3874  0DE4  1303               	movwf	(lcd_write_string@a)
  3875  0DE5  00A4               	movlw	80h
  3876  0DE6  3080               	movwf	(lcd_write_string@a+1)
  3877  0DE7  00A5               	fcall	_lcd_write_string
  3878  0DE8  160A  118A  2536  120A  158A  	line	166
  3879                           	
  3880                           l2986:	
  3881  0DED                     ;Proyecto1_master.c: 166:         lcd_set_cursor(2, 1);
  3882                           	bcf	status, 5	;RP0=0, select bank0
  3883  0DED  1283               	bcf	status, 6	;RP1=0, select bank0
  3884  0DEE  1303               	clrf	(lcd_set_cursor@b)
  3885  0DEF  01A4               	incf	(lcd_set_cursor@b),f
  3886  0DF0  0AA4               	movlw	low(02h)
  3887  0DF1  3002               	fcall	_lcd_set_cursor
  3888  0DF2  160A  118A  223C  120A  158A  	line	167
  3889                           ;Proyecto1_master.c: 167:         lcd_write_string("Hora:");
  3890                           	movlw	(low((((STR_4)-__stringbase)|8000h)))&0ffh
  3891  0DF7  3059               	bcf	status, 5	;RP0=0, select bank0
  3892  0DF8  1283               	bcf	status, 6	;RP1=0, select bank0
  3893  0DF9  1303               	movwf	(lcd_write_string@a)
  3894  0DFA  00A4               	movlw	80h
  3895  0DFB  3080               	movwf	(lcd_write_string@a+1)
  3896  0DFC  00A5               	fcall	_lcd_write_string
  3897  0DFD  160A  118A  2536  120A  158A  	line	168
  3898                           	
  3899                           l2988:	
  3900  0E02                     ;Proyecto1_master.c: 168:         separa_digitos_rtc();
  3901                           	fcall	_separa_digitos_rtc
  3902  0E02  120A  118A  2699  120A  158A  	line	169
  3903                           	
  3904                           l2990:	
  3905  0E07                     ;Proyecto1_master.c: 169:         mostrar_lcd();
  3906                           	fcall	_mostrar_lcd
  3907  0E07  120A  158A  22D9  120A  158A  	line	171
  3908                           ;Proyecto1_master.c: 171:     }else if(modo==1){
  3909                           	goto	l185
  3910  0E0C  2ED7               	
  3911                           l172:	
  3912  0E0D                     	
  3913                           l2992:	
  3914  0E0D                     	bsf	status, 5	;RP0=1, select bank1
  3915  0E0D  1683               	bcf	status, 6	;RP1=0, select bank1
  3916  0E0E  1303               		decf	((_modo)^080h),w
  3917  0E0F  032E               	btfss	status,2
  3918  0E10  1D03               	goto	u3471
  3919  0E11  2E13               	goto	u3470
  3920  0E12  2E14               u3471:
  3921  0E13                     	goto	l3014
  3922  0E13  2E5F               u3470:
  3923  0E14                     	line	172
  3924                           	
  3925                           l2994:	
  3926  0E14                     ;Proyecto1_master.c: 172:         lcd_set_cursor(1, 1);
  3927                           	bcf	status, 5	;RP0=0, select bank0
  3928  0E14  1283               	bcf	status, 6	;RP1=0, select bank0
  3929  0E15  1303               	clrf	(lcd_set_cursor@b)
  3930  0E16  01A4               	incf	(lcd_set_cursor@b),f
  3931  0E17  0AA4               	movlw	low(01h)
  3932  0E18  3001               	fcall	_lcd_set_cursor
  3933  0E19  160A  118A  223C  120A  158A  	line	173
  3934                           	
  3935                           l2996:	
  3936  0E1E                     ;Proyecto1_master.c: 173:         lcd_write_string("Contador:");
  3937                           	movlw	(low((((STR_5)-__stringbase)|8000h)))&0ffh
  3938  0E1E  302D               	bcf	status, 5	;RP0=0, select bank0
  3939  0E1F  1283               	bcf	status, 6	;RP1=0, select bank0
  3940  0E20  1303               	movwf	(lcd_write_string@a)
  3941  0E21  00A4               	movlw	80h
  3942  0E22  3080               	movwf	(lcd_write_string@a+1)
  3943  0E23  00A5               	fcall	_lcd_write_string
  3944  0E24  160A  118A  2536  120A  158A  	line	174
  3945                           	
  3946                           l2998:	
  3947  0E29                     ;Proyecto1_master.c: 174:         lcd_set_cursor(2, 1);
  3948                           	bcf	status, 5	;RP0=0, select bank0
  3949  0E29  1283               	bcf	status, 6	;RP1=0, select bank0
  3950  0E2A  1303               	clrf	(lcd_set_cursor@b)
  3951  0E2B  01A4               	incf	(lcd_set_cursor@b),f
  3952  0E2C  0AA4               	movlw	low(02h)
  3953  0E2D  3002               	fcall	_lcd_set_cursor
  3954  0E2E  160A  118A  223C  120A  158A  	line	176
  3955                           	
  3956                           l3000:	
  3957  0E33                     ;Proyecto1_master.c: 176:         if(unidades==10){
  3958                           		movlw	10
  3959  0E33  300A               	bsf	status, 5	;RP0=1, select bank1
  3960  0E34  1683               	bcf	status, 6	;RP1=0, select bank1
  3961  0E35  1303               	xorwf	((_unidades)^080h),w
  3962  0E36  0629               	btfss	status,2
  3963  0E37  1D03               	goto	u3481
  3964  0E38  2E3A               	goto	u3480
  3965  0E39  2E3B               u3481:
  3966  0E3A                     	goto	l3006
  3967  0E3A  2E45               u3480:
  3968  0E3B                     	line	177
  3969                           	
  3970                           l3002:	
  3971  0E3B                     ;Proyecto1_master.c: 177:             decenas++;
  3972                           	movlw	low(01h)
  3973  0E3B  3001               	bcf	status, 5	;RP0=0, select bank0
  3974  0E3C  1283               	bcf	status, 6	;RP1=0, select bank0
  3975  0E3D  1303               	movwf	(??_boton_lcd+0)+0
  3976  0E3E  00EC               	movf	(??_boton_lcd+0)+0,w
  3977  0E3F  086C               	bsf	status, 5	;RP0=1, select bank1
  3978  0E40  1683               	bcf	status, 6	;RP1=0, select bank1
  3979  0E41  1303               	addwf	(_decenas)^080h,f
  3980  0E42  07A8               	line	178
  3981                           	
  3982                           l3004:	
  3983  0E43                     ;Proyecto1_master.c: 178:             unidades=0;
  3984                           	clrf	(_unidades)^080h
  3985  0E43  01A9               	goto	l3006
  3986  0E44  2E45               	line	180
  3987                           ;Proyecto1_master.c: 180:         }
  3988                           	
  3989                           l175:	
  3990  0E45                     	line	181
  3991                           	
  3992                           l3006:	
  3993  0E45                     ;Proyecto1_master.c: 181:         if(decenas==10){
  3994                           		movlw	10
  3995  0E45  300A               	xorwf	((_decenas)^080h),w
  3996  0E46  0628               	btfss	status,2
  3997  0E47  1D03               	goto	u3491
  3998  0E48  2E4A               	goto	u3490
  3999  0E49  2E4B               u3491:
  4000  0E4A                     	goto	l3010
  4001  0E4A  2E4E               u3490:
  4002  0E4B                     	line	182
  4003                           	
  4004                           l3008:	
  4005  0E4B                     ;Proyecto1_master.c: 182:             unidades=0;
  4006                           	clrf	(_unidades)^080h
  4007  0E4B  01A9               	line	183
  4008                           ;Proyecto1_master.c: 183:             decenas=0;
  4009                           	clrf	(_decenas)^080h
  4010  0E4C  01A8               	goto	l3010
  4011  0E4D  2E4E               	line	184
  4012                           ;Proyecto1_master.c: 184:         }
  4013                           	
  4014                           l176:	
  4015  0E4E                     	line	186
  4016                           	
  4017                           l3010:	
  4018  0E4E                     ;Proyecto1_master.c: 186:         lcd_write_char(decenas+48);
  4019                           	movf	(_decenas)^080h,w
  4020  0E4E  0828               	addlw	030h
  4021  0E4F  3E30               	fcall	_lcd_write_char
  4022  0E50  160A  118A  2220  120A  158A  	line	187
  4023                           	
  4024                           l3012:	
  4025  0E55                     ;Proyecto1_master.c: 187:         lcd_write_char(unidades+48);
  4026                           	bsf	status, 5	;RP0=1, select bank1
  4027  0E55  1683               	bcf	status, 6	;RP1=0, select bank1
  4028  0E56  1303               	movf	(_unidades)^080h,w
  4029  0E57  0829               	addlw	030h
  4030  0E58  3E30               	fcall	_lcd_write_char
  4031  0E59  160A  118A  2220  120A  158A  	line	189
  4032                           ;Proyecto1_master.c: 189:     }else if (modo==2){
  4033                           	goto	l185
  4034  0E5E  2ED7               	
  4035                           l174:	
  4036  0E5F                     	
  4037                           l3014:	
  4038  0E5F                     		movlw	2
  4039  0E5F  3002               	bsf	status, 5	;RP0=1, select bank1
  4040  0E60  1683               	bcf	status, 6	;RP1=0, select bank1
  4041  0E61  1303               	xorwf	((_modo)^080h),w
  4042  0E62  062E               	btfss	status,2
  4043  0E63  1D03               	goto	u3501
  4044  0E64  2E66               	goto	u3500
  4045  0E65  2E67               u3501:
  4046  0E66                     	goto	l3022
  4047  0E66  2E82               u3500:
  4048  0E67                     	line	190
  4049                           	
  4050                           l3016:	
  4051  0E67                     ;Proyecto1_master.c: 190:         lcd_set_cursor(1, 1);
  4052                           	bcf	status, 5	;RP0=0, select bank0
  4053  0E67  1283               	bcf	status, 6	;RP1=0, select bank0
  4054  0E68  1303               	clrf	(lcd_set_cursor@b)
  4055  0E69  01A4               	incf	(lcd_set_cursor@b),f
  4056  0E6A  0AA4               	movlw	low(01h)
  4057  0E6B  3001               	fcall	_lcd_set_cursor
  4058  0E6C  160A  118A  223C  120A  158A  	line	191
  4059                           	
  4060                           l3018:	
  4061  0E71                     ;Proyecto1_master.c: 191:         lcd_write_string("Temperatura:");
  4062                           	movlw	(low((((STR_6)-__stringbase)|8000h)))&0ffh
  4063  0E71  3020               	bcf	status, 5	;RP0=0, select bank0
  4064  0E72  1283               	bcf	status, 6	;RP1=0, select bank0
  4065  0E73  1303               	movwf	(lcd_write_string@a)
  4066  0E74  00A4               	movlw	80h
  4067  0E75  3080               	movwf	(lcd_write_string@a+1)
  4068  0E76  00A5               	fcall	_lcd_write_string
  4069  0E77  160A  118A  2536  120A  158A  	line	192
  4070                           	
  4071                           l3020:	
  4072  0E7C                     ;Proyecto1_master.c: 192:         slave_1();
  4073                           	fcall	_slave_1
  4074  0E7C  120A  158A  26D8  120A  158A  	line	194
  4075                           ;Proyecto1_master.c: 194:     }else if (modo==3){
  4076                           	goto	l185
  4077  0E81  2ED7               	
  4078                           l178:	
  4079  0E82                     	
  4080                           l3022:	
  4081  0E82                     		movlw	3
  4082  0E82  3003               	bsf	status, 5	;RP0=1, select bank1
  4083  0E83  1683               	bcf	status, 6	;RP1=0, select bank1
  4084  0E84  1303               	xorwf	((_modo)^080h),w
  4085  0E85  062E               	btfss	status,2
  4086  0E86  1D03               	goto	u3511
  4087  0E87  2E89               	goto	u3510
  4088  0E88  2E8A               u3511:
  4089  0E89                     	goto	l3030
  4090  0E89  2EA5               u3510:
  4091  0E8A                     	line	195
  4092                           	
  4093                           l3024:	
  4094  0E8A                     ;Proyecto1_master.c: 195:         lcd_set_cursor(1, 1);
  4095                           	bcf	status, 5	;RP0=0, select bank0
  4096  0E8A  1283               	bcf	status, 6	;RP1=0, select bank0
  4097  0E8B  1303               	clrf	(lcd_set_cursor@b)
  4098  0E8C  01A4               	incf	(lcd_set_cursor@b),f
  4099  0E8D  0AA4               	movlw	low(01h)
  4100  0E8E  3001               	fcall	_lcd_set_cursor
  4101  0E8F  160A  118A  223C  120A  158A  	line	196
  4102                           	
  4103                           l3026:	
  4104  0E94                     ;Proyecto1_master.c: 196:         lcd_write_string("Temblor:");
  4105                           	movlw	(low((((STR_7)-__stringbase)|8000h)))&0ffh
  4106  0E94  3040               	bcf	status, 5	;RP0=0, select bank0
  4107  0E95  1283               	bcf	status, 6	;RP1=0, select bank0
  4108  0E96  1303               	movwf	(lcd_write_string@a)
  4109  0E97  00A4               	movlw	80h
  4110  0E98  3080               	movwf	(lcd_write_string@a+1)
  4111  0E99  00A5               	fcall	_lcd_write_string
  4112  0E9A  160A  118A  2536  120A  158A  	line	197
  4113                           	
  4114                           l3028:	
  4115  0E9F                     ;Proyecto1_master.c: 197:         slave_2();
  4116                           	fcall	_slave_2
  4117  0E9F  160A  118A  2788  120A  158A  	line	198
  4118                           ;Proyecto1_master.c: 198:     }else if (modo==4){
  4119                           	goto	l185
  4120  0EA4  2ED7               	
  4121                           l180:	
  4122  0EA5                     	
  4123                           l3030:	
  4124  0EA5                     		movlw	4
  4125  0EA5  3004               	bsf	status, 5	;RP0=1, select bank1
  4126  0EA6  1683               	bcf	status, 6	;RP1=0, select bank1
  4127  0EA7  1303               	xorwf	((_modo)^080h),w
  4128  0EA8  062E               	btfss	status,2
  4129  0EA9  1D03               	goto	u3521
  4130  0EAA  2EAC               	goto	u3520
  4131  0EAB  2EAD               u3521:
  4132  0EAC                     	goto	l3038
  4133  0EAC  2EC8               u3520:
  4134  0EAD                     	line	199
  4135                           	
  4136                           l3032:	
  4137  0EAD                     ;Proyecto1_master.c: 199:         lcd_set_cursor(1, 1);
  4138                           	bcf	status, 5	;RP0=0, select bank0
  4139  0EAD  1283               	bcf	status, 6	;RP1=0, select bank0
  4140  0EAE  1303               	clrf	(lcd_set_cursor@b)
  4141  0EAF  01A4               	incf	(lcd_set_cursor@b),f
  4142  0EB0  0AA4               	movlw	low(01h)
  4143  0EB1  3001               	fcall	_lcd_set_cursor
  4144  0EB2  160A  118A  223C  120A  158A  	line	200
  4145                           	
  4146                           l3034:	
  4147  0EB7                     ;Proyecto1_master.c: 200:         lcd_write_string("Humo:");
  4148                           	movlw	(low((((STR_8)-__stringbase)|8000h)))&0ffh
  4149  0EB7  305F               	bcf	status, 5	;RP0=0, select bank0
  4150  0EB8  1283               	bcf	status, 6	;RP1=0, select bank0
  4151  0EB9  1303               	movwf	(lcd_write_string@a)
  4152  0EBA  00A4               	movlw	80h
  4153  0EBB  3080               	movwf	(lcd_write_string@a+1)
  4154  0EBC  00A5               	fcall	_lcd_write_string
  4155  0EBD  160A  118A  2536  120A  158A  	line	201
  4156                           	
  4157                           l3036:	
  4158  0EC2                     ;Proyecto1_master.c: 201:         slave_3();
  4159                           	fcall	_slave_3
  4160  0EC2  160A  118A  2715  120A  158A  	line	203
  4161                           ;Proyecto1_master.c: 203:     }else if(modo>4){
  4162                           	goto	l185
  4163  0EC7  2ED7               	
  4164                           l182:	
  4165  0EC8                     	
  4166                           l3038:	
  4167  0EC8                     	movlw	low(05h)
  4168  0EC8  3005               	bsf	status, 5	;RP0=1, select bank1
  4169  0EC9  1683               	bcf	status, 6	;RP1=0, select bank1
  4170  0ECA  1303               	subwf	(_modo)^080h,w
  4171  0ECB  022E               	skipc
  4172  0ECC  1C03               	goto	u3531
  4173  0ECD  2ECF               	goto	u3530
  4174  0ECE  2ED0               u3531:
  4175  0ECF                     	goto	l185
  4176  0ECF  2ED7               u3530:
  4177  0ED0                     	line	204
  4178                           	
  4179                           l3040:	
  4180  0ED0                     ;Proyecto1_master.c: 204:         modo=0;
  4181                           	clrf	(_modo)^080h
  4182  0ED0  01AE               	goto	l185
  4183  0ED1  2ED7               	line	205
  4184                           ;Proyecto1_master.c: 205:     }
  4185                           	
  4186                           l184:	
  4187  0ED2                     	goto	l185
  4188  0ED2  2ED7               	
  4189                           l183:	
  4190  0ED3                     	goto	l185
  4191  0ED3  2ED7               	
  4192                           l181:	
  4193  0ED4                     	goto	l185
  4194  0ED4  2ED7               	
  4195                           l179:	
  4196  0ED5                     	goto	l185
  4197  0ED5  2ED7               	
  4198                           l177:	
  4199  0ED6                     	goto	l185
  4200  0ED6  2ED7               	
  4201                           l173:	
  4202  0ED7                     	line	206
  4203                           	
  4204                           l185:	
  4205  0ED7                     	return
  4206  0ED7  0008               	opt stack 0
  4207                           GLOBAL	__end_of_boton_lcd
  4208                           	__end_of_boton_lcd:
  4209  0ED8                     	signat	_boton_lcd,89
  4210                           	global	_slave_3
  4211                           
  4212 ;; *************** function _slave_3 *****************
  4213 ;; Defined at:
  4214 ;;		line 452 in file "Proyecto1_master.c"
  4215 ;; Parameters:    Size  Location     Type
  4216 ;;		None
  4217 ;; Auto vars:     Size  Location     Type
  4218 ;;		None
  4219 ;; Return value:  Size  Location     Type
  4220 ;;                  1    wreg      void 
  4221 ;; Registers used:
  4222 ;;		wreg, fsr0l, fsr0h, status,2, status,0, btemp+1, pclath, cstack
  4223 ;; Tracked objects:
  4224 ;;		On entry : 0/0
  4225 ;;		On exit  : 0/0
  4226 ;;		Unchanged: 0/0
  4227 ;; Data sizes:     COMMON   BANK0   BANK1   BANK3   BANK2
  4228 ;;      Params:         0       0       0       0       0
  4229 ;;      Locals:         0       0       0       0       0
  4230 ;;      Temps:          0       3       0       0       0
  4231 ;;      Totals:         0       3       0       0       0
  4232 ;;Total ram usage:        3 bytes
  4233 ;; Hardware stack levels used:    1
  4234 ;; Hardware stack levels required when called:    7
  4235 ;; This function calls:
  4236 ;;		_I2C_Master_Read
  4237 ;;		_I2C_Master_Start
  4238 ;;		_I2C_Master_Stop
  4239 ;;		_I2C_Master_Write
  4240 ;;		_lcd_set_cursor
  4241 ;;		_lcd_write_string
  4242 ;; This function is called by:
  4243 ;;		_boton_lcd
  4244 ;; This function uses a non-reentrant model
  4245 ;;
  4246                           psect	text10,local,class=CODE,delta=2,merge=1,group=0
  4247                           	line	452
  4248                           global __ptext10
  4249                           __ptext10:	;psect for function _slave_3
  4250  1715                     psect	text10
  4251                           	file	"Proyecto1_master.c"
  4252                           	line	452
  4253                           	global	__size_of_slave_3
  4254                           	__size_of_slave_3	equ	__end_of_slave_3-_slave_3
  4255  0073                     	
  4256                           _slave_3:	
  4257  1715                     ;incstack = 0
  4258 ;; hardware stack exceeded
  4259                           	opt	stack 0
  4260                           ; Regs used in _slave_3: [wreg-fsr0h+status,2+status,0+btemp+1+pclath+cstack]
  4261                           	line	453
  4262                           	
  4263                           l2862:	
  4264  1715                     ;Proyecto1_master.c: 453:         I2C_Master_Start();
  4265                           	fcall	_I2C_Master_Start
  4266  1715  160A  118A  217F  160A  118A  	line	454
  4267                           ;Proyecto1_master.c: 454:         I2C_Master_Write(0x31);
  4268                           	movlw	031h
  4269  171A  3031               	bcf	status, 5	;RP0=0, select bank0
  4270  171B  1283               	bcf	status, 6	;RP1=0, select bank0
  4271  171C  1303               	movwf	(I2C_Master_Write@d)
  4272  171D  00AD               	movlw	0
  4273  171E  3000               	movwf	((I2C_Master_Write@d))+1
  4274  171F  00AE               	fcall	_I2C_Master_Write
  4275  1720  160A  118A  2191  160A  118A  	line	455
  4276                           ;Proyecto1_master.c: 455:         humo = I2C_Master_Read(0);
  4277                           	movlw	0
  4278  1725  3000               	bcf	status, 5	;RP0=0, select bank0
  4279  1726  1283               	bcf	status, 6	;RP1=0, select bank0
  4280  1727  1303               	movwf	(I2C_Master_Read@a)
  4281  1728  00A0               	movwf	(I2C_Master_Read@a+1)
  4282  1729  00A1               	fcall	_I2C_Master_Read
  4283  172A  160A  118A  233D  160A  118A  	bcf	status, 5	;RP0=0, select bank0
  4284  172F  1283               	bcf	status, 6	;RP1=0, select bank0
  4285  1730  1303               	movf	(0+(?_I2C_Master_Read)),w
  4286  1731  0820               	movwf	(??_slave_3+0)+0
  4287  1732  00AF               	movf	(??_slave_3+0)+0,w
  4288  1733  082F               	bsf	status, 5	;RP0=1, select bank1
  4289  1734  1683               	bcf	status, 6	;RP1=0, select bank1
  4290  1735  1303               	movwf	(_humo)^080h
  4291  1736  00AA               	line	456
  4292                           ;Proyecto1_master.c: 456:         I2C_Master_Stop();
  4293                           	fcall	_I2C_Master_Stop
  4294  1737  160A  118A  2188  160A  118A  	line	457
  4295                           	
  4296                           l2864:	
  4297  173C                     ;Proyecto1_master.c: 457:         _delay((unsigned long)((5)*(8000000/4000.0)));
  4298                           	opt asmopt_push
  4299                           opt asmopt_off
  4300                           movlw	13
  4301  173C  300D               	bcf	status, 5	;RP0=0, select bank0
  4302  173D  1283               	bcf	status, 6	;RP1=0, select bank0
  4303  173E  1303               movwf	((??_slave_3+0)+0+1),f
  4304  173F  00B0               	movlw	251
  4305  1740  30FB               movwf	((??_slave_3+0)+0),f
  4306  1741  00AF               	u3777:
  4307  1742                     decfsz	((??_slave_3+0)+0),f
  4308  1742  0BAF               	goto	u3777
  4309  1743  2F42               	decfsz	((??_slave_3+0)+0+1),f
  4310  1744  0BB0               	goto	u3777
  4311  1745  2F42               opt asmopt_pop
  4312                           
  4313                           	line	459
  4314                           	
  4315                           l2866:	
  4316  1746                     ;Proyecto1_master.c: 459:         if (humo == 1){
  4317                           	bsf	status, 5	;RP0=1, select bank1
  4318  1746  1683               	bcf	status, 6	;RP1=0, select bank1
  4319  1747  1303               		decf	((_humo)^080h),w
  4320  1748  032A               	btfss	status,2
  4321  1749  1D03               	goto	u3371
  4322  174A  2F4C               	goto	u3370
  4323  174B  2F4D               u3371:
  4324  174C                     	goto	l2874
  4325  174C  2F71               u3370:
  4326  174D                     	line	460
  4327                           	
  4328                           l2868:	
  4329  174D                     ;Proyecto1_master.c: 460:         lcd_set_cursor(2, 1);
  4330                           	bcf	status, 5	;RP0=0, select bank0
  4331  174D  1283               	bcf	status, 6	;RP1=0, select bank0
  4332  174E  1303               	clrf	(lcd_set_cursor@b)
  4333  174F  01A4               	incf	(lcd_set_cursor@b),f
  4334  1750  0AA4               	movlw	low(02h)
  4335  1751  3002               	fcall	_lcd_set_cursor
  4336  1752  160A  118A  223C  160A  118A  	line	461
  4337                           	
  4338                           l2870:	
  4339  1757                     ;Proyecto1_master.c: 461:         lcd_write_string("Presente");
  4340                           	movlw	(low((((STR_16)-__stringbase)|8000h)))&0ffh
  4341  1757  3049               	bcf	status, 5	;RP0=0, select bank0
  4342  1758  1283               	bcf	status, 6	;RP1=0, select bank0
  4343  1759  1303               	movwf	(lcd_write_string@a)
  4344  175A  00A4               	movlw	80h
  4345  175B  3080               	movwf	(lcd_write_string@a+1)
  4346  175C  00A5               	fcall	_lcd_write_string
  4347  175D  160A  118A  2536  160A  118A  	line	462
  4348                           	
  4349                           l2872:	
  4350  1762                     ;Proyecto1_master.c: 462:         _delay((unsigned long)((5000)*(8000000/4000.0)));
  4351                           	opt asmopt_push
  4352                           opt asmopt_off
  4353                           movlw  51
  4354  1762  3033               	bcf	status, 5	;RP0=0, select bank0
  4355  1763  1283               	bcf	status, 6	;RP1=0, select bank0
  4356  1764  1303               movwf	((??_slave_3+0)+0+2),f
  4357  1765  00B1               movlw	187
  4358  1766  30BB               movwf	((??_slave_3+0)+0+1),f
  4359  1767  00B0               	movlw	223
  4360  1768  30DF               movwf	((??_slave_3+0)+0),f
  4361  1769  00AF               	u3787:
  4362  176A                     decfsz	((??_slave_3+0)+0),f
  4363  176A  0BAF               	goto	u3787
  4364  176B  2F6A               	decfsz	((??_slave_3+0)+0+1),f
  4365  176C  0BB0               	goto	u3787
  4366  176D  2F6A               	decfsz	((??_slave_3+0)+0+2),f
  4367  176E  0BB1               	goto	u3787
  4368  176F  2F6A               opt asmopt_pop
  4369                           
  4370                           	line	465
  4371                           ;Proyecto1_master.c: 465:         }
  4372                           	goto	l245
  4373  1770  2F87               	line	466
  4374                           ;Proyecto1_master.c: 466:         else {
  4375                           	
  4376                           l243:	
  4377  1771                     	line	468
  4378                           	
  4379                           l2874:	
  4380  1771                     ;Proyecto1_master.c: 468:         lcd_set_cursor(2, 1);
  4381                           	bcf	status, 5	;RP0=0, select bank0
  4382  1771  1283               	bcf	status, 6	;RP1=0, select bank0
  4383  1772  1303               	clrf	(lcd_set_cursor@b)
  4384  1773  01A4               	incf	(lcd_set_cursor@b),f
  4385  1774  0AA4               	movlw	low(02h)
  4386  1775  3002               	fcall	_lcd_set_cursor
  4387  1776  160A  118A  223C  160A  118A  	line	469
  4388                           	
  4389                           l2876:	
  4390  177B                     ;Proyecto1_master.c: 469:         lcd_write_string("Ausente ");
  4391                           	movlw	(low((((STR_17)-__stringbase)|8000h)))&0ffh
  4392  177B  3037               	bcf	status, 5	;RP0=0, select bank0
  4393  177C  1283               	bcf	status, 6	;RP1=0, select bank0
  4394  177D  1303               	movwf	(lcd_write_string@a)
  4395  177E  00A4               	movlw	80h
  4396  177F  3080               	movwf	(lcd_write_string@a+1)
  4397  1780  00A5               	fcall	_lcd_write_string
  4398  1781  160A  118A  2536  160A  118A  	goto	l245
  4399  1786  2F87               	line	471
  4400                           ;Proyecto1_master.c: 471:         }
  4401                           	
  4402                           l244:	
  4403  1787                     	line	472
  4404                           	
  4405                           l245:	
  4406  1787                     	return
  4407  1787  0008               	opt stack 0
  4408                           GLOBAL	__end_of_slave_3
  4409                           	__end_of_slave_3:
  4410  1788                     	signat	_slave_3,89
  4411                           	global	_slave_2
  4412                           
  4413 ;; *************** function _slave_2 *****************
  4414 ;; Defined at:
  4415 ;;		line 430 in file "Proyecto1_master.c"
  4416 ;; Parameters:    Size  Location     Type
  4417 ;;		None
  4418 ;; Auto vars:     Size  Location     Type
  4419 ;;		None
  4420 ;; Return value:  Size  Location     Type
  4421 ;;                  1    wreg      void 
  4422 ;; Registers used:
  4423 ;;		wreg, fsr0l, fsr0h, status,2, status,0, btemp+1, pclath, cstack
  4424 ;; Tracked objects:
  4425 ;;		On entry : 0/0
  4426 ;;		On exit  : 0/0
  4427 ;;		Unchanged: 0/0
  4428 ;; Data sizes:     COMMON   BANK0   BANK1   BANK3   BANK2
  4429 ;;      Params:         0       0       0       0       0
  4430 ;;      Locals:         0       0       0       0       0
  4431 ;;      Temps:          0       3       0       0       0
  4432 ;;      Totals:         0       3       0       0       0
  4433 ;;Total ram usage:        3 bytes
  4434 ;; Hardware stack levels used:    1
  4435 ;; Hardware stack levels required when called:    7
  4436 ;; This function calls:
  4437 ;;		_I2C_Master_Read
  4438 ;;		_I2C_Master_Start
  4439 ;;		_I2C_Master_Stop
  4440 ;;		_I2C_Master_Write
  4441 ;;		_lcd_clear
  4442 ;;		_lcd_set_cursor
  4443 ;;		_lcd_write_string
  4444 ;; This function is called by:
  4445 ;;		_boton_lcd
  4446 ;; This function uses a non-reentrant model
  4447 ;;
  4448                           psect	text11,local,class=CODE,delta=2,merge=1,group=0
  4449                           	line	430
  4450                           global __ptext11
  4451                           __ptext11:	;psect for function _slave_2
  4452  1788                     psect	text11
  4453                           	file	"Proyecto1_master.c"
  4454                           	line	430
  4455                           	global	__size_of_slave_2
  4456                           	__size_of_slave_2	equ	__end_of_slave_2-_slave_2
  4457  0078                     	
  4458                           _slave_2:	
  4459  1788                     ;incstack = 0
  4460 ;; hardware stack exceeded
  4461                           	opt	stack 0
  4462                           ; Regs used in _slave_2: [wreg-fsr0h+status,2+status,0+btemp+1+pclath+cstack]
  4463                           	line	431
  4464                           	
  4465                           l2844:	
  4466  1788                     ;Proyecto1_master.c: 431:     I2C_Master_Start();
  4467                           	fcall	_I2C_Master_Start
  4468  1788  160A  118A  217F  160A  118A  	line	432
  4469                           ;Proyecto1_master.c: 432:     I2C_Master_Write(0x21);
  4470                           	movlw	021h
  4471  178D  3021               	bcf	status, 5	;RP0=0, select bank0
  4472  178E  1283               	bcf	status, 6	;RP1=0, select bank0
  4473  178F  1303               	movwf	(I2C_Master_Write@d)
  4474  1790  00AD               	movlw	0
  4475  1791  3000               	movwf	((I2C_Master_Write@d))+1
  4476  1792  00AE               	fcall	_I2C_Master_Write
  4477  1793  160A  118A  2191  160A  118A  	line	433
  4478                           ;Proyecto1_master.c: 433:     sismo = I2C_Master_Read(0);
  4479                           	movlw	0
  4480  1798  3000               	bcf	status, 5	;RP0=0, select bank0
  4481  1799  1283               	bcf	status, 6	;RP1=0, select bank0
  4482  179A  1303               	movwf	(I2C_Master_Read@a)
  4483  179B  00A0               	movwf	(I2C_Master_Read@a+1)
  4484  179C  00A1               	fcall	_I2C_Master_Read
  4485  179D  160A  118A  233D  160A  118A  	bcf	status, 5	;RP0=0, select bank0
  4486  17A2  1283               	bcf	status, 6	;RP1=0, select bank0
  4487  17A3  1303               	movf	(0+(?_I2C_Master_Read)),w
  4488  17A4  0820               	movwf	(??_slave_2+0)+0
  4489  17A5  00AF               	movf	(??_slave_2+0)+0,w
  4490  17A6  082F               	bsf	status, 5	;RP0=1, select bank1
  4491  17A7  1683               	bcf	status, 6	;RP1=0, select bank1
  4492  17A8  1303               	movwf	(_sismo)^080h
  4493  17A9  00AB               	line	434
  4494                           ;Proyecto1_master.c: 434:     I2C_Master_Stop();
  4495                           	fcall	_I2C_Master_Stop
  4496  17AA  160A  118A  2188  160A  118A  	line	435
  4497                           	
  4498                           l2846:	
  4499  17AF                     ;Proyecto1_master.c: 435:     _delay((unsigned long)((5)*(8000000/4000.0)));
  4500                           	opt asmopt_push
  4501                           opt asmopt_off
  4502                           movlw	13
  4503  17AF  300D               	bcf	status, 5	;RP0=0, select bank0
  4504  17B0  1283               	bcf	status, 6	;RP1=0, select bank0
  4505  17B1  1303               movwf	((??_slave_2+0)+0+1),f
  4506  17B2  00B0               	movlw	251
  4507  17B3  30FB               movwf	((??_slave_2+0)+0),f
  4508  17B4  00AF               	u3797:
  4509  17B5                     decfsz	((??_slave_2+0)+0),f
  4510  17B5  0BAF               	goto	u3797
  4511  17B6  2FB5               	decfsz	((??_slave_2+0)+0+1),f
  4512  17B7  0BB0               	goto	u3797
  4513  17B8  2FB5               opt asmopt_pop
  4514                           
  4515                           	line	437
  4516                           	
  4517                           l2848:	
  4518  17B9                     ;Proyecto1_master.c: 437:     if (sismo == 1){
  4519                           	bsf	status, 5	;RP0=1, select bank1
  4520  17B9  1683               	bcf	status, 6	;RP1=0, select bank1
  4521  17BA  1303               		decf	((_sismo)^080h),w
  4522  17BB  032B               	btfss	status,2
  4523  17BC  1D03               	goto	u3361
  4524  17BD  2FBF               	goto	u3360
  4525  17BE  2FC0               u3361:
  4526  17BF                     	goto	l2858
  4527  17BF  2FE9               u3360:
  4528  17C0                     	line	438
  4529                           	
  4530                           l2850:	
  4531  17C0                     ;Proyecto1_master.c: 438:         lcd_set_cursor(2, 1);
  4532                           	bcf	status, 5	;RP0=0, select bank0
  4533  17C0  1283               	bcf	status, 6	;RP1=0, select bank0
  4534  17C1  1303               	clrf	(lcd_set_cursor@b)
  4535  17C2  01A4               	incf	(lcd_set_cursor@b),f
  4536  17C3  0AA4               	movlw	low(02h)
  4537  17C4  3002               	fcall	_lcd_set_cursor
  4538  17C5  160A  118A  223C  160A  118A  	line	439
  4539                           	
  4540                           l2852:	
  4541  17CA                     ;Proyecto1_master.c: 439:         lcd_write_string("Esta temblando!");
  4542                           	movlw	(low((((STR_14)-__stringbase)|8000h)))&0ffh
  4543  17CA  3001               	bcf	status, 5	;RP0=0, select bank0
  4544  17CB  1283               	bcf	status, 6	;RP1=0, select bank0
  4545  17CC  1303               	movwf	(lcd_write_string@a)
  4546  17CD  00A4               	movlw	80h
  4547  17CE  3080               	movwf	(lcd_write_string@a+1)
  4548  17CF  00A5               	fcall	_lcd_write_string
  4549  17D0  160A  118A  2536  160A  118A  	line	440
  4550                           	
  4551                           l2854:	
  4552  17D5                     ;Proyecto1_master.c: 440:         _delay((unsigned long)((5000)*(8000000/4000.0)));
  4553                           	opt asmopt_push
  4554                           opt asmopt_off
  4555                           movlw  51
  4556  17D5  3033               	bcf	status, 5	;RP0=0, select bank0
  4557  17D6  1283               	bcf	status, 6	;RP1=0, select bank0
  4558  17D7  1303               movwf	((??_slave_2+0)+0+2),f
  4559  17D8  00B1               movlw	187
  4560  17D9  30BB               movwf	((??_slave_2+0)+0+1),f
  4561  17DA  00B0               	movlw	223
  4562  17DB  30DF               movwf	((??_slave_2+0)+0),f
  4563  17DC  00AF               	u3807:
  4564  17DD                     decfsz	((??_slave_2+0)+0),f
  4565  17DD  0BAF               	goto	u3807
  4566  17DE  2FDD               	decfsz	((??_slave_2+0)+0+1),f
  4567  17DF  0BB0               	goto	u3807
  4568  17E0  2FDD               	decfsz	((??_slave_2+0)+0+2),f
  4569  17E1  0BB1               	goto	u3807
  4570  17E2  2FDD               opt asmopt_pop
  4571                           
  4572                           	line	441
  4573                           	
  4574                           l2856:	
  4575  17E3                     ;Proyecto1_master.c: 441:         lcd_clear();
  4576                           	fcall	_lcd_clear
  4577  17E3  160A  118A  2161  160A  118A  	line	443
  4578                           ;Proyecto1_master.c: 443:         }
  4579                           	goto	l240
  4580  17E8  2FFF               	line	444
  4581                           ;Proyecto1_master.c: 444:     else {
  4582                           	
  4583                           l238:	
  4584  17E9                     	line	446
  4585                           	
  4586                           l2858:	
  4587  17E9                     ;Proyecto1_master.c: 446:         lcd_set_cursor(2, 1);
  4588                           	bcf	status, 5	;RP0=0, select bank0
  4589  17E9  1283               	bcf	status, 6	;RP1=0, select bank0
  4590  17EA  1303               	clrf	(lcd_set_cursor@b)
  4591  17EB  01A4               	incf	(lcd_set_cursor@b),f
  4592  17EC  0AA4               	movlw	low(02h)
  4593  17ED  3002               	fcall	_lcd_set_cursor
  4594  17EE  160A  118A  223C  160A  118A  	line	447
  4595                           	
  4596                           l2860:	
  4597  17F3                     ;Proyecto1_master.c: 447:         lcd_write_string("Tranquilo prro");
  4598                           	movlw	(low((((STR_15)-__stringbase)|8000h)))&0ffh
  4599  17F3  3011               	bcf	status, 5	;RP0=0, select bank0
  4600  17F4  1283               	bcf	status, 6	;RP1=0, select bank0
  4601  17F5  1303               	movwf	(lcd_write_string@a)
  4602  17F6  00A4               	movlw	80h
  4603  17F7  3080               	movwf	(lcd_write_string@a+1)
  4604  17F8  00A5               	fcall	_lcd_write_string
  4605  17F9  160A  118A  2536  160A  118A  	goto	l240
  4606  17FE  2FFF               	line	449
  4607                           ;Proyecto1_master.c: 449:         }
  4608                           	
  4609                           l239:	
  4610  17FF                     	line	451
  4611                           	
  4612                           l240:	
  4613  17FF                     	return
  4614  17FF  0008               	opt stack 0
  4615                           GLOBAL	__end_of_slave_2
  4616                           	__end_of_slave_2:
  4617  1800                     	signat	_slave_2,89
  4618                           	global	_lcd_clear
  4619                           
  4620 ;; *************** function _lcd_clear *****************
  4621 ;; Defined at:
  4622 ;;		line 105 in file "LCD.c"
  4623 ;; Parameters:    Size  Location     Type
  4624 ;;		None
  4625 ;; Auto vars:     Size  Location     Type
  4626 ;;		None
  4627 ;; Return value:  Size  Location     Type
  4628 ;;                  1    wreg      void 
  4629 ;; Registers used:
  4630 ;;		wreg, status,2, status,0, pclath, cstack
  4631 ;; Tracked objects:
  4632 ;;		On entry : 0/0
  4633 ;;		On exit  : 0/0
  4634 ;;		Unchanged: 0/0
  4635 ;; Data sizes:     COMMON   BANK0   BANK1   BANK3   BANK2
  4636 ;;      Params:         0       0       0       0       0
  4637 ;;      Locals:         0       0       0       0       0
  4638 ;;      Temps:          0       0       0       0       0
  4639 ;;      Totals:         0       0       0       0       0
  4640 ;;Total ram usage:        0 bytes
  4641 ;; Hardware stack levels used:    1
  4642 ;; Hardware stack levels required when called:    6
  4643 ;; This function calls:
  4644 ;;		_lcd_cmd
  4645 ;; This function is called by:
  4646 ;;		_main
  4647 ;;		_slave_2
  4648 ;; This function uses a non-reentrant model
  4649 ;;
  4650                           psect	text12,local,class=CODE,delta=2,merge=1,group=0
  4651                           	file	"LCD.c"
  4652                           	line	105
  4653                           global __ptext12
  4654                           __ptext12:	;psect for function _lcd_clear
  4655  1161                     psect	text12
  4656                           	file	"LCD.c"
  4657                           	line	105
  4658                           	global	__size_of_lcd_clear
  4659                           	__size_of_lcd_clear	equ	__end_of_lcd_clear-_lcd_clear
  4660  0007                     	
  4661                           _lcd_clear:	
  4662  1161                     ;incstack = 0
  4663                           	opt	stack 1
  4664                           ; Regs used in _lcd_clear: [wreg+status,2+status,0+pclath+cstack]
  4665                           	line	107
  4666                           	
  4667                           l2670:	
  4668  1161                     ;LCD.c: 107:     lcd_cmd(0x01);
  4669                           	movlw	low(01h)
  4670  1161  3001               	fcall	_lcd_cmd
  4671  1162  160A  118A  2204  160A  118A  	line	108
  4672                           	
  4673                           l400:	
  4674  1167                     	return
  4675  1167  0008               	opt stack 0
  4676                           GLOBAL	__end_of_lcd_clear
  4677                           	__end_of_lcd_clear:
  4678  1168                     	signat	_lcd_clear,89
  4679                           	global	_slave_1
  4680                           
  4681 ;; *************** function _slave_1 *****************
  4682 ;; Defined at:
  4683 ;;		line 414 in file "Proyecto1_master.c"
  4684 ;; Parameters:    Size  Location     Type
  4685 ;;		None
  4686 ;; Auto vars:     Size  Location     Type
  4687 ;;		None
  4688 ;; Return value:  Size  Location     Type
  4689 ;;                  1    wreg      void 
  4690 ;; Registers used:
  4691 ;;		wreg, fsr0l, fsr0h, status,2, status,0, btemp+1, pclath, cstack
  4692 ;; Tracked objects:
  4693 ;;		On entry : 0/0
  4694 ;;		On exit  : 0/0
  4695 ;;		Unchanged: 0/0
  4696 ;; Data sizes:     COMMON   BANK0   BANK1   BANK3   BANK2
  4697 ;;      Params:         0       0       0       0       0
  4698 ;;      Locals:         0       0       8       0       0
  4699 ;;      Temps:          0       5       0       0       0
  4700 ;;      Totals:         0       5       8       0       0
  4701 ;;Total ram usage:       13 bytes
  4702 ;; Hardware stack levels used:    1
  4703 ;; Hardware stack levels required when called:    7
  4704 ;; This function calls:
  4705 ;;		_I2C_Master_Read
  4706 ;;		_I2C_Master_Start
  4707 ;;		_I2C_Master_Stop
  4708 ;;		_I2C_Master_Write
  4709 ;;		___xxtofl
  4710 ;;		_b0
  4711 ;;		_b1
  4712 ;;		_b2
  4713 ;;		_lcd_set_cursor
  4714 ;;		_lcd_write_char
  4715 ;;		_lcd_write_string
  4716 ;; This function is called by:
  4717 ;;		_boton_lcd
  4718 ;; This function uses a non-reentrant model
  4719 ;;
  4720                           psect	text13,local,class=CODE,delta=2,merge=1,group=0
  4721                           	file	"Proyecto1_master.c"
  4722                           	line	414
  4723                           global __ptext13
  4724                           __ptext13:	;psect for function _slave_1
  4725  0ED8                     psect	text13
  4726                           	file	"Proyecto1_master.c"
  4727                           	line	414
  4728                           	global	__size_of_slave_1
  4729                           	__size_of_slave_1	equ	__end_of_slave_1-_slave_1
  4730  0128                     	
  4731                           _slave_1:	
  4732  0ED8                     ;incstack = 0
  4733 ;; hardware stack exceeded
  4734                           	opt	stack 0
  4735                           ; Regs used in _slave_1: [wreg-fsr0h+status,2+status,0+btemp+1+pclath+cstack]
  4736                           	line	415
  4737                           	
  4738                           l2822:	
  4739  0ED8                     ;Proyecto1_master.c: 415:     I2C_Master_Start();
  4740                           	fcall	_I2C_Master_Start
  4741  0ED8  160A  118A  217F  120A  158A  	line	416
  4742                           ;Proyecto1_master.c: 416:     I2C_Master_Write(0x11);
  4743                           	movlw	011h
  4744  0EDD  3011               	bcf	status, 5	;RP0=0, select bank0
  4745  0EDE  1283               	bcf	status, 6	;RP1=0, select bank0
  4746  0EDF  1303               	movwf	(I2C_Master_Write@d)
  4747  0EE0  00AD               	movlw	0
  4748  0EE1  3000               	movwf	((I2C_Master_Write@d))+1
  4749  0EE2  00AE               	fcall	_I2C_Master_Write
  4750  0EE3  160A  118A  2191  120A  158A  	line	417
  4751                           ;Proyecto1_master.c: 417:     temperatura = I2C_Master_Read(0);
  4752                           	movlw	0
  4753  0EE8  3000               	bcf	status, 5	;RP0=0, select bank0
  4754  0EE9  1283               	bcf	status, 6	;RP1=0, select bank0
  4755  0EEA  1303               	movwf	(I2C_Master_Read@a)
  4756  0EEB  00A0               	movwf	(I2C_Master_Read@a+1)
  4757  0EEC  00A1               	fcall	_I2C_Master_Read
  4758  0EED  160A  118A  233D  120A  158A  	bcf	status, 5	;RP0=0, select bank0
  4759  0EF2  1283               	bcf	status, 6	;RP1=0, select bank0
  4760  0EF3  1303               	movf	(0+(?_I2C_Master_Read)),w
  4761  0EF4  0820               	movwf	(??_slave_1+0)+0
  4762  0EF5  00E7               	movf	(??_slave_1+0)+0,w
  4763  0EF6  0867               	bsf	status, 5	;RP0=1, select bank1
  4764  0EF7  1683               	bcf	status, 6	;RP1=0, select bank1
  4765  0EF8  1303               	movwf	(_temperatura)^080h
  4766  0EF9  00AC               	line	418
  4767                           ;Proyecto1_master.c: 418:     I2C_Master_Stop();
  4768                           	fcall	_I2C_Master_Stop
  4769  0EFA  160A  118A  2188  120A  158A  	line	419
  4770                           	
  4771                           l2824:	
  4772  0EFF                     ;Proyecto1_master.c: 419:     _delay((unsigned long)((200)*(8000000/4000.0)));
  4773                           	opt asmopt_push
  4774                           opt asmopt_off
  4775                           movlw  3
  4776  0EFF  3003               	bcf	status, 5	;RP0=0, select bank0
  4777  0F00  1283               	bcf	status, 6	;RP1=0, select bank0
  4778  0F01  1303               movwf	((??_slave_1+0)+0+2),f
  4779  0F02  00E9               movlw	8
  4780  0F03  3008               movwf	((??_slave_1+0)+0+1),f
  4781  0F04  00E8               	movlw	118
  4782  0F05  3076               movwf	((??_slave_1+0)+0),f
  4783  0F06  00E7               	u3817:
  4784  0F07                     decfsz	((??_slave_1+0)+0),f
  4785  0F07  0BE7               	goto	u3817
  4786  0F08  2F07               	decfsz	((??_slave_1+0)+0+1),f
  4787  0F09  0BE8               	goto	u3817
  4788  0F0A  2F07               	decfsz	((??_slave_1+0)+0+2),f
  4789  0F0B  0BE9               	goto	u3817
  4790  0F0C  2F07               	nop
  4791  0F0D  0000               opt asmopt_pop
  4792                           
  4793                           	line	421
  4794                           	
  4795                           l2826:	
  4796  0F0E                     ;Proyecto1_master.c: 421:     lcd_set_cursor(2, 1);
  4797                           	bcf	status, 5	;RP0=0, select bank0
  4798  0F0E  1283               	bcf	status, 6	;RP1=0, select bank0
  4799  0F0F  1303               	clrf	(lcd_set_cursor@b)
  4800  0F10  01A4               	incf	(lcd_set_cursor@b),f
  4801  0F11  0AA4               	movlw	low(02h)
  4802  0F12  3002               	fcall	_lcd_set_cursor
  4803  0F13  160A  118A  223C  120A  158A  	line	422
  4804                           	
  4805                           l2828:	
  4806  0F18                     ;Proyecto1_master.c: 422:     s1[2] = b0(temperatura);
  4807                           	bsf	status, 5	;RP0=1, select bank1
  4808  0F18  1683               	bcf	status, 6	;RP1=0, select bank1
  4809  0F19  1303               	movf	(_temperatura)^080h,w
  4810  0F1A  082C               	bcf	status, 5	;RP0=0, select bank0
  4811  0F1B  1283               	bcf	status, 6	;RP1=0, select bank0
  4812  0F1C  1303               	movwf	(??_slave_1+0)+0
  4813  0F1D  00E7               	clrf	(??_slave_1+0)+0+1
  4814  0F1E  01E8               	clrf	(??_slave_1+0)+0+2
  4815  0F1F  01E9               	clrf	(??_slave_1+0)+0+3
  4816  0F20  01EA               	movf	3+(??_slave_1+0)+0,w
  4817  0F21  086A               	movwf	(___xxtofl@val+3)
  4818  0F22  00A9               	movf	2+(??_slave_1+0)+0,w
  4819  0F23  0869               	movwf	(___xxtofl@val+2)
  4820  0F24  00A8               	movf	1+(??_slave_1+0)+0,w
  4821  0F25  0868               	movwf	(___xxtofl@val+1)
  4822  0F26  00A7               	movf	0+(??_slave_1+0)+0,w
  4823  0F27  0867               	movwf	(___xxtofl@val)
  4824  0F28  00A6               
  4825                           	movlw	low(0)
  4826  0F29  3000               	fcall	___xxtofl
  4827  0F2A  120A  158A  2446  120A  158A  	bcf	status, 5	;RP0=0, select bank0
  4828  0F2F  1283               	bcf	status, 6	;RP1=0, select bank0
  4829  0F30  1303               	movf	(3+(?___xxtofl)),w
  4830  0F31  0829               	bsf	status, 5	;RP0=1, select bank1
  4831  0F32  1683               	bcf	status, 6	;RP1=0, select bank1
  4832  0F33  1303               	movwf	(_slave_1$1192+3)^080h
  4833  0F34  00CB               	bcf	status, 5	;RP0=0, select bank0
  4834  0F35  1283               	bcf	status, 6	;RP1=0, select bank0
  4835  0F36  1303               	movf	(2+(?___xxtofl)),w
  4836  0F37  0828               	bsf	status, 5	;RP0=1, select bank1
  4837  0F38  1683               	bcf	status, 6	;RP1=0, select bank1
  4838  0F39  1303               	movwf	(_slave_1$1192+2)^080h
  4839  0F3A  00CA               	bcf	status, 5	;RP0=0, select bank0
  4840  0F3B  1283               	bcf	status, 6	;RP1=0, select bank0
  4841  0F3C  1303               	movf	(1+(?___xxtofl)),w
  4842  0F3D  0827               	bsf	status, 5	;RP0=1, select bank1
  4843  0F3E  1683               	bcf	status, 6	;RP1=0, select bank1
  4844  0F3F  1303               	movwf	(_slave_1$1192+1)^080h
  4845  0F40  00C9               	bcf	status, 5	;RP0=0, select bank0
  4846  0F41  1283               	bcf	status, 6	;RP1=0, select bank0
  4847  0F42  1303               	movf	(0+(?___xxtofl)),w
  4848  0F43  0826               	bsf	status, 5	;RP0=1, select bank1
  4849  0F44  1683               	bcf	status, 6	;RP1=0, select bank1
  4850  0F45  1303               	movwf	(_slave_1$1192)^080h
  4851  0F46  00C8               
  4852                           	
  4853                           l2830:	
  4854  0F47                     ;Proyecto1_master.c: 422:     s1[2] = b0(temperatura);
  4855                           	movf	(_slave_1$1192+3)^080h,w
  4856  0F47  084B               	bcf	status, 5	;RP0=0, select bank0
  4857  0F48  1283               	bcf	status, 6	;RP1=0, select bank0
  4858  0F49  1303               	movwf	(b0@m+3)
  4859  0F4A  00DE               	bsf	status, 5	;RP0=1, select bank1
  4860  0F4B  1683               	bcf	status, 6	;RP1=0, select bank1
  4861  0F4C  1303               	movf	(_slave_1$1192+2)^080h,w
  4862  0F4D  084A               	bcf	status, 5	;RP0=0, select bank0
  4863  0F4E  1283               	bcf	status, 6	;RP1=0, select bank0
  4864  0F4F  1303               	movwf	(b0@m+2)
  4865  0F50  00DD               	bsf	status, 5	;RP0=1, select bank1
  4866  0F51  1683               	bcf	status, 6	;RP1=0, select bank1
  4867  0F52  1303               	movf	(_slave_1$1192+1)^080h,w
  4868  0F53  0849               	bcf	status, 5	;RP0=0, select bank0
  4869  0F54  1283               	bcf	status, 6	;RP1=0, select bank0
  4870  0F55  1303               	movwf	(b0@m+1)
  4871  0F56  00DC               	bsf	status, 5	;RP0=1, select bank1
  4872  0F57  1683               	bcf	status, 6	;RP1=0, select bank1
  4873  0F58  1303               	movf	(_slave_1$1192)^080h,w
  4874  0F59  0848               	bcf	status, 5	;RP0=0, select bank0
  4875  0F5A  1283               	bcf	status, 6	;RP1=0, select bank0
  4876  0F5B  1303               	movwf	(b0@m)
  4877  0F5C  00DB               
  4878                           	fcall	_b0
  4879  0F5D  120A  158A  2388  120A  158A  	bcf	status, 5	;RP0=0, select bank0
  4880  0F62  1283               	bcf	status, 6	;RP1=0, select bank0
  4881  0F63  1303               	movwf	(??_slave_1+0)+0
  4882  0F64  00E7               	movf	(??_slave_1+0)+0,w
  4883  0F65  0867               	bsf	status, 5	;RP0=1, select bank1
  4884  0F66  1683               	bcf	status, 6	;RP1=0, select bank1
  4885  0F67  1303               	movwf	0+(_s1)^080h+02h
  4886  0F68  00BB               	line	423
  4887                           	
  4888                           l2832:	
  4889  0F69                     ;Proyecto1_master.c: 423:     s1[1] = b1(temperatura);
  4890                           	movf	(_temperatura)^080h,w
  4891  0F69  082C               	bcf	status, 5	;RP0=0, select bank0
  4892  0F6A  1283               	bcf	status, 6	;RP1=0, select bank0
  4893  0F6B  1303               	movwf	(??_slave_1+0)+0
  4894  0F6C  00E7               	clrf	(??_slave_1+0)+0+1
  4895  0F6D  01E8               	clrf	(??_slave_1+0)+0+2
  4896  0F6E  01E9               	clrf	(??_slave_1+0)+0+3
  4897  0F6F  01EA               	movf	3+(??_slave_1+0)+0,w
  4898  0F70  086A               	movwf	(___xxtofl@val+3)
  4899  0F71  00A9               	movf	2+(??_slave_1+0)+0,w
  4900  0F72  0869               	movwf	(___xxtofl@val+2)
  4901  0F73  00A8               	movf	1+(??_slave_1+0)+0,w
  4902  0F74  0868               	movwf	(___xxtofl@val+1)
  4903  0F75  00A7               	movf	0+(??_slave_1+0)+0,w
  4904  0F76  0867               	movwf	(___xxtofl@val)
  4905  0F77  00A6               
  4906                           	movlw	low(0)
  4907  0F78  3000               	fcall	___xxtofl
  4908  0F79  120A  158A  2446  120A  158A  	bcf	status, 5	;RP0=0, select bank0
  4909  0F7E  1283               	bcf	status, 6	;RP1=0, select bank0
  4910  0F7F  1303               	movf	(3+(?___xxtofl)),w
  4911  0F80  0829               	bsf	status, 5	;RP0=1, select bank1
  4912  0F81  1683               	bcf	status, 6	;RP1=0, select bank1
  4913  0F82  1303               	movwf	(_slave_1$1193+3)^080h
  4914  0F83  00CF               	bcf	status, 5	;RP0=0, select bank0
  4915  0F84  1283               	bcf	status, 6	;RP1=0, select bank0
  4916  0F85  1303               	movf	(2+(?___xxtofl)),w
  4917  0F86  0828               	bsf	status, 5	;RP0=1, select bank1
  4918  0F87  1683               	bcf	status, 6	;RP1=0, select bank1
  4919  0F88  1303               	movwf	(_slave_1$1193+2)^080h
  4920  0F89  00CE               	bcf	status, 5	;RP0=0, select bank0
  4921  0F8A  1283               	bcf	status, 6	;RP1=0, select bank0
  4922  0F8B  1303               	movf	(1+(?___xxtofl)),w
  4923  0F8C  0827               	bsf	status, 5	;RP0=1, select bank1
  4924  0F8D  1683               	bcf	status, 6	;RP1=0, select bank1
  4925  0F8E  1303               	movwf	(_slave_1$1193+1)^080h
  4926  0F8F  00CD               	bcf	status, 5	;RP0=0, select bank0
  4927  0F90  1283               	bcf	status, 6	;RP1=0, select bank0
  4928  0F91  1303               	movf	(0+(?___xxtofl)),w
  4929  0F92  0826               	bsf	status, 5	;RP0=1, select bank1
  4930  0F93  1683               	bcf	status, 6	;RP1=0, select bank1
  4931  0F94  1303               	movwf	(_slave_1$1193)^080h
  4932  0F95  00CC               
  4933                           	
  4934                           l2834:	
  4935  0F96                     ;Proyecto1_master.c: 423:     s1[1] = b1(temperatura);
  4936                           	movf	(_slave_1$1193+3)^080h,w
  4937  0F96  084F               	bcf	status, 5	;RP0=0, select bank0
  4938  0F97  1283               	bcf	status, 6	;RP1=0, select bank0
  4939  0F98  1303               	movwf	(b1@m+3)
  4940  0F99  00DE               	bsf	status, 5	;RP0=1, select bank1
  4941  0F9A  1683               	bcf	status, 6	;RP1=0, select bank1
  4942  0F9B  1303               	movf	(_slave_1$1193+2)^080h,w
  4943  0F9C  084E               	bcf	status, 5	;RP0=0, select bank0
  4944  0F9D  1283               	bcf	status, 6	;RP1=0, select bank0
  4945  0F9E  1303               	movwf	(b1@m+2)
  4946  0F9F  00DD               	bsf	status, 5	;RP0=1, select bank1
  4947  0FA0  1683               	bcf	status, 6	;RP1=0, select bank1
  4948  0FA1  1303               	movf	(_slave_1$1193+1)^080h,w
  4949  0FA2  084D               	bcf	status, 5	;RP0=0, select bank0
  4950  0FA3  1283               	bcf	status, 6	;RP1=0, select bank0
  4951  0FA4  1303               	movwf	(b1@m+1)
  4952  0FA5  00DC               	bsf	status, 5	;RP0=1, select bank1
  4953  0FA6  1683               	bcf	status, 6	;RP1=0, select bank1
  4954  0FA7  1303               	movf	(_slave_1$1193)^080h,w
  4955  0FA8  084C               	bcf	status, 5	;RP0=0, select bank0
  4956  0FA9  1283               	bcf	status, 6	;RP1=0, select bank0
  4957  0FAA  1303               	movwf	(b1@m)
  4958  0FAB  00DB               
  4959                           	fcall	_b1
  4960  0FAC  120A  158A  222D  120A  158A  	bcf	status, 5	;RP0=0, select bank0
  4961  0FB1  1283               	bcf	status, 6	;RP1=0, select bank0
  4962  0FB2  1303               	movwf	(??_slave_1+0)+0
  4963  0FB3  00E7               	movf	(??_slave_1+0)+0,w
  4964  0FB4  0867               	bsf	status, 5	;RP0=1, select bank1
  4965  0FB5  1683               	bcf	status, 6	;RP1=0, select bank1
  4966  0FB6  1303               	movwf	0+(_s1)^080h+01h
  4967  0FB7  00BA               	line	424
  4968                           	
  4969                           l2836:	
  4970  0FB8                     ;Proyecto1_master.c: 424:     s1[0] = b2(temperatura);
  4971                           	movf	(_temperatura)^080h,w
  4972  0FB8  082C               	bcf	status, 5	;RP0=0, select bank0
  4973  0FB9  1283               	bcf	status, 6	;RP1=0, select bank0
  4974  0FBA  1303               	movwf	(??_slave_1+0)+0
  4975  0FBB  00E7               	clrf	(??_slave_1+0)+0+1
  4976  0FBC  01E8               	clrf	(??_slave_1+0)+0+2
  4977  0FBD  01E9               	clrf	(??_slave_1+0)+0+3
  4978  0FBE  01EA               	movf	3+(??_slave_1+0)+0,w
  4979  0FBF  086A               	movwf	(___xxtofl@val+3)
  4980  0FC0  00A9               	movf	2+(??_slave_1+0)+0,w
  4981  0FC1  0869               	movwf	(___xxtofl@val+2)
  4982  0FC2  00A8               	movf	1+(??_slave_1+0)+0,w
  4983  0FC3  0868               	movwf	(___xxtofl@val+1)
  4984  0FC4  00A7               	movf	0+(??_slave_1+0)+0,w
  4985  0FC5  0867               	movwf	(___xxtofl@val)
  4986  0FC6  00A6               
  4987                           	movlw	low(0)
  4988  0FC7  3000               	fcall	___xxtofl
  4989  0FC8  120A  158A  2446  120A  158A  	bcf	status, 5	;RP0=0, select bank0
  4990  0FCD  1283               	bcf	status, 6	;RP1=0, select bank0
  4991  0FCE  1303               	movf	(3+(?___xxtofl)),w
  4992  0FCF  0829               	movwf	(b2@m+3)
  4993  0FD0  00DE               	movf	(2+(?___xxtofl)),w
  4994  0FD1  0828               	movwf	(b2@m+2)
  4995  0FD2  00DD               	movf	(1+(?___xxtofl)),w
  4996  0FD3  0827               	movwf	(b2@m+1)
  4997  0FD4  00DC               	movf	(0+(?___xxtofl)),w
  4998  0FD5  0826               	movwf	(b2@m)
  4999  0FD6  00DB               
  5000                           	fcall	_b2
  5001  0FD7  160A  118A  2480  120A  158A  	bcf	status, 5	;RP0=0, select bank0
  5002  0FDC  1283               	bcf	status, 6	;RP1=0, select bank0
  5003  0FDD  1303               	movwf	(??_slave_1+4)+0
  5004  0FDE  00EB               	movf	(??_slave_1+4)+0,w
  5005  0FDF  086B               	bsf	status, 5	;RP0=1, select bank1
  5006  0FE0  1683               	bcf	status, 6	;RP1=0, select bank1
  5007  0FE1  1303               	movwf	(_s1)^080h
  5008  0FE2  00B9               	line	425
  5009                           	
  5010                           l2838:	
  5011  0FE3                     ;Proyecto1_master.c: 425:     lcd_write_string(s1);
  5012                           	movlw	(low(_s1|((0x0)<<8))&0ffh)
  5013  0FE3  30B9               	bcf	status, 5	;RP0=0, select bank0
  5014  0FE4  1283               	bcf	status, 6	;RP1=0, select bank0
  5015  0FE5  1303               	movwf	(lcd_write_string@a)
  5016  0FE6  00A4               	movlw	(0x0)
  5017  0FE7  3000               	movwf	(lcd_write_string@a+1)
  5018  0FE8  00A5               	fcall	_lcd_write_string
  5019  0FE9  160A  118A  2536  120A  158A  	line	426
  5020                           	
  5021                           l2840:	
  5022  0FEE                     ;Proyecto1_master.c: 426:     lcd_write_char(223);
  5023                           	movlw	low(0DFh)
  5024  0FEE  30DF               	fcall	_lcd_write_char
  5025  0FEF  160A  118A  2220  120A  158A  	line	427
  5026                           	
  5027                           l2842:	
  5028  0FF4                     ;Proyecto1_master.c: 427:     lcd_write_string("C");
  5029                           	movlw	(low((((STR_13)-__stringbase)|8000h)))&0ffh
  5030  0FF4  3067               	bcf	status, 5	;RP0=0, select bank0
  5031  0FF5  1283               	bcf	status, 6	;RP1=0, select bank0
  5032  0FF6  1303               	movwf	(lcd_write_string@a)
  5033  0FF7  00A4               	movlw	80h
  5034  0FF8  3080               	movwf	(lcd_write_string@a+1)
  5035  0FF9  00A5               	fcall	_lcd_write_string
  5036  0FFA  160A  118A  2536  120A  158A  	line	429
  5037                           	
  5038                           l235:	
  5039  0FFF                     	return
  5040  0FFF  0008               	opt stack 0
  5041                           GLOBAL	__end_of_slave_1
  5042                           	__end_of_slave_1:
  5043  1000                     	signat	_slave_1,89
  5044                           	global	_b2
  5045                           
  5046 ;; *************** function _b2 *****************
  5047 ;; Defined at:
  5048 ;;		line 513 in file "Proyecto1_master.c"
  5049 ;; Parameters:    Size  Location     Type
  5050 ;;  m               4   59[BANK0 ] float 
  5051 ;; Auto vars:     Size  Location     Type
  5052 ;;  local           4    0        float 
  5053 ;;  p2              1   65[BANK0 ] unsigned char 
  5054 ;;  bb2             1   64[BANK0 ] unsigned char 
  5055 ;; Return value:  Size  Location     Type
  5056 ;;                  1    wreg      unsigned char 
  5057 ;; Registers used:
  5058 ;;		wreg, fsr0l, fsr0h, status,2, status,0, btemp+1, pclath, cstack
  5059 ;; Tracked objects:
  5060 ;;		On entry : 0/0
  5061 ;;		On exit  : 0/0
  5062 ;;		Unchanged: 0/0
  5063 ;; Data sizes:     COMMON   BANK0   BANK1   BANK3   BANK2
  5064 ;;      Params:         0       4       0       0       0
  5065 ;;      Locals:         0       2       0       0       0
  5066 ;;      Temps:          0       1       0       0       0
  5067 ;;      Totals:         0       7       0       0       0
  5068 ;;Total ram usage:        7 bytes
  5069 ;; Hardware stack levels used:    1
  5070 ;; Hardware stack levels required when called:    5
  5071 ;; This function calls:
  5072 ;;		___fldiv
  5073 ;;		___fltol
  5074 ;;		_num_case
  5075 ;; This function is called by:
  5076 ;;		_slave_1
  5077 ;; This function uses a non-reentrant model
  5078 ;;
  5079                           psect	text14,local,class=CODE,delta=2,merge=1,group=0
  5080                           	line	513
  5081                           global __ptext14
  5082                           __ptext14:	;psect for function _b2
  5083  1480                     psect	text14
  5084                           	file	"Proyecto1_master.c"
  5085                           	line	513
  5086                           	global	__size_of_b2
  5087                           	__size_of_b2	equ	__end_of_b2-_b2
  5088  003A                     	
  5089                           _b2:	
  5090  1480                     ;incstack = 0
  5091                           	opt	stack 0
  5092                           ; Regs used in _b2: [wreg-fsr0h+status,2+status,0+btemp+1+pclath+cstack]
  5093                           	line	518
  5094                           	
  5095                           l2738:	
  5096  1480                     ;Proyecto1_master.c: 514:     uint8_t bb2;;Proyecto1_master.c: 515:     float local;;Pro
                                 yecto1_master.c: 516:     char p2;;Proyecto1_master.c: 518:     bb2 = m/100;
  5097                           	bcf	status, 5	;RP0=0, select bank0
  5098  1480  1283               	bcf	status, 6	;RP1=0, select bank0
  5099  1481  1303               	movf	(b2@m+3),w
  5100  1482  085E               	movwf	(___fldiv@b+3)
  5101  1483  00A7               	movf	(b2@m+2),w
  5102  1484  085D               	movwf	(___fldiv@b+2)
  5103  1485  00A6               	movf	(b2@m+1),w
  5104  1486  085C               	movwf	(___fldiv@b+1)
  5105  1487  00A5               	movf	(b2@m),w
  5106  1488  085B               	movwf	(___fldiv@b)
  5107  1489  00A4               
  5108                           	movlw	0x42
  5109  148A  3042               	movwf	(___fldiv@a+3)
  5110  148B  00A3               	movlw	0xc8
  5111  148C  30C8               	movwf	(___fldiv@a+2)
  5112  148D  00A2               	movlw	0x0
  5113  148E  3000               	movwf	(___fldiv@a+1)
  5114  148F  00A1               	movlw	0x0
  5115  1490  3000               	movwf	(___fldiv@a)
  5116  1491  00A0               
  5117                           	fcall	___fldiv
  5118  1492  120A  118A  22F5  160A  118A  	bcf	status, 5	;RP0=0, select bank0
  5119  1497  1283               	bcf	status, 6	;RP1=0, select bank0
  5120  1498  1303               	movf	(3+(?___fldiv)),w
  5121  1499  0823               	movwf	(___fltol@f1+3)
  5122  149A  00D3               	movf	(2+(?___fldiv)),w
  5123  149B  0822               	movwf	(___fltol@f1+2)
  5124  149C  00D2               	movf	(1+(?___fldiv)),w
  5125  149D  0821               	movwf	(___fltol@f1+1)
  5126  149E  00D1               	movf	(0+(?___fldiv)),w
  5127  149F  0820               	movwf	(___fltol@f1)
  5128  14A0  00D0               
  5129                           	fcall	___fltol
  5130  14A1  120A  158A  20E7  160A  118A  	bcf	status, 5	;RP0=0, select bank0
  5131  14A6  1283               	bcf	status, 6	;RP1=0, select bank0
  5132  14A7  1303               	movf	(0+(?___fltol)),w
  5133  14A8  0850               	movwf	(??_b2+0)+0
  5134  14A9  00DF               	movf	(??_b2+0)+0,w
  5135  14AA  085F               	movwf	(b2@bb2)
  5136  14AB  00E0               	line	519
  5137                           	
  5138                           l2740:	
  5139  14AC                     ;Proyecto1_master.c: 519:     p2 = num_case(bb2);
  5140                           	movf	(b2@bb2),w
  5141  14AC  0860               	fcall	_num_case
  5142  14AD  160A  118A  25DB  160A  118A  	bcf	status, 5	;RP0=0, select bank0
  5143  14B2  1283               	bcf	status, 6	;RP1=0, select bank0
  5144  14B3  1303               	movwf	(??_b2+0)+0
  5145  14B4  00DF               	movf	(??_b2+0)+0,w
  5146  14B5  085F               	movwf	(b2@p2)
  5147  14B6  00E1               	line	520
  5148                           	
  5149                           l2742:	
  5150  14B7                     ;Proyecto1_master.c: 520:     return p2;
  5151                           	movf	(b2@p2),w
  5152  14B7  0861               	goto	l263
  5153  14B8  2CB9               	
  5154                           l2744:	
  5155  14B9                     	line	521
  5156                           	
  5157                           l263:	
  5158  14B9                     	return
  5159  14B9  0008               	opt stack 0
  5160                           GLOBAL	__end_of_b2
  5161                           	__end_of_b2:
  5162  14BA                     	signat	_b2,4217
  5163                           	global	_b1
  5164                           
  5165 ;; *************** function _b1 *****************
  5166 ;; Defined at:
  5167 ;;		line 523 in file "Proyecto1_master.c"
  5168 ;; Parameters:    Size  Location     Type
  5169 ;;  m               4   59[BANK0 ] float 
  5170 ;; Auto vars:     Size  Location     Type
  5171 ;;  p1              1   69[BANK0 ] unsigned char 
  5172 ;;  local           1   68[BANK0 ] unsigned char 
  5173 ;;  bb1             1   67[BANK0 ] unsigned char 
  5174 ;;  bb2             1   66[BANK0 ] unsigned char 
  5175 ;; Return value:  Size  Location     Type
  5176 ;;                  1    wreg      unsigned char 
  5177 ;; Registers used:
  5178 ;;		wreg, fsr0l, fsr0h, status,2, status,0, btemp+1, pclath, cstack
  5179 ;; Tracked objects:
  5180 ;;		On entry : 0/0
  5181 ;;		On exit  : 0/0
  5182 ;;		Unchanged: 0/0
  5183 ;; Data sizes:     COMMON   BANK0   BANK1   BANK3   BANK2
  5184 ;;      Params:         0       4       0       0       0
  5185 ;;      Locals:         0       4       0       0       0
  5186 ;;      Temps:          0       3       0       0       0
  5187 ;;      Totals:         0      11       0       0       0
  5188 ;;Total ram usage:       11 bytes
  5189 ;; Hardware stack levels used:    1
  5190 ;; Hardware stack levels required when called:    5
  5191 ;; This function calls:
  5192 ;;		___awdiv
  5193 ;;		___fladd
  5194 ;;		___fldiv
  5195 ;;		___flneg
  5196 ;;		___fltol
  5197 ;;		___wmul
  5198 ;;		___xxtofl
  5199 ;;		_num_case
  5200 ;; This function is called by:
  5201 ;;		_slave_1
  5202 ;; This function uses a non-reentrant model
  5203 ;;
  5204                           psect	text15,local,class=CODE,delta=2,merge=1,group=0
  5205                           	line	523
  5206                           global __ptext15
  5207                           __ptext15:	;psect for function _b1
  5208  0A2D                     psect	text15
  5209                           	file	"Proyecto1_master.c"
  5210                           	line	523
  5211                           	global	__size_of_b1
  5212                           	__size_of_b1	equ	__end_of_b1-_b1
  5213  00AC                     	
  5214                           _b1:	
  5215  0A2D                     ;incstack = 0
  5216                           	opt	stack 0
  5217                           ; Regs used in _b1: [wreg-fsr0h+status,2+status,0+btemp+1+pclath+cstack]
  5218                           	line	529
  5219                           	
  5220                           l2728:	
  5221  0A2D                     ;Proyecto1_master.c: 524:     uint8_t bb2;;Proyecto1_master.c: 525:     uint8_t bb1;;Pro
                                 yecto1_master.c: 526:     uint8_t local;;Proyecto1_master.c: 527:     char p1;;Proyecto1
                                 _master.c: 529:     bb2 = m/100;
  5222                           	bcf	status, 5	;RP0=0, select bank0
  5223  0A2D  1283               	bcf	status, 6	;RP1=0, select bank0
  5224  0A2E  1303               	movf	(b1@m+3),w
  5225  0A2F  085E               	movwf	(___fldiv@b+3)
  5226  0A30  00A7               	movf	(b1@m+2),w
  5227  0A31  085D               	movwf	(___fldiv@b+2)
  5228  0A32  00A6               	movf	(b1@m+1),w
  5229  0A33  085C               	movwf	(___fldiv@b+1)
  5230  0A34  00A5               	movf	(b1@m),w
  5231  0A35  085B               	movwf	(___fldiv@b)
  5232  0A36  00A4               
  5233                           	movlw	0x42
  5234  0A37  3042               	movwf	(___fldiv@a+3)
  5235  0A38  00A3               	movlw	0xc8
  5236  0A39  30C8               	movwf	(___fldiv@a+2)
  5237  0A3A  00A2               	movlw	0x0
  5238  0A3B  3000               	movwf	(___fldiv@a+1)
  5239  0A3C  00A1               	movlw	0x0
  5240  0A3D  3000               	movwf	(___fldiv@a)
  5241  0A3E  00A0               
  5242                           	fcall	___fldiv
  5243  0A3F  120A  118A  22F5  120A  158A  	bcf	status, 5	;RP0=0, select bank0
  5244  0A44  1283               	bcf	status, 6	;RP1=0, select bank0
  5245  0A45  1303               	movf	(3+(?___fldiv)),w
  5246  0A46  0823               	movwf	(___fltol@f1+3)
  5247  0A47  00D3               	movf	(2+(?___fldiv)),w
  5248  0A48  0822               	movwf	(___fltol@f1+2)
  5249  0A49  00D2               	movf	(1+(?___fldiv)),w
  5250  0A4A  0821               	movwf	(___fltol@f1+1)
  5251  0A4B  00D1               	movf	(0+(?___fldiv)),w
  5252  0A4C  0820               	movwf	(___fltol@f1)
  5253  0A4D  00D0               
  5254                           	fcall	___fltol
  5255  0A4E  120A  158A  20E7  120A  158A  	bcf	status, 5	;RP0=0, select bank0
  5256  0A53  1283               	bcf	status, 6	;RP1=0, select bank0
  5257  0A54  1303               	movf	(0+(?___fltol)),w
  5258  0A55  0850               	movwf	(??_b1+0)+0
  5259  0A56  00DF               	movf	(??_b1+0)+0,w
  5260  0A57  085F               	movwf	(b1@bb2)
  5261  0A58  00E2               	line	530
  5262                           ;Proyecto1_master.c: 530:     local = m-bb2*100;
  5263                           	movlw	064h
  5264  0A59  3064               	movwf	(___wmul@multiplicand)
  5265  0A5A  00A2               	movlw	0
  5266  0A5B  3000               	movwf	((___wmul@multiplicand))+1
  5267  0A5C  00A3               	movf	(b1@bb2),w
  5268  0A5D  0862               	movwf	(??_b1+0)+0
  5269  0A5E  00DF               	clrf	(??_b1+0)+0+1
  5270  0A5F  01E0               	movf	0+(??_b1+0)+0,w
  5271  0A60  085F               	movwf	(___wmul@multiplier)
  5272  0A61  00A0               	movf	1+(??_b1+0)+0,w
  5273  0A62  0860               	movwf	(___wmul@multiplier+1)
  5274  0A63  00A1               	fcall	___wmul
  5275  0A64  160A  118A  225E  120A  158A  	bcf	status, 5	;RP0=0, select bank0
  5276  0A69  1283               	bcf	status, 6	;RP1=0, select bank0
  5277  0A6A  1303               	movf	(0+(?___wmul)),w
  5278  0A6B  0820               	movwf	(___xxtofl@val)
  5279  0A6C  00A6               	movf	(1+(?___wmul)),w
  5280  0A6D  0821               	movwf	(___xxtofl@val+1)
  5281  0A6E  00A7               	movlw	0
  5282  0A6F  3000               	btfsc	(___xxtofl@val+1),7
  5283  0A70  1BA7               	movlw	255
  5284  0A71  30FF               	movwf	(___xxtofl@val+2)
  5285  0A72  00A8               	movwf	(___xxtofl@val+3)
  5286  0A73  00A9               	movlw	low(01h)
  5287  0A74  3001               	fcall	___xxtofl
  5288  0A75  120A  158A  2446  120A  158A  	bcf	status, 5	;RP0=0, select bank0
  5289  0A7A  1283               	bcf	status, 6	;RP1=0, select bank0
  5290  0A7B  1303               	movf	(3+(?___xxtofl)),w
  5291  0A7C  0829               	movwf	(___flneg@f1+3)
  5292  0A7D  00B7               	movf	(2+(?___xxtofl)),w
  5293  0A7E  0828               	movwf	(___flneg@f1+2)
  5294  0A7F  00B6               	movf	(1+(?___xxtofl)),w
  5295  0A80  0827               	movwf	(___flneg@f1+1)
  5296  0A81  00B5               	movf	(0+(?___xxtofl)),w
  5297  0A82  0826               	movwf	(___flneg@f1)
  5298  0A83  00B4               
  5299                           	fcall	___flneg
  5300  0A84  160A  118A  21B4  120A  158A  	bcf	status, 5	;RP0=0, select bank0
  5301  0A89  1283               	bcf	status, 6	;RP1=0, select bank0
  5302  0A8A  1303               	movf	(3+(?___flneg)),w
  5303  0A8B  0837               	movwf	(___fladd@a+3)
  5304  0A8C  00BF               	movf	(2+(?___flneg)),w
  5305  0A8D  0836               	movwf	(___fladd@a+2)
  5306  0A8E  00BE               	movf	(1+(?___flneg)),w
  5307  0A8F  0835               	movwf	(___fladd@a+1)
  5308  0A90  00BD               	movf	(0+(?___flneg)),w
  5309  0A91  0834               	movwf	(___fladd@a)
  5310  0A92  00BC               
  5311                           	movf	(b1@m+3),w
  5312  0A93  085E               	movwf	(___fladd@b+3)
  5313  0A94  00BB               	movf	(b1@m+2),w
  5314  0A95  085D               	movwf	(___fladd@b+2)
  5315  0A96  00BA               	movf	(b1@m+1),w
  5316  0A97  085C               	movwf	(___fladd@b+1)
  5317  0A98  00B9               	movf	(b1@m),w
  5318  0A99  085B               	movwf	(___fladd@b)
  5319  0A9A  00B8               
  5320                           	fcall	___fladd
  5321  0A9B  120A  118A  2039  120A  158A  	bcf	status, 5	;RP0=0, select bank0
  5322  0AA0  1283               	bcf	status, 6	;RP1=0, select bank0
  5323  0AA1  1303               	movf	(3+(?___fladd)),w
  5324  0AA2  083B               	movwf	(___fltol@f1+3)
  5325  0AA3  00D3               	movf	(2+(?___fladd)),w
  5326  0AA4  083A               	movwf	(___fltol@f1+2)
  5327  0AA5  00D2               	movf	(1+(?___fladd)),w
  5328  0AA6  0839               	movwf	(___fltol@f1+1)
  5329  0AA7  00D1               	movf	(0+(?___fladd)),w
  5330  0AA8  0838               	movwf	(___fltol@f1)
  5331  0AA9  00D0               
  5332                           	fcall	___fltol
  5333  0AAA  120A  158A  20E7  120A  158A  	bcf	status, 5	;RP0=0, select bank0
  5334  0AAF  1283               	bcf	status, 6	;RP1=0, select bank0
  5335  0AB0  1303               	movf	(0+(?___fltol)),w
  5336  0AB1  0850               	movwf	(??_b1+2)+0
  5337  0AB2  00E1               	movf	(??_b1+2)+0,w
  5338  0AB3  0861               	movwf	(b1@local)
  5339  0AB4  00E4               	line	531
  5340                           	
  5341                           l2730:	
  5342  0AB5                     ;Proyecto1_master.c: 531:     bb1 = local/10;
  5343                           	movlw	0Ah
  5344  0AB5  300A               	movwf	(___awdiv@divisor)
  5345  0AB6  00A0               	movlw	0
  5346  0AB7  3000               	movwf	((___awdiv@divisor))+1
  5347  0AB8  00A1               	movf	(b1@local),w
  5348  0AB9  0864               	movwf	(??_b1+0)+0
  5349  0ABA  00DF               	clrf	(??_b1+0)+0+1
  5350  0ABB  01E0               	movf	0+(??_b1+0)+0,w
  5351  0ABC  085F               	movwf	(___awdiv@dividend)
  5352  0ABD  00A2               	movf	1+(??_b1+0)+0,w
  5353  0ABE  0860               	movwf	(___awdiv@dividend+1)
  5354  0ABF  00A3               	fcall	___awdiv
  5355  0AC0  160A  118A  26A2  120A  158A  	bcf	status, 5	;RP0=0, select bank0
  5356  0AC5  1283               	bcf	status, 6	;RP1=0, select bank0
  5357  0AC6  1303               	movf	(0+(?___awdiv)),w
  5358  0AC7  0820               	movwf	(??_b1+2)+0
  5359  0AC8  00E1               	movf	(??_b1+2)+0,w
  5360  0AC9  0861               	movwf	(b1@bb1)
  5361  0ACA  00E3               	line	532
  5362                           	
  5363                           l2732:	
  5364  0ACB                     ;Proyecto1_master.c: 532:     p1 = num_case(bb1);
  5365                           	movf	(b1@bb1),w
  5366  0ACB  0863               	fcall	_num_case
  5367  0ACC  160A  118A  25DB  120A  158A  	bcf	status, 5	;RP0=0, select bank0
  5368  0AD1  1283               	bcf	status, 6	;RP1=0, select bank0
  5369  0AD2  1303               	movwf	(??_b1+0)+0
  5370  0AD3  00DF               	movf	(??_b1+0)+0,w
  5371  0AD4  085F               	movwf	(b1@p1)
  5372  0AD5  00E5               	line	533
  5373                           	
  5374                           l2734:	
  5375  0AD6                     ;Proyecto1_master.c: 533:     return p1;
  5376                           	movf	(b1@p1),w
  5377  0AD6  0865               	goto	l266
  5378  0AD7  2AD8               	
  5379                           l2736:	
  5380  0AD8                     	line	534
  5381                           	
  5382                           l266:	
  5383  0AD8                     	return
  5384  0AD8  0008               	opt stack 0
  5385                           GLOBAL	__end_of_b1
  5386                           	__end_of_b1:
  5387  0AD9                     	signat	_b1,4217
  5388                           	global	_b0
  5389                           
  5390 ;; *************** function _b0 *****************
  5391 ;; Defined at:
  5392 ;;		line 536 in file "Proyecto1_master.c"
  5393 ;; Parameters:    Size  Location     Type
  5394 ;;  m               4   59[BANK0 ] float 
  5395 ;; Auto vars:     Size  Location     Type
  5396 ;;  local           1   70[BANK0 ] unsigned char 
  5397 ;;  p0              1   69[BANK0 ] unsigned char 
  5398 ;;  bb0             1   68[BANK0 ] unsigned char 
  5399 ;;  bb1             1   67[BANK0 ] unsigned char 
  5400 ;;  bb2             1   66[BANK0 ] unsigned char 
  5401 ;; Return value:  Size  Location     Type
  5402 ;;                  1    wreg      unsigned char 
  5403 ;; Registers used:
  5404 ;;		wreg, fsr0l, fsr0h, status,2, status,0, btemp+1, pclath, cstack
  5405 ;; Tracked objects:
  5406 ;;		On entry : 0/0
  5407 ;;		On exit  : 0/0
  5408 ;;		Unchanged: 0/0
  5409 ;; Data sizes:     COMMON   BANK0   BANK1   BANK3   BANK2
  5410 ;;      Params:         0       4       0       0       0
  5411 ;;      Locals:         0       5       0       0       0
  5412 ;;      Temps:          0       3       0       0       0
  5413 ;;      Totals:         0      12       0       0       0
  5414 ;;Total ram usage:       12 bytes
  5415 ;; Hardware stack levels used:    1
  5416 ;; Hardware stack levels required when called:    5
  5417 ;; This function calls:
  5418 ;;		___awdiv
  5419 ;;		___bmul
  5420 ;;		___fladd
  5421 ;;		___fldiv
  5422 ;;		___flneg
  5423 ;;		___fltol
  5424 ;;		___wmul
  5425 ;;		___xxtofl
  5426 ;;		_num_case
  5427 ;; This function is called by:
  5428 ;;		_slave_1
  5429 ;; This function uses a non-reentrant model
  5430 ;;
  5431                           psect	text16,local,class=CODE,delta=2,merge=1,group=0
  5432                           	line	536
  5433                           global __ptext16
  5434                           __ptext16:	;psect for function _b0
  5435  0B88                     psect	text16
  5436                           	file	"Proyecto1_master.c"
  5437                           	line	536
  5438                           	global	__size_of_b0
  5439                           	__size_of_b0	equ	__end_of_b0-_b0
  5440  00BE                     	
  5441                           _b0:	
  5442  0B88                     ;incstack = 0
  5443                           	opt	stack 0
  5444                           ; Regs used in _b0: [wreg-fsr0h+status,2+status,0+btemp+1+pclath+cstack]
  5445                           	line	543
  5446                           	
  5447                           l2716:	
  5448  0B88                     ;Proyecto1_master.c: 537:     uint8_t bb2;;Proyecto1_master.c: 538:     uint8_t bb1;;Pro
                                 yecto1_master.c: 539:     uint8_t bb0;;Proyecto1_master.c: 540:     uint8_t local;;Proye
                                 cto1_master.c: 541:     char p0;;Proyecto1_master.c: 543:     bb2 = m/100;
  5449                           	bcf	status, 5	;RP0=0, select bank0
  5450  0B88  1283               	bcf	status, 6	;RP1=0, select bank0
  5451  0B89  1303               	movf	(b0@m+3),w
  5452  0B8A  085E               	movwf	(___fldiv@b+3)
  5453  0B8B  00A7               	movf	(b0@m+2),w
  5454  0B8C  085D               	movwf	(___fldiv@b+2)
  5455  0B8D  00A6               	movf	(b0@m+1),w
  5456  0B8E  085C               	movwf	(___fldiv@b+1)
  5457  0B8F  00A5               	movf	(b0@m),w
  5458  0B90  085B               	movwf	(___fldiv@b)
  5459  0B91  00A4               
  5460                           	movlw	0x42
  5461  0B92  3042               	movwf	(___fldiv@a+3)
  5462  0B93  00A3               	movlw	0xc8
  5463  0B94  30C8               	movwf	(___fldiv@a+2)
  5464  0B95  00A2               	movlw	0x0
  5465  0B96  3000               	movwf	(___fldiv@a+1)
  5466  0B97  00A1               	movlw	0x0
  5467  0B98  3000               	movwf	(___fldiv@a)
  5468  0B99  00A0               
  5469                           	fcall	___fldiv
  5470  0B9A  120A  118A  22F5  120A  158A  	bcf	status, 5	;RP0=0, select bank0
  5471  0B9F  1283               	bcf	status, 6	;RP1=0, select bank0
  5472  0BA0  1303               	movf	(3+(?___fldiv)),w
  5473  0BA1  0823               	movwf	(___fltol@f1+3)
  5474  0BA2  00D3               	movf	(2+(?___fldiv)),w
  5475  0BA3  0822               	movwf	(___fltol@f1+2)
  5476  0BA4  00D2               	movf	(1+(?___fldiv)),w
  5477  0BA5  0821               	movwf	(___fltol@f1+1)
  5478  0BA6  00D1               	movf	(0+(?___fldiv)),w
  5479  0BA7  0820               	movwf	(___fltol@f1)
  5480  0BA8  00D0               
  5481                           	fcall	___fltol
  5482  0BA9  120A  158A  20E7  120A  158A  	bcf	status, 5	;RP0=0, select bank0
  5483  0BAE  1283               	bcf	status, 6	;RP1=0, select bank0
  5484  0BAF  1303               	movf	(0+(?___fltol)),w
  5485  0BB0  0850               	movwf	(??_b0+0)+0
  5486  0BB1  00DF               	movf	(??_b0+0)+0,w
  5487  0BB2  085F               	movwf	(b0@bb2)
  5488  0BB3  00E2               	line	544
  5489                           ;Proyecto1_master.c: 544:     local = m-bb2*100;
  5490                           	movlw	064h
  5491  0BB4  3064               	movwf	(___wmul@multiplicand)
  5492  0BB5  00A2               	movlw	0
  5493  0BB6  3000               	movwf	((___wmul@multiplicand))+1
  5494  0BB7  00A3               	movf	(b0@bb2),w
  5495  0BB8  0862               	movwf	(??_b0+0)+0
  5496  0BB9  00DF               	clrf	(??_b0+0)+0+1
  5497  0BBA  01E0               	movf	0+(??_b0+0)+0,w
  5498  0BBB  085F               	movwf	(___wmul@multiplier)
  5499  0BBC  00A0               	movf	1+(??_b0+0)+0,w
  5500  0BBD  0860               	movwf	(___wmul@multiplier+1)
  5501  0BBE  00A1               	fcall	___wmul
  5502  0BBF  160A  118A  225E  120A  158A  	bcf	status, 5	;RP0=0, select bank0
  5503  0BC4  1283               	bcf	status, 6	;RP1=0, select bank0
  5504  0BC5  1303               	movf	(0+(?___wmul)),w
  5505  0BC6  0820               	movwf	(___xxtofl@val)
  5506  0BC7  00A6               	movf	(1+(?___wmul)),w
  5507  0BC8  0821               	movwf	(___xxtofl@val+1)
  5508  0BC9  00A7               	movlw	0
  5509  0BCA  3000               	btfsc	(___xxtofl@val+1),7
  5510  0BCB  1BA7               	movlw	255
  5511  0BCC  30FF               	movwf	(___xxtofl@val+2)
  5512  0BCD  00A8               	movwf	(___xxtofl@val+3)
  5513  0BCE  00A9               	movlw	low(01h)
  5514  0BCF  3001               	fcall	___xxtofl
  5515  0BD0  120A  158A  2446  120A  158A  	bcf	status, 5	;RP0=0, select bank0
  5516  0BD5  1283               	bcf	status, 6	;RP1=0, select bank0
  5517  0BD6  1303               	movf	(3+(?___xxtofl)),w
  5518  0BD7  0829               	movwf	(___flneg@f1+3)
  5519  0BD8  00B7               	movf	(2+(?___xxtofl)),w
  5520  0BD9  0828               	movwf	(___flneg@f1+2)
  5521  0BDA  00B6               	movf	(1+(?___xxtofl)),w
  5522  0BDB  0827               	movwf	(___flneg@f1+1)
  5523  0BDC  00B5               	movf	(0+(?___xxtofl)),w
  5524  0BDD  0826               	movwf	(___flneg@f1)
  5525  0BDE  00B4               
  5526                           	fcall	___flneg
  5527  0BDF  160A  118A  21B4  120A  158A  	bcf	status, 5	;RP0=0, select bank0
  5528  0BE4  1283               	bcf	status, 6	;RP1=0, select bank0
  5529  0BE5  1303               	movf	(3+(?___flneg)),w
  5530  0BE6  0837               	movwf	(___fladd@a+3)
  5531  0BE7  00BF               	movf	(2+(?___flneg)),w
  5532  0BE8  0836               	movwf	(___fladd@a+2)
  5533  0BE9  00BE               	movf	(1+(?___flneg)),w
  5534  0BEA  0835               	movwf	(___fladd@a+1)
  5535  0BEB  00BD               	movf	(0+(?___flneg)),w
  5536  0BEC  0834               	movwf	(___fladd@a)
  5537  0BED  00BC               
  5538                           	movf	(b0@m+3),w
  5539  0BEE  085E               	movwf	(___fladd@b+3)
  5540  0BEF  00BB               	movf	(b0@m+2),w
  5541  0BF0  085D               	movwf	(___fladd@b+2)
  5542  0BF1  00BA               	movf	(b0@m+1),w
  5543  0BF2  085C               	movwf	(___fladd@b+1)
  5544  0BF3  00B9               	movf	(b0@m),w
  5545  0BF4  085B               	movwf	(___fladd@b)
  5546  0BF5  00B8               
  5547                           	fcall	___fladd
  5548  0BF6  120A  118A  2039  120A  158A  	bcf	status, 5	;RP0=0, select bank0
  5549  0BFB  1283               	bcf	status, 6	;RP1=0, select bank0
  5550  0BFC  1303               	movf	(3+(?___fladd)),w
  5551  0BFD  083B               	movwf	(___fltol@f1+3)
  5552  0BFE  00D3               	movf	(2+(?___fladd)),w
  5553  0BFF  083A               	movwf	(___fltol@f1+2)
  5554  0C00  00D2               	movf	(1+(?___fladd)),w
  5555  0C01  0839               	movwf	(___fltol@f1+1)
  5556  0C02  00D1               	movf	(0+(?___fladd)),w
  5557  0C03  0838               	movwf	(___fltol@f1)
  5558  0C04  00D0               
  5559                           	fcall	___fltol
  5560  0C05  120A  158A  20E7  120A  158A  	bcf	status, 5	;RP0=0, select bank0
  5561  0C0A  1283               	bcf	status, 6	;RP1=0, select bank0
  5562  0C0B  1303               	movf	(0+(?___fltol)),w
  5563  0C0C  0850               	movwf	(??_b0+2)+0
  5564  0C0D  00E1               	movf	(??_b0+2)+0,w
  5565  0C0E  0861               	movwf	(b0@local)
  5566  0C0F  00E6               	line	545
  5567                           	
  5568                           l2718:	
  5569  0C10                     ;Proyecto1_master.c: 545:     bb1 = local/10;
  5570                           	movlw	0Ah
  5571  0C10  300A               	movwf	(___awdiv@divisor)
  5572  0C11  00A0               	movlw	0
  5573  0C12  3000               	movwf	((___awdiv@divisor))+1
  5574  0C13  00A1               	movf	(b0@local),w
  5575  0C14  0866               	movwf	(??_b0+0)+0
  5576  0C15  00DF               	clrf	(??_b0+0)+0+1
  5577  0C16  01E0               	movf	0+(??_b0+0)+0,w
  5578  0C17  085F               	movwf	(___awdiv@dividend)
  5579  0C18  00A2               	movf	1+(??_b0+0)+0,w
  5580  0C19  0860               	movwf	(___awdiv@dividend+1)
  5581  0C1A  00A3               	fcall	___awdiv
  5582  0C1B  160A  118A  26A2  120A  158A  	bcf	status, 5	;RP0=0, select bank0
  5583  0C20  1283               	bcf	status, 6	;RP1=0, select bank0
  5584  0C21  1303               	movf	(0+(?___awdiv)),w
  5585  0C22  0820               	movwf	(??_b0+2)+0
  5586  0C23  00E1               	movf	(??_b0+2)+0,w
  5587  0C24  0861               	movwf	(b0@bb1)
  5588  0C25  00E3               	line	546
  5589                           	
  5590                           l2720:	
  5591  0C26                     ;Proyecto1_master.c: 546:     bb0 = local-bb1*10;
  5592                           	movlw	low(0Ah)
  5593  0C26  300A               	movwf	(??_b0+0)+0
  5594  0C27  00DF               	movf	(??_b0+0)+0,w
  5595  0C28  085F               	movwf	(___bmul@multiplicand)
  5596  0C29  00A0               	movf	(b0@bb1),w
  5597  0C2A  0863               	fcall	___bmul
  5598  0C2B  160A  118A  21E9  120A  158A  	xorlw	0ffh
  5599  0C30  3AFF               	addlw	1
  5600  0C31  3E01               	bcf	status, 5	;RP0=0, select bank0
  5601  0C32  1283               	bcf	status, 6	;RP1=0, select bank0
  5602  0C33  1303               	addwf	(b0@local),w
  5603  0C34  0766               	movwf	(??_b0+1)+0
  5604  0C35  00E0               	movf	(??_b0+1)+0,w
  5605  0C36  0860               	movwf	(b0@bb0)
  5606  0C37  00E4               	line	547
  5607                           	
  5608                           l2722:	
  5609  0C38                     ;Proyecto1_master.c: 547:     p0 = num_case(bb0);
  5610                           	movf	(b0@bb0),w
  5611  0C38  0864               	fcall	_num_case
  5612  0C39  160A  118A  25DB  120A  158A  	bcf	status, 5	;RP0=0, select bank0
  5613  0C3E  1283               	bcf	status, 6	;RP1=0, select bank0
  5614  0C3F  1303               	movwf	(??_b0+0)+0
  5615  0C40  00DF               	movf	(??_b0+0)+0,w
  5616  0C41  085F               	movwf	(b0@p0)
  5617  0C42  00E5               	line	548
  5618                           	
  5619                           l2724:	
  5620  0C43                     ;Proyecto1_master.c: 548:     return p0;
  5621                           	movf	(b0@p0),w
  5622  0C43  0865               	goto	l269
  5623  0C44  2C45               	
  5624                           l2726:	
  5625  0C45                     	line	549
  5626                           	
  5627                           l269:	
  5628  0C45                     	return
  5629  0C45  0008               	opt stack 0
  5630                           GLOBAL	__end_of_b0
  5631                           	__end_of_b0:
  5632  0C46                     	signat	_b0,4217
  5633                           	global	_num_case
  5634                           
  5635 ;; *************** function _num_case *****************
  5636 ;; Defined at:
  5637 ;;		line 476 in file "Proyecto1_master.c"
  5638 ;; Parameters:    Size  Location     Type
  5639 ;;  num             1    wreg     unsigned char 
  5640 ;; Auto vars:     Size  Location     Type
  5641 ;;  num             1    2[BANK0 ] unsigned char 
  5642 ;;  r               1    3[BANK0 ] unsigned char 
  5643 ;; Return value:  Size  Location     Type
  5644 ;;                  1    wreg      unsigned char 
  5645 ;; Registers used:
  5646 ;;		wreg, fsr0l, fsr0h, status,2, status,0
  5647 ;; Tracked objects:
  5648 ;;		On entry : 0/0
  5649 ;;		On exit  : 0/0
  5650 ;;		Unchanged: 0/0
  5651 ;; Data sizes:     COMMON   BANK0   BANK1   BANK3   BANK2
  5652 ;;      Params:         0       0       0       0       0
  5653 ;;      Locals:         0       2       0       0       0
  5654 ;;      Temps:          0       2       0       0       0
  5655 ;;      Totals:         0       4       0       0       0
  5656 ;;Total ram usage:        4 bytes
  5657 ;; Hardware stack levels used:    1
  5658 ;; Hardware stack levels required when called:    4
  5659 ;; This function calls:
  5660 ;;		Nothing
  5661 ;; This function is called by:
  5662 ;;		_b2
  5663 ;;		_b1
  5664 ;;		_b0
  5665 ;; This function uses a non-reentrant model
  5666 ;;
  5667                           psect	text17,local,class=CODE,delta=2,merge=1,group=0
  5668                           	line	476
  5669                           global __ptext17
  5670                           __ptext17:	;psect for function _num_case
  5671  15DB                     psect	text17
  5672                           	file	"Proyecto1_master.c"
  5673                           	line	476
  5674                           	global	__size_of_num_case
  5675                           	__size_of_num_case	equ	__end_of_num_case-_num_case
  5676  0062                     	
  5677                           _num_case:	
  5678  15DB                     ;incstack = 0
  5679                           	opt	stack 0
  5680                           ; Regs used in _num_case: [wreg-fsr0h+status,2+status,0]
  5681                           ;num_case@num stored from wreg
  5682                           	bcf	status, 5	;RP0=0, select bank0
  5683  15DB  1283               	bcf	status, 6	;RP1=0, select bank0
  5684  15DC  1303               	movwf	(num_case@num)
  5685  15DD  00A2               	line	478
  5686                           	
  5687                           l2124:	
  5688  15DE                     ;Proyecto1_master.c: 477:     char r;;Proyecto1_master.c: 478:     switch(num){
  5689                           	goto	l2148
  5690  15DE  2E12               	line	479
  5691                           ;Proyecto1_master.c: 479:         case 0:
  5692                           	
  5693                           l249:	
  5694  15DF                     	line	480
  5695                           	
  5696                           l2126:	
  5697  15DF                     ;Proyecto1_master.c: 480:             r = '0';
  5698                           	movlw	low(030h)
  5699  15DF  3030               	movwf	(??_num_case+0)+0
  5700  15E0  00A0               	movf	(??_num_case+0)+0,w
  5701  15E1  0820               	movwf	(num_case@r)
  5702  15E2  00A3               	line	481
  5703                           ;Proyecto1_master.c: 481:             break;
  5704                           	goto	l2150
  5705  15E3  2E3A               	line	482
  5706                           ;Proyecto1_master.c: 482:         case 1:
  5707                           	
  5708                           l251:	
  5709  15E4                     	line	483
  5710                           	
  5711                           l2128:	
  5712  15E4                     ;Proyecto1_master.c: 483:             r = '1';
  5713                           	movlw	low(031h)
  5714  15E4  3031               	movwf	(??_num_case+0)+0
  5715  15E5  00A0               	movf	(??_num_case+0)+0,w
  5716  15E6  0820               	movwf	(num_case@r)
  5717  15E7  00A3               	line	484
  5718                           ;Proyecto1_master.c: 484:             break;
  5719                           	goto	l2150
  5720  15E8  2E3A               	line	485
  5721                           ;Proyecto1_master.c: 485:         case 2:
  5722                           	
  5723                           l252:	
  5724  15E9                     	line	486
  5725                           	
  5726                           l2130:	
  5727  15E9                     ;Proyecto1_master.c: 486:             r = '2';
  5728                           	movlw	low(032h)
  5729  15E9  3032               	movwf	(??_num_case+0)+0
  5730  15EA  00A0               	movf	(??_num_case+0)+0,w
  5731  15EB  0820               	movwf	(num_case@r)
  5732  15EC  00A3               	line	487
  5733                           ;Proyecto1_master.c: 487:             break;
  5734                           	goto	l2150
  5735  15ED  2E3A               	line	488
  5736                           ;Proyecto1_master.c: 488:         case 3:
  5737                           	
  5738                           l253:	
  5739  15EE                     	line	489
  5740                           	
  5741                           l2132:	
  5742  15EE                     ;Proyecto1_master.c: 489:             r = '3';
  5743                           	movlw	low(033h)
  5744  15EE  3033               	movwf	(??_num_case+0)+0
  5745  15EF  00A0               	movf	(??_num_case+0)+0,w
  5746  15F0  0820               	movwf	(num_case@r)
  5747  15F1  00A3               	line	490
  5748                           ;Proyecto1_master.c: 490:             break;
  5749                           	goto	l2150
  5750  15F2  2E3A               	line	491
  5751                           ;Proyecto1_master.c: 491:         case 4:
  5752                           	
  5753                           l254:	
  5754  15F3                     	line	492
  5755                           	
  5756                           l2134:	
  5757  15F3                     ;Proyecto1_master.c: 492:             r = '4';
  5758                           	movlw	low(034h)
  5759  15F3  3034               	movwf	(??_num_case+0)+0
  5760  15F4  00A0               	movf	(??_num_case+0)+0,w
  5761  15F5  0820               	movwf	(num_case@r)
  5762  15F6  00A3               	line	493
  5763                           ;Proyecto1_master.c: 493:             break;
  5764                           	goto	l2150
  5765  15F7  2E3A               	line	494
  5766                           ;Proyecto1_master.c: 494:         case 5:
  5767                           	
  5768                           l255:	
  5769  15F8                     	line	495
  5770                           	
  5771                           l2136:	
  5772  15F8                     ;Proyecto1_master.c: 495:             r = '5';
  5773                           	movlw	low(035h)
  5774  15F8  3035               	movwf	(??_num_case+0)+0
  5775  15F9  00A0               	movf	(??_num_case+0)+0,w
  5776  15FA  0820               	movwf	(num_case@r)
  5777  15FB  00A3               	line	496
  5778                           ;Proyecto1_master.c: 496:             break;
  5779                           	goto	l2150
  5780  15FC  2E3A               	line	497
  5781                           ;Proyecto1_master.c: 497:         case 6:
  5782                           	
  5783                           l256:	
  5784  15FD                     	line	498
  5785                           	
  5786                           l2138:	
  5787  15FD                     ;Proyecto1_master.c: 498:             r = '6';
  5788                           	movlw	low(036h)
  5789  15FD  3036               	movwf	(??_num_case+0)+0
  5790  15FE  00A0               	movf	(??_num_case+0)+0,w
  5791  15FF  0820               	movwf	(num_case@r)
  5792  1600  00A3               	line	499
  5793                           ;Proyecto1_master.c: 499:             break;
  5794                           	goto	l2150
  5795  1601  2E3A               	line	500
  5796                           ;Proyecto1_master.c: 500:         case 7:
  5797                           	
  5798                           l257:	
  5799  1602                     	line	501
  5800                           	
  5801                           l2140:	
  5802  1602                     ;Proyecto1_master.c: 501:             r = '7';
  5803                           	movlw	low(037h)
  5804  1602  3037               	movwf	(??_num_case+0)+0
  5805  1603  00A0               	movf	(??_num_case+0)+0,w
  5806  1604  0820               	movwf	(num_case@r)
  5807  1605  00A3               	line	502
  5808                           ;Proyecto1_master.c: 502:             break;
  5809                           	goto	l2150
  5810  1606  2E3A               	line	503
  5811                           ;Proyecto1_master.c: 503:         case 8:
  5812                           	
  5813                           l258:	
  5814  1607                     	line	504
  5815                           	
  5816                           l2142:	
  5817  1607                     ;Proyecto1_master.c: 504:             r = '8';
  5818                           	movlw	low(038h)
  5819  1607  3038               	movwf	(??_num_case+0)+0
  5820  1608  00A0               	movf	(??_num_case+0)+0,w
  5821  1609  0820               	movwf	(num_case@r)
  5822  160A  00A3               	line	505
  5823                           ;Proyecto1_master.c: 505:             break;
  5824                           	goto	l2150
  5825  160B  2E3A               	line	506
  5826                           ;Proyecto1_master.c: 506:         case 9:
  5827                           	
  5828                           l259:	
  5829  160C                     	line	507
  5830                           	
  5831                           l2144:	
  5832  160C                     ;Proyecto1_master.c: 507:             r = '9';
  5833                           	movlw	low(039h)
  5834  160C  3039               	movwf	(??_num_case+0)+0
  5835  160D  00A0               	movf	(??_num_case+0)+0,w
  5836  160E  0820               	movwf	(num_case@r)
  5837  160F  00A3               	line	508
  5838                           ;Proyecto1_master.c: 508:             break;
  5839                           	goto	l2150
  5840  1610  2E3A               	line	509
  5841                           	
  5842                           l2146:	
  5843  1611                     ;Proyecto1_master.c: 509:     }
  5844                           	goto	l2150
  5845  1611  2E3A               	
  5846                           l248:	
  5847  1612                     	
  5848                           l2148:	
  5849  1612                     	movf	(num_case@num),w
  5850  1612  0822               	movwf	(??_num_case+0)+0
  5851  1613  00A0               	clrf	(??_num_case+0)+0+1
  5852  1614  01A1               	; Switch on 2 bytes has been partitioned into a top level switch of size 1, and 1 sub-s
                                 witches
  5853                           ; Switch size 1, requested type "space"
  5854                           ; Number of cases is 1, Range of values is 0 to 0
  5855                           ; switch strategies available:
  5856                           ; Name         Instructions Cycles
  5857                           ; simple_byte            4     3 (average)
  5858                           ; direct_byte           11     8 (fixed)
  5859                           ; jumptable            260     6 (fixed)
  5860                           ;	Chosen strategy is simple_byte
  5861                           
  5862                           	movf 1+(??_num_case+0)+0,w
  5863  1615  0821               	opt asmopt_push
  5864                           	opt asmopt_off
  5865                           	xorlw	0^0	; case 0
  5866  1616  3A00               	skipnz
  5867  1617  1903               	goto	l3182
  5868  1618  2E1A               	goto	l2150
  5869  1619  2E3A               	opt asmopt_pop
  5870                           	
  5871                           l3182:	
  5872  161A                     ; Switch size 1, requested type "space"
  5873                           ; Number of cases is 10, Range of values is 0 to 9
  5874                           ; switch strategies available:
  5875                           ; Name         Instructions Cycles
  5876                           ; simple_byte           31    16 (average)
  5877                           ; direct_byte           38     8 (fixed)
  5878                           ; jumptable            260     6 (fixed)
  5879                           ;	Chosen strategy is simple_byte
  5880                           
  5881                           	movf 0+(??_num_case+0)+0,w
  5882  161A  0820               	opt asmopt_push
  5883                           	opt asmopt_off
  5884                           	xorlw	0^0	; case 0
  5885  161B  3A00               	skipnz
  5886  161C  1903               	goto	l2126
  5887  161D  2DDF               	xorlw	1^0	; case 1
  5888  161E  3A01               	skipnz
  5889  161F  1903               	goto	l2128
  5890  1620  2DE4               	xorlw	2^1	; case 2
  5891  1621  3A03               	skipnz
  5892  1622  1903               	goto	l2130
  5893  1623  2DE9               	xorlw	3^2	; case 3
  5894  1624  3A01               	skipnz
  5895  1625  1903               	goto	l2132
  5896  1626  2DEE               	xorlw	4^3	; case 4
  5897  1627  3A07               	skipnz
  5898  1628  1903               	goto	l2134
  5899  1629  2DF3               	xorlw	5^4	; case 5
  5900  162A  3A01               	skipnz
  5901  162B  1903               	goto	l2136
  5902  162C  2DF8               	xorlw	6^5	; case 6
  5903  162D  3A03               	skipnz
  5904  162E  1903               	goto	l2138
  5905  162F  2DFD               	xorlw	7^6	; case 7
  5906  1630  3A01               	skipnz
  5907  1631  1903               	goto	l2140
  5908  1632  2E02               	xorlw	8^7	; case 8
  5909  1633  3A0F               	skipnz
  5910  1634  1903               	goto	l2142
  5911  1635  2E07               	xorlw	9^8	; case 9
  5912  1636  3A01               	skipnz
  5913  1637  1903               	goto	l2144
  5914  1638  2E0C               	goto	l2150
  5915  1639  2E3A               	opt asmopt_pop
  5916                           
  5917                           	
  5918                           l250:	
  5919  163A                     	line	510
  5920                           	
  5921                           l2150:	
  5922  163A                     ;Proyecto1_master.c: 510:     return r;
  5923                           	movf	(num_case@r),w
  5924  163A  0823               	goto	l260
  5925  163B  2E3C               	
  5926                           l2152:	
  5927  163C                     	line	511
  5928                           	
  5929                           l260:	
  5930  163C                     	return
  5931  163C  0008               	opt stack 0
  5932                           GLOBAL	__end_of_num_case
  5933                           	__end_of_num_case:
  5934  163D                     	signat	_num_case,4217
  5935                           	global	___xxtofl
  5936                           
  5937 ;; *************** function ___xxtofl *****************
  5938 ;; Defined at:
  5939 ;;		line 10 in file "C:\Program Files (x86)\Microchip\xc8\v2.00\pic\sources\c90\common\xxtofl.c"
  5940 ;; Parameters:    Size  Location     Type
  5941 ;;  sign            1    wreg     unsigned char 
  5942 ;;  val             4    6[BANK0 ] long 
  5943 ;; Auto vars:     Size  Location     Type
  5944 ;;  sign            1   14[BANK0 ] unsigned char 
  5945 ;;  arg             4   16[BANK0 ] unsigned long 
  5946 ;;  exp             1   15[BANK0 ] unsigned char 
  5947 ;; Return value:  Size  Location     Type
  5948 ;;                  4    6[BANK0 ] unsigned char 
  5949 ;; Registers used:
  5950 ;;		wreg, status,2, status,0
  5951 ;; Tracked objects:
  5952 ;;		On entry : 0/0
  5953 ;;		On exit  : 0/0
  5954 ;;		Unchanged: 0/0
  5955 ;; Data sizes:     COMMON   BANK0   BANK1   BANK3   BANK2
  5956 ;;      Params:         0       4       0       0       0
  5957 ;;      Locals:         0       6       0       0       0
  5958 ;;      Temps:          0       4       0       0       0
  5959 ;;      Totals:         0      14       0       0       0
  5960 ;;Total ram usage:       14 bytes
  5961 ;; Hardware stack levels used:    1
  5962 ;; Hardware stack levels required when called:    4
  5963 ;; This function calls:
  5964 ;;		Nothing
  5965 ;; This function is called by:
  5966 ;;		_slave_1
  5967 ;;		_b1
  5968 ;;		_b0
  5969 ;; This function uses a non-reentrant model
  5970 ;;
  5971                           psect	text18,local,class=CODE,delta=2,merge=1,group=1
  5972                           	file	"C:\Program Files (x86)\Microchip\xc8\v2.00\pic\sources\c90\common\xxtofl.c"
  5973                           	line	10
  5974                           global __ptext18
  5975                           __ptext18:	;psect for function ___xxtofl
  5976  0C46                     psect	text18
  5977                           	file	"C:\Program Files (x86)\Microchip\xc8\v2.00\pic\sources\c90\common\xxtofl.c"
  5978                           	line	10
  5979                           	global	__size_of___xxtofl
  5980                           	__size_of___xxtofl	equ	__end_of___xxtofl-___xxtofl
  5981  00C4                     	
  5982                           ___xxtofl:	
  5983  0C46                     ;incstack = 0
  5984                           	opt	stack 0
  5985                           ; Regs used in ___xxtofl: [wreg+status,2+status,0]
  5986                           ;___xxtofl@sign stored from wreg
  5987                           	bcf	status, 5	;RP0=0, select bank0
  5988  0C46  1283               	bcf	status, 6	;RP1=0, select bank0
  5989  0C47  1303               	movwf	(___xxtofl@sign)
  5990  0C48  00AE               	line	15
  5991                           	
  5992                           l2626:	
  5993  0C49                     	movf	((___xxtofl@sign)),w
  5994  0C49  082E               	btfsc	status,2
  5995  0C4A  1903               	goto	u2991
  5996  0C4B  2C4D               	goto	u2990
  5997  0C4C  2C4E               u2991:
  5998  0C4D                     	goto	l2632
  5999  0C4D  2C62               u2990:
  6000  0C4E                     	
  6001                           l2628:	
  6002  0C4E                     	btfss	(___xxtofl@val+3),7
  6003  0C4E  1FA9               	goto	u3001
  6004  0C4F  2C51               	goto	u3000
  6005  0C50  2C52               u3001:
  6006  0C51                     	goto	l2632
  6007  0C51  2C62               u3000:
  6008  0C52                     	line	16
  6009                           	
  6010                           l2630:	
  6011  0C52                     	comf	(___xxtofl@val)+0,w
  6012  0C52  0926               	movwf	(___xxtofl@arg)
  6013  0C53  00B0               	comf	(___xxtofl@val)+1,w
  6014  0C54  0927               	movwf	(___xxtofl@arg+1)
  6015  0C55  00B1               	comf	(___xxtofl@val)+2,w
  6016  0C56  0928               	movwf	(___xxtofl@arg+2)
  6017  0C57  00B2               	comf	(___xxtofl@val)+3,w
  6018  0C58  0929               	movwf	(___xxtofl@arg+3)
  6019  0C59  00B3               	incf	(___xxtofl@arg),f
  6020  0C5A  0AB0               	skipnz
  6021  0C5B  1903               	incf	(___xxtofl@arg+1),f
  6022  0C5C  0AB1               	skipnz
  6023  0C5D  1903               	incf	(___xxtofl@arg+2),f
  6024  0C5E  0AB2               	skipnz
  6025  0C5F  1903               	incf	(___xxtofl@arg+3),f
  6026  0C60  0AB3               	line	17
  6027                           	goto	l915
  6028  0C61  2C6A               	line	18
  6029                           	
  6030                           l914:	
  6031  0C62                     	line	19
  6032                           	
  6033                           l2632:	
  6034  0C62                     	movf	(___xxtofl@val+3),w
  6035  0C62  0829               	movwf	(___xxtofl@arg+3)
  6036  0C63  00B3               	movf	(___xxtofl@val+2),w
  6037  0C64  0828               	movwf	(___xxtofl@arg+2)
  6038  0C65  00B2               	movf	(___xxtofl@val+1),w
  6039  0C66  0827               	movwf	(___xxtofl@arg+1)
  6040  0C67  00B1               	movf	(___xxtofl@val),w
  6041  0C68  0826               	movwf	(___xxtofl@arg)
  6042  0C69  00B0               
  6043                           	line	20
  6044                           	
  6045                           l915:	
  6046  0C6A                     	line	21
  6047                           	movf	(___xxtofl@val+3),w
  6048  0C6A  0829               	iorwf	(___xxtofl@val+2),w
  6049  0C6B  0428               	iorwf	(___xxtofl@val+1),w
  6050  0C6C  0427               	iorwf	(___xxtofl@val),w
  6051  0C6D  0426               	skipz
  6052  0C6E  1D03               	goto	u3011
  6053  0C6F  2C71               	goto	u3010
  6054  0C70  2C72               u3011:
  6055  0C71                     	goto	l2638
  6056  0C71  2C7C               u3010:
  6057  0C72                     	line	22
  6058                           	
  6059                           l2634:	
  6060  0C72                     	movlw	0x0
  6061  0C72  3000               	movwf	(?___xxtofl+3)
  6062  0C73  00A9               	movlw	0x0
  6063  0C74  3000               	movwf	(?___xxtofl+2)
  6064  0C75  00A8               	movlw	0x0
  6065  0C76  3000               	movwf	(?___xxtofl+1)
  6066  0C77  00A7               	movlw	0x0
  6067  0C78  3000               	movwf	(?___xxtofl)
  6068  0C79  00A6               
  6069                           	goto	l917
  6070  0C7A  2D09               	
  6071                           l2636:	
  6072  0C7B                     	goto	l917
  6073  0C7B  2D09               	
  6074                           l916:	
  6075  0C7C                     	line	23
  6076                           	
  6077                           l2638:	
  6078  0C7C                     	movlw	low(096h)
  6079  0C7C  3096               	movwf	(??___xxtofl+0)+0
  6080  0C7D  00AA               	movf	(??___xxtofl+0)+0,w
  6081  0C7E  082A               	movwf	(___xxtofl@exp)
  6082  0C7F  00AF               	line	24
  6083                           	goto	l2642
  6084  0C80  2C8F               	
  6085                           l919:	
  6086  0C81                     	line	25
  6087                           	
  6088                           l2640:	
  6089  0C81                     	movlw	low(01h)
  6090  0C81  3001               	movwf	(??___xxtofl+0)+0
  6091  0C82  00AA               	movf	(??___xxtofl+0)+0,w
  6092  0C83  082A               	addwf	(___xxtofl@exp),f
  6093  0C84  07AF               	line	26
  6094                           	movlw	01h
  6095  0C85  3001               u3025:
  6096  0C86                     	clrc
  6097  0C86  1003               	rrf	(___xxtofl@arg+3),f
  6098  0C87  0CB3               	rrf	(___xxtofl@arg+2),f
  6099  0C88  0CB2               	rrf	(___xxtofl@arg+1),f
  6100  0C89  0CB1               	rrf	(___xxtofl@arg),f
  6101  0C8A  0CB0               	addlw	-1
  6102  0C8B  3EFF               	skipz
  6103  0C8C  1D03               	goto	u3025
  6104  0C8D  2C86               
  6105                           	goto	l2642
  6106  0C8E  2C8F               	line	27
  6107                           	
  6108                           l918:	
  6109  0C8F                     	line	24
  6110                           	
  6111                           l2642:	
  6112  0C8F                     	movlw	high highword(0FE000000h)
  6113  0C8F  30FE               	andwf	(___xxtofl@arg+3),w
  6114  0C90  0533               	btfss	status,2
  6115  0C91  1D03               	goto	u3031
  6116  0C92  2C94               	goto	u3030
  6117  0C93  2C95               u3031:
  6118  0C94                     	goto	l2640
  6119  0C94  2C81               u3030:
  6120  0C95                     	goto	l921
  6121  0C95  2CB2               	
  6122                           l920:	
  6123  0C96                     	line	28
  6124                           	goto	l921
  6125  0C96  2CB2               	
  6126                           l922:	
  6127  0C97                     	line	29
  6128                           	
  6129                           l2644:	
  6130  0C97                     	movlw	low(01h)
  6131  0C97  3001               	movwf	(??___xxtofl+0)+0
  6132  0C98  00AA               	movf	(??___xxtofl+0)+0,w
  6133  0C99  082A               	addwf	(___xxtofl@exp),f
  6134  0C9A  07AF               	line	30
  6135                           	
  6136                           l2646:	
  6137  0C9B                     	movlw	01h
  6138  0C9B  3001               	addwf	(___xxtofl@arg),f
  6139  0C9C  07B0               	movlw	0
  6140  0C9D  3000               	skipnc
  6141  0C9E  1803               movlw 1
  6142  0C9F  3001               	addwf	(___xxtofl@arg+1),f
  6143  0CA0  07B1               	movlw	0
  6144  0CA1  3000               	skipnc
  6145  0CA2  1803               movlw 1
  6146  0CA3  3001               	addwf	(___xxtofl@arg+2),f
  6147  0CA4  07B2               	movlw	0
  6148  0CA5  3000               	skipnc
  6149  0CA6  1803               movlw 1
  6150  0CA7  3001               	addwf	(___xxtofl@arg+3),f
  6151  0CA8  07B3               	line	31
  6152                           	
  6153                           l2648:	
  6154  0CA9                     	movlw	01h
  6155  0CA9  3001               u3045:
  6156  0CAA                     	clrc
  6157  0CAA  1003               	rrf	(___xxtofl@arg+3),f
  6158  0CAB  0CB3               	rrf	(___xxtofl@arg+2),f
  6159  0CAC  0CB2               	rrf	(___xxtofl@arg+1),f
  6160  0CAD  0CB1               	rrf	(___xxtofl@arg),f
  6161  0CAE  0CB0               	addlw	-1
  6162  0CAF  3EFF               	skipz
  6163  0CB0  1D03               	goto	u3045
  6164  0CB1  2CAA               
  6165                           	line	32
  6166                           	
  6167                           l921:	
  6168  0CB2                     	line	28
  6169                           	movlw	high highword(0FF000000h)
  6170  0CB2  30FF               	andwf	(___xxtofl@arg+3),w
  6171  0CB3  0533               	btfss	status,2
  6172  0CB4  1D03               	goto	u3051
  6173  0CB5  2CB7               	goto	u3050
  6174  0CB6  2CB8               u3051:
  6175  0CB7                     	goto	l2644
  6176  0CB7  2C97               u3050:
  6177  0CB8                     	goto	l2652
  6178  0CB8  2CC6               	
  6179                           l923:	
  6180  0CB9                     	line	33
  6181                           	goto	l2652
  6182  0CB9  2CC6               	
  6183                           l925:	
  6184  0CBA                     	line	34
  6185                           	
  6186                           l2650:	
  6187  0CBA                     	movlw	01h
  6188  0CBA  3001               	subwf	(___xxtofl@exp),f
  6189  0CBB  02AF               	line	35
  6190                           	movlw	01h
  6191  0CBC  3001               	movwf	(??___xxtofl+0)+0
  6192  0CBD  00AA               u3065:
  6193  0CBE                     	clrc
  6194  0CBE  1003               	rlf	(___xxtofl@arg),f
  6195  0CBF  0DB0               	rlf	(___xxtofl@arg+1),f
  6196  0CC0  0DB1               	rlf	(___xxtofl@arg+2),f
  6197  0CC1  0DB2               	rlf	(___xxtofl@arg+3),f
  6198  0CC2  0DB3               	decfsz	(??___xxtofl+0)+0
  6199  0CC3  0BAA               	goto	u3065
  6200  0CC4  2CBE               	goto	l2652
  6201  0CC5  2CC6               	line	36
  6202                           	
  6203                           l924:	
  6204  0CC6                     	line	33
  6205                           	
  6206                           l2652:	
  6207  0CC6                     	btfsc	(___xxtofl@arg+2),(23)&7
  6208  0CC6  1BB2               	goto	u3071
  6209  0CC7  2CC9               	goto	u3070
  6210  0CC8  2CCA               u3071:
  6211  0CC9                     	goto	l928
  6212  0CC9  2CD1               u3070:
  6213  0CCA                     	
  6214                           l2654:	
  6215  0CCA                     	movlw	low(02h)
  6216  0CCA  3002               	subwf	(___xxtofl@exp),w
  6217  0CCB  022F               	skipnc
  6218  0CCC  1803               	goto	u3081
  6219  0CCD  2CCF               	goto	u3080
  6220  0CCE  2CD0               u3081:
  6221  0CCF                     	goto	l2650
  6222  0CCF  2CBA               u3080:
  6223  0CD0                     	goto	l928
  6224  0CD0  2CD1               	
  6225                           l927:	
  6226  0CD1                     	
  6227                           l928:	
  6228  0CD1                     	line	37
  6229                           	btfsc	(___xxtofl@exp),(0)&7
  6230  0CD1  182F               	goto	u3091
  6231  0CD2  2CD4               	goto	u3090
  6232  0CD3  2CD5               u3091:
  6233  0CD4                     	goto	l929
  6234  0CD4  2CDD               u3090:
  6235  0CD5                     	line	38
  6236                           	
  6237                           l2656:	
  6238  0CD5                     	movlw	0FFh
  6239  0CD5  30FF               	andwf	(___xxtofl@arg),f
  6240  0CD6  05B0               	movlw	0FFh
  6241  0CD7  30FF               	andwf	(___xxtofl@arg+1),f
  6242  0CD8  05B1               	movlw	07Fh
  6243  0CD9  307F               	andwf	(___xxtofl@arg+2),f
  6244  0CDA  05B2               	movlw	0FFh
  6245  0CDB  30FF               	andwf	(___xxtofl@arg+3),f
  6246  0CDC  05B3               	
  6247                           l929:	
  6248  0CDD                     	line	39
  6249                           	clrc
  6250  0CDD  1003               	rrf	(___xxtofl@exp),f
  6251  0CDE  0CAF               
  6252                           	line	40
  6253                           	
  6254                           l2658:	
  6255  0CDF                     	movf	(___xxtofl@exp),w
  6256  0CDF  082F               	movwf	(??___xxtofl+0)+0
  6257  0CE0  00AA               	clrf	(??___xxtofl+0)+0+1
  6258  0CE1  01AB               	clrf	(??___xxtofl+0)+0+2
  6259  0CE2  01AC               	clrf	(??___xxtofl+0)+0+3
  6260  0CE3  01AD               	movlw	018h
  6261  0CE4  3018               u3105:
  6262  0CE5                     	clrc
  6263  0CE5  1003               	rlf	(??___xxtofl+0)+0,f
  6264  0CE6  0DAA               	rlf	(??___xxtofl+0)+1,f
  6265  0CE7  0DAB               	rlf	(??___xxtofl+0)+2,f
  6266  0CE8  0DAC               	rlf	(??___xxtofl+0)+3,f
  6267  0CE9  0DAD               u3100:
  6268  0CEA                     	addlw	-1
  6269  0CEA  3EFF               	skipz
  6270  0CEB  1D03               	goto	u3105
  6271  0CEC  2CE5               	movf	0+(??___xxtofl+0)+0,w
  6272  0CED  082A               	iorwf	(___xxtofl@arg),f
  6273  0CEE  04B0               	movf	1+(??___xxtofl+0)+0,w
  6274  0CEF  082B               	iorwf	(___xxtofl@arg+1),f
  6275  0CF0  04B1               	movf	2+(??___xxtofl+0)+0,w
  6276  0CF1  082C               	iorwf	(___xxtofl@arg+2),f
  6277  0CF2  04B2               	movf	3+(??___xxtofl+0)+0,w
  6278  0CF3  082D               	iorwf	(___xxtofl@arg+3),f
  6279  0CF4  04B3               	line	41
  6280                           	
  6281                           l2660:	
  6282  0CF5                     	movf	((___xxtofl@sign)),w
  6283  0CF5  082E               	btfsc	status,2
  6284  0CF6  1903               	goto	u3111
  6285  0CF7  2CF9               	goto	u3110
  6286  0CF8  2CFA               u3111:
  6287  0CF9                     	goto	l2666
  6288  0CF9  2D00               u3110:
  6289  0CFA                     	
  6290                           l2662:	
  6291  0CFA                     	btfss	(___xxtofl@val+3),7
  6292  0CFA  1FA9               	goto	u3121
  6293  0CFB  2CFD               	goto	u3120
  6294  0CFC  2CFE               u3121:
  6295  0CFD                     	goto	l2666
  6296  0CFD  2D00               u3120:
  6297  0CFE                     	line	42
  6298                           	
  6299                           l2664:	
  6300  0CFE                     	bsf	(___xxtofl@arg)+(31/8),(31)&7
  6301  0CFE  17B3               	goto	l2666
  6302  0CFF  2D00               	
  6303                           l930:	
  6304  0D00                     	line	43
  6305                           	
  6306                           l2666:	
  6307  0D00                     	movf	(___xxtofl@arg+3),w
  6308  0D00  0833               	movwf	(?___xxtofl+3)
  6309  0D01  00A9               	movf	(___xxtofl@arg+2),w
  6310  0D02  0832               	movwf	(?___xxtofl+2)
  6311  0D03  00A8               	movf	(___xxtofl@arg+1),w
  6312  0D04  0831               	movwf	(?___xxtofl+1)
  6313  0D05  00A7               	movf	(___xxtofl@arg),w
  6314  0D06  0830               	movwf	(?___xxtofl)
  6315  0D07  00A6               
  6316                           	goto	l917
  6317  0D08  2D09               	
  6318                           l2668:	
  6319  0D09                     	line	44
  6320                           	
  6321                           l917:	
  6322  0D09                     	return
  6323  0D09  0008               	opt stack 0
  6324                           GLOBAL	__end_of___xxtofl
  6325                           	__end_of___xxtofl:
  6326  0D0A                     	signat	___xxtofl,8316
  6327                           	global	___fltol
  6328                           
  6329 ;; *************** function ___fltol *****************
  6330 ;; Defined at:
  6331 ;;		line 43 in file "C:\Program Files (x86)\Microchip\xc8\v2.00\pic\sources\c90\common\fltol.c"
  6332 ;; Parameters:    Size  Location     Type
  6333 ;;  f1              4   48[BANK0 ] unsigned char 
  6334 ;; Auto vars:     Size  Location     Type
  6335 ;;  exp1            1   58[BANK0 ] unsigned char 
  6336 ;;  sign1           1   57[BANK0 ] unsigned char 
  6337 ;; Return value:  Size  Location     Type
  6338 ;;                  4   48[BANK0 ] long 
  6339 ;; Registers used:
  6340 ;;		wreg, status,2, status,0
  6341 ;; Tracked objects:
  6342 ;;		On entry : 0/0
  6343 ;;		On exit  : 0/0
  6344 ;;		Unchanged: 0/0
  6345 ;; Data sizes:     COMMON   BANK0   BANK1   BANK3   BANK2
  6346 ;;      Params:         0       4       0       0       0
  6347 ;;      Locals:         0       2       0       0       0
  6348 ;;      Temps:          0       5       0       0       0
  6349 ;;      Totals:         0      11       0       0       0
  6350 ;;Total ram usage:       11 bytes
  6351 ;; Hardware stack levels used:    1
  6352 ;; Hardware stack levels required when called:    4
  6353 ;; This function calls:
  6354 ;;		Nothing
  6355 ;; This function is called by:
  6356 ;;		_b2
  6357 ;;		_b1
  6358 ;;		_b0
  6359 ;; This function uses a non-reentrant model
  6360 ;;
  6361                           psect	text19,local,class=CODE,delta=2,merge=1,group=1
  6362                           	file	"C:\Program Files (x86)\Microchip\xc8\v2.00\pic\sources\c90\common\fltol.c"
  6363                           	line	43
  6364                           global __ptext19
  6365                           __ptext19:	;psect for function ___fltol
  6366  08E7                     psect	text19
  6367                           	file	"C:\Program Files (x86)\Microchip\xc8\v2.00\pic\sources\c90\common\fltol.c"
  6368                           	line	43
  6369                           	global	__size_of___fltol
  6370                           	__size_of___fltol	equ	__end_of___fltol-___fltol
  6371  009C                     	
  6372                           ___fltol:	
  6373  08E7                     ;incstack = 0
  6374                           	opt	stack 0
  6375                           ; Regs used in ___fltol: [wreg+status,2+status,0]
  6376                           	line	47
  6377                           	
  6378                           l2254:	
  6379  08E7                     	bcf	status, 5	;RP0=0, select bank0
  6380  08E7  1283               	bcf	status, 6	;RP1=0, select bank0
  6381  08E8  1303               	movf	(___fltol@f1),w
  6382  08E9  0850               	movwf	(??___fltol+0)+0
  6383  08EA  00D4               	movf	(___fltol@f1+1),w
  6384  08EB  0851               	movwf	((??___fltol+0)+0+1)
  6385  08EC  00D5               	movf	(___fltol@f1+2),w
  6386  08ED  0852               	movwf	((??___fltol+0)+0+2)
  6387  08EE  00D6               	movf	(___fltol@f1+3),w
  6388  08EF  0853               	movwf	((??___fltol+0)+0+3)
  6389  08F0  00D7               	clrc
  6390  08F1  1003               	rlf	(??___fltol+0)+2,w
  6391  08F2  0D56               	rlf	(??___fltol+0)+3,w
  6392  08F3  0D57               	movwf	(??___fltol+4)+0
  6393  08F4  00D8               	movf	(??___fltol+4)+0,w
  6394  08F5  0858               	movwf	(___fltol@exp1)
  6395  08F6  00DA               	movf	(((___fltol@exp1))),w
  6396  08F7  085A               	btfss	status,2
  6397  08F8  1D03               	goto	u2141
  6398  08F9  28FB               	goto	u2140
  6399  08FA  28FC               u2141:
  6400  08FB                     	goto	l2260
  6401  08FB  2906               u2140:
  6402  08FC                     	line	48
  6403                           	
  6404                           l2256:	
  6405  08FC                     	movlw	high highword(0)
  6406  08FC  3000               	movwf	(?___fltol+3)
  6407  08FD  00D3               	movlw	low highword(0)
  6408  08FE  3000               	movwf	(?___fltol+2)
  6409  08FF  00D2               	movlw	high(0)
  6410  0900  3000               	movwf	(?___fltol+1)
  6411  0901  00D1               	movlw	low(0)
  6412  0902  3000               	movwf	(?___fltol)
  6413  0903  00D0               
  6414                           	goto	l693
  6415  0904  2982               	
  6416                           l2258:	
  6417  0905                     	goto	l693
  6418  0905  2982               	
  6419                           l692:	
  6420  0906                     	line	49
  6421                           	
  6422                           l2260:	
  6423  0906                     	movf	(___fltol@f1),w
  6424  0906  0850               	movwf	(??___fltol+0)+0
  6425  0907  00D4               	movf	(___fltol@f1+1),w
  6426  0908  0851               	movwf	((??___fltol+0)+0+1)
  6427  0909  00D5               	movf	(___fltol@f1+2),w
  6428  090A  0852               	movwf	((??___fltol+0)+0+2)
  6429  090B  00D6               	movf	(___fltol@f1+3),w
  6430  090C  0853               	movwf	((??___fltol+0)+0+3)
  6431  090D  00D7               	movlw	01Fh
  6432  090E  301F               u2155:
  6433  090F                     	clrc
  6434  090F  1003               	rrf	(??___fltol+0)+3,f
  6435  0910  0CD7               	rrf	(??___fltol+0)+2,f
  6436  0911  0CD6               	rrf	(??___fltol+0)+1,f
  6437  0912  0CD5               	rrf	(??___fltol+0)+0,f
  6438  0913  0CD4               u2150:
  6439  0914                     	addlw	-1
  6440  0914  3EFF               	skipz
  6441  0915  1D03               	goto	u2155
  6442  0916  290F               	movf	0+(??___fltol+0)+0,w
  6443  0917  0854               	movwf	(??___fltol+4)+0
  6444  0918  00D8               	movf	(??___fltol+4)+0,w
  6445  0919  0858               	movwf	(___fltol@sign1)
  6446  091A  00D9               	line	50
  6447                           	
  6448                           l2262:	
  6449  091B                     	bsf	(___fltol@f1)+(23/8),(23)&7
  6450  091B  17D2               	line	51
  6451                           	
  6452                           l2264:	
  6453  091C                     	movlw	0FFh
  6454  091C  30FF               	andwf	(___fltol@f1),f
  6455  091D  05D0               	movlw	0FFh
  6456  091E  30FF               	andwf	(___fltol@f1+1),f
  6457  091F  05D1               	movlw	0FFh
  6458  0920  30FF               	andwf	(___fltol@f1+2),f
  6459  0921  05D2               	movlw	0
  6460  0922  3000               	andwf	(___fltol@f1+3),f
  6461  0923  05D3               	line	52
  6462                           	
  6463                           l2266:	
  6464  0924                     	movlw	096h
  6465  0924  3096               	subwf	(___fltol@exp1),f
  6466  0925  02DA               	line	53
  6467                           	
  6468                           l2268:	
  6469  0926                     	btfss	(___fltol@exp1),7
  6470  0926  1FDA               	goto	u2161
  6471  0927  2929               	goto	u2160
  6472  0928  292A               u2161:
  6473  0929                     	goto	l2278
  6474  0929  294F               u2160:
  6475  092A                     	line	54
  6476                           	
  6477                           l2270:	
  6478  092A                     	movf	(___fltol@exp1),w
  6479  092A  085A               	xorlw	80h
  6480  092B  3A80               	addlw	-((-23)^80h)
  6481  092C  3E97               	skipnc
  6482  092D  1803               	goto	u2171
  6483  092E  2930               	goto	u2170
  6484  092F  2931               u2171:
  6485  0930                     	goto	l2276
  6486  0930  293C               u2170:
  6487  0931                     	line	55
  6488                           	
  6489                           l2272:	
  6490  0931                     	movlw	high highword(0)
  6491  0931  3000               	movwf	(?___fltol+3)
  6492  0932  00D3               	movlw	low highword(0)
  6493  0933  3000               	movwf	(?___fltol+2)
  6494  0934  00D2               	movlw	high(0)
  6495  0935  3000               	movwf	(?___fltol+1)
  6496  0936  00D1               	movlw	low(0)
  6497  0937  3000               	movwf	(?___fltol)
  6498  0938  00D0               
  6499                           	goto	l693
  6500  0939  2982               	
  6501                           l2274:	
  6502  093A                     	goto	l693
  6503  093A  2982               	
  6504                           l695:	
  6505  093B                     	goto	l2276
  6506  093B  293C               	line	56
  6507                           	
  6508                           l696:	
  6509  093C                     	line	57
  6510                           	
  6511                           l2276:	
  6512  093C                     	movlw	01h
  6513  093C  3001               u2185:
  6514  093D                     	clrc
  6515  093D  1003               	rrf	(___fltol@f1+3),f
  6516  093E  0CD3               	rrf	(___fltol@f1+2),f
  6517  093F  0CD2               	rrf	(___fltol@f1+1),f
  6518  0940  0CD1               	rrf	(___fltol@f1),f
  6519  0941  0CD0               	addlw	-1
  6520  0942  3EFF               	skipz
  6521  0943  1D03               	goto	u2185
  6522  0944  293D               
  6523                           	line	58
  6524                           	movlw	low(01h)
  6525  0945  3001               	movwf	(??___fltol+0)+0
  6526  0946  00D4               	movf	(??___fltol+0)+0,w
  6527  0947  0854               	addwf	(___fltol@exp1),f
  6528  0948  07DA               	btfss	status,2
  6529  0949  1D03               	goto	u2191
  6530  094A  294C               	goto	u2190
  6531  094B  294D               u2191:
  6532  094C                     	goto	l2276
  6533  094C  293C               u2190:
  6534  094D                     	goto	l2286
  6535  094D  2972               	
  6536                           l697:	
  6537  094E                     	line	59
  6538                           	goto	l2286
  6539  094E  2972               	
  6540                           l694:	
  6541  094F                     	line	60
  6542                           	
  6543                           l2278:	
  6544  094F                     	movlw	low(020h)
  6545  094F  3020               	subwf	(___fltol@exp1),w
  6546  0950  025A               	skipc
  6547  0951  1C03               	goto	u2201
  6548  0952  2954               	goto	u2200
  6549  0953  2955               u2201:
  6550  0954                     	goto	l700
  6551  0954  296B               u2200:
  6552  0955                     	line	61
  6553                           	
  6554                           l2280:	
  6555  0955                     	movlw	high highword(0)
  6556  0955  3000               	movwf	(?___fltol+3)
  6557  0956  00D3               	movlw	low highword(0)
  6558  0957  3000               	movwf	(?___fltol+2)
  6559  0958  00D2               	movlw	high(0)
  6560  0959  3000               	movwf	(?___fltol+1)
  6561  095A  00D1               	movlw	low(0)
  6562  095B  3000               	movwf	(?___fltol)
  6563  095C  00D0               
  6564                           	goto	l693
  6565  095D  2982               	
  6566                           l2282:	
  6567  095E                     	goto	l693
  6568  095E  2982               	
  6569                           l699:	
  6570  095F                     	line	62
  6571                           	goto	l700
  6572  095F  296B               	
  6573                           l701:	
  6574  0960                     	line	63
  6575                           	
  6576                           l2284:	
  6577  0960                     	movlw	01h
  6578  0960  3001               	movwf	(??___fltol+0)+0
  6579  0961  00D4               u2215:
  6580  0962                     	clrc
  6581  0962  1003               	rlf	(___fltol@f1),f
  6582  0963  0DD0               	rlf	(___fltol@f1+1),f
  6583  0964  0DD1               	rlf	(___fltol@f1+2),f
  6584  0965  0DD2               	rlf	(___fltol@f1+3),f
  6585  0966  0DD3               	decfsz	(??___fltol+0)+0
  6586  0967  0BD4               	goto	u2215
  6587  0968  2962               	line	64
  6588                           	movlw	01h
  6589  0969  3001               	subwf	(___fltol@exp1),f
  6590  096A  02DA               	line	65
  6591                           	
  6592                           l700:	
  6593  096B                     	line	62
  6594                           	movf	((___fltol@exp1)),w
  6595  096B  085A               	btfss	status,2
  6596  096C  1D03               	goto	u2221
  6597  096D  296F               	goto	u2220
  6598  096E  2970               u2221:
  6599  096F                     	goto	l2284
  6600  096F  2960               u2220:
  6601  0970                     	goto	l2286
  6602  0970  2972               	
  6603                           l702:	
  6604  0971                     	goto	l2286
  6605  0971  2972               	line	66
  6606                           	
  6607                           l698:	
  6608  0972                     	line	67
  6609                           	
  6610                           l2286:	
  6611  0972                     	movf	((___fltol@sign1)),w
  6612  0972  0859               	btfsc	status,2
  6613  0973  1903               	goto	u2231
  6614  0974  2976               	goto	u2230
  6615  0975  2977               u2231:
  6616  0976                     	goto	l703
  6617  0976  2982               u2230:
  6618  0977                     	line	68
  6619                           	
  6620                           l2288:	
  6621  0977                     	comf	(___fltol@f1),f
  6622  0977  09D0               	comf	(___fltol@f1+1),f
  6623  0978  09D1               	comf	(___fltol@f1+2),f
  6624  0979  09D2               	comf	(___fltol@f1+3),f
  6625  097A  09D3               	incf	(___fltol@f1),f
  6626  097B  0AD0               	skipnz
  6627  097C  1903               	incf	(___fltol@f1+1),f
  6628  097D  0AD1               	skipnz
  6629  097E  1903               	incf	(___fltol@f1+2),f
  6630  097F  0AD2               	skipnz
  6631  0980  1903               	incf	(___fltol@f1+3),f
  6632  0981  0AD3               	
  6633                           l703:	
  6634  0982                     	line	69
  6635                           	line	70
  6636                           	
  6637                           l693:	
  6638  0982                     	return
  6639  0982  0008               	opt stack 0
  6640                           GLOBAL	__end_of___fltol
  6641                           	__end_of___fltol:
  6642  0983                     	signat	___fltol,4220
  6643                           	global	___flneg
  6644                           
  6645 ;; *************** function ___flneg *****************
  6646 ;; Defined at:
  6647 ;;		line 15 in file "C:\Program Files (x86)\Microchip\xc8\v2.00\pic\sources\c90\common\flneg.c"
  6648 ;; Parameters:    Size  Location     Type
  6649 ;;  f1              4   20[BANK0 ] long 
  6650 ;; Auto vars:     Size  Location     Type
  6651 ;;		None
  6652 ;; Return value:  Size  Location     Type
  6653 ;;                  4   20[BANK0 ] long 
  6654 ;; Registers used:
  6655 ;;		wreg
  6656 ;; Tracked objects:
  6657 ;;		On entry : 0/0
  6658 ;;		On exit  : 0/0
  6659 ;;		Unchanged: 0/0
  6660 ;; Data sizes:     COMMON   BANK0   BANK1   BANK3   BANK2
  6661 ;;      Params:         0       4       0       0       0
  6662 ;;      Locals:         0       0       0       0       0
  6663 ;;      Temps:          0       0       0       0       0
  6664 ;;      Totals:         0       4       0       0       0
  6665 ;;Total ram usage:        4 bytes
  6666 ;; Hardware stack levels used:    1
  6667 ;; Hardware stack levels required when called:    4
  6668 ;; This function calls:
  6669 ;;		Nothing
  6670 ;; This function is called by:
  6671 ;;		_b1
  6672 ;;		_b0
  6673 ;; This function uses a non-reentrant model
  6674 ;;
  6675                           psect	text20,local,class=CODE,delta=2,merge=1,group=1
  6676                           	file	"C:\Program Files (x86)\Microchip\xc8\v2.00\pic\sources\c90\common\flneg.c"
  6677                           	line	15
  6678                           global __ptext20
  6679                           __ptext20:	;psect for function ___flneg
  6680  11B4                     psect	text20
  6681                           	file	"C:\Program Files (x86)\Microchip\xc8\v2.00\pic\sources\c90\common\flneg.c"
  6682                           	line	15
  6683                           	global	__size_of___flneg
  6684                           	__size_of___flneg	equ	__end_of___flneg-___flneg
  6685  000F                     	
  6686                           ___flneg:	
  6687  11B4                     ;incstack = 0
  6688                           	opt	stack 0
  6689                           ; Regs used in ___flneg: [wreg]
  6690                           	line	17
  6691                           	
  6692                           l2246:	
  6693  11B4                     	bcf	status, 5	;RP0=0, select bank0
  6694  11B4  1283               	bcf	status, 6	;RP1=0, select bank0
  6695  11B5  1303               	movf	(___flneg@f1+3),w
  6696  11B6  0837               	iorwf	(___flneg@f1+2),w
  6697  11B7  0436               	iorwf	(___flneg@f1+1),w
  6698  11B8  0435               	iorwf	(___flneg@f1),w
  6699  11B9  0434               	skipnz
  6700  11BA  1903               	goto	u2131
  6701  11BB  29BD               	goto	u2130
  6702  11BC  29BE               u2131:
  6703  11BD                     	goto	l2250
  6704  11BD  29C1               u2130:
  6705  11BE                     	line	18
  6706                           	
  6707                           l2248:	
  6708  11BE                     	movlw	080h
  6709  11BE  3080               	xorwf	(___flneg@f1+3),f
  6710  11BF  06B7               	goto	l2250
  6711  11C0  29C1               	
  6712                           l688:	
  6713  11C1                     	line	19
  6714                           	
  6715                           l2250:	
  6716  11C1                     	goto	l689
  6717  11C1  29C2               	
  6718                           l2252:	
  6719  11C2                     	line	20
  6720                           	
  6721                           l689:	
  6722  11C2                     	return
  6723  11C2  0008               	opt stack 0
  6724                           GLOBAL	__end_of___flneg
  6725                           	__end_of___flneg:
  6726  11C3                     	signat	___flneg,4220
  6727                           	global	___fldiv
  6728                           
  6729 ;; *************** function ___fldiv *****************
  6730 ;; Defined at:
  6731 ;;		line 8 in file "C:\Program Files (x86)\Microchip\xc8\v2.00\pic\sources\c90\common\sprcdiv.c"
  6732 ;; Parameters:    Size  Location     Type
  6733 ;;  a               4    0[BANK0 ] long 
  6734 ;;  b               4    4[BANK0 ] long 
  6735 ;; Auto vars:     Size  Location     Type
  6736 ;;  grs             4   20[BANK0 ] unsigned long 
  6737 ;;  rem             4   13[BANK0 ] unsigned long 
  6738 ;;  new_exp         2   18[BANK0 ] int 
  6739 ;;  aexp            1   25[BANK0 ] unsigned char 
  6740 ;;  bexp            1   24[BANK0 ] unsigned char 
  6741 ;;  sign            1   17[BANK0 ] unsigned char 
  6742 ;; Return value:  Size  Location     Type
  6743 ;;                  4    0[BANK0 ] unsigned char 
  6744 ;; Registers used:
  6745 ;;		wreg, status,2, status,0, btemp+1
  6746 ;; Tracked objects:
  6747 ;;		On entry : 0/0
  6748 ;;		On exit  : 0/0
  6749 ;;		Unchanged: 0/0
  6750 ;; Data sizes:     COMMON   BANK0   BANK1   BANK3   BANK2
  6751 ;;      Params:         0       8       0       0       0
  6752 ;;      Locals:         0      13       0       0       0
  6753 ;;      Temps:          0       5       0       0       0
  6754 ;;      Totals:         0      26       0       0       0
  6755 ;;Total ram usage:       26 bytes
  6756 ;; Hardware stack levels used:    1
  6757 ;; Hardware stack levels required when called:    4
  6758 ;; This function calls:
  6759 ;;		Nothing
  6760 ;; This function is called by:
  6761 ;;		_b2
  6762 ;;		_b1
  6763 ;;		_b0
  6764 ;; This function uses a non-reentrant model
  6765 ;;
  6766                           psect	text21,local,class=CODE,delta=2,merge=1,group=1
  6767                           	file	"C:\Program Files (x86)\Microchip\xc8\v2.00\pic\sources\c90\common\sprcdiv.c"
  6768                           	line	8
  6769                           global __ptext21
  6770                           __ptext21:	;psect for function ___fldiv
  6771  02F5                     psect	text21
  6772                           	file	"C:\Program Files (x86)\Microchip\xc8\v2.00\pic\sources\c90\common\sprcdiv.c"
  6773                           	line	8
  6774                           	global	__size_of___fldiv
  6775                           	__size_of___fldiv	equ	__end_of___fldiv-___fldiv
  6776  0209                     	
  6777                           ___fldiv:	
  6778  02F5                     ;incstack = 0
  6779                           	opt	stack 0
  6780                           ; Regs used in ___fldiv: [wreg+status,2+status,0+btemp+1]
  6781                           	line	26
  6782                           	
  6783                           l2484:	
  6784  02F5                     	bcf	status, 5	;RP0=0, select bank0
  6785  02F5  1283               	bcf	status, 6	;RP1=0, select bank0
  6786  02F6  1303               	movf	0+(___fldiv@b)+03h,w
  6787  02F7  0827               	andlw	080h
  6788  02F8  3980               	movwf	(??___fldiv+0)+0
  6789  02F9  00A8               	movf	(??___fldiv+0)+0,w
  6790  02FA  0828               	movwf	(___fldiv@sign)
  6791  02FB  00B1               	line	27
  6792                           	
  6793                           l2486:	
  6794  02FC                     	movf	0+(___fldiv@b)+03h,w
  6795  02FC  0827               	movwf	(??___fldiv+0)+0
  6796  02FD  00A8               	addwf	(??___fldiv+0)+0,w
  6797  02FE  0728               	movwf	(??___fldiv+1)+0
  6798  02FF  00A9               	movf	(??___fldiv+1)+0,w
  6799  0300  0829               	movwf	(___fldiv@bexp)
  6800  0301  00B8               	line	28
  6801                           	
  6802                           l2488:	
  6803  0302                     	btfss	0+(___fldiv@b)+02h,(7)&7
  6804  0302  1FA6               	goto	u2701
  6805  0303  2B05               	goto	u2700
  6806  0304  2B06               u2701:
  6807  0305                     	goto	l2492
  6808  0305  2B08               u2700:
  6809  0306                     	line	29
  6810                           	
  6811                           l2490:	
  6812  0306                     	bsf	(___fldiv@bexp)+(0/8),(0)&7
  6813  0306  1438               	goto	l2492
  6814  0307  2B08               	line	30
  6815                           	
  6816                           l849:	
  6817  0308                     	line	33
  6818                           	
  6819                           l2492:	
  6820  0308                     	movf	((___fldiv@bexp)),w
  6821  0308  0838               	btfsc	status,2
  6822  0309  1903               	goto	u2711
  6823  030A  2B0C               	goto	u2710
  6824  030B  2B0D               u2711:
  6825  030C                     	goto	l2502
  6826  030C  2B1E               u2710:
  6827  030D                     	line	35
  6828                           	
  6829                           l2494:	
  6830  030D                     		incf	((___fldiv@bexp)),w
  6831  030D  0A38               	btfss	status,2
  6832  030E  1D03               	goto	u2721
  6833  030F  2B11               	goto	u2720
  6834  0310  2B12               u2721:
  6835  0311                     	goto	l2498
  6836  0311  2B1B               u2720:
  6837  0312                     	line	37
  6838                           	
  6839                           l2496:	
  6840  0312                     	movlw	0x0
  6841  0312  3000               	movwf	(___fldiv@b+3)
  6842  0313  00A7               	movlw	0x0
  6843  0314  3000               	movwf	(___fldiv@b+2)
  6844  0315  00A6               	movlw	0x0
  6845  0316  3000               	movwf	(___fldiv@b+1)
  6846  0317  00A5               	movlw	0x0
  6847  0318  3000               	movwf	(___fldiv@b)
  6848  0319  00A4               
  6849                           	goto	l2498
  6850  031A  2B1B               	line	38
  6851                           	
  6852                           l851:	
  6853  031B                     	line	40
  6854                           	
  6855                           l2498:	
  6856  031B                     	bsf	(___fldiv@b)+(23/8),(23)&7
  6857  031B  17A6               	line	42
  6858                           	
  6859                           l2500:	
  6860  031C                     	clrf	0+(___fldiv@b)+03h
  6861  031C  01A7               	line	43
  6862                           	goto	l2504
  6863  031D  2B27               	line	44
  6864                           	
  6865                           l850:	
  6866  031E                     	line	46
  6867                           	
  6868                           l2502:	
  6869  031E                     	movlw	0x0
  6870  031E  3000               	movwf	(___fldiv@b+3)
  6871  031F  00A7               	movlw	0x0
  6872  0320  3000               	movwf	(___fldiv@b+2)
  6873  0321  00A6               	movlw	0x0
  6874  0322  3000               	movwf	(___fldiv@b+1)
  6875  0323  00A5               	movlw	0x0
  6876  0324  3000               	movwf	(___fldiv@b)
  6877  0325  00A4               
  6878                           	goto	l2504
  6879  0326  2B27               	line	47
  6880                           	
  6881                           l852:	
  6882  0327                     	line	49
  6883                           	
  6884                           l2504:	
  6885  0327                     	movf	0+(___fldiv@a)+03h,w
  6886  0327  0823               	andlw	080h
  6887  0328  3980               	movwf	(??___fldiv+0)+0
  6888  0329  00A8               	movf	(??___fldiv+0)+0,w
  6889  032A  0828               	xorwf	(___fldiv@sign),f
  6890  032B  06B1               	line	50
  6891                           	
  6892                           l2506:	
  6893  032C                     	movf	0+(___fldiv@a)+03h,w
  6894  032C  0823               	movwf	(??___fldiv+0)+0
  6895  032D  00A8               	addwf	(??___fldiv+0)+0,w
  6896  032E  0728               	movwf	(??___fldiv+1)+0
  6897  032F  00A9               	movf	(??___fldiv+1)+0,w
  6898  0330  0829               	movwf	(___fldiv@aexp)
  6899  0331  00B9               	line	51
  6900                           	
  6901                           l2508:	
  6902  0332                     	btfss	0+(___fldiv@a)+02h,(7)&7
  6903  0332  1FA2               	goto	u2731
  6904  0333  2B35               	goto	u2730
  6905  0334  2B36               u2731:
  6906  0335                     	goto	l2512
  6907  0335  2B38               u2730:
  6908  0336                     	line	52
  6909                           	
  6910                           l2510:	
  6911  0336                     	bsf	(___fldiv@aexp)+(0/8),(0)&7
  6912  0336  1439               	goto	l2512
  6913  0337  2B38               	line	53
  6914                           	
  6915                           l853:	
  6916  0338                     	line	56
  6917                           	
  6918                           l2512:	
  6919  0338                     	movf	((___fldiv@aexp)),w
  6920  0338  0839               	btfsc	status,2
  6921  0339  1903               	goto	u2741
  6922  033A  2B3C               	goto	u2740
  6923  033B  2B3D               u2741:
  6924  033C                     	goto	l2522
  6925  033C  2B4E               u2740:
  6926  033D                     	line	58
  6927                           	
  6928                           l2514:	
  6929  033D                     		incf	((___fldiv@aexp)),w
  6930  033D  0A39               	btfss	status,2
  6931  033E  1D03               	goto	u2751
  6932  033F  2B41               	goto	u2750
  6933  0340  2B42               u2751:
  6934  0341                     	goto	l2518
  6935  0341  2B4B               u2750:
  6936  0342                     	line	60
  6937                           	
  6938                           l2516:	
  6939  0342                     	movlw	0x0
  6940  0342  3000               	movwf	(___fldiv@a+3)
  6941  0343  00A3               	movlw	0x0
  6942  0344  3000               	movwf	(___fldiv@a+2)
  6943  0345  00A2               	movlw	0x0
  6944  0346  3000               	movwf	(___fldiv@a+1)
  6945  0347  00A1               	movlw	0x0
  6946  0348  3000               	movwf	(___fldiv@a)
  6947  0349  00A0               
  6948                           	goto	l2518
  6949  034A  2B4B               	line	61
  6950                           	
  6951                           l855:	
  6952  034B                     	line	63
  6953                           	
  6954                           l2518:	
  6955  034B                     	bsf	(___fldiv@a)+(23/8),(23)&7
  6956  034B  17A2               	line	65
  6957                           	
  6958                           l2520:	
  6959  034C                     	clrf	0+(___fldiv@a)+03h
  6960  034C  01A3               	line	66
  6961                           	goto	l856
  6962  034D  2B56               	line	67
  6963                           	
  6964                           l854:	
  6965  034E                     	line	69
  6966                           	
  6967                           l2522:	
  6968  034E                     	movlw	0x0
  6969  034E  3000               	movwf	(___fldiv@a+3)
  6970  034F  00A3               	movlw	0x0
  6971  0350  3000               	movwf	(___fldiv@a+2)
  6972  0351  00A2               	movlw	0x0
  6973  0352  3000               	movwf	(___fldiv@a+1)
  6974  0353  00A1               	movlw	0x0
  6975  0354  3000               	movwf	(___fldiv@a)
  6976  0355  00A0               
  6977                           	line	70
  6978                           	
  6979                           l856:	
  6980  0356                     	line	75
  6981                           	movf	(___fldiv@a+3),w
  6982  0356  0823               	iorwf	(___fldiv@a+2),w
  6983  0357  0422               	iorwf	(___fldiv@a+1),w
  6984  0358  0421               	iorwf	(___fldiv@a),w
  6985  0359  0420               	skipz
  6986  035A  1D03               	goto	u2761
  6987  035B  2B5D               	goto	u2760
  6988  035C  2B5E               u2761:
  6989  035D                     	goto	l2532
  6990  035D  2B78               u2760:
  6991  035E                     	line	76
  6992                           	
  6993                           l2524:	
  6994  035E                     	movlw	high highword(0)
  6995  035E  3000               	movwf	(___fldiv@b+3)
  6996  035F  00A7               	movlw	low highword(0)
  6997  0360  3000               	movwf	(___fldiv@b+2)
  6998  0361  00A6               	movlw	high(0)
  6999  0362  3000               	movwf	(___fldiv@b+1)
  7000  0363  00A5               	movlw	low(0)
  7001  0364  3000               	movwf	(___fldiv@b)
  7002  0365  00A4               
  7003                           	line	77
  7004                           	movlw	080h
  7005  0366  3080               	iorwf	0+(___fldiv@b)+02h,f
  7006  0367  04A6               	movlw	07Fh
  7007  0368  307F               	iorwf	1+(___fldiv@b)+02h,f
  7008  0369  04A7               	line	78
  7009                           	
  7010                           l2526:	
  7011  036A                     	movf	(___fldiv@sign),w
  7012  036A  0831               	movwf	(??___fldiv+0)+0
  7013  036B  00A8               	movf	(??___fldiv+0)+0,w
  7014  036C  0828               	iorwf	0+(___fldiv@b)+03h,f
  7015  036D  04A7               	line	79
  7016                           	
  7017                           l2528:	
  7018  036E                     	movf	(___fldiv@b+3),w
  7019  036E  0827               	movwf	(?___fldiv+3)
  7020  036F  00A3               	movf	(___fldiv@b+2),w
  7021  0370  0826               	movwf	(?___fldiv+2)
  7022  0371  00A2               	movf	(___fldiv@b+1),w
  7023  0372  0825               	movwf	(?___fldiv+1)
  7024  0373  00A1               	movf	(___fldiv@b),w
  7025  0374  0824               	movwf	(?___fldiv)
  7026  0375  00A0               
  7027                           	goto	l858
  7028  0376  2CFD               	
  7029                           l2530:	
  7030  0377                     	goto	l858
  7031  0377  2CFD               	line	80
  7032                           	
  7033                           l857:	
  7034  0378                     	line	83
  7035                           	
  7036                           l2532:	
  7037  0378                     	movf	((___fldiv@bexp)),w
  7038  0378  0838               	btfss	status,2
  7039  0379  1D03               	goto	u2771
  7040  037A  2B7C               	goto	u2770
  7041  037B  2B7D               u2771:
  7042  037C                     	goto	l2538
  7043  037C  2B8F               u2770:
  7044  037D                     	line	84
  7045                           	
  7046                           l2534:	
  7047  037D                     	movlw	high highword(0)
  7048  037D  3000               	movwf	(___fldiv@b+3)
  7049  037E  00A7               	movlw	low highword(0)
  7050  037F  3000               	movwf	(___fldiv@b+2)
  7051  0380  00A6               	movlw	high(0)
  7052  0381  3000               	movwf	(___fldiv@b+1)
  7053  0382  00A5               	movlw	low(0)
  7054  0383  3000               	movwf	(___fldiv@b)
  7055  0384  00A4               
  7056                           	line	85
  7057                           	movf	(___fldiv@b+3),w
  7058  0385  0827               	movwf	(?___fldiv+3)
  7059  0386  00A3               	movf	(___fldiv@b+2),w
  7060  0387  0826               	movwf	(?___fldiv+2)
  7061  0388  00A2               	movf	(___fldiv@b+1),w
  7062  0389  0825               	movwf	(?___fldiv+1)
  7063  038A  00A1               	movf	(___fldiv@b),w
  7064  038B  0824               	movwf	(?___fldiv)
  7065  038C  00A0               
  7066                           	goto	l858
  7067  038D  2CFD               	
  7068                           l2536:	
  7069  038E                     	goto	l858
  7070  038E  2CFD               	line	86
  7071                           	
  7072                           l859:	
  7073  038F                     	line	89
  7074                           	
  7075                           l2538:	
  7076  038F                     	movf	(___fldiv@aexp),w
  7077  038F  0839               	movwf	(??___fldiv+0)+0
  7078  0390  00A8               	clrf	(??___fldiv+0)+0+1
  7079  0391  01A9               	comf	(??___fldiv+0)+0,f
  7080  0392  09A8               	comf	(??___fldiv+0)+1,f
  7081  0393  09A9               	incf	(??___fldiv+0)+0,f
  7082  0394  0AA8               	skipnz
  7083  0395  1903               	incf	(??___fldiv+0)+1,f
  7084  0396  0AA9               	movf	(___fldiv@bexp),w
  7085  0397  0838               	addwf	0+(??___fldiv+0)+0,w
  7086  0398  0728               	movwf	(??___fldiv+2)+0
  7087  0399  00AA               	movf	1+(??___fldiv+0)+0,w
  7088  039A  0829               	skipnc
  7089  039B  1803               	incf	1+(??___fldiv+0)+0,w
  7090  039C  0A29               	movwf	((??___fldiv+2)+0)+1
  7091  039D  00AB               	movf	0+(??___fldiv+2)+0,w
  7092  039E  082A               	addlw	low(07Fh)
  7093  039F  3E7F               	movwf	(___fldiv@new_exp)
  7094  03A0  00B2               	movf	1+(??___fldiv+2)+0,w
  7095  03A1  082B               	skipnc
  7096  03A2  1803               	addlw	1
  7097  03A3  3E01               	addlw	high(07Fh)
  7098  03A4  3E00               	movwf	1+(___fldiv@new_exp)
  7099  03A5  00B3               	line	92
  7100                           	
  7101                           l2540:	
  7102  03A6                     	movf	(___fldiv@b+3),w
  7103  03A6  0827               	movwf	(___fldiv@rem+3)
  7104  03A7  00B0               	movf	(___fldiv@b+2),w
  7105  03A8  0826               	movwf	(___fldiv@rem+2)
  7106  03A9  00AF               	movf	(___fldiv@b+1),w
  7107  03AA  0825               	movwf	(___fldiv@rem+1)
  7108  03AB  00AE               	movf	(___fldiv@b),w
  7109  03AC  0824               	movwf	(___fldiv@rem)
  7110  03AD  00AD               
  7111                           	line	93
  7112                           	
  7113                           l2542:	
  7114  03AE                     	movlw	high highword(0)
  7115  03AE  3000               	movwf	(___fldiv@b+3)
  7116  03AF  00A7               	movlw	low highword(0)
  7117  03B0  3000               	movwf	(___fldiv@b+2)
  7118  03B1  00A6               	movlw	high(0)
  7119  03B2  3000               	movwf	(___fldiv@b+1)
  7120  03B3  00A5               	movlw	low(0)
  7121  03B4  3000               	movwf	(___fldiv@b)
  7122  03B5  00A4               
  7123                           	line	94
  7124                           	
  7125                           l2544:	
  7126  03B6                     	movlw	high highword(0)
  7127  03B6  3000               	movwf	(___fldiv@grs+3)
  7128  03B7  00B7               	movlw	low highword(0)
  7129  03B8  3000               	movwf	(___fldiv@grs+2)
  7130  03B9  00B6               	movlw	high(0)
  7131  03BA  3000               	movwf	(___fldiv@grs+1)
  7132  03BB  00B5               	movlw	low(0)
  7133  03BC  3000               	movwf	(___fldiv@grs)
  7134  03BD  00B4               
  7135                           	line	96
  7136                           	
  7137                           l2546:	
  7138  03BE                     	clrf	(___fldiv@aexp)
  7139  03BE  01B9               	line	97
  7140                           	goto	l2566
  7141  03BF  2C0E               	
  7142                           l861:	
  7143  03C0                     	line	100
  7144                           	
  7145                           l2548:	
  7146  03C0                     	movf	((___fldiv@aexp)),w
  7147  03C0  0839               	btfsc	status,2
  7148  03C1  1903               	goto	u2781
  7149  03C2  2BC4               	goto	u2780
  7150  03C3  2BC5               u2781:
  7151  03C4                     	goto	l2558
  7152  03C4  2BE7               u2780:
  7153  03C5                     	line	101
  7154                           	
  7155                           l2550:	
  7156  03C5                     	movlw	01h
  7157  03C5  3001               	movwf	(??___fldiv+0)+0
  7158  03C6  00A8               u2795:
  7159  03C7                     	clrc
  7160  03C7  1003               	rlf	(___fldiv@rem),f
  7161  03C8  0DAD               	rlf	(___fldiv@rem+1),f
  7162  03C9  0DAE               	rlf	(___fldiv@rem+2),f
  7163  03CA  0DAF               	rlf	(___fldiv@rem+3),f
  7164  03CB  0DB0               	decfsz	(??___fldiv+0)+0
  7165  03CC  0BA8               	goto	u2795
  7166  03CD  2BC7               	line	102
  7167                           	movlw	01h
  7168  03CE  3001               	movwf	(??___fldiv+0)+0
  7169  03CF  00A8               u2805:
  7170  03D0                     	clrc
  7171  03D0  1003               	rlf	(___fldiv@b),f
  7172  03D1  0DA4               	rlf	(___fldiv@b+1),f
  7173  03D2  0DA5               	rlf	(___fldiv@b+2),f
  7174  03D3  0DA6               	rlf	(___fldiv@b+3),f
  7175  03D4  0DA7               	decfsz	(??___fldiv+0)+0
  7176  03D5  0BA8               	goto	u2805
  7177  03D6  2BD0               	line	103
  7178                           	
  7179                           l2552:	
  7180  03D7                     	btfss	(___fldiv@grs+3),(31)&7
  7181  03D7  1FB7               	goto	u2811
  7182  03D8  2BDA               	goto	u2810
  7183  03D9  2BDB               u2811:
  7184  03DA                     	goto	l2556
  7185  03DA  2BDD               u2810:
  7186  03DB                     	line	104
  7187                           	
  7188                           l2554:	
  7189  03DB                     	bsf	(___fldiv@b)+(0/8),(0)&7
  7190  03DB  1424               	goto	l2556
  7191  03DC  2BDD               	line	105
  7192                           	
  7193                           l863:	
  7194  03DD                     	line	106
  7195                           	
  7196                           l2556:	
  7197  03DD                     	movlw	01h
  7198  03DD  3001               	movwf	(??___fldiv+0)+0
  7199  03DE  00A8               u2825:
  7200  03DF                     	clrc
  7201  03DF  1003               	rlf	(___fldiv@grs),f
  7202  03E0  0DB4               	rlf	(___fldiv@grs+1),f
  7203  03E1  0DB5               	rlf	(___fldiv@grs+2),f
  7204  03E2  0DB6               	rlf	(___fldiv@grs+3),f
  7205  03E3  0DB7               	decfsz	(??___fldiv+0)+0
  7206  03E4  0BA8               	goto	u2825
  7207  03E5  2BDF               	goto	l2558
  7208  03E6  2BE7               	line	107
  7209                           	
  7210                           l862:	
  7211  03E7                     	line	112
  7212                           	
  7213                           l2558:	
  7214  03E7                     	movf	(___fldiv@a+3),w
  7215  03E7  0823               	subwf	(___fldiv@rem+3),w
  7216  03E8  0230               	skipz
  7217  03E9  1D03               	goto	u2835
  7218  03EA  2BF5               	movf	(___fldiv@a+2),w
  7219  03EB  0822               	subwf	(___fldiv@rem+2),w
  7220  03EC  022F               	skipz
  7221  03ED  1D03               	goto	u2835
  7222  03EE  2BF5               	movf	(___fldiv@a+1),w
  7223  03EF  0821               	subwf	(___fldiv@rem+1),w
  7224  03F0  022E               	skipz
  7225  03F1  1D03               	goto	u2835
  7226  03F2  2BF5               	movf	(___fldiv@a),w
  7227  03F3  0820               	subwf	(___fldiv@rem),w
  7228  03F4  022D               u2835:
  7229  03F5                     	skipc
  7230  03F5  1C03               	goto	u2831
  7231  03F6  2BF8               	goto	u2830
  7232  03F7  2BF9               u2831:
  7233  03F8                     	goto	l2564
  7234  03F8  2C09               u2830:
  7235  03F9                     	line	115
  7236                           	
  7237                           l2560:	
  7238  03F9                     	bsf	(___fldiv@grs)+(30/8),(30)&7
  7239  03F9  1737               	line	116
  7240                           	
  7241                           l2562:	
  7242  03FA                     	movf	(___fldiv@a),w
  7243  03FA  0820               	subwf	(___fldiv@rem),f
  7244  03FB  02AD               	movf	(___fldiv@a+1),w
  7245  03FC  0821               	skipc
  7246  03FD  1C03               	incfsz	(___fldiv@a+1),w
  7247  03FE  0F21               	subwf	(___fldiv@rem+1),f
  7248  03FF  02AE               	movf	(___fldiv@a+2),w
  7249  0400  0822               	skipc
  7250  0401  1C03               	incfsz	(___fldiv@a+2),w
  7251  0402  0F22               	subwf	(___fldiv@rem+2),f
  7252  0403  02AF               	movf	(___fldiv@a+3),w
  7253  0404  0823               	skipc
  7254  0405  1C03               	incfsz	(___fldiv@a+3),w
  7255  0406  0F23               	subwf	(___fldiv@rem+3),f
  7256  0407  02B0               	goto	l2564
  7257  0408  2C09               	line	117
  7258                           	
  7259                           l864:	
  7260  0409                     	line	118
  7261                           	
  7262                           l2564:	
  7263  0409                     	movlw	low(01h)
  7264  0409  3001               	movwf	(??___fldiv+0)+0
  7265  040A  00A8               	movf	(??___fldiv+0)+0,w
  7266  040B  0828               	addwf	(___fldiv@aexp),f
  7267  040C  07B9               	goto	l2566
  7268  040D  2C0E               	line	119
  7269                           	
  7270                           l860:	
  7271  040E                     	line	97
  7272                           	
  7273                           l2566:	
  7274  040E                     	movlw	low(01Ah)
  7275  040E  301A               	subwf	(___fldiv@aexp),w
  7276  040F  0239               	skipc
  7277  0410  1C03               	goto	u2841
  7278  0411  2C13               	goto	u2840
  7279  0412  2C14               u2841:
  7280  0413                     	goto	l2548
  7281  0413  2BC0               u2840:
  7282  0414                     	goto	l2568
  7283  0414  2C15               	
  7284                           l865:	
  7285  0415                     	line	122
  7286                           	
  7287                           l2568:	
  7288  0415                     	movf	(___fldiv@rem+3),w
  7289  0415  0830               	iorwf	(___fldiv@rem+2),w
  7290  0416  042F               	iorwf	(___fldiv@rem+1),w
  7291  0417  042E               	iorwf	(___fldiv@rem),w
  7292  0418  042D               	skipnz
  7293  0419  1903               	goto	u2851
  7294  041A  2C1C               	goto	u2850
  7295  041B  2C1D               u2851:
  7296  041C                     	goto	l2582
  7297  041C  2C3F               u2850:
  7298  041D                     	line	123
  7299                           	
  7300                           l2570:	
  7301  041D                     	bsf	(___fldiv@grs)+(0/8),(0)&7
  7302  041D  1434               	goto	l2582
  7303  041E  2C3F               	line	124
  7304                           	
  7305                           l866:	
  7306  041F                     	line	127
  7307                           	goto	l2582
  7308  041F  2C3F               	
  7309                           l868:	
  7310  0420                     	line	128
  7311                           	
  7312                           l2572:	
  7313  0420                     	movlw	01h
  7314  0420  3001               	movwf	(??___fldiv+0)+0
  7315  0421  00A8               u2865:
  7316  0422                     	clrc
  7317  0422  1003               	rlf	(___fldiv@b),f
  7318  0423  0DA4               	rlf	(___fldiv@b+1),f
  7319  0424  0DA5               	rlf	(___fldiv@b+2),f
  7320  0425  0DA6               	rlf	(___fldiv@b+3),f
  7321  0426  0DA7               	decfsz	(??___fldiv+0)+0
  7322  0427  0BA8               	goto	u2865
  7323  0428  2C22               	line	129
  7324                           	
  7325                           l2574:	
  7326  0429                     	btfss	(___fldiv@grs+3),(31)&7
  7327  0429  1FB7               	goto	u2871
  7328  042A  2C2C               	goto	u2870
  7329  042B  2C2D               u2871:
  7330  042C                     	goto	l2578
  7331  042C  2C2F               u2870:
  7332  042D                     	line	130
  7333                           	
  7334                           l2576:	
  7335  042D                     	bsf	(___fldiv@b)+(0/8),(0)&7
  7336  042D  1424               	goto	l2578
  7337  042E  2C2F               	line	131
  7338                           	
  7339                           l869:	
  7340  042F                     	line	132
  7341                           	
  7342                           l2578:	
  7343  042F                     	movlw	01h
  7344  042F  3001               	movwf	(??___fldiv+0)+0
  7345  0430  00A8               u2885:
  7346  0431                     	clrc
  7347  0431  1003               	rlf	(___fldiv@grs),f
  7348  0432  0DB4               	rlf	(___fldiv@grs+1),f
  7349  0433  0DB5               	rlf	(___fldiv@grs+2),f
  7350  0434  0DB6               	rlf	(___fldiv@grs+3),f
  7351  0435  0DB7               	decfsz	(??___fldiv+0)+0
  7352  0436  0BA8               	goto	u2885
  7353  0437  2C31               	line	133
  7354                           	
  7355                           l2580:	
  7356  0438                     	movlw	0FFh
  7357  0438  30FF               	addwf	(___fldiv@new_exp),f
  7358  0439  07B2               	skipnc
  7359  043A  1803               	incf	(___fldiv@new_exp+1),f
  7360  043B  0AB3               	movlw	0FFh
  7361  043C  30FF               	addwf	(___fldiv@new_exp+1),f
  7362  043D  07B3               	goto	l2582
  7363  043E  2C3F               	line	134
  7364                           	
  7365                           l867:	
  7366  043F                     	line	127
  7367                           	
  7368                           l2582:	
  7369  043F                     	btfss	(___fldiv@b+2),(23)&7
  7370  043F  1FA6               	goto	u2891
  7371  0440  2C42               	goto	u2890
  7372  0441  2C43               u2891:
  7373  0442                     	goto	l2572
  7374  0442  2C20               u2890:
  7375  0443                     	goto	l2584
  7376  0443  2C44               	
  7377                           l870:	
  7378  0444                     	line	139
  7379                           	
  7380                           l2584:	
  7381  0444                     	clrf	(___fldiv@aexp)
  7382  0444  01B9               	line	140
  7383                           	
  7384                           l2586:	
  7385  0445                     	btfss	(___fldiv@grs+3),(31)&7
  7386  0445  1FB7               	goto	u2901
  7387  0446  2C48               	goto	u2900
  7388  0447  2C49               u2901:
  7389  0448                     	goto	l2594
  7390  0448  2C69               u2900:
  7391  0449                     	line	141
  7392                           	
  7393                           l2588:	
  7394  0449                     	movlw	0FFh
  7395  0449  30FF               	andwf	(___fldiv@grs),w
  7396  044A  0534               	movwf	(??___fldiv+0)+0
  7397  044B  00A8               	movlw	0FFh
  7398  044C  30FF               	andwf	(___fldiv@grs+1),w
  7399  044D  0535               	movwf	((??___fldiv+0)+0+1)
  7400  044E  00A9               	movlw	0FFh
  7401  044F  30FF               	andwf	(___fldiv@grs+2),w
  7402  0450  0536               	movwf	((??___fldiv+0)+0+2)
  7403  0451  00AA               	movlw	07Fh
  7404  0452  307F               	andwf	(___fldiv@grs+3),w
  7405  0453  0537               	movwf	((??___fldiv+0)+0+3)
  7406  0454  00AB               	movf	3+(??___fldiv+0)+0,w
  7407  0455  082B               	iorwf	2+(??___fldiv+0)+0,w
  7408  0456  042A               	iorwf	1+(??___fldiv+0)+0,w
  7409  0457  0429               	iorwf	0+(??___fldiv+0)+0,w
  7410  0458  0428               	skipnz
  7411  0459  1903               	goto	u2911
  7412  045A  2C5C               	goto	u2910
  7413  045B  2C5D               u2911:
  7414  045C                     	goto	l872
  7415  045C  2C60               u2910:
  7416  045D                     	line	142
  7417                           	
  7418                           l2590:	
  7419  045D                     	clrf	(___fldiv@aexp)
  7420  045D  01B9               	incf	(___fldiv@aexp),f
  7421  045E  0AB9               	line	143
  7422                           	goto	l2594
  7423  045F  2C69               	line	144
  7424                           	
  7425                           l872:	
  7426  0460                     	line	145
  7427                           	btfss	(___fldiv@b),(0)&7
  7428  0460  1C24               	goto	u2921
  7429  0461  2C63               	goto	u2920
  7430  0462  2C64               u2921:
  7431  0463                     	goto	l2594
  7432  0463  2C69               u2920:
  7433  0464                     	line	146
  7434                           	
  7435                           l2592:	
  7436  0464                     	clrf	(___fldiv@aexp)
  7437  0464  01B9               	incf	(___fldiv@aexp),f
  7438  0465  0AB9               	goto	l2594
  7439  0466  2C69               	line	147
  7440                           	
  7441                           l874:	
  7442  0467                     	goto	l2594
  7443  0467  2C69               	line	148
  7444                           	
  7445                           l873:	
  7446  0468                     	goto	l2594
  7447  0468  2C69               	line	149
  7448                           	
  7449                           l871:	
  7450  0469                     	line	150
  7451                           	
  7452                           l2594:	
  7453  0469                     	movf	((___fldiv@aexp)),w
  7454  0469  0839               	btfsc	status,2
  7455  046A  1903               	goto	u2931
  7456  046B  2C6D               	goto	u2930
  7457  046C  2C6E               u2931:
  7458  046D                     	goto	l2604
  7459  046D  2CA1               u2930:
  7460  046E                     	line	151
  7461                           	
  7462                           l2596:	
  7463  046E                     	movlw	01h
  7464  046E  3001               	addwf	(___fldiv@b),f
  7465  046F  07A4               	movlw	0
  7466  0470  3000               	skipnc
  7467  0471  1803               movlw 1
  7468  0472  3001               	addwf	(___fldiv@b+1),f
  7469  0473  07A5               	movlw	0
  7470  0474  3000               	skipnc
  7471  0475  1803               movlw 1
  7472  0476  3001               	addwf	(___fldiv@b+2),f
  7473  0477  07A6               	movlw	0
  7474  0478  3000               	skipnc
  7475  0479  1803               movlw 1
  7476  047A  3001               	addwf	(___fldiv@b+3),f
  7477  047B  07A7               	line	152
  7478                           	
  7479                           l2598:	
  7480  047C                     	btfss	(___fldiv@b+3),(24)&7
  7481  047C  1C27               	goto	u2941
  7482  047D  2C7F               	goto	u2940
  7483  047E  2C80               u2941:
  7484  047F                     	goto	l2604
  7485  047F  2CA1               u2940:
  7486  0480                     	line	153
  7487                           	
  7488                           l2600:	
  7489  0480                     	movf	(___fldiv@b),w
  7490  0480  0824               	movwf	(??___fldiv+0)+0
  7491  0481  00A8               	movf	(___fldiv@b+1),w
  7492  0482  0825               	movwf	((??___fldiv+0)+0+1)
  7493  0483  00A9               	movf	(___fldiv@b+2),w
  7494  0484  0826               	movwf	((??___fldiv+0)+0+2)
  7495  0485  00AA               	movf	(___fldiv@b+3),w
  7496  0486  0827               	movwf	((??___fldiv+0)+0+3)
  7497  0487  00AB               	movlw	01h
  7498  0488  3001               	movwf	(??___fldiv+4)+0
  7499  0489  00AC               u2955:
  7500  048A                     	rlf	(??___fldiv+0)+3,w
  7501  048A  0D2B               	rrf	(??___fldiv+0)+3,f
  7502  048B  0CAB               	rrf	(??___fldiv+0)+2,f
  7503  048C  0CAA               	rrf	(??___fldiv+0)+1,f
  7504  048D  0CA9               	rrf	(??___fldiv+0)+0,f
  7505  048E  0CA8               u2950:
  7506  048F                     	decfsz	(??___fldiv+4)+0,f
  7507  048F  0BAC               	goto	u2955
  7508  0490  2C8A               	movf	3+(??___fldiv+0)+0,w
  7509  0491  082B               	movwf	(___fldiv@b+3)
  7510  0492  00A7               	movf	2+(??___fldiv+0)+0,w
  7511  0493  082A               	movwf	(___fldiv@b+2)
  7512  0494  00A6               	movf	1+(??___fldiv+0)+0,w
  7513  0495  0829               	movwf	(___fldiv@b+1)
  7514  0496  00A5               	movf	0+(??___fldiv+0)+0,w
  7515  0497  0828               	movwf	(___fldiv@b)
  7516  0498  00A4               
  7517                           	line	154
  7518                           	
  7519                           l2602:	
  7520  0499                     	movlw	01h
  7521  0499  3001               	addwf	(___fldiv@new_exp),f
  7522  049A  07B2               	skipnc
  7523  049B  1803               	incf	(___fldiv@new_exp+1),f
  7524  049C  0AB3               	movlw	0
  7525  049D  3000               	addwf	(___fldiv@new_exp+1),f
  7526  049E  07B3               	goto	l2604
  7527  049F  2CA1               	line	155
  7528                           	
  7529                           l876:	
  7530  04A0                     	goto	l2604
  7531  04A0  2CA1               	line	156
  7532                           	
  7533                           l875:	
  7534  04A1                     	line	159
  7535                           	
  7536                           l2604:	
  7537  04A1                     	movf	(___fldiv@new_exp+1),w
  7538  04A1  0833               	xorlw	80h
  7539  04A2  3A80               	movwf	btemp+1
  7540  04A3  00FF               	movlw	(0)^80h
  7541  04A4  3080               	subwf	btemp+1,w
  7542  04A5  027F               	skipz
  7543  04A6  1D03               	goto	u2965
  7544  04A7  2CAA               	movlw	0FFh
  7545  04A8  30FF               	subwf	(___fldiv@new_exp),w
  7546  04A9  0232               u2965:
  7547  04AA                     
  7548                           	skipc
  7549  04AA  1C03               	goto	u2961
  7550  04AB  2CAD               	goto	u2960
  7551  04AC  2CAE               u2961:
  7552  04AD                     	goto	l2608
  7553  04AD  2CBD               u2960:
  7554  04AE                     	line	160
  7555                           	
  7556                           l2606:	
  7557  04AE                     	movlw	0FFh
  7558  04AE  30FF               	bcf	status, 5	;RP0=0, select bank0
  7559  04AF  1283               	bcf	status, 6	;RP1=0, select bank0
  7560  04B0  1303               	movwf	(___fldiv@new_exp)
  7561  04B1  00B2               	movlw	0
  7562  04B2  3000               	movwf	((___fldiv@new_exp))+1
  7563  04B3  00B3               	line	161
  7564                           	movlw	high highword(0)
  7565  04B4  3000               	movwf	(___fldiv@b+3)
  7566  04B5  00A7               	movlw	low highword(0)
  7567  04B6  3000               	movwf	(___fldiv@b+2)
  7568  04B7  00A6               	movlw	high(0)
  7569  04B8  3000               	movwf	(___fldiv@b+1)
  7570  04B9  00A5               	movlw	low(0)
  7571  04BA  3000               	movwf	(___fldiv@b)
  7572  04BB  00A4               
  7573                           	goto	l2608
  7574  04BC  2CBD               	line	162
  7575                           	
  7576                           l877:	
  7577  04BD                     	line	165
  7578                           	
  7579                           l2608:	
  7580  04BD                     	bcf	status, 5	;RP0=0, select bank0
  7581  04BD  1283               	bcf	status, 6	;RP1=0, select bank0
  7582  04BE  1303               	movf	(___fldiv@new_exp+1),w
  7583  04BF  0833               	xorlw	80h
  7584  04C0  3A80               	movwf	btemp+1
  7585  04C1  00FF               	movlw	(0)^80h
  7586  04C2  3080               	subwf	btemp+1,w
  7587  04C3  027F               	skipz
  7588  04C4  1D03               	goto	u2975
  7589  04C5  2CC8               	movlw	01h
  7590  04C6  3001               	subwf	(___fldiv@new_exp),w
  7591  04C7  0232               u2975:
  7592  04C8                     
  7593                           	skipnc
  7594  04C8  1803               	goto	u2971
  7595  04C9  2CCB               	goto	u2970
  7596  04CA  2CCC               u2971:
  7597  04CB                     	goto	l878
  7598  04CB  2CD9               u2970:
  7599  04CC                     	line	166
  7600                           	
  7601                           l2610:	
  7602  04CC                     	bcf	status, 5	;RP0=0, select bank0
  7603  04CC  1283               	bcf	status, 6	;RP1=0, select bank0
  7604  04CD  1303               	clrf	(___fldiv@new_exp)
  7605  04CE  01B2               	clrf	(___fldiv@new_exp+1)
  7606  04CF  01B3               	line	167
  7607                           	
  7608                           l2612:	
  7609  04D0                     	movlw	high highword(0)
  7610  04D0  3000               	movwf	(___fldiv@b+3)
  7611  04D1  00A7               	movlw	low highword(0)
  7612  04D2  3000               	movwf	(___fldiv@b+2)
  7613  04D3  00A6               	movlw	high(0)
  7614  04D4  3000               	movwf	(___fldiv@b+1)
  7615  04D5  00A5               	movlw	low(0)
  7616  04D6  3000               	movwf	(___fldiv@b)
  7617  04D7  00A4               
  7618                           	line	169
  7619                           	
  7620                           l2614:	
  7621  04D8                     	clrf	(___fldiv@sign)
  7622  04D8  01B1               	line	170
  7623                           	
  7624                           l878:	
  7625  04D9                     	line	173
  7626                           	bcf	status, 5	;RP0=0, select bank0
  7627  04D9  1283               	bcf	status, 6	;RP1=0, select bank0
  7628  04DA  1303               	movf	(___fldiv@new_exp),w
  7629  04DB  0832               	movwf	(??___fldiv+0)+0
  7630  04DC  00A8               	movf	(??___fldiv+0)+0,w
  7631  04DD  0828               	movwf	(___fldiv@bexp)
  7632  04DE  00B8               	line	175
  7633                           	
  7634                           l2616:	
  7635  04DF                     	btfss	(___fldiv@bexp),(0)&7
  7636  04DF  1C38               	goto	u2981
  7637  04E0  2CE2               	goto	u2980
  7638  04E1  2CE3               u2981:
  7639  04E2                     	goto	l2620
  7640  04E2  2CE5               u2980:
  7641  04E3                     	line	176
  7642                           	
  7643                           l2618:	
  7644  04E3                     	bsf	0+(___fldiv@b)+02h+(7/8),(7)&7
  7645  04E3  17A6               	line	177
  7646                           	goto	l880
  7647  04E4  2CE9               	line	179
  7648                           	
  7649                           l879:	
  7650  04E5                     	line	180
  7651                           	
  7652                           l2620:	
  7653  04E5                     	movlw	low(07Fh)
  7654  04E5  307F               	movwf	(??___fldiv+0)+0
  7655  04E6  00A8               	movf	(??___fldiv+0)+0,w
  7656  04E7  0828               	andwf	0+(___fldiv@b)+02h,f
  7657  04E8  05A6               	line	181
  7658                           	
  7659                           l880:	
  7660  04E9                     	line	182
  7661                           	movf	(___fldiv@bexp),w
  7662  04E9  0838               	movwf	(??___fldiv+0)+0
  7663  04EA  00A8               	clrc
  7664  04EB  1003               	rrf	(??___fldiv+0)+0,w
  7665  04EC  0C28               	movwf	(??___fldiv+1)+0
  7666  04ED  00A9               	movf	(??___fldiv+1)+0,w
  7667  04EE  0829               	movwf	0+(___fldiv@b)+03h
  7668  04EF  00A7               	line	183
  7669                           	movf	(___fldiv@sign),w
  7670  04F0  0831               	movwf	(??___fldiv+0)+0
  7671  04F1  00A8               	movf	(??___fldiv+0)+0,w
  7672  04F2  0828               	iorwf	0+(___fldiv@b)+03h,f
  7673  04F3  04A7               	line	184
  7674                           	
  7675                           l2622:	
  7676  04F4                     	movf	(___fldiv@b+3),w
  7677  04F4  0827               	movwf	(?___fldiv+3)
  7678  04F5  00A3               	movf	(___fldiv@b+2),w
  7679  04F6  0826               	movwf	(?___fldiv+2)
  7680  04F7  00A2               	movf	(___fldiv@b+1),w
  7681  04F8  0825               	movwf	(?___fldiv+1)
  7682  04F9  00A1               	movf	(___fldiv@b),w
  7683  04FA  0824               	movwf	(?___fldiv)
  7684  04FB  00A0               
  7685                           	goto	l858
  7686  04FC  2CFD               	
  7687                           l2624:	
  7688  04FD                     	line	185
  7689                           	
  7690                           l858:	
  7691  04FD                     	return
  7692  04FD  0008               	opt stack 0
  7693                           GLOBAL	__end_of___fldiv
  7694                           	__end_of___fldiv:
  7695  04FE                     	signat	___fldiv,8316
  7696                           	global	___fladd
  7697                           
  7698 ;; *************** function ___fladd *****************
  7699 ;; Defined at:
  7700 ;;		line 10 in file "C:\Program Files (x86)\Microchip\xc8\v2.00\pic\sources\c90\common\sprcadd.c"
  7701 ;; Parameters:    Size  Location     Type
  7702 ;;  b               4   24[BANK0 ] unsigned char 
  7703 ;;  a               4   28[BANK0 ] unsigned char 
  7704 ;; Auto vars:     Size  Location     Type
  7705 ;;  grs             1   47[BANK0 ] unsigned char 
  7706 ;;  bexp            1   46[BANK0 ] unsigned char 
  7707 ;;  aexp            1   45[BANK0 ] unsigned char 
  7708 ;;  signs           1   44[BANK0 ] unsigned char 
  7709 ;; Return value:  Size  Location     Type
  7710 ;;                  4   24[BANK0 ] unsigned char 
  7711 ;; Registers used:
  7712 ;;		wreg, status,2, status,0, btemp+1
  7713 ;; Tracked objects:
  7714 ;;		On entry : 0/0
  7715 ;;		On exit  : 0/0
  7716 ;;		Unchanged: 0/0
  7717 ;; Data sizes:     COMMON   BANK0   BANK1   BANK3   BANK2
  7718 ;;      Params:         0       8       0       0       0
  7719 ;;      Locals:         0       4       0       0       0
  7720 ;;      Temps:          0      12       0       0       0
  7721 ;;      Totals:         0      24       0       0       0
  7722 ;;Total ram usage:       24 bytes
  7723 ;; Hardware stack levels used:    1
  7724 ;; Hardware stack levels required when called:    4
  7725 ;; This function calls:
  7726 ;;		Nothing
  7727 ;; This function is called by:
  7728 ;;		_b1
  7729 ;;		_b0
  7730 ;; This function uses a non-reentrant model
  7731 ;;
  7732                           psect	text22,local,class=CODE,delta=2,merge=1,group=1
  7733                           	file	"C:\Program Files (x86)\Microchip\xc8\v2.00\pic\sources\c90\common\sprcadd.c"
  7734                           	line	10
  7735                           global __ptext22
  7736                           __ptext22:	;psect for function ___fladd
  7737  0039                     psect	text22
  7738                           	file	"C:\Program Files (x86)\Microchip\xc8\v2.00\pic\sources\c90\common\sprcadd.c"
  7739                           	line	10
  7740                           	global	__size_of___fladd
  7741                           	__size_of___fladd	equ	__end_of___fladd-___fladd
  7742  02BC                     	
  7743                           ___fladd:	
  7744  0039                     ;incstack = 0
  7745                           	opt	stack 0
  7746                           ; Regs used in ___fladd: [wreg+status,2+status,0+btemp+1]
  7747                           	line	21
  7748                           	
  7749                           l2290:	
  7750  0039                     	bcf	status, 5	;RP0=0, select bank0
  7751  0039  1283               	bcf	status, 6	;RP1=0, select bank0
  7752  003A  1303               	movf	0+(___fladd@b)+03h,w
  7753  003B  083B               	andlw	080h
  7754  003C  3980               	movwf	(??___fladd+0)+0
  7755  003D  00C0               	movf	(??___fladd+0)+0,w
  7756  003E  0840               	movwf	(___fladd@signs)
  7757  003F  00CC               	line	22
  7758                           	
  7759                           l2292:	
  7760  0040                     	movf	0+(___fladd@b)+03h,w
  7761  0040  083B               	movwf	(??___fladd+0)+0
  7762  0041  00C0               	addwf	(??___fladd+0)+0,w
  7763  0042  0740               	movwf	(??___fladd+1)+0
  7764  0043  00C1               	movf	(??___fladd+1)+0,w
  7765  0044  0841               	movwf	(___fladd@bexp)
  7766  0045  00CE               	line	23
  7767                           	
  7768                           l2294:	
  7769  0046                     	btfss	0+(___fladd@b)+02h,(7)&7
  7770  0046  1FBA               	goto	u2241
  7771  0047  2849               	goto	u2240
  7772  0048  284A               u2241:
  7773  0049                     	goto	l2298
  7774  0049  284C               u2240:
  7775  004A                     	line	24
  7776                           	
  7777                           l2296:	
  7778  004A                     	bsf	(___fladd@bexp)+(0/8),(0)&7
  7779  004A  144E               	goto	l2298
  7780  004B  284C               	line	25
  7781                           	
  7782                           l792:	
  7783  004C                     	line	28
  7784                           	
  7785                           l2298:	
  7786  004C                     	movf	((___fladd@bexp)),w
  7787  004C  084E               	btfsc	status,2
  7788  004D  1903               	goto	u2251
  7789  004E  2850               	goto	u2250
  7790  004F  2851               u2251:
  7791  0050                     	goto	l2308
  7792  0050  2862               u2250:
  7793  0051                     	line	30
  7794                           	
  7795                           l2300:	
  7796  0051                     		incf	((___fladd@bexp)),w
  7797  0051  0A4E               	btfss	status,2
  7798  0052  1D03               	goto	u2261
  7799  0053  2855               	goto	u2260
  7800  0054  2856               u2261:
  7801  0055                     	goto	l2304
  7802  0055  285F               u2260:
  7803  0056                     	line	32
  7804                           	
  7805                           l2302:	
  7806  0056                     	movlw	0x0
  7807  0056  3000               	movwf	(___fladd@b+3)
  7808  0057  00BB               	movlw	0x0
  7809  0058  3000               	movwf	(___fladd@b+2)
  7810  0059  00BA               	movlw	0x0
  7811  005A  3000               	movwf	(___fladd@b+1)
  7812  005B  00B9               	movlw	0x0
  7813  005C  3000               	movwf	(___fladd@b)
  7814  005D  00B8               
  7815                           	goto	l2304
  7816  005E  285F               	line	33
  7817                           	
  7818                           l794:	
  7819  005F                     	line	35
  7820                           	
  7821                           l2304:	
  7822  005F                     	bsf	(___fladd@b)+(23/8),(23)&7
  7823  005F  17BA               	line	37
  7824                           	
  7825                           l2306:	
  7826  0060                     	clrf	0+(___fladd@b)+03h
  7827  0060  01BB               	line	38
  7828                           	goto	l2310
  7829  0061  286B               	line	39
  7830                           	
  7831                           l793:	
  7832  0062                     	line	41
  7833                           	
  7834                           l2308:	
  7835  0062                     	movlw	0x0
  7836  0062  3000               	movwf	(___fladd@b+3)
  7837  0063  00BB               	movlw	0x0
  7838  0064  3000               	movwf	(___fladd@b+2)
  7839  0065  00BA               	movlw	0x0
  7840  0066  3000               	movwf	(___fladd@b+1)
  7841  0067  00B9               	movlw	0x0
  7842  0068  3000               	movwf	(___fladd@b)
  7843  0069  00B8               
  7844                           	goto	l2310
  7845  006A  286B               	line	42
  7846                           	
  7847                           l795:	
  7848  006B                     	line	44
  7849                           	
  7850                           l2310:	
  7851  006B                     	movf	0+(___fladd@a)+03h,w
  7852  006B  083F               	andlw	080h
  7853  006C  3980               	movwf	(??___fladd+0)+0
  7854  006D  00C0               	movf	(??___fladd+0)+0,w
  7855  006E  0840               	movwf	(___fladd@aexp)
  7856  006F  00CD               	line	46
  7857                           	
  7858                           l2312:	
  7859  0070                     	movf	(___fladd@aexp),w
  7860  0070  084D               	xorwf	(___fladd@signs),w
  7861  0071  064C               	skipnz
  7862  0072  1903               	goto	u2271
  7863  0073  2875               	goto	u2270
  7864  0074  2876               u2271:
  7865  0075                     	goto	l2316
  7866  0075  2878               u2270:
  7867  0076                     	line	47
  7868                           	
  7869                           l2314:	
  7870  0076                     	bsf	(___fladd@signs)+(6/8),(6)&7
  7871  0076  174C               	goto	l2316
  7872  0077  2878               	line	48
  7873                           	
  7874                           l796:	
  7875  0078                     	line	49
  7876                           	
  7877                           l2316:	
  7878  0078                     	movf	0+(___fladd@a)+03h,w
  7879  0078  083F               	movwf	(??___fladd+0)+0
  7880  0079  00C0               	addwf	(??___fladd+0)+0,w
  7881  007A  0740               	movwf	(??___fladd+1)+0
  7882  007B  00C1               	movf	(??___fladd+1)+0,w
  7883  007C  0841               	movwf	(___fladd@aexp)
  7884  007D  00CD               	line	50
  7885                           	
  7886                           l2318:	
  7887  007E                     	btfss	0+(___fladd@a)+02h,(7)&7
  7888  007E  1FBE               	goto	u2281
  7889  007F  2881               	goto	u2280
  7890  0080  2882               u2281:
  7891  0081                     	goto	l2322
  7892  0081  2884               u2280:
  7893  0082                     	line	51
  7894                           	
  7895                           l2320:	
  7896  0082                     	bsf	(___fladd@aexp)+(0/8),(0)&7
  7897  0082  144D               	goto	l2322
  7898  0083  2884               	line	52
  7899                           	
  7900                           l797:	
  7901  0084                     	line	55
  7902                           	
  7903                           l2322:	
  7904  0084                     	movf	((___fladd@aexp)),w
  7905  0084  084D               	btfsc	status,2
  7906  0085  1903               	goto	u2291
  7907  0086  2888               	goto	u2290
  7908  0087  2889               u2291:
  7909  0088                     	goto	l2332
  7910  0088  289A               u2290:
  7911  0089                     	line	57
  7912                           	
  7913                           l2324:	
  7914  0089                     		incf	((___fladd@aexp)),w
  7915  0089  0A4D               	btfss	status,2
  7916  008A  1D03               	goto	u2301
  7917  008B  288D               	goto	u2300
  7918  008C  288E               u2301:
  7919  008D                     	goto	l2328
  7920  008D  2897               u2300:
  7921  008E                     	line	59
  7922                           	
  7923                           l2326:	
  7924  008E                     	movlw	0x0
  7925  008E  3000               	movwf	(___fladd@a+3)
  7926  008F  00BF               	movlw	0x0
  7927  0090  3000               	movwf	(___fladd@a+2)
  7928  0091  00BE               	movlw	0x0
  7929  0092  3000               	movwf	(___fladd@a+1)
  7930  0093  00BD               	movlw	0x0
  7931  0094  3000               	movwf	(___fladd@a)
  7932  0095  00BC               
  7933                           	goto	l2328
  7934  0096  2897               	line	60
  7935                           	
  7936                           l799:	
  7937  0097                     	line	62
  7938                           	
  7939                           l2328:	
  7940  0097                     	bsf	(___fladd@a)+(23/8),(23)&7
  7941  0097  17BE               	line	64
  7942                           	
  7943                           l2330:	
  7944  0098                     	clrf	0+(___fladd@a)+03h
  7945  0098  01BF               	line	65
  7946                           	goto	l800
  7947  0099  28A2               	line	66
  7948                           	
  7949                           l798:	
  7950  009A                     	line	68
  7951                           	
  7952                           l2332:	
  7953  009A                     	movlw	0x0
  7954  009A  3000               	movwf	(___fladd@a+3)
  7955  009B  00BF               	movlw	0x0
  7956  009C  3000               	movwf	(___fladd@a+2)
  7957  009D  00BE               	movlw	0x0
  7958  009E  3000               	movwf	(___fladd@a+1)
  7959  009F  00BD               	movlw	0x0
  7960  00A0  3000               	movwf	(___fladd@a)
  7961  00A1  00BC               
  7962                           	line	69
  7963                           	
  7964                           l800:	
  7965  00A2                     	line	75
  7966                           	movf	(___fladd@bexp),w
  7967  00A2  084E               	subwf	(___fladd@aexp),w
  7968  00A3  024D               	skipnc
  7969  00A4  1803               	goto	u2311
  7970  00A5  28A7               	goto	u2310
  7971  00A6  28A8               u2311:
  7972  00A7                     	goto	l2368
  7973  00A7  28EE               u2310:
  7974  00A8                     	line	77
  7975                           	
  7976                           l2334:	
  7977  00A8                     	btfss	(___fladd@signs),(6)&7
  7978  00A8  1F4C               	goto	u2321
  7979  00A9  28AB               	goto	u2320
  7980  00AA  28AC               u2321:
  7981  00AB                     	goto	l2338
  7982  00AB  28B1               u2320:
  7983  00AC                     	line	78
  7984                           	
  7985                           l2336:	
  7986  00AC                     	movlw	low(080h)
  7987  00AC  3080               	movwf	(??___fladd+0)+0
  7988  00AD  00C0               	movf	(??___fladd+0)+0,w
  7989  00AE  0840               	xorwf	(___fladd@signs),f
  7990  00AF  06CC               	goto	l2338
  7991  00B0  28B1               	line	79
  7992                           	
  7993                           l802:	
  7994  00B1                     	line	81
  7995                           	
  7996                           l2338:	
  7997  00B1                     	movf	(___fladd@bexp),w
  7998  00B1  084E               	movwf	(??___fladd+0)+0
  7999  00B2  00C0               	movf	(??___fladd+0)+0,w
  8000  00B3  0840               	movwf	(___fladd@grs)
  8001  00B4  00CF               	line	82
  8002                           	
  8003                           l2340:	
  8004  00B5                     	movf	(___fladd@aexp),w
  8005  00B5  084D               	movwf	(??___fladd+0)+0
  8006  00B6  00C0               	movf	(??___fladd+0)+0,w
  8007  00B7  0840               	movwf	(___fladd@bexp)
  8008  00B8  00CE               	line	83
  8009                           	
  8010                           l2342:	
  8011  00B9                     	movf	(___fladd@grs),w
  8012  00B9  084F               	movwf	(??___fladd+0)+0
  8013  00BA  00C0               	movf	(??___fladd+0)+0,w
  8014  00BB  0840               	movwf	(___fladd@aexp)
  8015  00BC  00CD               	line	84
  8016                           	
  8017                           l2344:	
  8018  00BD                     	movf	(___fladd@b),w
  8019  00BD  0838               	movwf	(??___fladd+0)+0
  8020  00BE  00C0               	movf	(??___fladd+0)+0,w
  8021  00BF  0840               	movwf	(___fladd@grs)
  8022  00C0  00CF               	line	85
  8023                           	
  8024                           l2346:	
  8025  00C1                     	movf	(___fladd@a),w
  8026  00C1  083C               	movwf	(??___fladd+0)+0
  8027  00C2  00C0               	movf	(??___fladd+0)+0,w
  8028  00C3  0840               	movwf	(___fladd@b)
  8029  00C4  00B8               	line	86
  8030                           	
  8031                           l2348:	
  8032  00C5                     	movf	(___fladd@grs),w
  8033  00C5  084F               	movwf	(??___fladd+0)+0
  8034  00C6  00C0               	movf	(??___fladd+0)+0,w
  8035  00C7  0840               	movwf	(___fladd@a)
  8036  00C8  00BC               	line	87
  8037                           	
  8038                           l2350:	
  8039  00C9                     	movf	0+(___fladd@b)+01h,w
  8040  00C9  0839               	movwf	(??___fladd+0)+0
  8041  00CA  00C0               	movf	(??___fladd+0)+0,w
  8042  00CB  0840               	movwf	(___fladd@grs)
  8043  00CC  00CF               	line	88
  8044                           	
  8045                           l2352:	
  8046  00CD                     	movf	0+(___fladd@a)+01h,w
  8047  00CD  083D               	movwf	(??___fladd+0)+0
  8048  00CE  00C0               	movf	(??___fladd+0)+0,w
  8049  00CF  0840               	movwf	0+(___fladd@b)+01h
  8050  00D0  00B9               	line	89
  8051                           	
  8052                           l2354:	
  8053  00D1                     	movf	(___fladd@grs),w
  8054  00D1  084F               	movwf	(??___fladd+0)+0
  8055  00D2  00C0               	movf	(??___fladd+0)+0,w
  8056  00D3  0840               	movwf	0+(___fladd@a)+01h
  8057  00D4  00BD               	line	90
  8058                           	
  8059                           l2356:	
  8060  00D5                     	movf	0+(___fladd@b)+02h,w
  8061  00D5  083A               	movwf	(??___fladd+0)+0
  8062  00D6  00C0               	movf	(??___fladd+0)+0,w
  8063  00D7  0840               	movwf	(___fladd@grs)
  8064  00D8  00CF               	line	91
  8065                           	
  8066                           l2358:	
  8067  00D9                     	movf	0+(___fladd@a)+02h,w
  8068  00D9  083E               	movwf	(??___fladd+0)+0
  8069  00DA  00C0               	movf	(??___fladd+0)+0,w
  8070  00DB  0840               	movwf	0+(___fladd@b)+02h
  8071  00DC  00BA               	line	92
  8072                           	
  8073                           l2360:	
  8074  00DD                     	movf	(___fladd@grs),w
  8075  00DD  084F               	movwf	(??___fladd+0)+0
  8076  00DE  00C0               	movf	(??___fladd+0)+0,w
  8077  00DF  0840               	movwf	0+(___fladd@a)+02h
  8078  00E0  00BE               	line	93
  8079                           	
  8080                           l2362:	
  8081  00E1                     	movf	0+(___fladd@b)+03h,w
  8082  00E1  083B               	movwf	(??___fladd+0)+0
  8083  00E2  00C0               	movf	(??___fladd+0)+0,w
  8084  00E3  0840               	movwf	(___fladd@grs)
  8085  00E4  00CF               	line	94
  8086                           	
  8087                           l2364:	
  8088  00E5                     	movf	0+(___fladd@a)+03h,w
  8089  00E5  083F               	movwf	(??___fladd+0)+0
  8090  00E6  00C0               	movf	(??___fladd+0)+0,w
  8091  00E7  0840               	movwf	0+(___fladd@b)+03h
  8092  00E8  00BB               	line	95
  8093                           	
  8094                           l2366:	
  8095  00E9                     	movf	(___fladd@grs),w
  8096  00E9  084F               	movwf	(??___fladd+0)+0
  8097  00EA  00C0               	movf	(??___fladd+0)+0,w
  8098  00EB  0840               	movwf	0+(___fladd@a)+03h
  8099  00EC  00BF               	goto	l2368
  8100  00ED  28EE               	line	96
  8101                           	
  8102                           l801:	
  8103  00EE                     	line	98
  8104                           	
  8105                           l2368:	
  8106  00EE                     	clrf	(___fladd@grs)
  8107  00EE  01CF               	line	100
  8108                           	
  8109                           l2370:	
  8110  00EF                     	movf	(___fladd@bexp),w
  8111  00EF  084E               	movwf	(??___fladd+0)+0
  8112  00F0  00C0               	clrf	(??___fladd+0)+0+1
  8113  00F1  01C1               	comf	(??___fladd+0)+0,f
  8114  00F2  09C0               	comf	(??___fladd+0)+1,f
  8115  00F3  09C1               	incf	(??___fladd+0)+0,f
  8116  00F4  0AC0               	skipnz
  8117  00F5  1903               	incf	(??___fladd+0)+1,f
  8118  00F6  0AC1               	movf	(___fladd@aexp),w
  8119  00F7  084D               	addwf	0+(??___fladd+0)+0,w
  8120  00F8  0740               	movwf	(??___fladd+2)+0
  8121  00F9  00C2               	movf	1+(??___fladd+0)+0,w
  8122  00FA  0841               	skipnc
  8123  00FB  1803               	incf	1+(??___fladd+0)+0,w
  8124  00FC  0A41               	movwf	((??___fladd+2)+0)+1
  8125  00FD  00C3               	movf	1+(??___fladd+2)+0,w
  8126  00FE  0843               	xorlw	80h
  8127  00FF  3A80               	movwf	btemp+1
  8128  0100  00FF               	movlw	(0)^80h
  8129  0101  3080               	subwf	btemp+1,w
  8130  0102  027F               	skipz
  8131  0103  1D03               	goto	u2335
  8132  0104  2907               	movlw	01Ah
  8133  0105  301A               	subwf	0+(??___fladd+2)+0,w
  8134  0106  0242               u2335:
  8135  0107                     
  8136                           	skipc
  8137  0107  1C03               	goto	u2331
  8138  0108  290A               	goto	u2330
  8139  0109  290B               u2331:
  8140  010A                     	goto	l2386
  8141  010A  294C               u2330:
  8142  010B                     	line	101
  8143                           	
  8144                           l2372:	
  8145  010B                     	bcf	status, 5	;RP0=0, select bank0
  8146  010B  1283               	bcf	status, 6	;RP1=0, select bank0
  8147  010C  1303               	movf	(___fladd@b+3),w
  8148  010D  083B               	iorwf	(___fladd@b+2),w
  8149  010E  043A               	iorwf	(___fladd@b+1),w
  8150  010F  0439               	iorwf	(___fladd@b),w
  8151  0110  0438               	skipz
  8152  0111  1D03               	goto	u2341
  8153  0112  2914               	goto	u2340
  8154  0113  2916               u2341:
  8155  0114                     	movlw	1
  8156  0114  3001               	goto	u2350
  8157  0115  2917               u2340:
  8158  0116                     	movlw	0
  8159  0116  3000               u2350:
  8160  0117                     	movwf	(??___fladd+0)+0
  8161  0117  00C0               	movf	(??___fladd+0)+0,w
  8162  0118  0840               	movwf	(___fladd@grs)
  8163  0119  00CF               	line	102
  8164                           	movlw	high highword(0)
  8165  011A  3000               	movwf	(___fladd@b+3)
  8166  011B  00BB               	movlw	low highword(0)
  8167  011C  3000               	movwf	(___fladd@b+2)
  8168  011D  00BA               	movlw	high(0)
  8169  011E  3000               	movwf	(___fladd@b+1)
  8170  011F  00B9               	movlw	low(0)
  8171  0120  3000               	movwf	(___fladd@b)
  8172  0121  00B8               
  8173                           	line	103
  8174                           	movf	(___fladd@aexp),w
  8175  0122  084D               	movwf	(??___fladd+0)+0
  8176  0123  00C0               	movf	(??___fladd+0)+0,w
  8177  0124  0840               	movwf	(___fladd@bexp)
  8178  0125  00CE               	line	104
  8179                           	goto	l804
  8180  0126  2955               	line	105
  8181                           	
  8182                           l803:	
  8183  0127                     	line	106
  8184                           	goto	l2386
  8185  0127  294C               	
  8186                           l806:	
  8187  0128                     	line	109
  8188                           	btfss	(___fladd@grs),(0)&7
  8189  0128  1C4F               	goto	u2361
  8190  0129  292B               	goto	u2360
  8191  012A  292C               u2361:
  8192  012B                     	goto	l2376
  8193  012B  2935               u2360:
  8194  012C                     	line	110
  8195                           	
  8196                           l2374:	
  8197  012C                     	movf	(___fladd@grs),w
  8198  012C  084F               	movwf	(??___fladd+0)+0
  8199  012D  00C0               	clrc
  8200  012E  1003               	rrf	(??___fladd+0)+0,w
  8201  012F  0C40               	iorlw	01h
  8202  0130  3801               	movwf	(??___fladd+1)+0
  8203  0131  00C1               	movf	(??___fladd+1)+0,w
  8204  0132  0841               	movwf	(___fladd@grs)
  8205  0133  00CF               	line	111
  8206                           	goto	l2378
  8207  0134  2938               	line	112
  8208                           	
  8209                           l807:	
  8210  0135                     	line	113
  8211                           	
  8212                           l2376:	
  8213  0135                     	clrc
  8214  0135  1003               	rrf	(___fladd@grs),f
  8215  0136  0CCF               
  8216                           	goto	l2378
  8217  0137  2938               	line	114
  8218                           	
  8219                           l808:	
  8220  0138                     	line	115
  8221                           	
  8222                           l2378:	
  8223  0138                     	btfss	(___fladd@b),(0)&7
  8224  0138  1C38               	goto	u2371
  8225  0139  293B               	goto	u2370
  8226  013A  293C               u2371:
  8227  013B                     	goto	l2382
  8228  013B  293E               u2370:
  8229  013C                     	line	116
  8230                           	
  8231                           l2380:	
  8232  013C                     	bsf	(___fladd@grs)+(7/8),(7)&7
  8233  013C  17CF               	goto	l2382
  8234  013D  293E               	line	117
  8235                           	
  8236                           l809:	
  8237  013E                     	line	118
  8238                           	
  8239                           l2382:	
  8240  013E                     	movlw	01h
  8241  013E  3001               	movwf	(??___fladd+0)+0
  8242  013F  00C0               u2385:
  8243  0140                     	rlf	(___fladd@b+3),w
  8244  0140  0D3B               	rrf	(___fladd@b+3),f
  8245  0141  0CBB               	rrf	(___fladd@b+2),f
  8246  0142  0CBA               	rrf	(___fladd@b+1),f
  8247  0143  0CB9               	rrf	(___fladd@b),f
  8248  0144  0CB8               	decfsz	(??___fladd+0)+0&07fh,f
  8249  0145  0BC0               	goto	u2385
  8250  0146  2940               
  8251                           	line	119
  8252                           	
  8253                           l2384:	
  8254  0147                     	movlw	low(01h)
  8255  0147  3001               	movwf	(??___fladd+0)+0
  8256  0148  00C0               	movf	(??___fladd+0)+0,w
  8257  0149  0840               	addwf	(___fladd@bexp),f
  8258  014A  07CE               	goto	l2386
  8259  014B  294C               	line	120
  8260                           	
  8261                           l805:	
  8262  014C                     	line	106
  8263                           	
  8264                           l2386:	
  8265  014C                     	bcf	status, 5	;RP0=0, select bank0
  8266  014C  1283               	bcf	status, 6	;RP1=0, select bank0
  8267  014D  1303               	movf	(___fladd@aexp),w
  8268  014E  084D               	subwf	(___fladd@bexp),w
  8269  014F  024E               	skipc
  8270  0150  1C03               	goto	u2391
  8271  0151  2953               	goto	u2390
  8272  0152  2954               u2391:
  8273  0153                     	goto	l806
  8274  0153  2928               u2390:
  8275  0154                     	goto	l804
  8276  0154  2955               	
  8277                           l810:	
  8278  0155                     	line	121
  8279                           	
  8280                           l804:	
  8281  0155                     	line	124
  8282                           	btfsc	(___fladd@signs),(6)&7
  8283  0155  1B4C               	goto	u2401
  8284  0156  2958               	goto	u2400
  8285  0157  2959               u2401:
  8286  0158                     	goto	l2412
  8287  0158  29A8               u2400:
  8288  0159                     	line	127
  8289                           	
  8290                           l2388:	
  8291  0159                     	movf	((___fladd@bexp)),w
  8292  0159  084E               	btfss	status,2
  8293  015A  1D03               	goto	u2411
  8294  015B  295D               	goto	u2410
  8295  015C  295E               u2411:
  8296  015D                     	goto	l2394
  8297  015D  2968               u2410:
  8298  015E                     	line	128
  8299                           	
  8300                           l2390:	
  8301  015E                     	movlw	0x0
  8302  015E  3000               	movwf	(?___fladd+3)
  8303  015F  00BB               	movlw	0x0
  8304  0160  3000               	movwf	(?___fladd+2)
  8305  0161  00BA               	movlw	0x0
  8306  0162  3000               	movwf	(?___fladd+1)
  8307  0163  00B9               	movlw	0x0
  8308  0164  3000               	movwf	(?___fladd)
  8309  0165  00B8               
  8310                           	goto	l813
  8311  0166  2AF4               	
  8312                           l2392:	
  8313  0167                     	goto	l813
  8314  0167  2AF4               	line	129
  8315                           	
  8316                           l812:	
  8317  0168                     	line	132
  8318                           	
  8319                           l2394:	
  8320  0168                     	movf	(___fladd@a),w
  8321  0168  083C               	addwf	(___fladd@b),f
  8322  0169  07B8               	movf	(___fladd@a+1),w
  8323  016A  083D               	clrz
  8324  016B  1103               	skipnc
  8325  016C  1803               	addlw	1
  8326  016D  3E01               	skipnz
  8327  016E  1903               	goto	u2421
  8328  016F  2971               	addwf	(___fladd@b+1),f
  8329  0170  07B9               u2421:
  8330  0171                     	movf	(___fladd@a+2),w
  8331  0171  083E               	clrz
  8332  0172  1103               	skipnc
  8333  0173  1803               	addlw	1
  8334  0174  3E01               	skipnz
  8335  0175  1903               	goto	u2422
  8336  0176  2978               	addwf	(___fladd@b+2),f
  8337  0177  07BA               u2422:
  8338  0178                     	movf	(___fladd@a+3),w
  8339  0178  083F               	clrz
  8340  0179  1103               	skipnc
  8341  017A  1803               	addlw	1
  8342  017B  3E01               	skipnz
  8343  017C  1903               	goto	u2423
  8344  017D  297F               	addwf	(___fladd@b+3),f
  8345  017E  07BB               u2423:
  8346  017F                     
  8347                           	line	134
  8348                           	
  8349                           l2396:	
  8350  017F                     	btfss	(___fladd@b+3),(24)&7
  8351  017F  1C3B               	goto	u2431
  8352  0180  2982               	goto	u2430
  8353  0181  2983               u2431:
  8354  0182                     	goto	l2446
  8355  0182  2A71               u2430:
  8356  0183                     	line	135
  8357                           	
  8358                           l2398:	
  8359  0183                     	btfss	(___fladd@grs),(0)&7
  8360  0183  1C4F               	goto	u2441
  8361  0184  2986               	goto	u2440
  8362  0185  2987               u2441:
  8363  0186                     	goto	l2402
  8364  0186  2990               u2440:
  8365  0187                     	line	136
  8366                           	
  8367                           l2400:	
  8368  0187                     	movf	(___fladd@grs),w
  8369  0187  084F               	movwf	(??___fladd+0)+0
  8370  0188  00C0               	clrc
  8371  0189  1003               	rrf	(??___fladd+0)+0,w
  8372  018A  0C40               	iorlw	01h
  8373  018B  3801               	movwf	(??___fladd+1)+0
  8374  018C  00C1               	movf	(??___fladd+1)+0,w
  8375  018D  0841               	movwf	(___fladd@grs)
  8376  018E  00CF               	line	137
  8377                           	goto	l2404
  8378  018F  2993               	line	138
  8379                           	
  8380                           l815:	
  8381  0190                     	line	139
  8382                           	
  8383                           l2402:	
  8384  0190                     	clrc
  8385  0190  1003               	rrf	(___fladd@grs),f
  8386  0191  0CCF               
  8387                           	goto	l2404
  8388  0192  2993               	line	140
  8389                           	
  8390                           l816:	
  8391  0193                     	line	141
  8392                           	
  8393                           l2404:	
  8394  0193                     	btfss	(___fladd@b),(0)&7
  8395  0193  1C38               	goto	u2451
  8396  0194  2996               	goto	u2450
  8397  0195  2997               u2451:
  8398  0196                     	goto	l2408
  8399  0196  2999               u2450:
  8400  0197                     	line	142
  8401                           	
  8402                           l2406:	
  8403  0197                     	bsf	(___fladd@grs)+(7/8),(7)&7
  8404  0197  17CF               	goto	l2408
  8405  0198  2999               	line	143
  8406                           	
  8407                           l817:	
  8408  0199                     	line	144
  8409                           	
  8410                           l2408:	
  8411  0199                     	movlw	01h
  8412  0199  3001               	movwf	(??___fladd+0)+0
  8413  019A  00C0               u2465:
  8414  019B                     	rlf	(___fladd@b+3),w
  8415  019B  0D3B               	rrf	(___fladd@b+3),f
  8416  019C  0CBB               	rrf	(___fladd@b+2),f
  8417  019D  0CBA               	rrf	(___fladd@b+1),f
  8418  019E  0CB9               	rrf	(___fladd@b),f
  8419  019F  0CB8               	decfsz	(??___fladd+0)+0&07fh,f
  8420  01A0  0BC0               	goto	u2465
  8421  01A1  299B               
  8422                           	line	145
  8423                           	
  8424                           l2410:	
  8425  01A2                     	movlw	low(01h)
  8426  01A2  3001               	movwf	(??___fladd+0)+0
  8427  01A3  00C0               	movf	(??___fladd+0)+0,w
  8428  01A4  0840               	addwf	(___fladd@bexp),f
  8429  01A5  07CE               	goto	l2446
  8430  01A6  2A71               	line	146
  8431                           	
  8432                           l814:	
  8433  01A7                     	line	148
  8434                           	goto	l2446
  8435  01A7  2A71               	line	149
  8436                           	
  8437                           l811:	
  8438  01A8                     	line	153
  8439                           	
  8440                           l2412:	
  8441  01A8                     	movf	(___fladd@b+3),w
  8442  01A8  083B               	xorlw	80h
  8443  01A9  3A80               	movwf	btemp+1
  8444  01AA  00FF               	movf	(___fladd@a+3),w
  8445  01AB  083F               	xorlw	80h
  8446  01AC  3A80               	subwf	btemp+1,w
  8447  01AD  027F               	
  8448                           	skipz
  8449  01AE  1D03               	goto	u2473
  8450  01AF  29BA               	movf	(___fladd@a+2),w
  8451  01B0  083E               	subwf	(___fladd@b+2),w
  8452  01B1  023A               	skipz
  8453  01B2  1D03               	goto	u2473
  8454  01B3  29BA               	movf	(___fladd@a+1),w
  8455  01B4  083D               	subwf	(___fladd@b+1),w
  8456  01B5  0239               	skipz
  8457  01B6  1D03               	goto	u2473
  8458  01B7  29BA               	movf	(___fladd@a),w
  8459  01B8  083C               	subwf	(___fladd@b),w
  8460  01B9  0238               u2473:
  8461  01BA                     	skipnc
  8462  01BA  1803               	goto	u2471
  8463  01BB  29BD               	goto	u2470
  8464  01BC  29BE               u2471:
  8465  01BD                     	goto	l2422
  8466  01BD  2A24               u2470:
  8467  01BE                     	line	154
  8468                           	
  8469                           l2414:	
  8470  01BE                     	movlw	0FFh
  8471  01BE  30FF               	movwf	((??___fladd+0)+0)
  8472  01BF  00C0               	movlw	0FFh
  8473  01C0  30FF               	movwf	((??___fladd+0)+0+1)
  8474  01C1  00C1               	movlw	0FFh
  8475  01C2  30FF               	movwf	((??___fladd+0)+0+2)
  8476  01C3  00C2               	movlw	0FFh
  8477  01C4  30FF               	movwf	((??___fladd+0)+0+3)
  8478  01C5  00C3               	movf	(___fladd@a),w
  8479  01C6  083C               	movwf	(??___fladd+4)+0
  8480  01C7  00C4               	movf	(___fladd@a+1),w
  8481  01C8  083D               	movwf	((??___fladd+4)+0+1)
  8482  01C9  00C5               	movf	(___fladd@a+2),w
  8483  01CA  083E               	movwf	((??___fladd+4)+0+2)
  8484  01CB  00C6               	movf	(___fladd@a+3),w
  8485  01CC  083F               	movwf	((??___fladd+4)+0+3)
  8486  01CD  00C7               	comf	(___fladd@b),w
  8487  01CE  0938               	movwf	(??___fladd+8)+0
  8488  01CF  00C8               	comf	(___fladd@b+1),w
  8489  01D0  0939               	movwf	((??___fladd+8)+0+1)
  8490  01D1  00C9               	comf	(___fladd@b+2),w
  8491  01D2  093A               	movwf	((??___fladd+8)+0+2)
  8492  01D3  00CA               	comf	(___fladd@b+3),w
  8493  01D4  093B               	movwf	((??___fladd+8)+0+3)
  8494  01D5  00CB               	incf	(??___fladd+8)+0,f
  8495  01D6  0AC8               	skipnz
  8496  01D7  1903               	incf	((??___fladd+8)+0+1),f
  8497  01D8  0AC9               	skipnz
  8498  01D9  1903               	incf	((??___fladd+8)+0+2),f
  8499  01DA  0ACA               	skipnz
  8500  01DB  1903               	incf	((??___fladd+8)+0+3),f
  8501  01DC  0ACB               	movf	0+(??___fladd+8)+0,w
  8502  01DD  0848               	addwf	(??___fladd+4)+0,f
  8503  01DE  07C4               	movf	1+(??___fladd+8)+0,w
  8504  01DF  0849               	skipnc
  8505  01E0  1803               	incfsz	1+(??___fladd+8)+0,w
  8506  01E1  0F49               	goto	u2480
  8507  01E2  29E4               	goto	u2481
  8508  01E3  29E5               u2480:
  8509  01E4                     	addwf	(??___fladd+4)+1,f
  8510  01E4  07C5               u2481:
  8511  01E5                     	movf	2+(??___fladd+8)+0,w
  8512  01E5  084A               	skipnc
  8513  01E6  1803               	incfsz	2+(??___fladd+8)+0,w
  8514  01E7  0F4A               	goto	u2482
  8515  01E8  29EA               	goto	u2483
  8516  01E9  29EB               u2482:
  8517  01EA                     	addwf	(??___fladd+4)+2,f
  8518  01EA  07C6               u2483:
  8519  01EB                     	movf	3+(??___fladd+8)+0,w
  8520  01EB  084B               	skipnc
  8521  01EC  1803               	incf	3+(??___fladd+8)+0,w
  8522  01ED  0A4B               	addwf	(??___fladd+4)+3,f
  8523  01EE  07C7               	movf	0+(??___fladd+4)+0,w
  8524  01EF  0844               	addwf	(??___fladd+0)+0,f
  8525  01F0  07C0               	movf	1+(??___fladd+4)+0,w
  8526  01F1  0845               	skipnc
  8527  01F2  1803               	incfsz	1+(??___fladd+4)+0,w
  8528  01F3  0F45               	goto	u2490
  8529  01F4  29F6               	goto	u2491
  8530  01F5  29F7               u2490:
  8531  01F6                     	addwf	(??___fladd+0)+1,f
  8532  01F6  07C1               u2491:
  8533  01F7                     	movf	2+(??___fladd+4)+0,w
  8534  01F7  0846               	skipnc
  8535  01F8  1803               	incfsz	2+(??___fladd+4)+0,w
  8536  01F9  0F46               	goto	u2492
  8537  01FA  29FC               	goto	u2493
  8538  01FB  29FD               u2492:
  8539  01FC                     	addwf	(??___fladd+0)+2,f
  8540  01FC  07C2               u2493:
  8541  01FD                     	movf	3+(??___fladd+4)+0,w
  8542  01FD  0847               	skipnc
  8543  01FE  1803               	incf	3+(??___fladd+4)+0,w
  8544  01FF  0A47               	addwf	(??___fladd+0)+3,f
  8545  0200  07C3               	movf	3+(??___fladd+0)+0,w
  8546  0201  0843               	movwf	(___fladd@b+3)
  8547  0202  00BB               	movf	2+(??___fladd+0)+0,w
  8548  0203  0842               	movwf	(___fladd@b+2)
  8549  0204  00BA               	movf	1+(??___fladd+0)+0,w
  8550  0205  0841               	movwf	(___fladd@b+1)
  8551  0206  00B9               	movf	0+(??___fladd+0)+0,w
  8552  0207  0840               	movwf	(___fladd@b)
  8553  0208  00B8               
  8554                           	line	155
  8555                           	movlw	low(080h)
  8556  0209  3080               	movwf	(??___fladd+0)+0
  8557  020A  00C0               	movf	(??___fladd+0)+0,w
  8558  020B  0840               	xorwf	(___fladd@signs),f
  8559  020C  06CC               	line	156
  8560                           	
  8561                           l2416:	
  8562  020D                     	comf	(___fladd@grs),f
  8563  020D  09CF               	incf	(___fladd@grs),f
  8564  020E  0ACF               	line	157
  8565                           	
  8566                           l2418:	
  8567  020F                     	movf	((___fladd@grs)),w
  8568  020F  084F               	btfss	status,2
  8569  0210  1D03               	goto	u2501
  8570  0211  2A13               	goto	u2500
  8571  0212  2A14               u2501:
  8572  0213                     	goto	l821
  8573  0213  2A32               u2500:
  8574  0214                     	line	158
  8575                           	
  8576                           l2420:	
  8577  0214                     	movlw	01h
  8578  0214  3001               	addwf	(___fladd@b),f
  8579  0215  07B8               	movlw	0
  8580  0216  3000               	skipnc
  8581  0217  1803               movlw 1
  8582  0218  3001               	addwf	(___fladd@b+1),f
  8583  0219  07B9               	movlw	0
  8584  021A  3000               	skipnc
  8585  021B  1803               movlw 1
  8586  021C  3001               	addwf	(___fladd@b+2),f
  8587  021D  07BA               	movlw	0
  8588  021E  3000               	skipnc
  8589  021F  1803               movlw 1
  8590  0220  3001               	addwf	(___fladd@b+3),f
  8591  0221  07BB               	goto	l821
  8592  0222  2A32               	line	159
  8593                           	
  8594                           l820:	
  8595  0223                     	line	160
  8596                           	goto	l821
  8597  0223  2A32               	line	161
  8598                           	
  8599                           l819:	
  8600  0224                     	line	162
  8601                           	
  8602                           l2422:	
  8603  0224                     	movf	(___fladd@a),w
  8604  0224  083C               	subwf	(___fladd@b),f
  8605  0225  02B8               	movf	(___fladd@a+1),w
  8606  0226  083D               	skipc
  8607  0227  1C03               	incfsz	(___fladd@a+1),w
  8608  0228  0F3D               	subwf	(___fladd@b+1),f
  8609  0229  02B9               	movf	(___fladd@a+2),w
  8610  022A  083E               	skipc
  8611  022B  1C03               	incfsz	(___fladd@a+2),w
  8612  022C  0F3E               	subwf	(___fladd@b+2),f
  8613  022D  02BA               	movf	(___fladd@a+3),w
  8614  022E  083F               	skipc
  8615  022F  1C03               	incfsz	(___fladd@a+3),w
  8616  0230  0F3F               	subwf	(___fladd@b+3),f
  8617  0231  02BB               	line	163
  8618                           	
  8619                           l821:	
  8620  0232                     	line	166
  8621                           	movf	(___fladd@b+3),w
  8622  0232  083B               	iorwf	(___fladd@b+2),w
  8623  0233  043A               	iorwf	(___fladd@b+1),w
  8624  0234  0439               	iorwf	(___fladd@b),w
  8625  0235  0438               	skipz
  8626  0236  1D03               	goto	u2511
  8627  0237  2A39               	goto	u2510
  8628  0238  2A3A               u2511:
  8629  0239                     	goto	l2444
  8630  0239  2A6B               u2510:
  8631  023A                     	
  8632                           l2424:	
  8633  023A                     	movf	((___fladd@grs)),w
  8634  023A  084F               	btfss	status,2
  8635  023B  1D03               	goto	u2521
  8636  023C  2A3E               	goto	u2520
  8637  023D  2A3F               u2521:
  8638  023E                     	goto	l2444
  8639  023E  2A6B               u2520:
  8640  023F                     	line	167
  8641                           	
  8642                           l2426:	
  8643  023F                     	movlw	0x0
  8644  023F  3000               	movwf	(?___fladd+3)
  8645  0240  00BB               	movlw	0x0
  8646  0241  3000               	movwf	(?___fladd+2)
  8647  0242  00BA               	movlw	0x0
  8648  0243  3000               	movwf	(?___fladd+1)
  8649  0244  00B9               	movlw	0x0
  8650  0245  3000               	movwf	(?___fladd)
  8651  0246  00B8               
  8652                           	goto	l813
  8653  0247  2AF4               	
  8654                           l2428:	
  8655  0248                     	goto	l813
  8656  0248  2AF4               	line	168
  8657                           	
  8658                           l822:	
  8659  0249                     	line	171
  8660                           	goto	l2444
  8661  0249  2A6B               	
  8662                           l824:	
  8663  024A                     	line	172
  8664                           	
  8665                           l2430:	
  8666  024A                     	movlw	01h
  8667  024A  3001               	movwf	(??___fladd+0)+0
  8668  024B  00C0               u2535:
  8669  024C                     	clrc
  8670  024C  1003               	rlf	(___fladd@b),f
  8671  024D  0DB8               	rlf	(___fladd@b+1),f
  8672  024E  0DB9               	rlf	(___fladd@b+2),f
  8673  024F  0DBA               	rlf	(___fladd@b+3),f
  8674  0250  0DBB               	decfsz	(??___fladd+0)+0
  8675  0251  0BC0               	goto	u2535
  8676  0252  2A4C               	line	173
  8677                           	
  8678                           l2432:	
  8679  0253                     	btfss	(___fladd@grs),(7)&7
  8680  0253  1FCF               	goto	u2541
  8681  0254  2A56               	goto	u2540
  8682  0255  2A57               u2541:
  8683  0256                     	goto	l825
  8684  0256  2A58               u2540:
  8685  0257                     	line	174
  8686                           	
  8687                           l2434:	
  8688  0257                     	bsf	(___fladd@b)+(0/8),(0)&7
  8689  0257  1438               	line	175
  8690                           	
  8691                           l825:	
  8692  0258                     	line	176
  8693                           	btfss	(___fladd@grs),(0)&7
  8694  0258  1C4F               	goto	u2551
  8695  0259  2A5B               	goto	u2550
  8696  025A  2A5C               u2551:
  8697  025B                     	goto	l2438
  8698  025B  2A5F               u2550:
  8699  025C                     	line	177
  8700                           	
  8701                           l2436:	
  8702  025C                     	setc
  8703  025C  1403               	rlf	(___fladd@grs),f
  8704  025D  0DCF               	line	178
  8705                           	goto	l2440
  8706  025E  2A62               	line	179
  8707                           	
  8708                           l826:	
  8709  025F                     	line	180
  8710                           	
  8711                           l2438:	
  8712  025F                     	clrc
  8713  025F  1003               	rlf	(___fladd@grs),f
  8714  0260  0DCF               
  8715                           	goto	l2440
  8716  0261  2A62               	line	181
  8717                           	
  8718                           l827:	
  8719  0262                     	line	182
  8720                           	
  8721                           l2440:	
  8722  0262                     	movf	((___fladd@bexp)),w
  8723  0262  084E               	btfsc	status,2
  8724  0263  1903               	goto	u2561
  8725  0264  2A66               	goto	u2560
  8726  0265  2A67               u2561:
  8727  0266                     	goto	l2444
  8728  0266  2A6B               u2560:
  8729  0267                     	line	183
  8730                           	
  8731                           l2442:	
  8732  0267                     	movlw	01h
  8733  0267  3001               	subwf	(___fladd@bexp),f
  8734  0268  02CE               	goto	l2444
  8735  0269  2A6B               	line	184
  8736                           	
  8737                           l828:	
  8738  026A                     	goto	l2444
  8739  026A  2A6B               	line	185
  8740                           	
  8741                           l823:	
  8742  026B                     	line	171
  8743                           	
  8744                           l2444:	
  8745  026B                     	btfss	(___fladd@b+2),(23)&7
  8746  026B  1FBA               	goto	u2571
  8747  026C  2A6E               	goto	u2570
  8748  026D  2A6F               u2571:
  8749  026E                     	goto	l2430
  8750  026E  2A4A               u2570:
  8751  026F                     	goto	l2446
  8752  026F  2A71               	
  8753                           l829:	
  8754  0270                     	goto	l2446
  8755  0270  2A71               	line	186
  8756                           	
  8757                           l818:	
  8758  0271                     	line	192
  8759                           	
  8760                           l2446:	
  8761  0271                     	clrf	(___fladd@aexp)
  8762  0271  01CD               	line	193
  8763                           	
  8764                           l2448:	
  8765  0272                     	btfss	(___fladd@grs),(7)&7
  8766  0272  1FCF               	goto	u2581
  8767  0273  2A75               	goto	u2580
  8768  0274  2A76               u2581:
  8769  0275                     	goto	l2456
  8770  0275  2A88               u2580:
  8771  0276                     	line	194
  8772                           	
  8773                           l2450:	
  8774  0276                     	movf	(___fladd@grs),w
  8775  0276  084F               	andlw	07Fh
  8776  0277  397F               	btfsc	status,2
  8777  0278  1903               	goto	u2591
  8778  0279  2A7B               	goto	u2590
  8779  027A  2A7C               u2591:
  8780  027B                     	goto	l831
  8781  027B  2A7F               u2590:
  8782  027C                     	line	195
  8783                           	
  8784                           l2452:	
  8785  027C                     	clrf	(___fladd@aexp)
  8786  027C  01CD               	incf	(___fladd@aexp),f
  8787  027D  0ACD               	line	196
  8788                           	goto	l2456
  8789  027E  2A88               	line	197
  8790                           	
  8791                           l831:	
  8792  027F                     	line	198
  8793                           	btfss	(___fladd@b),(0)&7
  8794  027F  1C38               	goto	u2601
  8795  0280  2A82               	goto	u2600
  8796  0281  2A83               u2601:
  8797  0282                     	goto	l2456
  8798  0282  2A88               u2600:
  8799  0283                     	line	199
  8800                           	
  8801                           l2454:	
  8802  0283                     	clrf	(___fladd@aexp)
  8803  0283  01CD               	incf	(___fladd@aexp),f
  8804  0284  0ACD               	goto	l2456
  8805  0285  2A88               	line	200
  8806                           	
  8807                           l833:	
  8808  0286                     	goto	l2456
  8809  0286  2A88               	line	201
  8810                           	
  8811                           l832:	
  8812  0287                     	goto	l2456
  8813  0287  2A88               	line	202
  8814                           	
  8815                           l830:	
  8816  0288                     	line	203
  8817                           	
  8818                           l2456:	
  8819  0288                     	movf	((___fladd@aexp)),w
  8820  0288  084D               	btfsc	status,2
  8821  0289  1903               	goto	u2611
  8822  028A  2A8C               	goto	u2610
  8823  028B  2A8D               u2611:
  8824  028C                     	goto	l834
  8825  028C  2AC3               u2610:
  8826  028D                     	line	204
  8827                           	
  8828                           l2458:	
  8829  028D                     	movlw	01h
  8830  028D  3001               	addwf	(___fladd@b),f
  8831  028E  07B8               	movlw	0
  8832  028F  3000               	skipnc
  8833  0290  1803               movlw 1
  8834  0291  3001               	addwf	(___fladd@b+1),f
  8835  0292  07B9               	movlw	0
  8836  0293  3000               	skipnc
  8837  0294  1803               movlw 1
  8838  0295  3001               	addwf	(___fladd@b+2),f
  8839  0296  07BA               	movlw	0
  8840  0297  3000               	skipnc
  8841  0298  1803               movlw 1
  8842  0299  3001               	addwf	(___fladd@b+3),f
  8843  029A  07BB               	line	205
  8844                           	
  8845                           l2460:	
  8846  029B                     	btfss	(___fladd@b+3),(24)&7
  8847  029B  1C3B               	goto	u2621
  8848  029C  2A9E               	goto	u2620
  8849  029D  2A9F               u2621:
  8850  029E                     	goto	l834
  8851  029E  2AC3               u2620:
  8852  029F                     	line	206
  8853                           	
  8854                           l2462:	
  8855  029F                     	movf	(___fladd@b),w
  8856  029F  0838               	movwf	(??___fladd+0)+0
  8857  02A0  00C0               	movf	(___fladd@b+1),w
  8858  02A1  0839               	movwf	((??___fladd+0)+0+1)
  8859  02A2  00C1               	movf	(___fladd@b+2),w
  8860  02A3  083A               	movwf	((??___fladd+0)+0+2)
  8861  02A4  00C2               	movf	(___fladd@b+3),w
  8862  02A5  083B               	movwf	((??___fladd+0)+0+3)
  8863  02A6  00C3               	movlw	01h
  8864  02A7  3001               	movwf	(??___fladd+4)+0
  8865  02A8  00C4               u2635:
  8866  02A9                     	rlf	(??___fladd+0)+3,w
  8867  02A9  0D43               	rrf	(??___fladd+0)+3,f
  8868  02AA  0CC3               	rrf	(??___fladd+0)+2,f
  8869  02AB  0CC2               	rrf	(??___fladd+0)+1,f
  8870  02AC  0CC1               	rrf	(??___fladd+0)+0,f
  8871  02AD  0CC0               u2630:
  8872  02AE                     	decfsz	(??___fladd+4)+0,f
  8873  02AE  0BC4               	goto	u2635
  8874  02AF  2AA9               	movf	3+(??___fladd+0)+0,w
  8875  02B0  0843               	movwf	(___fladd@b+3)
  8876  02B1  00BB               	movf	2+(??___fladd+0)+0,w
  8877  02B2  0842               	movwf	(___fladd@b+2)
  8878  02B3  00BA               	movf	1+(??___fladd+0)+0,w
  8879  02B4  0841               	movwf	(___fladd@b+1)
  8880  02B5  00B9               	movf	0+(??___fladd+0)+0,w
  8881  02B6  0840               	movwf	(___fladd@b)
  8882  02B7  00B8               
  8883                           	line	207
  8884                           		incf	((___fladd@bexp)),w
  8885  02B8  0A4E               	btfsc	status,2
  8886  02B9  1903               	goto	u2641
  8887  02BA  2ABC               	goto	u2640
  8888  02BB  2ABD               u2641:
  8889  02BC                     	goto	l834
  8890  02BC  2AC3               u2640:
  8891  02BD                     	line	208
  8892                           	
  8893                           l2464:	
  8894  02BD                     	movlw	low(01h)
  8895  02BD  3001               	movwf	(??___fladd+0)+0
  8896  02BE  00C0               	movf	(??___fladd+0)+0,w
  8897  02BF  0840               	addwf	(___fladd@bexp),f
  8898  02C0  07CE               	goto	l834
  8899  02C1  2AC3               	line	209
  8900                           	
  8901                           l836:	
  8902  02C2                     	goto	l834
  8903  02C2  2AC3               	line	210
  8904                           	
  8905                           l835:	
  8906  02C3                     	line	211
  8907                           	
  8908                           l834:	
  8909  02C3                     	line	215
  8910                           		incf	((___fladd@bexp)),w
  8911  02C3  0A4E               	btfsc	status,2
  8912  02C4  1903               	goto	u2651
  8913  02C5  2AC7               	goto	u2650
  8914  02C6  2AC8               u2651:
  8915  02C7                     	goto	l2468
  8916  02C7  2ACE               u2650:
  8917  02C8                     	
  8918                           l2466:	
  8919  02C8                     	movf	((___fladd@bexp)),w
  8920  02C8  084E               	btfss	status,2
  8921  02C9  1D03               	goto	u2661
  8922  02CA  2ACC               	goto	u2660
  8923  02CB  2ACD               u2661:
  8924  02CC                     	goto	l2474
  8925  02CC  2ADE               u2660:
  8926  02CD                     	goto	l2468
  8927  02CD  2ACE               	
  8928                           l839:	
  8929  02CE                     	line	216
  8930                           	
  8931                           l2468:	
  8932  02CE                     	movlw	high highword(0)
  8933  02CE  3000               	movwf	(___fladd@b+3)
  8934  02CF  00BB               	movlw	low highword(0)
  8935  02D0  3000               	movwf	(___fladd@b+2)
  8936  02D1  00BA               	movlw	high(0)
  8937  02D2  3000               	movwf	(___fladd@b+1)
  8938  02D3  00B9               	movlw	low(0)
  8939  02D4  3000               	movwf	(___fladd@b)
  8940  02D5  00B8               
  8941                           	line	218
  8942                           	
  8943                           l2470:	
  8944  02D6                     	movf	((___fladd@bexp)),w
  8945  02D6  084E               	btfss	status,2
  8946  02D7  1D03               	goto	u2671
  8947  02D8  2ADA               	goto	u2670
  8948  02D9  2ADB               u2671:
  8949  02DA                     	goto	l2474
  8950  02DA  2ADE               u2670:
  8951  02DB                     	line	219
  8952                           	
  8953                           l2472:	
  8954  02DB                     	clrf	(___fladd@signs)
  8955  02DB  01CC               	goto	l2474
  8956  02DC  2ADE               	line	220
  8957                           	
  8958                           l840:	
  8959  02DD                     	goto	l2474
  8960  02DD  2ADE               	line	221
  8961                           	
  8962                           l837:	
  8963  02DE                     	line	225
  8964                           	
  8965                           l2474:	
  8966  02DE                     	btfss	(___fladd@bexp),(0)&7
  8967  02DE  1C4E               	goto	u2681
  8968  02DF  2AE1               	goto	u2680
  8969  02E0  2AE2               u2681:
  8970  02E1                     	goto	l2478
  8971  02E1  2AE4               u2680:
  8972  02E2                     	line	226
  8973                           	
  8974                           l2476:	
  8975  02E2                     	bsf	0+(___fladd@b)+02h+(7/8),(7)&7
  8976  02E2  17BA               	line	227
  8977                           	goto	l842
  8978  02E3  2AE8               	line	229
  8979                           	
  8980                           l841:	
  8981  02E4                     	line	230
  8982                           	
  8983                           l2478:	
  8984  02E4                     	movlw	low(07Fh)
  8985  02E4  307F               	movwf	(??___fladd+0)+0
  8986  02E5  00C0               	movf	(??___fladd+0)+0,w
  8987  02E6  0840               	andwf	0+(___fladd@b)+02h,f
  8988  02E7  05BA               	line	231
  8989                           	
  8990                           l842:	
  8991  02E8                     	line	232
  8992                           	movf	(___fladd@bexp),w
  8993  02E8  084E               	movwf	(??___fladd+0)+0
  8994  02E9  00C0               	clrc
  8995  02EA  1003               	rrf	(??___fladd+0)+0,w
  8996  02EB  0C40               	movwf	(??___fladd+1)+0
  8997  02EC  00C1               	movf	(??___fladd+1)+0,w
  8998  02ED  0841               	movwf	0+(___fladd@b)+03h
  8999  02EE  00BB               	line	233
  9000                           	
  9001                           l2480:	
  9002  02EF                     	btfss	(___fladd@signs),(7)&7
  9003  02EF  1FCC               	goto	u2691
  9004  02F0  2AF2               	goto	u2690
  9005  02F1  2AF3               u2691:
  9006  02F2                     	goto	l843
  9007  02F2  2AF4               u2690:
  9008  02F3                     	line	234
  9009                           	
  9010                           l2482:	
  9011  02F3                     	bsf	0+(___fladd@b)+03h+(7/8),(7)&7
  9012  02F3  17BB               	line	235
  9013                           	
  9014                           l843:	
  9015  02F4                     	line	236
  9016                           	line	237
  9017                           	
  9018                           l813:	
  9019  02F4                     	return
  9020  02F4  0008               	opt stack 0
  9021                           GLOBAL	__end_of___fladd
  9022                           	__end_of___fladd:
  9023  02F5                     	signat	___fladd,8316
  9024                           	global	___bmul
  9025                           
  9026 ;; *************** function ___bmul *****************
  9027 ;; Defined at:
  9028 ;;		line 4 in file "C:\Program Files (x86)\Microchip\xc8\v2.00\pic\sources\c90\common\Umul8.c"
  9029 ;; Parameters:    Size  Location     Type
  9030 ;;  multiplier      1    wreg     unsigned char 
  9031 ;;  multiplicand    1    0[BANK0 ] unsigned char 
  9032 ;; Auto vars:     Size  Location     Type
  9033 ;;  multiplier      1    3[BANK0 ] unsigned char 
  9034 ;;  product         1    2[BANK0 ] unsigned char 
  9035 ;; Return value:  Size  Location     Type
  9036 ;;                  1    wreg      unsigned char 
  9037 ;; Registers used:
  9038 ;;		wreg, status,2, status,0
  9039 ;; Tracked objects:
  9040 ;;		On entry : 0/0
  9041 ;;		On exit  : 0/0
  9042 ;;		Unchanged: 0/0
  9043 ;; Data sizes:     COMMON   BANK0   BANK1   BANK3   BANK2
  9044 ;;      Params:         0       1       0       0       0
  9045 ;;      Locals:         0       2       0       0       0
  9046 ;;      Temps:          0       1       0       0       0
  9047 ;;      Totals:         0       4       0       0       0
  9048 ;;Total ram usage:        4 bytes
  9049 ;; Hardware stack levels used:    1
  9050 ;; Hardware stack levels required when called:    4
  9051 ;; This function calls:
  9052 ;;		Nothing
  9053 ;; This function is called by:
  9054 ;;		_b0
  9055 ;; This function uses a non-reentrant model
  9056 ;;
  9057                           psect	text23,local,class=CODE,delta=2,merge=1,group=1
  9058                           	file	"C:\Program Files (x86)\Microchip\xc8\v2.00\pic\sources\c90\common\Umul8.c"
  9059                           	line	4
  9060                           global __ptext23
  9061                           __ptext23:	;psect for function ___bmul
  9062  11E9                     psect	text23
  9063                           	file	"C:\Program Files (x86)\Microchip\xc8\v2.00\pic\sources\c90\common\Umul8.c"
  9064                           	line	4
  9065                           	global	__size_of___bmul
  9066                           	__size_of___bmul	equ	__end_of___bmul-___bmul
  9067  001B                     	
  9068                           ___bmul:	
  9069  11E9                     ;incstack = 0
  9070                           	opt	stack 0
  9071                           ; Regs used in ___bmul: [wreg+status,2+status,0]
  9072                           ;___bmul@multiplier stored from wreg
  9073                           	bcf	status, 5	;RP0=0, select bank0
  9074  11E9  1283               	bcf	status, 6	;RP1=0, select bank0
  9075  11EA  1303               	movwf	(___bmul@multiplier)
  9076  11EB  00A3               	line	6
  9077                           	
  9078                           l2188:	
  9079  11EC                     	clrf	(___bmul@product)
  9080  11EC  01A2               	goto	l2190
  9081  11ED  29EE               	line	42
  9082                           	
  9083                           l530:	
  9084  11EE                     	line	43
  9085                           	
  9086                           l2190:	
  9087  11EE                     	btfss	(___bmul@multiplier),(0)&7
  9088  11EE  1C23               	goto	u2011
  9089  11EF  29F1               	goto	u2010
  9090  11F0  29F2               u2011:
  9091  11F1                     	goto	l2194
  9092  11F1  29F7               u2010:
  9093  11F2                     	line	44
  9094                           	
  9095                           l2192:	
  9096  11F2                     	movf	(___bmul@multiplicand),w
  9097  11F2  0820               	movwf	(??___bmul+0)+0
  9098  11F3  00A1               	movf	(??___bmul+0)+0,w
  9099  11F4  0821               	addwf	(___bmul@product),f
  9100  11F5  07A2               	goto	l2194
  9101  11F6  29F7               	
  9102                           l531:	
  9103  11F7                     	line	45
  9104                           	
  9105                           l2194:	
  9106  11F7                     	clrc
  9107  11F7  1003               	rlf	(___bmul@multiplicand),f
  9108  11F8  0DA0               
  9109                           	line	46
  9110                           	
  9111                           l2196:	
  9112  11F9                     	clrc
  9113  11F9  1003               	rrf	(___bmul@multiplier),f
  9114  11FA  0CA3               
  9115                           	line	47
  9116                           	movf	((___bmul@multiplier)),w
  9117  11FB  0823               	btfss	status,2
  9118  11FC  1D03               	goto	u2021
  9119  11FD  29FF               	goto	u2020
  9120  11FE  2A00               u2021:
  9121  11FF                     	goto	l2190
  9122  11FF  29EE               u2020:
  9123  1200                     	goto	l2198
  9124  1200  2A01               	
  9125                           l532:	
  9126  1201                     	line	50
  9127                           	
  9128                           l2198:	
  9129  1201                     	movf	(___bmul@product),w
  9130  1201  0822               	goto	l533
  9131  1202  2A03               	
  9132                           l2200:	
  9133  1203                     	line	51
  9134                           	
  9135                           l533:	
  9136  1203                     	return
  9137  1203  0008               	opt stack 0
  9138                           GLOBAL	__end_of___bmul
  9139                           	__end_of___bmul:
  9140  1204                     	signat	___bmul,8313
  9141                           	global	_separa_digitos_rtc
  9142                           
  9143 ;; *************** function _separa_digitos_rtc *****************
  9144 ;; Defined at:
  9145 ;;		line 208 in file "Proyecto1_master.c"
  9146 ;; Parameters:    Size  Location     Type
  9147 ;;		None
  9148 ;; Auto vars:     Size  Location     Type
  9149 ;;		None
  9150 ;; Return value:  Size  Location     Type
  9151 ;;                  1    wreg      void 
  9152 ;; Registers used:
  9153 ;;		wreg, status,2, status,0, pclath, cstack
  9154 ;; Tracked objects:
  9155 ;;		On entry : 0/0
  9156 ;;		On exit  : 0/0
  9157 ;;		Unchanged: 0/0
  9158 ;; Data sizes:     COMMON   BANK0   BANK1   BANK3   BANK2
  9159 ;;      Params:         0       0       0       0       0
  9160 ;;      Locals:         0       0       0       0       0
  9161 ;;      Temps:          0       1       0       0       0
  9162 ;;      Totals:         0       1       0       0       0
  9163 ;;Total ram usage:        1 bytes
  9164 ;; Hardware stack levels used:    1
  9165 ;; Hardware stack levels required when called:    5
  9166 ;; This function calls:
  9167 ;;		___awdiv
  9168 ;;		___awmod
  9169 ;; This function is called by:
  9170 ;;		_boton_lcd
  9171 ;; This function uses a non-reentrant model
  9172 ;;
  9173                           psect	text24,local,class=CODE,delta=2,merge=1,group=0
  9174                           	file	"Proyecto1_master.c"
  9175                           	line	208
  9176                           global __ptext24
  9177                           __ptext24:	;psect for function _separa_digitos_rtc
  9178  0699                     psect	text24
  9179                           	file	"Proyecto1_master.c"
  9180                           	line	208
  9181                           	global	__size_of_separa_digitos_rtc
  9182                           	__size_of_separa_digitos_rtc	equ	__end_of_separa_digitos_rtc-_separa_digitos_rtc
  9183  014D                     	
  9184                           _separa_digitos_rtc:	
  9185  0699                     ;incstack = 0
  9186                           	opt	stack 1
  9187                           ; Regs used in _separa_digitos_rtc: [wreg+status,2+status,0+pclath+cstack]
  9188                           	line	209
  9189                           	
  9190                           l2802:	
  9191  0699                     ;Proyecto1_master.c: 209:     sec_0 = sec%10;
  9192                           	movlw	0Ah
  9193  0699  300A               	bcf	status, 5	;RP0=0, select bank0
  9194  069A  1283               	bcf	status, 6	;RP1=0, select bank0
  9195  069B  1303               	movwf	(___awmod@divisor)
  9196  069C  00A0               	movlw	0
  9197  069D  3000               	movwf	((___awmod@divisor))+1
  9198  069E  00A1               	movf	(_sec+1),w
  9199  069F  087A               	movwf	(___awmod@dividend+1)
  9200  06A0  00A3               	movf	(_sec),w
  9201  06A1  0879               	movwf	(___awmod@dividend)
  9202  06A2  00A2               	fcall	___awmod
  9203  06A3  160A  118A  263D  120A  118A  	bcf	status, 5	;RP0=0, select bank0
  9204  06A8  1283               	bcf	status, 6	;RP1=0, select bank0
  9205  06A9  1303               	movf	(0+(?___awmod)),w
  9206  06AA  0820               	movwf	(??_separa_digitos_rtc+0)+0
  9207  06AB  00A9               	movf	(??_separa_digitos_rtc+0)+0,w
  9208  06AC  0829               	movwf	(_sec_0)
  9209  06AD  00EF               	line	210
  9210                           ;Proyecto1_master.c: 210:     sec_1 = (sec/10);
  9211                           	movlw	0Ah
  9212  06AE  300A               	movwf	(___awdiv@divisor)
  9213  06AF  00A0               	movlw	0
  9214  06B0  3000               	movwf	((___awdiv@divisor))+1
  9215  06B1  00A1               	movf	(_sec+1),w
  9216  06B2  087A               	movwf	(___awdiv@dividend+1)
  9217  06B3  00A3               	movf	(_sec),w
  9218  06B4  0879               	movwf	(___awdiv@dividend)
  9219  06B5  00A2               	fcall	___awdiv
  9220  06B6  160A  118A  26A2  120A  118A  	bcf	status, 5	;RP0=0, select bank0
  9221  06BB  1283               	bcf	status, 6	;RP1=0, select bank0
  9222  06BC  1303               	movf	(0+(?___awdiv)),w
  9223  06BD  0820               	movwf	(??_separa_digitos_rtc+0)+0
  9224  06BE  00A9               	movf	(??_separa_digitos_rtc+0)+0,w
  9225  06BF  0829               	movwf	(_sec_1)
  9226  06C0  00FB               	line	211
  9227                           ;Proyecto1_master.c: 211:     min_0 = min%10;
  9228                           	movlw	0Ah
  9229  06C1  300A               	movwf	(___awmod@divisor)
  9230  06C2  00A0               	movlw	0
  9231  06C3  3000               	movwf	((___awmod@divisor))+1
  9232  06C4  00A1               	movf	(_min+1),w
  9233  06C5  087D               	movwf	(___awmod@dividend+1)
  9234  06C6  00A3               	movf	(_min),w
  9235  06C7  087C               	movwf	(___awmod@dividend)
  9236  06C8  00A2               	fcall	___awmod
  9237  06C9  160A  118A  263D  120A  118A  	bcf	status, 5	;RP0=0, select bank0
  9238  06CE  1283               	bcf	status, 6	;RP1=0, select bank0
  9239  06CF  1303               	movf	(0+(?___awmod)),w
  9240  06D0  0820               	movwf	(??_separa_digitos_rtc+0)+0
  9241  06D1  00A9               	movf	(??_separa_digitos_rtc+0)+0,w
  9242  06D2  0829               	bsf	status, 5	;RP0=1, select bank1
  9243  06D3  1683               	bcf	status, 6	;RP1=0, select bank1
  9244  06D4  1303               	movwf	(_min_0)^080h
  9245  06D5  00B8               	line	212
  9246                           ;Proyecto1_master.c: 212:     min_1 = min/10;
  9247                           	movlw	0Ah
  9248  06D6  300A               	bcf	status, 5	;RP0=0, select bank0
  9249  06D7  1283               	bcf	status, 6	;RP1=0, select bank0
  9250  06D8  1303               	movwf	(___awdiv@divisor)
  9251  06D9  00A0               	movlw	0
  9252  06DA  3000               	movwf	((___awdiv@divisor))+1
  9253  06DB  00A1               	movf	(_min+1),w
  9254  06DC  087D               	movwf	(___awdiv@dividend+1)
  9255  06DD  00A3               	movf	(_min),w
  9256  06DE  087C               	movwf	(___awdiv@dividend)
  9257  06DF  00A2               	fcall	___awdiv
  9258  06E0  160A  118A  26A2  120A  118A  	bcf	status, 5	;RP0=0, select bank0
  9259  06E5  1283               	bcf	status, 6	;RP1=0, select bank0
  9260  06E6  1303               	movf	(0+(?___awdiv)),w
  9261  06E7  0820               	movwf	(??_separa_digitos_rtc+0)+0
  9262  06E8  00A9               	movf	(??_separa_digitos_rtc+0)+0,w
  9263  06E9  0829               	bsf	status, 5	;RP0=1, select bank1
  9264  06EA  1683               	bcf	status, 6	;RP1=0, select bank1
  9265  06EB  1303               	movwf	(_min_1)^080h
  9266  06EC  00B7               	line	213
  9267                           ;Proyecto1_master.c: 213:     hour_0 = hour%10;
  9268                           	movlw	0Ah
  9269  06ED  300A               	bcf	status, 5	;RP0=0, select bank0
  9270  06EE  1283               	bcf	status, 6	;RP1=0, select bank0
  9271  06EF  1303               	movwf	(___awmod@divisor)
  9272  06F0  00A0               	movlw	0
  9273  06F1  3000               	movwf	((___awmod@divisor))+1
  9274  06F2  00A1               	bsf	status, 5	;RP0=1, select bank1
  9275  06F3  1683               	bcf	status, 6	;RP1=0, select bank1
  9276  06F4  1303               	movf	(_hour+1)^080h,w
  9277  06F5  0847               	bcf	status, 5	;RP0=0, select bank0
  9278  06F6  1283               	bcf	status, 6	;RP1=0, select bank0
  9279  06F7  1303               	movwf	(___awmod@dividend+1)
  9280  06F8  00A3               	bsf	status, 5	;RP0=1, select bank1
  9281  06F9  1683               	bcf	status, 6	;RP1=0, select bank1
  9282  06FA  1303               	movf	(_hour)^080h,w
  9283  06FB  0846               	bcf	status, 5	;RP0=0, select bank0
  9284  06FC  1283               	bcf	status, 6	;RP1=0, select bank0
  9285  06FD  1303               	movwf	(___awmod@dividend)
  9286  06FE  00A2               	fcall	___awmod
  9287  06FF  160A  118A  263D  120A  118A  	bcf	status, 5	;RP0=0, select bank0
  9288  0704  1283               	bcf	status, 6	;RP1=0, select bank0
  9289  0705  1303               	movf	(0+(?___awmod)),w
  9290  0706  0820               	movwf	(??_separa_digitos_rtc+0)+0
  9291  0707  00A9               	movf	(??_separa_digitos_rtc+0)+0,w
  9292  0708  0829               	bsf	status, 5	;RP0=1, select bank1
  9293  0709  1683               	bcf	status, 6	;RP1=0, select bank1
  9294  070A  1303               	movwf	(_hour_0)^080h
  9295  070B  00B6               	line	214
  9296                           ;Proyecto1_master.c: 214:     hour_1 = hour/10;
  9297                           	movlw	0Ah
  9298  070C  300A               	bcf	status, 5	;RP0=0, select bank0
  9299  070D  1283               	bcf	status, 6	;RP1=0, select bank0
  9300  070E  1303               	movwf	(___awdiv@divisor)
  9301  070F  00A0               	movlw	0
  9302  0710  3000               	movwf	((___awdiv@divisor))+1
  9303  0711  00A1               	bsf	status, 5	;RP0=1, select bank1
  9304  0712  1683               	bcf	status, 6	;RP1=0, select bank1
  9305  0713  1303               	movf	(_hour+1)^080h,w
  9306  0714  0847               	bcf	status, 5	;RP0=0, select bank0
  9307  0715  1283               	bcf	status, 6	;RP1=0, select bank0
  9308  0716  1303               	movwf	(___awdiv@dividend+1)
  9309  0717  00A3               	bsf	status, 5	;RP0=1, select bank1
  9310  0718  1683               	bcf	status, 6	;RP1=0, select bank1
  9311  0719  1303               	movf	(_hour)^080h,w
  9312  071A  0846               	bcf	status, 5	;RP0=0, select bank0
  9313  071B  1283               	bcf	status, 6	;RP1=0, select bank0
  9314  071C  1303               	movwf	(___awdiv@dividend)
  9315  071D  00A2               	fcall	___awdiv
  9316  071E  160A  118A  26A2  120A  118A  	bcf	status, 5	;RP0=0, select bank0
  9317  0723  1283               	bcf	status, 6	;RP1=0, select bank0
  9318  0724  1303               	movf	(0+(?___awdiv)),w
  9319  0725  0820               	movwf	(??_separa_digitos_rtc+0)+0
  9320  0726  00A9               	movf	(??_separa_digitos_rtc+0)+0,w
  9321  0727  0829               	bsf	status, 5	;RP0=1, select bank1
  9322  0728  1683               	bcf	status, 6	;RP1=0, select bank1
  9323  0729  1303               	movwf	(_hour_1)^080h
  9324  072A  00B5               	line	215
  9325                           ;Proyecto1_master.c: 215:     date_0 = date%10;
  9326                           	movlw	0Ah
  9327  072B  300A               	bcf	status, 5	;RP0=0, select bank0
  9328  072C  1283               	bcf	status, 6	;RP1=0, select bank0
  9329  072D  1303               	movwf	(___awmod@divisor)
  9330  072E  00A0               	movlw	0
  9331  072F  3000               	movwf	((___awmod@divisor))+1
  9332  0730  00A1               	bsf	status, 5	;RP0=1, select bank1
  9333  0731  1683               	bcf	status, 6	;RP1=0, select bank1
  9334  0732  1303               	movf	(_date+1)^080h,w
  9335  0733  0845               	bcf	status, 5	;RP0=0, select bank0
  9336  0734  1283               	bcf	status, 6	;RP1=0, select bank0
  9337  0735  1303               	movwf	(___awmod@dividend+1)
  9338  0736  00A3               	bsf	status, 5	;RP0=1, select bank1
  9339  0737  1683               	bcf	status, 6	;RP1=0, select bank1
  9340  0738  1303               	movf	(_date)^080h,w
  9341  0739  0844               	bcf	status, 5	;RP0=0, select bank0
  9342  073A  1283               	bcf	status, 6	;RP1=0, select bank0
  9343  073B  1303               	movwf	(___awmod@dividend)
  9344  073C  00A2               	fcall	___awmod
  9345  073D  160A  118A  263D  120A  118A  	bcf	status, 5	;RP0=0, select bank0
  9346  0742  1283               	bcf	status, 6	;RP1=0, select bank0
  9347  0743  1303               	movf	(0+(?___awmod)),w
  9348  0744  0820               	movwf	(??_separa_digitos_rtc+0)+0
  9349  0745  00A9               	movf	(??_separa_digitos_rtc+0)+0,w
  9350  0746  0829               	bsf	status, 5	;RP0=1, select bank1
  9351  0747  1683               	bcf	status, 6	;RP1=0, select bank1
  9352  0748  1303               	movwf	(_date_0)^080h
  9353  0749  00B4               	line	216
  9354                           ;Proyecto1_master.c: 216:     date_1 = date/10;
  9355                           	movlw	0Ah
  9356  074A  300A               	bcf	status, 5	;RP0=0, select bank0
  9357  074B  1283               	bcf	status, 6	;RP1=0, select bank0
  9358  074C  1303               	movwf	(___awdiv@divisor)
  9359  074D  00A0               	movlw	0
  9360  074E  3000               	movwf	((___awdiv@divisor))+1
  9361  074F  00A1               	bsf	status, 5	;RP0=1, select bank1
  9362  0750  1683               	bcf	status, 6	;RP1=0, select bank1
  9363  0751  1303               	movf	(_date+1)^080h,w
  9364  0752  0845               	bcf	status, 5	;RP0=0, select bank0
  9365  0753  1283               	bcf	status, 6	;RP1=0, select bank0
  9366  0754  1303               	movwf	(___awdiv@dividend+1)
  9367  0755  00A3               	bsf	status, 5	;RP0=1, select bank1
  9368  0756  1683               	bcf	status, 6	;RP1=0, select bank1
  9369  0757  1303               	movf	(_date)^080h,w
  9370  0758  0844               	bcf	status, 5	;RP0=0, select bank0
  9371  0759  1283               	bcf	status, 6	;RP1=0, select bank0
  9372  075A  1303               	movwf	(___awdiv@dividend)
  9373  075B  00A2               	fcall	___awdiv
  9374  075C  160A  118A  26A2  120A  118A  	bcf	status, 5	;RP0=0, select bank0
  9375  0761  1283               	bcf	status, 6	;RP1=0, select bank0
  9376  0762  1303               	movf	(0+(?___awdiv)),w
  9377  0763  0820               	movwf	(??_separa_digitos_rtc+0)+0
  9378  0764  00A9               	movf	(??_separa_digitos_rtc+0)+0,w
  9379  0765  0829               	bsf	status, 5	;RP0=1, select bank1
  9380  0766  1683               	bcf	status, 6	;RP1=0, select bank1
  9381  0767  1303               	movwf	(_date_1)^080h
  9382  0768  00B3               	line	217
  9383                           ;Proyecto1_master.c: 217:     month_0 = month%10;
  9384                           	movlw	0Ah
  9385  0769  300A               	bcf	status, 5	;RP0=0, select bank0
  9386  076A  1283               	bcf	status, 6	;RP1=0, select bank0
  9387  076B  1303               	movwf	(___awmod@divisor)
  9388  076C  00A0               	movlw	0
  9389  076D  3000               	movwf	((___awmod@divisor))+1
  9390  076E  00A1               	bsf	status, 5	;RP0=1, select bank1
  9391  076F  1683               	bcf	status, 6	;RP1=0, select bank1
  9392  0770  1303               	movf	(_month+1)^080h,w
  9393  0771  0841               	bcf	status, 5	;RP0=0, select bank0
  9394  0772  1283               	bcf	status, 6	;RP1=0, select bank0
  9395  0773  1303               	movwf	(___awmod@dividend+1)
  9396  0774  00A3               	bsf	status, 5	;RP0=1, select bank1
  9397  0775  1683               	bcf	status, 6	;RP1=0, select bank1
  9398  0776  1303               	movf	(_month)^080h,w
  9399  0777  0840               	bcf	status, 5	;RP0=0, select bank0
  9400  0778  1283               	bcf	status, 6	;RP1=0, select bank0
  9401  0779  1303               	movwf	(___awmod@dividend)
  9402  077A  00A2               	fcall	___awmod
  9403  077B  160A  118A  263D  120A  118A  	bcf	status, 5	;RP0=0, select bank0
  9404  0780  1283               	bcf	status, 6	;RP1=0, select bank0
  9405  0781  1303               	movf	(0+(?___awmod)),w
  9406  0782  0820               	movwf	(??_separa_digitos_rtc+0)+0
  9407  0783  00A9               	movf	(??_separa_digitos_rtc+0)+0,w
  9408  0784  0829               	bsf	status, 5	;RP0=1, select bank1
  9409  0785  1683               	bcf	status, 6	;RP1=0, select bank1
  9410  0786  1303               	movwf	(_month_0)^080h
  9411  0787  00B2               	line	218
  9412                           ;Proyecto1_master.c: 218:     month_1 = month/10;
  9413                           	movlw	0Ah
  9414  0788  300A               	bcf	status, 5	;RP0=0, select bank0
  9415  0789  1283               	bcf	status, 6	;RP1=0, select bank0
  9416  078A  1303               	movwf	(___awdiv@divisor)
  9417  078B  00A0               	movlw	0
  9418  078C  3000               	movwf	((___awdiv@divisor))+1
  9419  078D  00A1               	bsf	status, 5	;RP0=1, select bank1
  9420  078E  1683               	bcf	status, 6	;RP1=0, select bank1
  9421  078F  1303               	movf	(_month+1)^080h,w
  9422  0790  0841               	bcf	status, 5	;RP0=0, select bank0
  9423  0791  1283               	bcf	status, 6	;RP1=0, select bank0
  9424  0792  1303               	movwf	(___awdiv@dividend+1)
  9425  0793  00A3               	bsf	status, 5	;RP0=1, select bank1
  9426  0794  1683               	bcf	status, 6	;RP1=0, select bank1
  9427  0795  1303               	movf	(_month)^080h,w
  9428  0796  0840               	bcf	status, 5	;RP0=0, select bank0
  9429  0797  1283               	bcf	status, 6	;RP1=0, select bank0
  9430  0798  1303               	movwf	(___awdiv@dividend)
  9431  0799  00A2               	fcall	___awdiv
  9432  079A  160A  118A  26A2  120A  118A  	bcf	status, 5	;RP0=0, select bank0
  9433  079F  1283               	bcf	status, 6	;RP1=0, select bank0
  9434  07A0  1303               	movf	(0+(?___awdiv)),w
  9435  07A1  0820               	movwf	(??_separa_digitos_rtc+0)+0
  9436  07A2  00A9               	movf	(??_separa_digitos_rtc+0)+0,w
  9437  07A3  0829               	bsf	status, 5	;RP0=1, select bank1
  9438  07A4  1683               	bcf	status, 6	;RP1=0, select bank1
  9439  07A5  1303               	movwf	(_month_1)^080h
  9440  07A6  00B1               	line	219
  9441                           ;Proyecto1_master.c: 219:     year_0 = year%10;
  9442                           	movlw	0Ah
  9443  07A7  300A               	bcf	status, 5	;RP0=0, select bank0
  9444  07A8  1283               	bcf	status, 6	;RP1=0, select bank0
  9445  07A9  1303               	movwf	(___awmod@divisor)
  9446  07AA  00A0               	movlw	0
  9447  07AB  3000               	movwf	((___awmod@divisor))+1
  9448  07AC  00A1               	bsf	status, 5	;RP0=1, select bank1
  9449  07AD  1683               	bcf	status, 6	;RP1=0, select bank1
  9450  07AE  1303               	movf	(_year+1)^080h,w
  9451  07AF  083F               	bcf	status, 5	;RP0=0, select bank0
  9452  07B0  1283               	bcf	status, 6	;RP1=0, select bank0
  9453  07B1  1303               	movwf	(___awmod@dividend+1)
  9454  07B2  00A3               	bsf	status, 5	;RP0=1, select bank1
  9455  07B3  1683               	bcf	status, 6	;RP1=0, select bank1
  9456  07B4  1303               	movf	(_year)^080h,w
  9457  07B5  083E               	bcf	status, 5	;RP0=0, select bank0
  9458  07B6  1283               	bcf	status, 6	;RP1=0, select bank0
  9459  07B7  1303               	movwf	(___awmod@dividend)
  9460  07B8  00A2               	fcall	___awmod
  9461  07B9  160A  118A  263D  120A  118A  	bcf	status, 5	;RP0=0, select bank0
  9462  07BE  1283               	bcf	status, 6	;RP1=0, select bank0
  9463  07BF  1303               	movf	(0+(?___awmod)),w
  9464  07C0  0820               	movwf	(??_separa_digitos_rtc+0)+0
  9465  07C1  00A9               	movf	(??_separa_digitos_rtc+0)+0,w
  9466  07C2  0829               	bsf	status, 5	;RP0=1, select bank1
  9467  07C3  1683               	bcf	status, 6	;RP1=0, select bank1
  9468  07C4  1303               	movwf	(_year_0)^080h
  9469  07C5  00B0               	line	220
  9470                           ;Proyecto1_master.c: 220:     year_1 = year/10;
  9471                           	movlw	0Ah
  9472  07C6  300A               	bcf	status, 5	;RP0=0, select bank0
  9473  07C7  1283               	bcf	status, 6	;RP1=0, select bank0
  9474  07C8  1303               	movwf	(___awdiv@divisor)
  9475  07C9  00A0               	movlw	0
  9476  07CA  3000               	movwf	((___awdiv@divisor))+1
  9477  07CB  00A1               	bsf	status, 5	;RP0=1, select bank1
  9478  07CC  1683               	bcf	status, 6	;RP1=0, select bank1
  9479  07CD  1303               	movf	(_year+1)^080h,w
  9480  07CE  083F               	bcf	status, 5	;RP0=0, select bank0
  9481  07CF  1283               	bcf	status, 6	;RP1=0, select bank0
  9482  07D0  1303               	movwf	(___awdiv@dividend+1)
  9483  07D1  00A3               	bsf	status, 5	;RP0=1, select bank1
  9484  07D2  1683               	bcf	status, 6	;RP1=0, select bank1
  9485  07D3  1303               	movf	(_year)^080h,w
  9486  07D4  083E               	bcf	status, 5	;RP0=0, select bank0
  9487  07D5  1283               	bcf	status, 6	;RP1=0, select bank0
  9488  07D6  1303               	movwf	(___awdiv@dividend)
  9489  07D7  00A2               	fcall	___awdiv
  9490  07D8  160A  118A  26A2  120A  118A  	bcf	status, 5	;RP0=0, select bank0
  9491  07DD  1283               	bcf	status, 6	;RP1=0, select bank0
  9492  07DE  1303               	movf	(0+(?___awdiv)),w
  9493  07DF  0820               	movwf	(??_separa_digitos_rtc+0)+0
  9494  07E0  00A9               	movf	(??_separa_digitos_rtc+0)+0,w
  9495  07E1  0829               	bsf	status, 5	;RP0=1, select bank1
  9496  07E2  1683               	bcf	status, 6	;RP1=0, select bank1
  9497  07E3  1303               	movwf	(_year_1)^080h
  9498  07E4  00AF               	line	222
  9499                           	
  9500                           l188:	
  9501  07E5                     	return
  9502  07E5  0008               	opt stack 0
  9503                           GLOBAL	__end_of_separa_digitos_rtc
  9504                           	__end_of_separa_digitos_rtc:
  9505  07E6                     	signat	_separa_digitos_rtc,89
  9506                           	global	_mostrar_lcd
  9507                           
  9508 ;; *************** function _mostrar_lcd *****************
  9509 ;; Defined at:
  9510 ;;		line 224 in file "Proyecto1_master.c"
  9511 ;; Parameters:    Size  Location     Type
  9512 ;;		None
  9513 ;; Auto vars:     Size  Location     Type
  9514 ;;		None
  9515 ;; Return value:  Size  Location     Type
  9516 ;;                  1    wreg      void 
  9517 ;; Registers used:
  9518 ;;		wreg, fsr0l, fsr0h, status,2, status,0, btemp+1, pclath, cstack
  9519 ;; Tracked objects:
  9520 ;;		On entry : 0/0
  9521 ;;		On exit  : 0/0
  9522 ;;		Unchanged: 0/0
  9523 ;; Data sizes:     COMMON   BANK0   BANK1   BANK3   BANK2
  9524 ;;      Params:         0       0       0       0       0
  9525 ;;      Locals:         0       0       0       0       0
  9526 ;;      Temps:          0       1       0       0       0
  9527 ;;      Totals:         0       1       0       0       0
  9528 ;;Total ram usage:        1 bytes
  9529 ;; Hardware stack levels used:    1
  9530 ;; Hardware stack levels required when called:    7
  9531 ;; This function calls:
  9532 ;;		_lcd_set_cursor
  9533 ;;		_lcd_write_char
  9534 ;;		_lcd_write_string
  9535 ;; This function is called by:
  9536 ;;		_boton_lcd
  9537 ;; This function uses a non-reentrant model
  9538 ;;
  9539                           psect	text25,local,class=CODE,delta=2,merge=1,group=0
  9540                           	line	224
  9541                           global __ptext25
  9542                           __ptext25:	;psect for function _mostrar_lcd
  9543  0AD9                     psect	text25
  9544                           	file	"Proyecto1_master.c"
  9545                           	line	224
  9546                           	global	__size_of_mostrar_lcd
  9547                           	__size_of_mostrar_lcd	equ	__end_of_mostrar_lcd-_mostrar_lcd
  9548  00AF                     	
  9549                           _mostrar_lcd:	
  9550  0AD9                     ;incstack = 0
  9551 ;; hardware stack exceeded
  9552                           	opt	stack 0
  9553                           ; Regs used in _mostrar_lcd: [wreg-fsr0h+status,2+status,0+btemp+1+pclath+cstack]
  9554                           	line	225
  9555                           	
  9556                           l2804:	
  9557  0AD9                     ;Proyecto1_master.c: 225:     lcd_set_cursor(1, 8);
  9558                           	movlw	low(08h)
  9559  0AD9  3008               	bcf	status, 5	;RP0=0, select bank0
  9560  0ADA  1283               	bcf	status, 6	;RP1=0, select bank0
  9561  0ADB  1303               	movwf	(??_mostrar_lcd+0)+0
  9562  0ADC  00AB               	movf	(??_mostrar_lcd+0)+0,w
  9563  0ADD  082B               	movwf	(lcd_set_cursor@b)
  9564  0ADE  00A4               	movlw	low(01h)
  9565  0ADF  3001               	fcall	_lcd_set_cursor
  9566  0AE0  160A  118A  223C  120A  158A  	line	226
  9567                           ;Proyecto1_master.c: 226:         lcd_write_char(date_1+48);
  9568                           	bsf	status, 5	;RP0=1, select bank1
  9569  0AE5  1683               	bcf	status, 6	;RP1=0, select bank1
  9570  0AE6  1303               	movf	(_date_1)^080h,w
  9571  0AE7  0833               	addlw	030h
  9572  0AE8  3E30               	fcall	_lcd_write_char
  9573  0AE9  160A  118A  2220  120A  158A  	line	227
  9574                           ;Proyecto1_master.c: 227:         lcd_write_char(date_0+48);
  9575                           	bsf	status, 5	;RP0=1, select bank1
  9576  0AEE  1683               	bcf	status, 6	;RP1=0, select bank1
  9577  0AEF  1303               	movf	(_date_0)^080h,w
  9578  0AF0  0834               	addlw	030h
  9579  0AF1  3E30               	fcall	_lcd_write_char
  9580  0AF2  160A  118A  2220  120A  158A  	line	228
  9581                           	
  9582                           l2806:	
  9583  0AF7                     ;Proyecto1_master.c: 228:         lcd_write_string("/");
  9584                           	movlw	(low((((STR_9)-__stringbase)|8000h)))&0ffh
  9585  0AF7  3065               	bcf	status, 5	;RP0=0, select bank0
  9586  0AF8  1283               	bcf	status, 6	;RP1=0, select bank0
  9587  0AF9  1303               	movwf	(lcd_write_string@a)
  9588  0AFA  00A4               	movlw	80h
  9589  0AFB  3080               	movwf	(lcd_write_string@a+1)
  9590  0AFC  00A5               	fcall	_lcd_write_string
  9591  0AFD  160A  118A  2536  120A  158A  	line	229
  9592                           	
  9593                           l2808:	
  9594  0B02                     ;Proyecto1_master.c: 229:         lcd_write_char(month_1+48);
  9595                           	bsf	status, 5	;RP0=1, select bank1
  9596  0B02  1683               	bcf	status, 6	;RP1=0, select bank1
  9597  0B03  1303               	movf	(_month_1)^080h,w
  9598  0B04  0831               	addlw	030h
  9599  0B05  3E30               	fcall	_lcd_write_char
  9600  0B06  160A  118A  2220  120A  158A  	line	230
  9601                           	
  9602                           l2810:	
  9603  0B0B                     ;Proyecto1_master.c: 230:         lcd_write_char(month_0+48);
  9604                           	bsf	status, 5	;RP0=1, select bank1
  9605  0B0B  1683               	bcf	status, 6	;RP1=0, select bank1
  9606  0B0C  1303               	movf	(_month_0)^080h,w
  9607  0B0D  0832               	addlw	030h
  9608  0B0E  3E30               	fcall	_lcd_write_char
  9609  0B0F  160A  118A  2220  120A  158A  	line	231
  9610                           	
  9611                           l2812:	
  9612  0B14                     ;Proyecto1_master.c: 231:         lcd_write_string("/");
  9613                           	movlw	(low((((STR_10)-__stringbase)|8000h)))&0ffh
  9614  0B14  3065               	bcf	status, 5	;RP0=0, select bank0
  9615  0B15  1283               	bcf	status, 6	;RP1=0, select bank0
  9616  0B16  1303               	movwf	(lcd_write_string@a)
  9617  0B17  00A4               	movlw	80h
  9618  0B18  3080               	movwf	(lcd_write_string@a+1)
  9619  0B19  00A5               	fcall	_lcd_write_string
  9620  0B1A  160A  118A  2536  120A  158A  	line	232
  9621                           ;Proyecto1_master.c: 232:         lcd_write_char(year_1+48);
  9622                           	bsf	status, 5	;RP0=1, select bank1
  9623  0B1F  1683               	bcf	status, 6	;RP1=0, select bank1
  9624  0B20  1303               	movf	(_year_1)^080h,w
  9625  0B21  082F               	addlw	030h
  9626  0B22  3E30               	fcall	_lcd_write_char
  9627  0B23  160A  118A  2220  120A  158A  	line	233
  9628                           ;Proyecto1_master.c: 233:         lcd_write_char(year_0+48);
  9629                           	bsf	status, 5	;RP0=1, select bank1
  9630  0B28  1683               	bcf	status, 6	;RP1=0, select bank1
  9631  0B29  1303               	movf	(_year_0)^080h,w
  9632  0B2A  0830               	addlw	030h
  9633  0B2B  3E30               	fcall	_lcd_write_char
  9634  0B2C  160A  118A  2220  120A  158A  	line	236
  9635                           ;Proyecto1_master.c: 236:         lcd_set_cursor(2, 8);
  9636                           	movlw	low(08h)
  9637  0B31  3008               	bcf	status, 5	;RP0=0, select bank0
  9638  0B32  1283               	bcf	status, 6	;RP1=0, select bank0
  9639  0B33  1303               	movwf	(??_mostrar_lcd+0)+0
  9640  0B34  00AB               	movf	(??_mostrar_lcd+0)+0,w
  9641  0B35  082B               	movwf	(lcd_set_cursor@b)
  9642  0B36  00A4               	movlw	low(02h)
  9643  0B37  3002               	fcall	_lcd_set_cursor
  9644  0B38  160A  118A  223C  120A  158A  	line	237
  9645                           ;Proyecto1_master.c: 237:         lcd_write_char(hour_1+48);
  9646                           	bsf	status, 5	;RP0=1, select bank1
  9647  0B3D  1683               	bcf	status, 6	;RP1=0, select bank1
  9648  0B3E  1303               	movf	(_hour_1)^080h,w
  9649  0B3F  0835               	addlw	030h
  9650  0B40  3E30               	fcall	_lcd_write_char
  9651  0B41  160A  118A  2220  120A  158A  	line	238
  9652                           ;Proyecto1_master.c: 238:         lcd_write_char(hour_0+48);
  9653                           	bsf	status, 5	;RP0=1, select bank1
  9654  0B46  1683               	bcf	status, 6	;RP1=0, select bank1
  9655  0B47  1303               	movf	(_hour_0)^080h,w
  9656  0B48  0836               	addlw	030h
  9657  0B49  3E30               	fcall	_lcd_write_char
  9658  0B4A  160A  118A  2220  120A  158A  	line	239
  9659                           	
  9660                           l2814:	
  9661  0B4F                     ;Proyecto1_master.c: 239:         lcd_write_string(":");
  9662                           	movlw	(low((((STR_11)-__stringbase)|8000h)))&0ffh
  9663  0B4F  3057               	bcf	status, 5	;RP0=0, select bank0
  9664  0B50  1283               	bcf	status, 6	;RP1=0, select bank0
  9665  0B51  1303               	movwf	(lcd_write_string@a)
  9666  0B52  00A4               	movlw	80h
  9667  0B53  3080               	movwf	(lcd_write_string@a+1)
  9668  0B54  00A5               	fcall	_lcd_write_string
  9669  0B55  160A  118A  2536  120A  158A  	line	240
  9670                           	
  9671                           l2816:	
  9672  0B5A                     ;Proyecto1_master.c: 240:         lcd_write_char(min_1+48);
  9673                           	bsf	status, 5	;RP0=1, select bank1
  9674  0B5A  1683               	bcf	status, 6	;RP1=0, select bank1
  9675  0B5B  1303               	movf	(_min_1)^080h,w
  9676  0B5C  0837               	addlw	030h
  9677  0B5D  3E30               	fcall	_lcd_write_char
  9678  0B5E  160A  118A  2220  120A  158A  	line	241
  9679                           	
  9680                           l2818:	
  9681  0B63                     ;Proyecto1_master.c: 241:         lcd_write_char(min_0+48);
  9682                           	bsf	status, 5	;RP0=1, select bank1
  9683  0B63  1683               	bcf	status, 6	;RP1=0, select bank1
  9684  0B64  1303               	movf	(_min_0)^080h,w
  9685  0B65  0838               	addlw	030h
  9686  0B66  3E30               	fcall	_lcd_write_char
  9687  0B67  160A  118A  2220  120A  158A  	line	242
  9688                           	
  9689                           l2820:	
  9690  0B6C                     ;Proyecto1_master.c: 242:         lcd_write_string(":");
  9691                           	movlw	(low((((STR_12)-__stringbase)|8000h)))&0ffh
  9692  0B6C  3057               	bcf	status, 5	;RP0=0, select bank0
  9693  0B6D  1283               	bcf	status, 6	;RP1=0, select bank0
  9694  0B6E  1303               	movwf	(lcd_write_string@a)
  9695  0B6F  00A4               	movlw	80h
  9696  0B70  3080               	movwf	(lcd_write_string@a+1)
  9697  0B71  00A5               	fcall	_lcd_write_string
  9698  0B72  160A  118A  2536  120A  158A  	line	243
  9699                           ;Proyecto1_master.c: 243:         lcd_write_char(sec_1+48);
  9700                           	movf	(_sec_1),w
  9701  0B77  087B               	addlw	030h
  9702  0B78  3E30               	fcall	_lcd_write_char
  9703  0B79  160A  118A  2220  120A  158A  	line	244
  9704                           ;Proyecto1_master.c: 244:         lcd_write_char(sec_0+48);
  9705                           	bcf	status, 5	;RP0=0, select bank0
  9706  0B7E  1283               	bcf	status, 6	;RP1=0, select bank0
  9707  0B7F  1303               	movf	(_sec_0),w
  9708  0B80  086F               	addlw	030h
  9709  0B81  3E30               	fcall	_lcd_write_char
  9710  0B82  160A  118A  2220  120A  158A  	line	245
  9711                           	
  9712                           l191:	
  9713  0B87                     	return
  9714  0B87  0008               	opt stack 0
  9715                           GLOBAL	__end_of_mostrar_lcd
  9716                           	__end_of_mostrar_lcd:
  9717  0B88                     	signat	_mostrar_lcd,89
  9718                           	global	_lcd_write_string
  9719                           
  9720 ;; *************** function _lcd_write_string *****************
  9721 ;; Defined at:
  9722 ;;		line 131 in file "LCD.c"
  9723 ;; Parameters:    Size  Location     Type
  9724 ;;  a               2    4[BANK0 ] PTR unsigned char 
  9725 ;;		 -> STR_17(9), STR_16(9), STR_15(15), STR_14(16), 
  9726 ;;		 -> STR_13(2), s1(5), STR_12(2), STR_11(2), 
  9727 ;;		 -> STR_10(2), STR_9(2), STR_8(6), STR_7(9), 
  9728 ;;		 -> STR_6(13), STR_5(10), STR_4(6), STR_3(7), 
  9729 ;;		 -> STR_2(6), STR_1(7), 
  9730 ;; Auto vars:     Size  Location     Type
  9731 ;;  i               2    9[BANK0 ] int 
  9732 ;; Return value:  Size  Location     Type
  9733 ;;                  1    wreg      void 
  9734 ;; Registers used:
  9735 ;;		wreg, fsr0l, fsr0h, status,2, status,0, btemp+1, pclath, cstack
  9736 ;; Tracked objects:
  9737 ;;		On entry : 0/0
  9738 ;;		On exit  : 0/0
  9739 ;;		Unchanged: 0/0
  9740 ;; Data sizes:     COMMON   BANK0   BANK1   BANK3   BANK2
  9741 ;;      Params:         0       2       0       0       0
  9742 ;;      Locals:         0       2       0       0       0
  9743 ;;      Temps:          0       3       0       0       0
  9744 ;;      Totals:         0       7       0       0       0
  9745 ;;Total ram usage:        7 bytes
  9746 ;; Hardware stack levels used:    1
  9747 ;; Hardware stack levels required when called:    6
  9748 ;; This function calls:
  9749 ;;		_lcd_write_char
  9750 ;; This function is called by:
  9751 ;;		_main
  9752 ;;		_boton_lcd
  9753 ;;		_mostrar_lcd
  9754 ;;		_slave_1
  9755 ;;		_slave_2
  9756 ;;		_slave_3
  9757 ;; This function uses a non-reentrant model
  9758 ;;
  9759                           psect	text26,local,class=CODE,delta=2,merge=1,group=0
  9760                           	file	"LCD.c"
  9761                           	line	131
  9762                           global __ptext26
  9763                           __ptext26:	;psect for function _lcd_write_string
  9764  1536                     psect	text26
  9765                           	file	"LCD.c"
  9766                           	line	131
  9767                           	global	__size_of_lcd_write_string
  9768                           	__size_of_lcd_write_string	equ	__end_of_lcd_write_string-_lcd_write_string
  9769  0048                     	
  9770                           _lcd_write_string:	
  9771  1536                     ;incstack = 0
  9772                           	opt	stack 1
  9773                           ; Regs used in _lcd_write_string: [wreg-fsr0h+status,2+status,0+btemp+1+pclath+cstack]
  9774                           	line	134
  9775                           	
  9776                           l2672:	
  9777  1536                     ;LCD.c: 133:     int i;;LCD.c: 134:     for (i = 0; a[i] != '\0'; i++)
  9778                           	bcf	status, 5	;RP0=0, select bank0
  9779  1536  1283               	bcf	status, 6	;RP1=0, select bank0
  9780  1537  1303               	clrf	(lcd_write_string@i)
  9781  1538  01A9               	clrf	(lcd_write_string@i+1)
  9782  1539  01AA               	goto	l2678
  9783  153A  2D60               	
  9784                           l413:	
  9785  153B                     	line	135
  9786                           	
  9787                           l2674:	
  9788  153B                     ;LCD.c: 135:         lcd_write_char(a[i]);
  9789                           	movf	(lcd_write_string@i),w
  9790  153B  0829               	addwf	(lcd_write_string@a),w
  9791  153C  0724               	movwf	(??_lcd_write_string+1)+0
  9792  153D  00A7               	movf	(lcd_write_string@a+1),w
  9793  153E  0825               	movwf	(??_lcd_write_string+0)+0
  9794  153F  00A6               	skipnc
  9795  1540  1803               	incf	(??_lcd_write_string+0)+0,f
  9796  1541  0AA6               	btfss	(lcd_write_string@i),7
  9797  1542  1FA9               	goto	u3130
  9798  1543  2D45               	decf	(??_lcd_write_string+0)+0,f
  9799  1544  03A6               u3130:
  9800  1545                     	bcf	status, 5	;RP0=0, select bank0
  9801  1545  1283               	bcf	status, 6	;RP1=0, select bank0
  9802  1546  1303               	movf	(??_lcd_write_string+0)+0,w
  9803  1547  0826               	movwf	0+((??_lcd_write_string+1)+0)+1
  9804  1548  00A8               	movf	1+(??_lcd_write_string+1)+0,w
  9805  1549  0828               	movwf	btemp+1
  9806  154A  00FF               	movf	0+(??_lcd_write_string+1)+0,w
  9807  154B  0827               	movwf	fsr0
  9808  154C  0084               	fcall	stringtab
  9809  154D  120A  158A  2000  160A  118A  	fcall	_lcd_write_char
  9810  1552  160A  118A  2220  160A  118A  	
  9811                           l2676:	
  9812  1557                     	movlw	01h
  9813  1557  3001               	bcf	status, 5	;RP0=0, select bank0
  9814  1558  1283               	bcf	status, 6	;RP1=0, select bank0
  9815  1559  1303               	addwf	(lcd_write_string@i),f
  9816  155A  07A9               	skipnc
  9817  155B  1803               	incf	(lcd_write_string@i+1),f
  9818  155C  0AAA               	movlw	0
  9819  155D  3000               	addwf	(lcd_write_string@i+1),f
  9820  155E  07AA               	goto	l2678
  9821  155F  2D60               	
  9822                           l412:	
  9823  1560                     	
  9824                           l2678:	
  9825  1560                     	movf	(lcd_write_string@i),w
  9826  1560  0829               	addwf	(lcd_write_string@a),w
  9827  1561  0724               	movwf	(??_lcd_write_string+1)+0
  9828  1562  00A7               	movf	(lcd_write_string@a+1),w
  9829  1563  0825               	movwf	(??_lcd_write_string+0)+0
  9830  1564  00A6               	skipnc
  9831  1565  1803               	incf	(??_lcd_write_string+0)+0,f
  9832  1566  0AA6               	btfss	(lcd_write_string@i),7
  9833  1567  1FA9               	goto	u3140
  9834  1568  2D6A               	decf	(??_lcd_write_string+0)+0,f
  9835  1569  03A6               u3140:
  9836  156A                     	bcf	status, 5	;RP0=0, select bank0
  9837  156A  1283               	bcf	status, 6	;RP1=0, select bank0
  9838  156B  1303               	movf	(??_lcd_write_string+0)+0,w
  9839  156C  0826               	movwf	0+((??_lcd_write_string+1)+0)+1
  9840  156D  00A8               	movf	1+(??_lcd_write_string+1)+0,w
  9841  156E  0828               	movwf	btemp+1
  9842  156F  00FF               	movf	0+(??_lcd_write_string+1)+0,w
  9843  1570  0827               	movwf	fsr0
  9844  1571  0084               	fcall	stringtab
  9845  1572  120A  158A  2000  160A  118A  	xorlw	0
  9846  1577  3A00               	skipz
  9847  1578  1D03               	goto	u3151
  9848  1579  2D7B               	goto	u3150
  9849  157A  2D7C               u3151:
  9850  157B                     	goto	l2674
  9851  157B  2D3B               u3150:
  9852  157C                     	goto	l415
  9853  157C  2D7D               	
  9854                           l414:	
  9855  157D                     	line	136
  9856                           	
  9857                           l415:	
  9858  157D                     	return
  9859  157D  0008               	opt stack 0
  9860                           GLOBAL	__end_of_lcd_write_string
  9861                           	__end_of_lcd_write_string:
  9862  157E                     	signat	_lcd_write_string,4217
  9863                           	global	_lcd_write_char
  9864                           
  9865 ;; *************** function _lcd_write_char *****************
  9866 ;; Defined at:
  9867 ;;		line 121 in file "LCD.c"
  9868 ;; Parameters:    Size  Location     Type
  9869 ;;  a               1    wreg     unsigned char 
  9870 ;; Auto vars:     Size  Location     Type
  9871 ;;  a               1    3[BANK0 ] unsigned char 
  9872 ;; Return value:  Size  Location     Type
  9873 ;;                  1    wreg      void 
  9874 ;; Registers used:
  9875 ;;		wreg, status,2, status,0, pclath, cstack
  9876 ;; Tracked objects:
  9877 ;;		On entry : 0/0
  9878 ;;		On exit  : 0/0
  9879 ;;		Unchanged: 0/0
  9880 ;; Data sizes:     COMMON   BANK0   BANK1   BANK3   BANK2
  9881 ;;      Params:         0       0       0       0       0
  9882 ;;      Locals:         0       1       0       0       0
  9883 ;;      Temps:          0       2       0       0       0
  9884 ;;      Totals:         0       3       0       0       0
  9885 ;;Total ram usage:        3 bytes
  9886 ;; Hardware stack levels used:    1
  9887 ;; Hardware stack levels required when called:    5
  9888 ;; This function calls:
  9889 ;;		_lcd_port
  9890 ;; This function is called by:
  9891 ;;		_boton_lcd
  9892 ;;		_mostrar_lcd
  9893 ;;		_slave_1
  9894 ;;		_lcd_write_string
  9895 ;; This function uses a non-reentrant model
  9896 ;;
  9897                           psect	text27,local,class=CODE,delta=2,merge=1,group=0
  9898                           	line	121
  9899                           global __ptext27
  9900                           __ptext27:	;psect for function _lcd_write_char
  9901  1220                     psect	text27
  9902                           	file	"LCD.c"
  9903                           	line	121
  9904                           	global	__size_of_lcd_write_char
  9905                           	__size_of_lcd_write_char	equ	__end_of_lcd_write_char-_lcd_write_char
  9906  001C                     	
  9907                           _lcd_write_char:	
  9908  1220                     ;incstack = 0
  9909                           	opt	stack 1
  9910                           ; Regs used in _lcd_write_char: [wreg+status,2+status,0+pclath+cstack]
  9911                           ;lcd_write_char@a stored from wreg
  9912                           	bcf	status, 5	;RP0=0, select bank0
  9913  1220  1283               	bcf	status, 6	;RP1=0, select bank0
  9914  1221  1303               	movwf	(lcd_write_char@a)
  9915  1222  00A3               	line	123
  9916                           	
  9917                           l2114:	
  9918  1223                     ;LCD.c: 123:     RB7 = 1;
  9919                           	bsf	(55/8),(55)&7	;volatile
  9920  1223  1786               	line	124
  9921                           	
  9922                           l2116:	
  9923  1224                     ;LCD.c: 124:     lcd_port(a);
  9924                           	movf	(lcd_write_char@a),w
  9925  1224  0823               	fcall	_lcd_port
  9926  1225  160A  118A  24BA  160A  118A  	line	126
  9927                           	
  9928                           l2118:	
  9929  122A                     ;LCD.c: 126:     RD7 = 1;
  9930                           	bcf	status, 5	;RP0=0, select bank0
  9931  122A  1283               	bcf	status, 6	;RP1=0, select bank0
  9932  122B  1303               	bsf	(71/8),(71)&7	;volatile
  9933  122C  1788               	line	127
  9934                           	
  9935                           l2120:	
  9936  122D                     ;LCD.c: 127:     _delay((unsigned long)((4)*(8000000/4000.0)));
  9937                           	opt asmopt_push
  9938                           opt asmopt_off
  9939                           movlw	11
  9940  122D  300B               	bcf	status, 5	;RP0=0, select bank0
  9941  122E  1283               	bcf	status, 6	;RP1=0, select bank0
  9942  122F  1303               movwf	((??_lcd_write_char+0)+0+1),f
  9943  1230  00A2               	movlw	97
  9944  1231  3061               movwf	((??_lcd_write_char+0)+0),f
  9945  1232  00A1               	u3827:
  9946  1233                     decfsz	((??_lcd_write_char+0)+0),f
  9947  1233  0BA1               	goto	u3827
  9948  1234  2A33               	decfsz	((??_lcd_write_char+0)+0+1),f
  9949  1235  0BA2               	goto	u3827
  9950  1236  2A33               	nop2
  9951  1237  2A38               opt asmopt_pop
  9952                           
  9953                           	line	128
  9954                           	
  9955                           l2122:	
  9956  1238                     ;LCD.c: 128:     RD7 = 0;
  9957                           	bcf	status, 5	;RP0=0, select bank0
  9958  1238  1283               	bcf	status, 6	;RP1=0, select bank0
  9959  1239  1303               	bcf	(71/8),(71)&7	;volatile
  9960  123A  1388               	line	129
  9961                           	
  9962                           l409:	
  9963  123B                     	return
  9964  123B  0008               	opt stack 0
  9965                           GLOBAL	__end_of_lcd_write_char
  9966                           	__end_of_lcd_write_char:
  9967  123C                     	signat	_lcd_write_char,4217
  9968                           	global	_lcd_set_cursor
  9969                           
  9970 ;; *************** function _lcd_set_cursor *****************
  9971 ;; Defined at:
  9972 ;;		line 110 in file "LCD.c"
  9973 ;; Parameters:    Size  Location     Type
  9974 ;;  a               1    wreg     unsigned char 
  9975 ;;  b               1    4[BANK0 ] unsigned char 
  9976 ;; Auto vars:     Size  Location     Type
  9977 ;;  a               1    5[BANK0 ] unsigned char 
  9978 ;; Return value:  Size  Location     Type
  9979 ;;                  1    wreg      void 
  9980 ;; Registers used:
  9981 ;;		wreg, status,2, status,0, pclath, cstack
  9982 ;; Tracked objects:
  9983 ;;		On entry : 0/0
  9984 ;;		On exit  : 0/0
  9985 ;;		Unchanged: 0/0
  9986 ;; Data sizes:     COMMON   BANK0   BANK1   BANK3   BANK2
  9987 ;;      Params:         0       1       0       0       0
  9988 ;;      Locals:         0       1       0       0       0
  9989 ;;      Temps:          0       0       0       0       0
  9990 ;;      Totals:         0       2       0       0       0
  9991 ;;Total ram usage:        2 bytes
  9992 ;; Hardware stack levels used:    1
  9993 ;; Hardware stack levels required when called:    6
  9994 ;; This function calls:
  9995 ;;		_lcd_cmd
  9996 ;; This function is called by:
  9997 ;;		_main
  9998 ;;		_boton_lcd
  9999 ;;		_mostrar_lcd
 10000 ;;		_slave_1
 10001 ;;		_slave_2
 10002 ;;		_slave_3
 10003 ;; This function uses a non-reentrant model
 10004 ;;
 10005                           psect	text28,local,class=CODE,delta=2,merge=1,group=0
 10006                           	line	110
 10007                           global __ptext28
 10008                           __ptext28:	;psect for function _lcd_set_cursor
 10009  123C                     psect	text28
 10010                           	file	"LCD.c"
 10011                           	line	110
 10012                           	global	__size_of_lcd_set_cursor
 10013                           	__size_of_lcd_set_cursor	equ	__end_of_lcd_set_cursor-_lcd_set_cursor
 10014  0022                     	
 10015                           _lcd_set_cursor:	
 10016  123C                     ;incstack = 0
 10017                           	opt	stack 1
 10018                           ; Regs used in _lcd_set_cursor: [wreg+status,2+status,0+pclath+cstack]
 10019                           ;lcd_set_cursor@a stored from wreg
 10020                           	bcf	status, 5	;RP0=0, select bank0
 10021  123C  1283               	bcf	status, 6	;RP1=0, select bank0
 10022  123D  1303               	movwf	(lcd_set_cursor@a)
 10023  123E  00A5               	line	111
 10024                           	
 10025                           l2680:	
 10026  123F                     ;LCD.c: 111:     if (a == 1){
 10027                           		decf	((lcd_set_cursor@a)),w
 10028  123F  0325               	btfss	status,2
 10029  1240  1D03               	goto	u3161
 10030  1241  2A43               	goto	u3160
 10031  1242  2A44               u3161:
 10032  1243                     	goto	l2684
 10033  1243  2A4C               u3160:
 10034  1244                     	line	114
 10035                           	
 10036                           l2682:	
 10037  1244                     ;LCD.c: 114:         lcd_cmd(0x80 + b - 1);
 10038                           	movf	(lcd_set_cursor@b),w
 10039  1244  0824               	addlw	07Fh
 10040  1245  3E7F               	fcall	_lcd_cmd
 10041  1246  160A  118A  2204  160A  118A  	line	115
 10042                           ;LCD.c: 115:     } else if (a == 2){
 10043                           	goto	l406
 10044  124B  2A5D               	
 10045                           l403:	
 10046  124C                     	
 10047                           l2684:	
 10048  124C                     		movlw	2
 10049  124C  3002               	bcf	status, 5	;RP0=0, select bank0
 10050  124D  1283               	bcf	status, 6	;RP1=0, select bank0
 10051  124E  1303               	xorwf	((lcd_set_cursor@a)),w
 10052  124F  0625               	btfss	status,2
 10053  1250  1D03               	goto	u3171
 10054  1251  2A53               	goto	u3170
 10055  1252  2A54               u3171:
 10056  1253                     	goto	l406
 10057  1253  2A5D               u3170:
 10058  1254                     	line	117
 10059                           	
 10060                           l2686:	
 10061  1254                     ;LCD.c: 117:         lcd_cmd(0xC0 + b - 1);
 10062                           	movf	(lcd_set_cursor@b),w
 10063  1254  0824               	addlw	0BFh
 10064  1255  3EBF               	fcall	_lcd_cmd
 10065  1256  160A  118A  2204  160A  118A  	goto	l406
 10066  125B  2A5D               	line	118
 10067                           ;LCD.c: 118:     }
 10068                           	
 10069                           l405:	
 10070  125C                     	goto	l406
 10071  125C  2A5D               	
 10072                           l404:	
 10073  125D                     	line	119
 10074                           	
 10075                           l406:	
 10076  125D                     	return
 10077  125D  0008               	opt stack 0
 10078                           GLOBAL	__end_of_lcd_set_cursor
 10079                           	__end_of_lcd_set_cursor:
 10080  125E                     	signat	_lcd_set_cursor,8313
 10081                           	global	_lcd_cmd
 10082                           
 10083 ;; *************** function _lcd_cmd *****************
 10084 ;; Defined at:
 10085 ;;		line 75 in file "LCD.c"
 10086 ;; Parameters:    Size  Location     Type
 10087 ;;  a               1    wreg     unsigned char 
 10088 ;; Auto vars:     Size  Location     Type
 10089 ;;  a               1    3[BANK0 ] unsigned char 
 10090 ;; Return value:  Size  Location     Type
 10091 ;;                  1    wreg      void 
 10092 ;; Registers used:
 10093 ;;		wreg, status,2, status,0, pclath, cstack
 10094 ;; Tracked objects:
 10095 ;;		On entry : 0/0
 10096 ;;		On exit  : 0/0
 10097 ;;		Unchanged: 0/0
 10098 ;; Data sizes:     COMMON   BANK0   BANK1   BANK3   BANK2
 10099 ;;      Params:         0       0       0       0       0
 10100 ;;      Locals:         0       1       0       0       0
 10101 ;;      Temps:          0       2       0       0       0
 10102 ;;      Totals:         0       3       0       0       0
 10103 ;;Total ram usage:        3 bytes
 10104 ;; Hardware stack levels used:    1
 10105 ;; Hardware stack levels required when called:    5
 10106 ;; This function calls:
 10107 ;;		_lcd_port
 10108 ;; This function is called by:
 10109 ;;		_lcd_init
 10110 ;;		_lcd_clear
 10111 ;;		_lcd_set_cursor
 10112 ;;		_lcd_shift_right
 10113 ;;		_lcd_shift_left
 10114 ;; This function uses a non-reentrant model
 10115 ;;
 10116                           psect	text29,local,class=CODE,delta=2,merge=1,group=0
 10117                           	line	75
 10118                           global __ptext29
 10119                           __ptext29:	;psect for function _lcd_cmd
 10120  1204                     psect	text29
 10121                           	file	"LCD.c"
 10122                           	line	75
 10123                           	global	__size_of_lcd_cmd
 10124                           	__size_of_lcd_cmd	equ	__end_of_lcd_cmd-_lcd_cmd
 10125  001C                     	
 10126                           _lcd_cmd:	
 10127  1204                     ;incstack = 0
 10128                           	opt	stack 1
 10129                           ; Regs used in _lcd_cmd: [wreg+status,2+status,0+pclath+cstack]
 10130                           ;lcd_cmd@a stored from wreg
 10131                           	bcf	status, 5	;RP0=0, select bank0
 10132  1204  1283               	bcf	status, 6	;RP1=0, select bank0
 10133  1205  1303               	movwf	(lcd_cmd@a)
 10134  1206  00A3               	line	77
 10135                           	
 10136                           l2164:	
 10137  1207                     ;LCD.c: 77:     RB7 = 0;
 10138                           	bcf	(55/8),(55)&7	;volatile
 10139  1207  1386               	line	78
 10140                           	
 10141                           l2166:	
 10142  1208                     ;LCD.c: 78:     lcd_port(a);
 10143                           	movf	(lcd_cmd@a),w
 10144  1208  0823               	fcall	_lcd_port
 10145  1209  160A  118A  24BA  160A  118A  	line	80
 10146                           	
 10147                           l2168:	
 10148  120E                     ;LCD.c: 80:     RD7 = 1;
 10149                           	bcf	status, 5	;RP0=0, select bank0
 10150  120E  1283               	bcf	status, 6	;RP1=0, select bank0
 10151  120F  1303               	bsf	(71/8),(71)&7	;volatile
 10152  1210  1788               	line	81
 10153                           	
 10154                           l2170:	
 10155  1211                     ;LCD.c: 81:     _delay((unsigned long)((10)*(8000000/4000.0)));
 10156                           	opt asmopt_push
 10157                           opt asmopt_off
 10158                           movlw	26
 10159  1211  301A               	bcf	status, 5	;RP0=0, select bank0
 10160  1212  1283               	bcf	status, 6	;RP1=0, select bank0
 10161  1213  1303               movwf	((??_lcd_cmd+0)+0+1),f
 10162  1214  00A2               	movlw	247
 10163  1215  30F7               movwf	((??_lcd_cmd+0)+0),f
 10164  1216  00A1               	u3837:
 10165  1217                     decfsz	((??_lcd_cmd+0)+0),f
 10166  1217  0BA1               	goto	u3837
 10167  1218  2A17               	decfsz	((??_lcd_cmd+0)+0+1),f
 10168  1219  0BA2               	goto	u3837
 10169  121A  2A17               	nop2
 10170  121B  2A1C               opt asmopt_pop
 10171                           
 10172                           	line	82
 10173                           	
 10174                           l2172:	
 10175  121C                     ;LCD.c: 82:     RD7 = 0;
 10176                           	bcf	status, 5	;RP0=0, select bank0
 10177  121C  1283               	bcf	status, 6	;RP1=0, select bank0
 10178  121D  1303               	bcf	(71/8),(71)&7	;volatile
 10179  121E  1388               	line	83
 10180                           	
 10181                           l394:	
 10182  121F                     	return
 10183  121F  0008               	opt stack 0
 10184                           GLOBAL	__end_of_lcd_cmd
 10185                           	__end_of_lcd_cmd:
 10186  1220                     	signat	_lcd_cmd,4217
 10187                           	global	_lcd_port
 10188                           
 10189 ;; *************** function _lcd_port *****************
 10190 ;; Defined at:
 10191 ;;		line 24 in file "LCD.c"
 10192 ;; Parameters:    Size  Location     Type
 10193 ;;  a               1    wreg     unsigned char 
 10194 ;; Auto vars:     Size  Location     Type
 10195 ;;  a               1    0[BANK0 ] unsigned char 
 10196 ;; Return value:  Size  Location     Type
 10197 ;;                  1    wreg      void 
 10198 ;; Registers used:
 10199 ;;		wreg
 10200 ;; Tracked objects:
 10201 ;;		On entry : 0/0
 10202 ;;		On exit  : 0/0
 10203 ;;		Unchanged: 0/0
 10204 ;; Data sizes:     COMMON   BANK0   BANK1   BANK3   BANK2
 10205 ;;      Params:         0       0       0       0       0
 10206 ;;      Locals:         0       1       0       0       0
 10207 ;;      Temps:          0       0       0       0       0
 10208 ;;      Totals:         0       1       0       0       0
 10209 ;;Total ram usage:        1 bytes
 10210 ;; Hardware stack levels used:    1
 10211 ;; Hardware stack levels required when called:    4
 10212 ;; This function calls:
 10213 ;;		Nothing
 10214 ;; This function is called by:
 10215 ;;		_lcd_cmd
 10216 ;;		_lcd_init
 10217 ;;		_lcd_write_char
 10218 ;; This function uses a non-reentrant model
 10219 ;;
 10220                           psect	text30,local,class=CODE,delta=2,merge=1,group=0
 10221                           	line	24
 10222                           global __ptext30
 10223                           __ptext30:	;psect for function _lcd_port
 10224  14BA                     psect	text30
 10225                           	file	"LCD.c"
 10226                           	line	24
 10227                           	global	__size_of_lcd_port
 10228                           	__size_of_lcd_port	equ	__end_of_lcd_port-_lcd_port
 10229  003D                     	
 10230                           _lcd_port:	
 10231  14BA                     ;incstack = 0
 10232                           	opt	stack 1
 10233                           ; Regs used in _lcd_port: [wreg]
 10234                           ;lcd_port@a stored from wreg
 10235                           	bcf	status, 5	;RP0=0, select bank0
 10236  14BA  1283               	bcf	status, 6	;RP1=0, select bank0
 10237  14BB  1303               	movwf	(lcd_port@a)
 10238  14BC  00A0               	line	26
 10239                           	
 10240                           l2096:	
 10241  14BD                     ;LCD.c: 26:     if(a & 1){
 10242                           	btfss	(lcd_port@a),(0)&7
 10243  14BD  1C20               	goto	u1871
 10244  14BE  2CC0               	goto	u1870
 10245  14BF  2CC1               u1871:
 10246  14C0                     	goto	l375
 10247  14C0  2CC3               u1870:
 10248  14C1                     	line	27
 10249                           	
 10250                           l2098:	
 10251  14C1                     ;LCD.c: 27:         RA0 = 1;
 10252                           	bsf	(40/8),(40)&7	;volatile
 10253  14C1  1405               	line	28
 10254                           ;LCD.c: 28:     } else {
 10255                           	goto	l376
 10256  14C2  2CC4               	
 10257                           l375:	
 10258  14C3                     	line	29
 10259                           ;LCD.c: 29:         RA0 = 0;
 10260                           	bcf	(40/8),(40)&7	;volatile
 10261  14C3  1005               	line	30
 10262                           ;LCD.c: 30:     }
 10263                           	
 10264                           l376:	
 10265  14C4                     	line	32
 10266                           ;LCD.c: 32:     if(a & 2){
 10267                           	btfss	(lcd_port@a),(1)&7
 10268  14C4  1CA0               	goto	u1881
 10269  14C5  2CC7               	goto	u1880
 10270  14C6  2CC8               u1881:
 10271  14C7                     	goto	l377
 10272  14C7  2CCA               u1880:
 10273  14C8                     	line	33
 10274                           	
 10275                           l2100:	
 10276  14C8                     ;LCD.c: 33:         RA1 = 1;
 10277                           	bsf	(41/8),(41)&7	;volatile
 10278  14C8  1485               	line	34
 10279                           ;LCD.c: 34:     } else {
 10280                           	goto	l378
 10281  14C9  2CCB               	
 10282                           l377:	
 10283  14CA                     	line	35
 10284                           ;LCD.c: 35:         RA1 = 0;
 10285                           	bcf	(41/8),(41)&7	;volatile
 10286  14CA  1085               	line	36
 10287                           ;LCD.c: 36:     }
 10288                           	
 10289                           l378:	
 10290  14CB                     	line	38
 10291                           ;LCD.c: 38:     if(a & 4){
 10292                           	btfss	(lcd_port@a),(2)&7
 10293  14CB  1D20               	goto	u1891
 10294  14CC  2CCE               	goto	u1890
 10295  14CD  2CCF               u1891:
 10296  14CE                     	goto	l379
 10297  14CE  2CD1               u1890:
 10298  14CF                     	line	39
 10299                           	
 10300                           l2102:	
 10301  14CF                     ;LCD.c: 39:         RA2 = 1;
 10302                           	bsf	(42/8),(42)&7	;volatile
 10303  14CF  1505               	line	40
 10304                           ;LCD.c: 40:     } else {
 10305                           	goto	l380
 10306  14D0  2CD2               	
 10307                           l379:	
 10308  14D1                     	line	41
 10309                           ;LCD.c: 41:         RA2 = 0;
 10310                           	bcf	(42/8),(42)&7	;volatile
 10311  14D1  1105               	line	42
 10312                           ;LCD.c: 42:     }
 10313                           	
 10314                           l380:	
 10315  14D2                     	line	44
 10316                           ;LCD.c: 44:     if(a & 8){
 10317                           	btfss	(lcd_port@a),(3)&7
 10318  14D2  1DA0               	goto	u1901
 10319  14D3  2CD5               	goto	u1900
 10320  14D4  2CD6               u1901:
 10321  14D5                     	goto	l381
 10322  14D5  2CD8               u1900:
 10323  14D6                     	line	45
 10324                           	
 10325                           l2104:	
 10326  14D6                     ;LCD.c: 45:         RA3 = 1;
 10327                           	bsf	(43/8),(43)&7	;volatile
 10328  14D6  1585               	line	46
 10329                           ;LCD.c: 46:     } else {
 10330                           	goto	l382
 10331  14D7  2CD9               	
 10332                           l381:	
 10333  14D8                     	line	47
 10334                           ;LCD.c: 47:         RA3 = 0;
 10335                           	bcf	(43/8),(43)&7	;volatile
 10336  14D8  1185               	line	48
 10337                           ;LCD.c: 48:     }
 10338                           	
 10339                           l382:	
 10340  14D9                     	line	50
 10341                           ;LCD.c: 50:     if(a & 16){
 10342                           	btfss	(lcd_port@a),(4)&7
 10343  14D9  1E20               	goto	u1911
 10344  14DA  2CDC               	goto	u1910
 10345  14DB  2CDD               u1911:
 10346  14DC                     	goto	l383
 10347  14DC  2CDF               u1910:
 10348  14DD                     	line	51
 10349                           	
 10350                           l2106:	
 10351  14DD                     ;LCD.c: 51:         RA4 = 1;
 10352                           	bsf	(44/8),(44)&7	;volatile
 10353  14DD  1605               	line	52
 10354                           ;LCD.c: 52:     } else {
 10355                           	goto	l384
 10356  14DE  2CE0               	
 10357                           l383:	
 10358  14DF                     	line	53
 10359                           ;LCD.c: 53:         RA4 = 0;
 10360                           	bcf	(44/8),(44)&7	;volatile
 10361  14DF  1205               	line	54
 10362                           ;LCD.c: 54:     }
 10363                           	
 10364                           l384:	
 10365  14E0                     	line	56
 10366                           ;LCD.c: 56:     if(a & 32){
 10367                           	btfss	(lcd_port@a),(5)&7
 10368  14E0  1EA0               	goto	u1921
 10369  14E1  2CE3               	goto	u1920
 10370  14E2  2CE4               u1921:
 10371  14E3                     	goto	l385
 10372  14E3  2CE6               u1920:
 10373  14E4                     	line	57
 10374                           	
 10375                           l2108:	
 10376  14E4                     ;LCD.c: 57:         RA5 = 1;
 10377                           	bsf	(45/8),(45)&7	;volatile
 10378  14E4  1685               	line	58
 10379                           ;LCD.c: 58:     } else {
 10380                           	goto	l386
 10381  14E5  2CE7               	
 10382                           l385:	
 10383  14E6                     	line	59
 10384                           ;LCD.c: 59:         RA5 = 0;
 10385                           	bcf	(45/8),(45)&7	;volatile
 10386  14E6  1285               	line	60
 10387                           ;LCD.c: 60:     }
 10388                           	
 10389                           l386:	
 10390  14E7                     	line	62
 10391                           ;LCD.c: 62:     if(a & 64){
 10392                           	btfss	(lcd_port@a),(6)&7
 10393  14E7  1F20               	goto	u1931
 10394  14E8  2CEA               	goto	u1930
 10395  14E9  2CEB               u1931:
 10396  14EA                     	goto	l387
 10397  14EA  2CED               u1930:
 10398  14EB                     	line	63
 10399                           	
 10400                           l2110:	
 10401  14EB                     ;LCD.c: 63:         RA6 = 1;
 10402                           	bsf	(46/8),(46)&7	;volatile
 10403  14EB  1705               	line	64
 10404                           ;LCD.c: 64:     } else {
 10405                           	goto	l388
 10406  14EC  2CEE               	
 10407                           l387:	
 10408  14ED                     	line	65
 10409                           ;LCD.c: 65:         RA6 = 0;
 10410                           	bcf	(46/8),(46)&7	;volatile
 10411  14ED  1305               	line	66
 10412                           ;LCD.c: 66:     }
 10413                           	
 10414                           l388:	
 10415  14EE                     	line	68
 10416                           ;LCD.c: 68:     if(a & 128){
 10417                           	btfss	(lcd_port@a),(7)&7
 10418  14EE  1FA0               	goto	u1941
 10419  14EF  2CF1               	goto	u1940
 10420  14F0  2CF2               u1941:
 10421  14F1                     	goto	l389
 10422  14F1  2CF4               u1940:
 10423  14F2                     	line	69
 10424                           	
 10425                           l2112:	
 10426  14F2                     ;LCD.c: 69:         RA7 = 1;
 10427                           	bsf	(47/8),(47)&7	;volatile
 10428  14F2  1785               	line	70
 10429                           ;LCD.c: 70:     } else {
 10430                           	goto	l391
 10431  14F3  2CF6               	
 10432                           l389:	
 10433  14F4                     	line	71
 10434                           ;LCD.c: 71:         RA7 = 0;
 10435                           	bcf	(47/8),(47)&7	;volatile
 10436  14F4  1385               	goto	l391
 10437  14F5  2CF6               	line	72
 10438                           ;LCD.c: 72:     }
 10439                           	
 10440                           l390:	
 10441  14F6                     	line	73
 10442                           	
 10443                           l391:	
 10444  14F6                     	return
 10445  14F6  0008               	opt stack 0
 10446                           GLOBAL	__end_of_lcd_port
 10447                           	__end_of_lcd_port:
 10448  14F7                     	signat	_lcd_port,4217
 10449                           	global	_apagar_luces
 10450                           
 10451 ;; *************** function _apagar_luces *****************
 10452 ;; Defined at:
 10453 ;;		line 271 in file "Proyecto1_master.c"
 10454 ;; Parameters:    Size  Location     Type
 10455 ;;  t               1    wreg     unsigned char 
 10456 ;; Auto vars:     Size  Location     Type
 10457 ;;  t               1    2[BANK0 ] unsigned char 
 10458 ;; Return value:  Size  Location     Type
 10459 ;;                  1    wreg      void 
 10460 ;; Registers used:
 10461 ;;		wreg, status,2, status,0
 10462 ;; Tracked objects:
 10463 ;;		On entry : 0/0
 10464 ;;		On exit  : 0/0
 10465 ;;		Unchanged: 0/0
 10466 ;; Data sizes:     COMMON   BANK0   BANK1   BANK3   BANK2
 10467 ;;      Params:         0       0       0       0       0
 10468 ;;      Locals:         0       1       0       0       0
 10469 ;;      Temps:          0       2       0       0       0
 10470 ;;      Totals:         0       3       0       0       0
 10471 ;;Total ram usage:        3 bytes
 10472 ;; Hardware stack levels used:    1
 10473 ;; Hardware stack levels required when called:    4
 10474 ;; This function calls:
 10475 ;;		Nothing
 10476 ;; This function is called by:
 10477 ;;		_main
 10478 ;; This function uses a non-reentrant model
 10479 ;;
 10480                           psect	text31,local,class=CODE,delta=2,merge=1,group=0
 10481                           	file	"Proyecto1_master.c"
 10482                           	line	271
 10483                           global __ptext31
 10484                           __ptext31:	;psect for function _apagar_luces
 10485  12B2                     psect	text31
 10486                           	file	"Proyecto1_master.c"
 10487                           	line	271
 10488                           	global	__size_of_apagar_luces
 10489                           	__size_of_apagar_luces	equ	__end_of_apagar_luces-_apagar_luces
 10490  002B                     	
 10491                           _apagar_luces:	
 10492  12B2                     ;incstack = 0
 10493                           	opt	stack 3
 10494                           ; Regs used in _apagar_luces: [wreg+status,2+status,0]
 10495                           ;apagar_luces@t stored from wreg
 10496                           	bcf	status, 5	;RP0=0, select bank0
 10497  12B2  1283               	bcf	status, 6	;RP1=0, select bank0
 10498  12B3  1303               	movwf	(apagar_luces@t)
 10499  12B4  00A2               	line	274
 10500                           	
 10501                           l3066:	
 10502  12B5                     ;Proyecto1_master.c: 274:     if(hour==10 && min==55 && sec==(15+t)){
 10503                           		movlw	10
 10504  12B5  300A               	bsf	status, 5	;RP0=1, select bank1
 10505  12B6  1683               	bcf	status, 6	;RP1=0, select bank1
 10506  12B7  1303               	xorwf	((_hour)^080h),w
 10507  12B8  0646               iorwf	((_hour+1)^080h),w
 10508  12B9  0447               	btfss	status,2
 10509  12BA  1D03               	goto	u3631
 10510  12BB  2ABD               	goto	u3630
 10511  12BC  2ABE               u3631:
 10512  12BD                     	goto	l207
 10513  12BD  2ADC               u3630:
 10514  12BE                     	
 10515                           l3068:	
 10516  12BE                     		movlw	55
 10517  12BE  3037               	xorwf	((_min)),w
 10518  12BF  067C               iorwf	((_min+1)),w
 10519  12C0  047D               	btfss	status,2
 10520  12C1  1D03               	goto	u3641
 10521  12C2  2AC4               	goto	u3640
 10522  12C3  2AC5               u3641:
 10523  12C4                     	goto	l207
 10524  12C4  2ADC               u3640:
 10525  12C5                     	
 10526                           l3070:	
 10527  12C5                     	bcf	status, 5	;RP0=0, select bank0
 10528  12C5  1283               	bcf	status, 6	;RP1=0, select bank0
 10529  12C6  1303               	movf	(apagar_luces@t),w
 10530  12C7  0822               	addlw	low(0Fh)
 10531  12C8  3E0F               	movwf	(??_apagar_luces+0)+0
 10532  12C9  00A0               	movlw	high(0Fh)
 10533  12CA  3000               	skipnc
 10534  12CB  1803               	movlw	(high(0Fh)+1)&0ffh
 10535  12CC  3001               	movwf	((??_apagar_luces+0)+0)+1
 10536  12CD  00A1               	movf	(_sec+1),w
 10537  12CE  087A               	xorwf	1+(??_apagar_luces+0)+0,w
 10538  12CF  0621               	skipz
 10539  12D0  1D03               	goto	u3655
 10540  12D1  2AD4               	movf	(_sec),w
 10541  12D2  0879               	xorwf	0+(??_apagar_luces+0)+0,w
 10542  12D3  0620               u3655:
 10543  12D4                     
 10544                           	skipz
 10545  12D4  1D03               	goto	u3651
 10546  12D5  2AD7               	goto	u3650
 10547  12D6  2AD8               u3651:
 10548  12D7                     	goto	l207
 10549  12D7  2ADC               u3650:
 10550  12D8                     	line	275
 10551                           	
 10552                           l3072:	
 10553  12D8                     ;Proyecto1_master.c: 275:         PORTBbits.RB0 = 0;
 10554                           	bcf	(6),0	;volatile
 10555  12D8  1006               	line	276
 10556                           ;Proyecto1_master.c: 276:         PORTBbits.RB1 = 0;
 10557                           	bcf	(6),1	;volatile
 10558  12D9  1086               	line	277
 10559                           ;Proyecto1_master.c: 277:         PORTBbits.RB2 = 0;
 10560                           	bcf	(6),2	;volatile
 10561  12DA  1106               	goto	l207
 10562  12DB  2ADC               	line	278
 10563                           ;Proyecto1_master.c: 278:     }
 10564                           	
 10565                           l206:	
 10566  12DC                     	line	279
 10567                           	
 10568                           l207:	
 10569  12DC                     	return
 10570  12DC  0008               	opt stack 0
 10571                           GLOBAL	__end_of_apagar_luces
 10572                           	__end_of_apagar_luces:
 10573  12DD                     	signat	_apagar_luces,4217
 10574                           	global	_Update_Current_Date_Time
 10575                           
 10576 ;; *************** function _Update_Current_Date_Time *****************
 10577 ;; Defined at:
 10578 ;;		line 340 in file "Proyecto1_master.c"
 10579 ;; Parameters:    Size  Location     Type
 10580 ;;		None
 10581 ;; Auto vars:     Size  Location     Type
 10582 ;;		None
 10583 ;; Return value:  Size  Location     Type
 10584 ;;                  1    wreg      void 
 10585 ;; Registers used:
 10586 ;;		wreg, status,2, status,0, pclath, cstack
 10587 ;; Tracked objects:
 10588 ;;		On entry : 0/0
 10589 ;;		On exit  : 0/0
 10590 ;;		Unchanged: 0/0
 10591 ;; Data sizes:     COMMON   BANK0   BANK1   BANK3   BANK2
 10592 ;;      Params:         0       0       0       0       0
 10593 ;;      Locals:         0       0       0       0       0
 10594 ;;      Temps:          0       0       0       0       0
 10595 ;;      Totals:         0       0       0       0       0
 10596 ;;Total ram usage:        0 bytes
 10597 ;; Hardware stack levels used:    1
 10598 ;; Hardware stack levels required when called:    6
 10599 ;; This function calls:
 10600 ;;		_BCD_2_DEC
 10601 ;;		_I2C_Master_Read
 10602 ;;		_I2C_Master_Start
 10603 ;;		_I2C_Master_Stop
 10604 ;;		_I2C_Master_Write
 10605 ;; This function is called by:
 10606 ;;		_main
 10607 ;; This function uses a non-reentrant model
 10608 ;;
 10609                           psect	text32,local,class=CODE,delta=2,merge=1,group=0
 10610                           	line	340
 10611                           global __ptext32
 10612                           __ptext32:	;psect for function _Update_Current_Date_Time
 10613  04FE                     psect	text32
 10614                           	file	"Proyecto1_master.c"
 10615                           	line	340
 10616                           	global	__size_of_Update_Current_Date_Time
 10617                           	__size_of_Update_Current_Date_Time	equ	__end_of_Update_Current_Date_Time-_Update_Curren
                                 t_Date_Time
 10618  019B                     	
 10619                           _Update_Current_Date_Time:	
 10620  04FE                     ;incstack = 0
 10621                           	opt	stack 1
 10622                           ; Regs used in _Update_Current_Date_Time: [wreg+status,2+status,0+pclath+cstack]
 10623                           	line	342
 10624                           	
 10625                           l2978:	
 10626  04FE                     ;Proyecto1_master.c: 342:    I2C_Master_Start();
 10627                           	fcall	_I2C_Master_Start
 10628  04FE  160A  118A  217F  120A  118A  	line	343
 10629                           ;Proyecto1_master.c: 343:    I2C_Master_Write(0xD0);
 10630                           	movlw	0D0h
 10631  0503  30D0               	bcf	status, 5	;RP0=0, select bank0
 10632  0504  1283               	bcf	status, 6	;RP1=0, select bank0
 10633  0505  1303               	movwf	(I2C_Master_Write@d)
 10634  0506  00AD               	movlw	0
 10635  0507  3000               	movwf	((I2C_Master_Write@d))+1
 10636  0508  00AE               	fcall	_I2C_Master_Write
 10637  0509  160A  118A  2191  120A  118A  	line	344
 10638                           ;Proyecto1_master.c: 344:    I2C_Master_Write(0);
 10639                           	movlw	0
 10640  050E  3000               	bcf	status, 5	;RP0=0, select bank0
 10641  050F  1283               	bcf	status, 6	;RP1=0, select bank0
 10642  0510  1303               	movwf	(I2C_Master_Write@d)
 10643  0511  00AD               	movwf	(I2C_Master_Write@d+1)
 10644  0512  00AE               	fcall	_I2C_Master_Write
 10645  0513  160A  118A  2191  120A  118A  	line	345
 10646                           ;Proyecto1_master.c: 345:    I2C_Master_Stop();
 10647                           	fcall	_I2C_Master_Stop
 10648  0518  160A  118A  2188  120A  118A  	line	348
 10649                           ;Proyecto1_master.c: 348:    I2C_Master_Start();
 10650                           	fcall	_I2C_Master_Start
 10651  051D  160A  118A  217F  120A  118A  	line	349
 10652                           ;Proyecto1_master.c: 349:    I2C_Master_Write(0xD1);
 10653                           	movlw	0D1h
 10654  0522  30D1               	bcf	status, 5	;RP0=0, select bank0
 10655  0523  1283               	bcf	status, 6	;RP1=0, select bank0
 10656  0524  1303               	movwf	(I2C_Master_Write@d)
 10657  0525  00AD               	movlw	0
 10658  0526  3000               	movwf	((I2C_Master_Write@d))+1
 10659  0527  00AE               	fcall	_I2C_Master_Write
 10660  0528  160A  118A  2191  120A  118A  	line	350
 10661                           ;Proyecto1_master.c: 350:    sec = BCD_2_DEC(I2C_Master_Read(0));
 10662                           	movlw	0
 10663  052D  3000               	bcf	status, 5	;RP0=0, select bank0
 10664  052E  1283               	bcf	status, 6	;RP1=0, select bank0
 10665  052F  1303               	movwf	(I2C_Master_Read@a)
 10666  0530  00A0               	movwf	(I2C_Master_Read@a+1)
 10667  0531  00A1               	fcall	_I2C_Master_Read
 10668  0532  160A  118A  233D  120A  118A  	bcf	status, 5	;RP0=0, select bank0
 10669  0537  1283               	bcf	status, 6	;RP1=0, select bank0
 10670  0538  1303               	movf	(1+(?_I2C_Master_Read)),w
 10671  0539  0821               	movwf	(BCD_2_DEC@to_convert+1)
 10672  053A  00A7               	movf	(0+(?_I2C_Master_Read)),w
 10673  053B  0820               	movwf	(BCD_2_DEC@to_convert)
 10674  053C  00A6               	fcall	_BCD_2_DEC
 10675  053D  160A  118A  2288  120A  118A  	bcf	status, 5	;RP0=0, select bank0
 10676  0542  1283               	bcf	status, 6	;RP1=0, select bank0
 10677  0543  1303               	movf	(1+(?_BCD_2_DEC)),w
 10678  0544  0827               	movwf	(_sec+1)
 10679  0545  00FA               	movf	(0+(?_BCD_2_DEC)),w
 10680  0546  0826               	movwf	(_sec)
 10681  0547  00F9               	line	351
 10682                           ;Proyecto1_master.c: 351:    I2C_Master_Stop();
 10683                           	fcall	_I2C_Master_Stop
 10684  0548  160A  118A  2188  120A  118A  	line	353
 10685                           ;Proyecto1_master.c: 353:    I2C_Master_Start();
 10686                           	fcall	_I2C_Master_Start
 10687  054D  160A  118A  217F  120A  118A  	line	354
 10688                           ;Proyecto1_master.c: 354:    I2C_Master_Write(0xD1);
 10689                           	movlw	0D1h
 10690  0552  30D1               	bcf	status, 5	;RP0=0, select bank0
 10691  0553  1283               	bcf	status, 6	;RP1=0, select bank0
 10692  0554  1303               	movwf	(I2C_Master_Write@d)
 10693  0555  00AD               	movlw	0
 10694  0556  3000               	movwf	((I2C_Master_Write@d))+1
 10695  0557  00AE               	fcall	_I2C_Master_Write
 10696  0558  160A  118A  2191  120A  118A  	line	355
 10697                           ;Proyecto1_master.c: 355:    min = BCD_2_DEC(I2C_Master_Read(0));
 10698                           	movlw	0
 10699  055D  3000               	bcf	status, 5	;RP0=0, select bank0
 10700  055E  1283               	bcf	status, 6	;RP1=0, select bank0
 10701  055F  1303               	movwf	(I2C_Master_Read@a)
 10702  0560  00A0               	movwf	(I2C_Master_Read@a+1)
 10703  0561  00A1               	fcall	_I2C_Master_Read
 10704  0562  160A  118A  233D  120A  118A  	bcf	status, 5	;RP0=0, select bank0
 10705  0567  1283               	bcf	status, 6	;RP1=0, select bank0
 10706  0568  1303               	movf	(1+(?_I2C_Master_Read)),w
 10707  0569  0821               	movwf	(BCD_2_DEC@to_convert+1)
 10708  056A  00A7               	movf	(0+(?_I2C_Master_Read)),w
 10709  056B  0820               	movwf	(BCD_2_DEC@to_convert)
 10710  056C  00A6               	fcall	_BCD_2_DEC
 10711  056D  160A  118A  2288  120A  118A  	bcf	status, 5	;RP0=0, select bank0
 10712  0572  1283               	bcf	status, 6	;RP1=0, select bank0
 10713  0573  1303               	movf	(1+(?_BCD_2_DEC)),w
 10714  0574  0827               	movwf	(_min+1)
 10715  0575  00FD               	movf	(0+(?_BCD_2_DEC)),w
 10716  0576  0826               	movwf	(_min)
 10717  0577  00FC               	line	356
 10718                           ;Proyecto1_master.c: 356:    I2C_Master_Stop();
 10719                           	fcall	_I2C_Master_Stop
 10720  0578  160A  118A  2188  120A  118A  	line	358
 10721                           ;Proyecto1_master.c: 358:    I2C_Master_Start();
 10722                           	fcall	_I2C_Master_Start
 10723  057D  160A  118A  217F  120A  118A  	line	359
 10724                           ;Proyecto1_master.c: 359:    I2C_Master_Write(0xD1);
 10725                           	movlw	0D1h
 10726  0582  30D1               	bcf	status, 5	;RP0=0, select bank0
 10727  0583  1283               	bcf	status, 6	;RP1=0, select bank0
 10728  0584  1303               	movwf	(I2C_Master_Write@d)
 10729  0585  00AD               	movlw	0
 10730  0586  3000               	movwf	((I2C_Master_Write@d))+1
 10731  0587  00AE               	fcall	_I2C_Master_Write
 10732  0588  160A  118A  2191  120A  118A  	line	360
 10733                           ;Proyecto1_master.c: 360:    hour = BCD_2_DEC(I2C_Master_Read(0));
 10734                           	movlw	0
 10735  058D  3000               	bcf	status, 5	;RP0=0, select bank0
 10736  058E  1283               	bcf	status, 6	;RP1=0, select bank0
 10737  058F  1303               	movwf	(I2C_Master_Read@a)
 10738  0590  00A0               	movwf	(I2C_Master_Read@a+1)
 10739  0591  00A1               	fcall	_I2C_Master_Read
 10740  0592  160A  118A  233D  120A  118A  	bcf	status, 5	;RP0=0, select bank0
 10741  0597  1283               	bcf	status, 6	;RP1=0, select bank0
 10742  0598  1303               	movf	(1+(?_I2C_Master_Read)),w
 10743  0599  0821               	movwf	(BCD_2_DEC@to_convert+1)
 10744  059A  00A7               	movf	(0+(?_I2C_Master_Read)),w
 10745  059B  0820               	movwf	(BCD_2_DEC@to_convert)
 10746  059C  00A6               	fcall	_BCD_2_DEC
 10747  059D  160A  118A  2288  120A  118A  	bcf	status, 5	;RP0=0, select bank0
 10748  05A2  1283               	bcf	status, 6	;RP1=0, select bank0
 10749  05A3  1303               	movf	(1+(?_BCD_2_DEC)),w
 10750  05A4  0827               	bsf	status, 5	;RP0=1, select bank1
 10751  05A5  1683               	bcf	status, 6	;RP1=0, select bank1
 10752  05A6  1303               	movwf	(_hour+1)^080h
 10753  05A7  00C7               	bcf	status, 5	;RP0=0, select bank0
 10754  05A8  1283               	bcf	status, 6	;RP1=0, select bank0
 10755  05A9  1303               	movf	(0+(?_BCD_2_DEC)),w
 10756  05AA  0826               	bsf	status, 5	;RP0=1, select bank1
 10757  05AB  1683               	bcf	status, 6	;RP1=0, select bank1
 10758  05AC  1303               	movwf	(_hour)^080h
 10759  05AD  00C6               	line	361
 10760                           ;Proyecto1_master.c: 361:    I2C_Master_Stop();
 10761                           	fcall	_I2C_Master_Stop
 10762  05AE  160A  118A  2188  120A  118A  	line	363
 10763                           ;Proyecto1_master.c: 363:    I2C_Master_Start();
 10764                           	fcall	_I2C_Master_Start
 10765  05B3  160A  118A  217F  120A  118A  	line	364
 10766                           ;Proyecto1_master.c: 364:    I2C_Master_Write(0xD1);
 10767                           	movlw	0D1h
 10768  05B8  30D1               	bcf	status, 5	;RP0=0, select bank0
 10769  05B9  1283               	bcf	status, 6	;RP1=0, select bank0
 10770  05BA  1303               	movwf	(I2C_Master_Write@d)
 10771  05BB  00AD               	movlw	0
 10772  05BC  3000               	movwf	((I2C_Master_Write@d))+1
 10773  05BD  00AE               	fcall	_I2C_Master_Write
 10774  05BE  160A  118A  2191  120A  118A  	line	365
 10775                           ;Proyecto1_master.c: 365:    I2C_Master_Read(0);
 10776                           	movlw	0
 10777  05C3  3000               	bcf	status, 5	;RP0=0, select bank0
 10778  05C4  1283               	bcf	status, 6	;RP1=0, select bank0
 10779  05C5  1303               	movwf	(I2C_Master_Read@a)
 10780  05C6  00A0               	movwf	(I2C_Master_Read@a+1)
 10781  05C7  00A1               	fcall	_I2C_Master_Read
 10782  05C8  160A  118A  233D  120A  118A  	line	366
 10783                           ;Proyecto1_master.c: 366:    I2C_Master_Stop();
 10784                           	fcall	_I2C_Master_Stop
 10785  05CD  160A  118A  2188  120A  118A  	line	368
 10786                           ;Proyecto1_master.c: 368:    I2C_Master_Start();
 10787                           	fcall	_I2C_Master_Start
 10788  05D2  160A  118A  217F  120A  118A  	line	369
 10789                           ;Proyecto1_master.c: 369:    I2C_Master_Write(0xD1);
 10790                           	movlw	0D1h
 10791  05D7  30D1               	bcf	status, 5	;RP0=0, select bank0
 10792  05D8  1283               	bcf	status, 6	;RP1=0, select bank0
 10793  05D9  1303               	movwf	(I2C_Master_Write@d)
 10794  05DA  00AD               	movlw	0
 10795  05DB  3000               	movwf	((I2C_Master_Write@d))+1
 10796  05DC  00AE               	fcall	_I2C_Master_Write
 10797  05DD  160A  118A  2191  120A  118A  	line	370
 10798                           ;Proyecto1_master.c: 370:    date = BCD_2_DEC(I2C_Master_Read(0));
 10799                           	movlw	0
 10800  05E2  3000               	bcf	status, 5	;RP0=0, select bank0
 10801  05E3  1283               	bcf	status, 6	;RP1=0, select bank0
 10802  05E4  1303               	movwf	(I2C_Master_Read@a)
 10803  05E5  00A0               	movwf	(I2C_Master_Read@a+1)
 10804  05E6  00A1               	fcall	_I2C_Master_Read
 10805  05E7  160A  118A  233D  120A  118A  	bcf	status, 5	;RP0=0, select bank0
 10806  05EC  1283               	bcf	status, 6	;RP1=0, select bank0
 10807  05ED  1303               	movf	(1+(?_I2C_Master_Read)),w
 10808  05EE  0821               	movwf	(BCD_2_DEC@to_convert+1)
 10809  05EF  00A7               	movf	(0+(?_I2C_Master_Read)),w
 10810  05F0  0820               	movwf	(BCD_2_DEC@to_convert)
 10811  05F1  00A6               	fcall	_BCD_2_DEC
 10812  05F2  160A  118A  2288  120A  118A  	bcf	status, 5	;RP0=0, select bank0
 10813  05F7  1283               	bcf	status, 6	;RP1=0, select bank0
 10814  05F8  1303               	movf	(1+(?_BCD_2_DEC)),w
 10815  05F9  0827               	bsf	status, 5	;RP0=1, select bank1
 10816  05FA  1683               	bcf	status, 6	;RP1=0, select bank1
 10817  05FB  1303               	movwf	(_date+1)^080h
 10818  05FC  00C5               	bcf	status, 5	;RP0=0, select bank0
 10819  05FD  1283               	bcf	status, 6	;RP1=0, select bank0
 10820  05FE  1303               	movf	(0+(?_BCD_2_DEC)),w
 10821  05FF  0826               	bsf	status, 5	;RP0=1, select bank1
 10822  0600  1683               	bcf	status, 6	;RP1=0, select bank1
 10823  0601  1303               	movwf	(_date)^080h
 10824  0602  00C4               	line	371
 10825                           ;Proyecto1_master.c: 371:    I2C_Master_Stop();
 10826                           	fcall	_I2C_Master_Stop
 10827  0603  160A  118A  2188  120A  118A  	line	373
 10828                           ;Proyecto1_master.c: 373:    I2C_Master_Start();
 10829                           	fcall	_I2C_Master_Start
 10830  0608  160A  118A  217F  120A  118A  	line	374
 10831                           ;Proyecto1_master.c: 374:    I2C_Master_Write(0xD1);
 10832                           	movlw	0D1h
 10833  060D  30D1               	bcf	status, 5	;RP0=0, select bank0
 10834  060E  1283               	bcf	status, 6	;RP1=0, select bank0
 10835  060F  1303               	movwf	(I2C_Master_Write@d)
 10836  0610  00AD               	movlw	0
 10837  0611  3000               	movwf	((I2C_Master_Write@d))+1
 10838  0612  00AE               	fcall	_I2C_Master_Write
 10839  0613  160A  118A  2191  120A  118A  	line	375
 10840                           ;Proyecto1_master.c: 375:    month = BCD_2_DEC(I2C_Master_Read(0));
 10841                           	movlw	0
 10842  0618  3000               	bcf	status, 5	;RP0=0, select bank0
 10843  0619  1283               	bcf	status, 6	;RP1=0, select bank0
 10844  061A  1303               	movwf	(I2C_Master_Read@a)
 10845  061B  00A0               	movwf	(I2C_Master_Read@a+1)
 10846  061C  00A1               	fcall	_I2C_Master_Read
 10847  061D  160A  118A  233D  120A  118A  	bcf	status, 5	;RP0=0, select bank0
 10848  0622  1283               	bcf	status, 6	;RP1=0, select bank0
 10849  0623  1303               	movf	(1+(?_I2C_Master_Read)),w
 10850  0624  0821               	movwf	(BCD_2_DEC@to_convert+1)
 10851  0625  00A7               	movf	(0+(?_I2C_Master_Read)),w
 10852  0626  0820               	movwf	(BCD_2_DEC@to_convert)
 10853  0627  00A6               	fcall	_BCD_2_DEC
 10854  0628  160A  118A  2288  120A  118A  	bcf	status, 5	;RP0=0, select bank0
 10855  062D  1283               	bcf	status, 6	;RP1=0, select bank0
 10856  062E  1303               	movf	(1+(?_BCD_2_DEC)),w
 10857  062F  0827               	bsf	status, 5	;RP0=1, select bank1
 10858  0630  1683               	bcf	status, 6	;RP1=0, select bank1
 10859  0631  1303               	movwf	(_month+1)^080h
 10860  0632  00C1               	bcf	status, 5	;RP0=0, select bank0
 10861  0633  1283               	bcf	status, 6	;RP1=0, select bank0
 10862  0634  1303               	movf	(0+(?_BCD_2_DEC)),w
 10863  0635  0826               	bsf	status, 5	;RP0=1, select bank1
 10864  0636  1683               	bcf	status, 6	;RP1=0, select bank1
 10865  0637  1303               	movwf	(_month)^080h
 10866  0638  00C0               	line	376
 10867                           ;Proyecto1_master.c: 376:    I2C_Master_Stop();
 10868                           	fcall	_I2C_Master_Stop
 10869  0639  160A  118A  2188  120A  118A  	line	378
 10870                           ;Proyecto1_master.c: 378:    I2C_Master_Start();
 10871                           	fcall	_I2C_Master_Start
 10872  063E  160A  118A  217F  120A  118A  	line	379
 10873                           ;Proyecto1_master.c: 379:    I2C_Master_Write(0xD1);
 10874                           	movlw	0D1h
 10875  0643  30D1               	bcf	status, 5	;RP0=0, select bank0
 10876  0644  1283               	bcf	status, 6	;RP1=0, select bank0
 10877  0645  1303               	movwf	(I2C_Master_Write@d)
 10878  0646  00AD               	movlw	0
 10879  0647  3000               	movwf	((I2C_Master_Write@d))+1
 10880  0648  00AE               	fcall	_I2C_Master_Write
 10881  0649  160A  118A  2191  120A  118A  	line	380
 10882                           ;Proyecto1_master.c: 380:    year = BCD_2_DEC(I2C_Master_Read(0));
 10883                           	movlw	0
 10884  064E  3000               	bcf	status, 5	;RP0=0, select bank0
 10885  064F  1283               	bcf	status, 6	;RP1=0, select bank0
 10886  0650  1303               	movwf	(I2C_Master_Read@a)
 10887  0651  00A0               	movwf	(I2C_Master_Read@a+1)
 10888  0652  00A1               	fcall	_I2C_Master_Read
 10889  0653  160A  118A  233D  120A  118A  	bcf	status, 5	;RP0=0, select bank0
 10890  0658  1283               	bcf	status, 6	;RP1=0, select bank0
 10891  0659  1303               	movf	(1+(?_I2C_Master_Read)),w
 10892  065A  0821               	movwf	(BCD_2_DEC@to_convert+1)
 10893  065B  00A7               	movf	(0+(?_I2C_Master_Read)),w
 10894  065C  0820               	movwf	(BCD_2_DEC@to_convert)
 10895  065D  00A6               	fcall	_BCD_2_DEC
 10896  065E  160A  118A  2288  120A  118A  	bcf	status, 5	;RP0=0, select bank0
 10897  0663  1283               	bcf	status, 6	;RP1=0, select bank0
 10898  0664  1303               	movf	(1+(?_BCD_2_DEC)),w
 10899  0665  0827               	bsf	status, 5	;RP0=1, select bank1
 10900  0666  1683               	bcf	status, 6	;RP1=0, select bank1
 10901  0667  1303               	movwf	(_year+1)^080h
 10902  0668  00BF               	bcf	status, 5	;RP0=0, select bank0
 10903  0669  1283               	bcf	status, 6	;RP1=0, select bank0
 10904  066A  1303               	movf	(0+(?_BCD_2_DEC)),w
 10905  066B  0826               	bsf	status, 5	;RP0=1, select bank1
 10906  066C  1683               	bcf	status, 6	;RP1=0, select bank1
 10907  066D  1303               	movwf	(_year)^080h
 10908  066E  00BE               	line	381
 10909                           ;Proyecto1_master.c: 381:    I2C_Master_Stop();
 10910                           	fcall	_I2C_Master_Stop
 10911  066F  160A  118A  2188  120A  118A  	line	383
 10912                           ;Proyecto1_master.c: 383:    I2C_Master_Stop();
 10913                           	fcall	_I2C_Master_Stop
 10914  0674  160A  118A  2188  120A  118A  	line	386
 10915                           ;Proyecto1_master.c: 386:    I2C_Master_Start();
 10916                           	fcall	_I2C_Master_Start
 10917  0679  160A  118A  217F  120A  118A  	line	387
 10918                           ;Proyecto1_master.c: 387:    I2C_Master_Write(0xD1);
 10919                           	movlw	0D1h
 10920  067E  30D1               	bcf	status, 5	;RP0=0, select bank0
 10921  067F  1283               	bcf	status, 6	;RP1=0, select bank0
 10922  0680  1303               	movwf	(I2C_Master_Write@d)
 10923  0681  00AD               	movlw	0
 10924  0682  3000               	movwf	((I2C_Master_Write@d))+1
 10925  0683  00AE               	fcall	_I2C_Master_Write
 10926  0684  160A  118A  2191  120A  118A  	line	388
 10927                           ;Proyecto1_master.c: 388:    I2C_Master_Read(0);
 10928                           	movlw	0
 10929  0689  3000               	bcf	status, 5	;RP0=0, select bank0
 10930  068A  1283               	bcf	status, 6	;RP1=0, select bank0
 10931  068B  1303               	movwf	(I2C_Master_Read@a)
 10932  068C  00A0               	movwf	(I2C_Master_Read@a+1)
 10933  068D  00A1               	fcall	_I2C_Master_Read
 10934  068E  160A  118A  233D  120A  118A  	line	389
 10935                           ;Proyecto1_master.c: 389:    I2C_Master_Stop();
 10936                           	fcall	_I2C_Master_Stop
 10937  0693  160A  118A  2188  120A  118A  	line	391
 10938                           	
 10939                           l225:	
 10940  0698                     	return
 10941  0698  0008               	opt stack 0
 10942                           GLOBAL	__end_of_Update_Current_Date_Time
 10943                           	__end_of_Update_Current_Date_Time:
 10944  0699                     	signat	_Update_Current_Date_Time,89
 10945                           	global	_I2C_Master_Read
 10946                           
 10947 ;; *************** function _I2C_Master_Read *****************
 10948 ;; Defined at:
 10949 ;;		line 71 in file "I2C.c"
 10950 ;; Parameters:    Size  Location     Type
 10951 ;;  a               2    0[BANK0 ] unsigned short 
 10952 ;; Auto vars:     Size  Location     Type
 10953 ;;  temp            2    4[BANK0 ] unsigned short 
 10954 ;; Return value:  Size  Location     Type
 10955 ;;                  2    0[BANK0 ] unsigned short 
 10956 ;; Registers used:
 10957 ;;		wreg, status,2, status,0, pclath, cstack
 10958 ;; Tracked objects:
 10959 ;;		On entry : 0/0
 10960 ;;		On exit  : 0/0
 10961 ;;		Unchanged: 0/0
 10962 ;; Data sizes:     COMMON   BANK0   BANK1   BANK3   BANK2
 10963 ;;      Params:         0       2       0       0       0
 10964 ;;      Locals:         0       2       0       0       0
 10965 ;;      Temps:          0       2       0       0       0
 10966 ;;      Totals:         0       6       0       0       0
 10967 ;;Total ram usage:        6 bytes
 10968 ;; Hardware stack levels used:    1
 10969 ;; Hardware stack levels required when called:    5
 10970 ;; This function calls:
 10971 ;;		_I2C_Master_Wait
 10972 ;; This function is called by:
 10973 ;;		_Update_Current_Date_Time
 10974 ;;		_slave_1
 10975 ;;		_slave_2
 10976 ;;		_slave_3
 10977 ;; This function uses a non-reentrant model
 10978 ;;
 10979                           psect	text33,local,class=CODE,delta=2,merge=1,group=0
 10980                           	file	"I2C.c"
 10981                           	line	71
 10982                           global __ptext33
 10983                           __ptext33:	;psect for function _I2C_Master_Read
 10984  133D                     psect	text33
 10985                           	file	"I2C.c"
 10986                           	line	71
 10987                           	global	__size_of_I2C_Master_Read
 10988                           	__size_of_I2C_Master_Read	equ	__end_of_I2C_Master_Read-_I2C_Master_Read
 10989  0033                     	
 10990                           _I2C_Master_Read:	
 10991  133D                     ;incstack = 0
 10992                           	opt	stack 0
 10993                           ; Regs used in _I2C_Master_Read: [wreg+status,2+status,0+pclath+cstack]
 10994                           	line	74
 10995                           	
 10996                           l2700:	
 10997  133D                     ;I2C.c: 71: unsigned short I2C_Master_Read(unsigned short a);I2C.c: 72: {;I2C.c: 73:    
                                  unsigned short temp;;I2C.c: 74:     I2C_Master_Wait();
 10998                           	fcall	_I2C_Master_Wait
 10999  133D  160A  118A  21A5  160A  118A  	line	75
 11000                           	
 11001                           l2702:	
 11002  1342                     ;I2C.c: 75:     SSPCON2bits.RCEN = 1;
 11003                           	bsf	status, 5	;RP0=1, select bank1
 11004  1342  1683               	bcf	status, 6	;RP1=0, select bank1
 11005  1343  1303               	bsf	(145)^080h,3	;volatile
 11006  1344  1591               	line	76
 11007                           ;I2C.c: 76:     I2C_Master_Wait();
 11008                           	fcall	_I2C_Master_Wait
 11009  1345  160A  118A  21A5  160A  118A  	line	77
 11010                           	
 11011                           l2704:	
 11012  134A                     ;I2C.c: 77:     temp = SSPBUF;
 11013                           	bcf	status, 5	;RP0=0, select bank0
 11014  134A  1283               	bcf	status, 6	;RP1=0, select bank0
 11015  134B  1303               	movf	(19),w	;volatile
 11016  134C  0813               	movwf	(??_I2C_Master_Read+0)+0
 11017  134D  00A2               	clrf	(??_I2C_Master_Read+0)+0+1
 11018  134E  01A3               	movf	0+(??_I2C_Master_Read+0)+0,w
 11019  134F  0822               	movwf	(I2C_Master_Read@temp)
 11020  1350  00A4               	movf	1+(??_I2C_Master_Read+0)+0,w
 11021  1351  0823               	movwf	(I2C_Master_Read@temp+1)
 11022  1352  00A5               	line	78
 11023                           	
 11024                           l2706:	
 11025  1353                     ;I2C.c: 78:     I2C_Master_Wait();
 11026                           	fcall	_I2C_Master_Wait
 11027  1353  160A  118A  21A5  160A  118A  	line	79
 11028                           	
 11029                           l2708:	
 11030  1358                     ;I2C.c: 79:     if(a == 1){
 11031                           	bcf	status, 5	;RP0=0, select bank0
 11032  1358  1283               	bcf	status, 6	;RP1=0, select bank0
 11033  1359  1303               		decf	((I2C_Master_Read@a)),w
 11034  135A  0320               iorwf	((I2C_Master_Read@a+1)),w
 11035  135B  0421               	btfss	status,2
 11036  135C  1D03               	goto	u3181
 11037  135D  2B5F               	goto	u3180
 11038  135E  2B60               u3181:
 11039  135F                     	goto	l345
 11040  135F  2B64               u3180:
 11041  1360                     	line	80
 11042                           	
 11043                           l2710:	
 11044  1360                     ;I2C.c: 80:         SSPCON2bits.ACKDT = 0;
 11045                           	bsf	status, 5	;RP0=1, select bank1
 11046  1360  1683               	bcf	status, 6	;RP1=0, select bank1
 11047  1361  1303               	bcf	(145)^080h,5	;volatile
 11048  1362  1291               	line	81
 11049                           ;I2C.c: 81:     }else{
 11050                           	goto	l346
 11051  1363  2B67               	
 11052                           l345:	
 11053  1364                     	line	82
 11054                           ;I2C.c: 82:         SSPCON2bits.ACKDT = 1;
 11055                           	bsf	status, 5	;RP0=1, select bank1
 11056  1364  1683               	bcf	status, 6	;RP1=0, select bank1
 11057  1365  1303               	bsf	(145)^080h,5	;volatile
 11058  1366  1691               	line	83
 11059                           ;I2C.c: 83:     }
 11060                           	
 11061                           l346:	
 11062  1367                     	line	84
 11063                           ;I2C.c: 84:     SSPCON2bits.ACKEN = 1;
 11064                           	bsf	(145)^080h,4	;volatile
 11065  1367  1611               	line	85
 11066                           	
 11067                           l2712:	
 11068  1368                     ;I2C.c: 85:     return temp;
 11069                           	bcf	status, 5	;RP0=0, select bank0
 11070  1368  1283               	bcf	status, 6	;RP1=0, select bank0
 11071  1369  1303               	movf	(I2C_Master_Read@temp+1),w
 11072  136A  0825               	movwf	(?_I2C_Master_Read+1)
 11073  136B  00A1               	movf	(I2C_Master_Read@temp),w
 11074  136C  0824               	movwf	(?_I2C_Master_Read)
 11075  136D  00A0               	goto	l347
 11076  136E  2B6F               	
 11077                           l2714:	
 11078  136F                     	line	86
 11079                           	
 11080                           l347:	
 11081  136F                     	return
 11082  136F  0008               	opt stack 0
 11083                           GLOBAL	__end_of_I2C_Master_Read
 11084                           	__end_of_I2C_Master_Read:
 11085  1370                     	signat	_I2C_Master_Read,4218
 11086                           	global	_BCD_2_DEC
 11087                           
 11088 ;; *************** function _BCD_2_DEC *****************
 11089 ;; Defined at:
 11090 ;;		line 312 in file "Proyecto1_master.c"
 11091 ;; Parameters:    Size  Location     Type
 11092 ;;  to_convert      2    6[BANK0 ] int 
 11093 ;; Auto vars:     Size  Location     Type
 11094 ;;		None
 11095 ;; Return value:  Size  Location     Type
 11096 ;;                  2    6[BANK0 ] int 
 11097 ;; Registers used:
 11098 ;;		wreg, status,2, status,0, pclath, cstack
 11099 ;; Tracked objects:
 11100 ;;		On entry : 0/0
 11101 ;;		On exit  : 0/0
 11102 ;;		Unchanged: 0/0
 11103 ;; Data sizes:     COMMON   BANK0   BANK1   BANK3   BANK2
 11104 ;;      Params:         0       2       0       0       0
 11105 ;;      Locals:         0       0       0       0       0
 11106 ;;      Temps:          0       2       0       0       0
 11107 ;;      Totals:         0       4       0       0       0
 11108 ;;Total ram usage:        4 bytes
 11109 ;; Hardware stack levels used:    1
 11110 ;; Hardware stack levels required when called:    5
 11111 ;; This function calls:
 11112 ;;		___wmul
 11113 ;; This function is called by:
 11114 ;;		_Update_Current_Date_Time
 11115 ;; This function uses a non-reentrant model
 11116 ;;
 11117                           psect	text34,local,class=CODE,delta=2,merge=1,group=0
 11118                           	file	"Proyecto1_master.c"
 11119                           	line	312
 11120                           global __ptext34
 11121                           __ptext34:	;psect for function _BCD_2_DEC
 11122  1288                     psect	text34
 11123                           	file	"Proyecto1_master.c"
 11124                           	line	312
 11125                           	global	__size_of_BCD_2_DEC
 11126                           	__size_of_BCD_2_DEC	equ	__end_of_BCD_2_DEC-_BCD_2_DEC
 11127  002A                     	
 11128                           _BCD_2_DEC:	
 11129  1288                     ;incstack = 0
 11130                           	opt	stack 1
 11131                           ; Regs used in _BCD_2_DEC: [wreg+status,2+status,0+pclath+cstack]
 11132                           	line	313
 11133                           	
 11134                           l2878:	
 11135  1288                     ;Proyecto1_master.c: 313:    return (to_convert >> 4) * 10 + (to_convert & 0x0F);
 11136                           	movlw	0Fh
 11137  1288  300F               	bcf	status, 5	;RP0=0, select bank0
 11138  1289  1283               	bcf	status, 6	;RP1=0, select bank0
 11139  128A  1303               	andwf	(BCD_2_DEC@to_convert),w
 11140  128B  0526               	movwf	(??_BCD_2_DEC+0)+0
 11141  128C  00A8               	movlw	0
 11142  128D  3000               	andwf	(BCD_2_DEC@to_convert+1),w
 11143  128E  0527               	movwf	1+(??_BCD_2_DEC+0)+0
 11144  128F  00A9               	swapf	(BCD_2_DEC@to_convert),w
 11145  1290  0E26               	andlw	0fh
 11146  1291  390F               	movwf	(___wmul@multiplier)
 11147  1292  00A0               	swapf	(BCD_2_DEC@to_convert+1),w
 11148  1293  0E27               	andlw	0f0h
 11149  1294  39F0               	iorwf	(___wmul@multiplier)+0
 11150  1295  04A0               	swapf	(BCD_2_DEC@to_convert+1),w
 11151  1296  0E27               	andlw	0fh
 11152  1297  390F               	movwf	(___wmul@multiplier)+1
 11153  1298  00A1               	movlw	0f0h
 11154  1299  30F0               	btfss	(___wmul@multiplier)+1,3
 11155  129A  1DA1               	movlw	0
 11156  129B  3000               	iorwf	(___wmul@multiplier)+1
 11157  129C  04A1               	movlw	0Ah
 11158  129D  300A               	movwf	(___wmul@multiplicand)
 11159  129E  00A2               	movlw	0
 11160  129F  3000               	movwf	((___wmul@multiplicand))+1
 11161  12A0  00A3               	fcall	___wmul
 11162  12A1  160A  118A  225E  160A  118A  	bcf	status, 5	;RP0=0, select bank0
 11163  12A6  1283               	bcf	status, 6	;RP1=0, select bank0
 11164  12A7  1303               	movf	0+(??_BCD_2_DEC+0)+0,w
 11165  12A8  0828               	addwf	(0+(?___wmul)),w
 11166  12A9  0720               	movwf	(?_BCD_2_DEC)
 11167  12AA  00A6               	movf	1+(??_BCD_2_DEC+0)+0,w
 11168  12AB  0829               	skipnc
 11169  12AC  1803               	incf	1+(??_BCD_2_DEC+0)+0,w
 11170  12AD  0A29               	addwf	(1+(?___wmul)),w
 11171  12AE  0721               	movwf	1+(?_BCD_2_DEC)
 11172  12AF  00A7               	goto	l216
 11173  12B0  2AB1               	
 11174                           l2880:	
 11175  12B1                     	line	314
 11176                           	
 11177                           l216:	
 11178  12B1                     	return
 11179  12B1  0008               	opt stack 0
 11180                           GLOBAL	__end_of_BCD_2_DEC
 11181                           	__end_of_BCD_2_DEC:
 11182  12B2                     	signat	_BCD_2_DEC,4218
 11183                           	global	___wmul
 11184                           
 11185 ;; *************** function ___wmul *****************
 11186 ;; Defined at:
 11187 ;;		line 15 in file "C:\Program Files (x86)\Microchip\xc8\v2.00\pic\sources\c90\common\Umul16.c"
 11188 ;; Parameters:    Size  Location     Type
 11189 ;;  multiplier      2    0[BANK0 ] unsigned int 
 11190 ;;  multiplicand    2    2[BANK0 ] unsigned int 
 11191 ;; Auto vars:     Size  Location     Type
 11192 ;;  product         2    4[BANK0 ] unsigned int 
 11193 ;; Return value:  Size  Location     Type
 11194 ;;                  2    0[BANK0 ] unsigned int 
 11195 ;; Registers used:
 11196 ;;		wreg, status,2, status,0
 11197 ;; Tracked objects:
 11198 ;;		On entry : 0/0
 11199 ;;		On exit  : 0/0
 11200 ;;		Unchanged: 0/0
 11201 ;; Data sizes:     COMMON   BANK0   BANK1   BANK3   BANK2
 11202 ;;      Params:         0       4       0       0       0
 11203 ;;      Locals:         0       2       0       0       0
 11204 ;;      Temps:          0       0       0       0       0
 11205 ;;      Totals:         0       6       0       0       0
 11206 ;;Total ram usage:        6 bytes
 11207 ;; Hardware stack levels used:    1
 11208 ;; Hardware stack levels required when called:    4
 11209 ;; This function calls:
 11210 ;;		Nothing
 11211 ;; This function is called by:
 11212 ;;		_BCD_2_DEC
 11213 ;;		_b1
 11214 ;;		_b0
 11215 ;; This function uses a non-reentrant model
 11216 ;;
 11217                           psect	text35,local,class=CODE,delta=2,merge=1,group=1
 11218                           	file	"C:\Program Files (x86)\Microchip\xc8\v2.00\pic\sources\c90\common\Umul16.c"
 11219                           	line	15
 11220                           global __ptext35
 11221                           __ptext35:	;psect for function ___wmul
 11222  125E                     psect	text35
 11223                           	file	"C:\Program Files (x86)\Microchip\xc8\v2.00\pic\sources\c90\common\Umul16.c"
 11224                           	line	15
 11225                           	global	__size_of___wmul
 11226                           	__size_of___wmul	equ	__end_of___wmul-___wmul
 11227  002A                     	
 11228                           ___wmul:	
 11229  125E                     ;incstack = 0
 11230                           	opt	stack 0
 11231                           ; Regs used in ___wmul: [wreg+status,2+status,0]
 11232                           	line	43
 11233                           	
 11234                           l2174:	
 11235  125E                     	bcf	status, 5	;RP0=0, select bank0
 11236  125E  1283               	bcf	status, 6	;RP1=0, select bank0
 11237  125F  1303               	clrf	(___wmul@product)
 11238  1260  01A4               	clrf	(___wmul@product+1)
 11239  1261  01A5               	goto	l2176
 11240  1262  2A63               	line	44
 11241                           	
 11242                           l506:	
 11243  1263                     	line	45
 11244                           	
 11245                           l2176:	
 11246  1263                     	btfss	(___wmul@multiplier),(0)&7
 11247  1263  1C20               	goto	u1971
 11248  1264  2A66               	goto	u1970
 11249  1265  2A67               u1971:
 11250  1266                     	goto	l507
 11251  1266  2A6D               u1970:
 11252  1267                     	line	46
 11253                           	
 11254                           l2178:	
 11255  1267                     	movf	(___wmul@multiplicand),w
 11256  1267  0822               	addwf	(___wmul@product),f
 11257  1268  07A4               	skipnc
 11258  1269  1803               	incf	(___wmul@product+1),f
 11259  126A  0AA5               	movf	(___wmul@multiplicand+1),w
 11260  126B  0823               	addwf	(___wmul@product+1),f
 11261  126C  07A5               	
 11262                           l507:	
 11263  126D                     	line	47
 11264                           	movlw	01h
 11265  126D  3001               	
 11266                           u1985:
 11267  126E                     	clrc
 11268  126E  1003               	rlf	(___wmul@multiplicand),f
 11269  126F  0DA2               	rlf	(___wmul@multiplicand+1),f
 11270  1270  0DA3               	addlw	-1
 11271  1271  3EFF               	skipz
 11272  1272  1D03               	goto	u1985
 11273  1273  2A6E               	line	48
 11274                           	
 11275                           l2180:	
 11276  1274                     	movlw	01h
 11277  1274  3001               	
 11278                           u1995:
 11279  1275                     	clrc
 11280  1275  1003               	rrf	(___wmul@multiplier+1),f
 11281  1276  0CA1               	rrf	(___wmul@multiplier),f
 11282  1277  0CA0               	addlw	-1
 11283  1278  3EFF               	skipz
 11284  1279  1D03               	goto	u1995
 11285  127A  2A75               	line	49
 11286                           	
 11287                           l2182:	
 11288  127B                     	movf	((___wmul@multiplier)),w
 11289  127B  0820               iorwf	((___wmul@multiplier+1)),w
 11290  127C  0421               	btfss	status,2
 11291  127D  1D03               	goto	u2001
 11292  127E  2A80               	goto	u2000
 11293  127F  2A81               u2001:
 11294  1280                     	goto	l2176
 11295  1280  2A63               u2000:
 11296  1281                     	goto	l2184
 11297  1281  2A82               	
 11298                           l508:	
 11299  1282                     	line	52
 11300                           	
 11301                           l2184:	
 11302  1282                     	movf	(___wmul@product+1),w
 11303  1282  0825               	movwf	(?___wmul+1)
 11304  1283  00A1               	movf	(___wmul@product),w
 11305  1284  0824               	movwf	(?___wmul)
 11306  1285  00A0               	goto	l509
 11307  1286  2A87               	
 11308                           l2186:	
 11309  1287                     	line	53
 11310                           	
 11311                           l509:	
 11312  1287                     	return
 11313  1287  0008               	opt stack 0
 11314                           GLOBAL	__end_of___wmul
 11315                           	__end_of___wmul:
 11316  1288                     	signat	___wmul,8314
 11317                           	global	_Set_Time_Date
 11318                           
 11319 ;; *************** function _Set_Time_Date *****************
 11320 ;; Defined at:
 11321 ;;		line 323 in file "Proyecto1_master.c"
 11322 ;; Parameters:    Size  Location     Type
 11323 ;;		None
 11324 ;; Auto vars:     Size  Location     Type
 11325 ;;		None
 11326 ;; Return value:  Size  Location     Type
 11327 ;;                  1    wreg      void 
 11328 ;; Registers used:
 11329 ;;		wreg, status,2, status,0, pclath, cstack
 11330 ;; Tracked objects:
 11331 ;;		On entry : 0/0
 11332 ;;		On exit  : 0/0
 11333 ;;		Unchanged: 0/0
 11334 ;; Data sizes:     COMMON   BANK0   BANK1   BANK3   BANK2
 11335 ;;      Params:         0       0       0       0       0
 11336 ;;      Locals:         0       0       0       0       0
 11337 ;;      Temps:          0       0       0       0       0
 11338 ;;      Totals:         0       0       0       0       0
 11339 ;;Total ram usage:        0 bytes
 11340 ;; Hardware stack levels used:    1
 11341 ;; Hardware stack levels required when called:    6
 11342 ;; This function calls:
 11343 ;;		_DEC_2_BCD
 11344 ;;		_I2C_Master_Start
 11345 ;;		_I2C_Master_Stop
 11346 ;;		_I2C_Master_Write
 11347 ;; This function is called by:
 11348 ;;		_main
 11349 ;; This function uses a non-reentrant model
 11350 ;;
 11351                           psect	text36,local,class=CODE,delta=2,merge=1,group=0
 11352                           	file	"Proyecto1_master.c"
 11353                           	line	323
 11354                           global __ptext36
 11355                           __ptext36:	;psect for function _Set_Time_Date
 11356  0D0A                     psect	text36
 11357                           	file	"Proyecto1_master.c"
 11358                           	line	323
 11359                           	global	__size_of_Set_Time_Date
 11360                           	__size_of_Set_Time_Date	equ	__end_of_Set_Time_Date-_Set_Time_Date
 11361  00C7                     	
 11362                           _Set_Time_Date:	
 11363  0D0A                     ;incstack = 0
 11364                           	opt	stack 1
 11365                           ; Regs used in _Set_Time_Date: [wreg+status,2+status,0+pclath+cstack]
 11366                           	line	324
 11367                           	
 11368                           l2976:	
 11369  0D0A                     ;Proyecto1_master.c: 324:     I2C_Master_Start();
 11370                           	fcall	_I2C_Master_Start
 11371  0D0A  160A  118A  217F  120A  158A  	line	325
 11372                           ;Proyecto1_master.c: 325:     I2C_Master_Write(0xD0);
 11373                           	movlw	0D0h
 11374  0D0F  30D0               	bcf	status, 5	;RP0=0, select bank0
 11375  0D10  1283               	bcf	status, 6	;RP1=0, select bank0
 11376  0D11  1303               	movwf	(I2C_Master_Write@d)
 11377  0D12  00AD               	movlw	0
 11378  0D13  3000               	movwf	((I2C_Master_Write@d))+1
 11379  0D14  00AE               	fcall	_I2C_Master_Write
 11380  0D15  160A  118A  2191  120A  158A  	line	326
 11381                           ;Proyecto1_master.c: 326:     I2C_Master_Write(0);
 11382                           	movlw	0
 11383  0D1A  3000               	bcf	status, 5	;RP0=0, select bank0
 11384  0D1B  1283               	bcf	status, 6	;RP1=0, select bank0
 11385  0D1C  1303               	movwf	(I2C_Master_Write@d)
 11386  0D1D  00AD               	movwf	(I2C_Master_Write@d+1)
 11387  0D1E  00AE               	fcall	_I2C_Master_Write
 11388  0D1F  160A  118A  2191  120A  158A  	line	327
 11389                           ;Proyecto1_master.c: 327:     I2C_Master_Write(DEC_2_BCD(sec));
 11390                           	movf	(_sec+1),w
 11391  0D24  087A               	bcf	status, 5	;RP0=0, select bank0
 11392  0D25  1283               	bcf	status, 6	;RP1=0, select bank0
 11393  0D26  1303               	movwf	(DEC_2_BCD@to_convert+1)
 11394  0D27  00AA               	movf	(_sec),w
 11395  0D28  0879               	movwf	(DEC_2_BCD@to_convert)
 11396  0D29  00A9               	fcall	_DEC_2_BCD
 11397  0D2A  160A  118A  240F  120A  158A  	bcf	status, 5	;RP0=0, select bank0
 11398  0D2F  1283               	bcf	status, 6	;RP1=0, select bank0
 11399  0D30  1303               	movf	(1+(?_DEC_2_BCD)),w
 11400  0D31  082A               	movwf	(I2C_Master_Write@d+1)
 11401  0D32  00AE               	movf	(0+(?_DEC_2_BCD)),w
 11402  0D33  0829               	movwf	(I2C_Master_Write@d)
 11403  0D34  00AD               	fcall	_I2C_Master_Write
 11404  0D35  160A  118A  2191  120A  158A  	line	328
 11405                           ;Proyecto1_master.c: 328:     I2C_Master_Write(DEC_2_BCD(min));
 11406                           	movf	(_min+1),w
 11407  0D3A  087D               	bcf	status, 5	;RP0=0, select bank0
 11408  0D3B  1283               	bcf	status, 6	;RP1=0, select bank0
 11409  0D3C  1303               	movwf	(DEC_2_BCD@to_convert+1)
 11410  0D3D  00AA               	movf	(_min),w
 11411  0D3E  087C               	movwf	(DEC_2_BCD@to_convert)
 11412  0D3F  00A9               	fcall	_DEC_2_BCD
 11413  0D40  160A  118A  240F  120A  158A  	bcf	status, 5	;RP0=0, select bank0
 11414  0D45  1283               	bcf	status, 6	;RP1=0, select bank0
 11415  0D46  1303               	movf	(1+(?_DEC_2_BCD)),w
 11416  0D47  082A               	movwf	(I2C_Master_Write@d+1)
 11417  0D48  00AE               	movf	(0+(?_DEC_2_BCD)),w
 11418  0D49  0829               	movwf	(I2C_Master_Write@d)
 11419  0D4A  00AD               	fcall	_I2C_Master_Write
 11420  0D4B  160A  118A  2191  120A  158A  	line	329
 11421                           ;Proyecto1_master.c: 329:     I2C_Master_Write(DEC_2_BCD(hour));
 11422                           	bsf	status, 5	;RP0=1, select bank1
 11423  0D50  1683               	bcf	status, 6	;RP1=0, select bank1
 11424  0D51  1303               	movf	(_hour+1)^080h,w
 11425  0D52  0847               	bcf	status, 5	;RP0=0, select bank0
 11426  0D53  1283               	bcf	status, 6	;RP1=0, select bank0
 11427  0D54  1303               	movwf	(DEC_2_BCD@to_convert+1)
 11428  0D55  00AA               	bsf	status, 5	;RP0=1, select bank1
 11429  0D56  1683               	bcf	status, 6	;RP1=0, select bank1
 11430  0D57  1303               	movf	(_hour)^080h,w
 11431  0D58  0846               	bcf	status, 5	;RP0=0, select bank0
 11432  0D59  1283               	bcf	status, 6	;RP1=0, select bank0
 11433  0D5A  1303               	movwf	(DEC_2_BCD@to_convert)
 11434  0D5B  00A9               	fcall	_DEC_2_BCD
 11435  0D5C  160A  118A  240F  120A  158A  	bcf	status, 5	;RP0=0, select bank0
 11436  0D61  1283               	bcf	status, 6	;RP1=0, select bank0
 11437  0D62  1303               	movf	(1+(?_DEC_2_BCD)),w
 11438  0D63  082A               	movwf	(I2C_Master_Write@d+1)
 11439  0D64  00AE               	movf	(0+(?_DEC_2_BCD)),w
 11440  0D65  0829               	movwf	(I2C_Master_Write@d)
 11441  0D66  00AD               	fcall	_I2C_Master_Write
 11442  0D67  160A  118A  2191  120A  158A  	line	330
 11443                           ;Proyecto1_master.c: 330:     I2C_Master_Write(1);
 11444                           	movlw	01h
 11445  0D6C  3001               	bcf	status, 5	;RP0=0, select bank0
 11446  0D6D  1283               	bcf	status, 6	;RP1=0, select bank0
 11447  0D6E  1303               	movwf	(I2C_Master_Write@d)
 11448  0D6F  00AD               	movlw	0
 11449  0D70  3000               	movwf	((I2C_Master_Write@d))+1
 11450  0D71  00AE               	fcall	_I2C_Master_Write
 11451  0D72  160A  118A  2191  120A  158A  	line	331
 11452                           ;Proyecto1_master.c: 331:     I2C_Master_Write(DEC_2_BCD(date));
 11453                           	bsf	status, 5	;RP0=1, select bank1
 11454  0D77  1683               	bcf	status, 6	;RP1=0, select bank1
 11455  0D78  1303               	movf	(_date+1)^080h,w
 11456  0D79  0845               	bcf	status, 5	;RP0=0, select bank0
 11457  0D7A  1283               	bcf	status, 6	;RP1=0, select bank0
 11458  0D7B  1303               	movwf	(DEC_2_BCD@to_convert+1)
 11459  0D7C  00AA               	bsf	status, 5	;RP0=1, select bank1
 11460  0D7D  1683               	bcf	status, 6	;RP1=0, select bank1
 11461  0D7E  1303               	movf	(_date)^080h,w
 11462  0D7F  0844               	bcf	status, 5	;RP0=0, select bank0
 11463  0D80  1283               	bcf	status, 6	;RP1=0, select bank0
 11464  0D81  1303               	movwf	(DEC_2_BCD@to_convert)
 11465  0D82  00A9               	fcall	_DEC_2_BCD
 11466  0D83  160A  118A  240F  120A  158A  	bcf	status, 5	;RP0=0, select bank0
 11467  0D88  1283               	bcf	status, 6	;RP1=0, select bank0
 11468  0D89  1303               	movf	(1+(?_DEC_2_BCD)),w
 11469  0D8A  082A               	movwf	(I2C_Master_Write@d+1)
 11470  0D8B  00AE               	movf	(0+(?_DEC_2_BCD)),w
 11471  0D8C  0829               	movwf	(I2C_Master_Write@d)
 11472  0D8D  00AD               	fcall	_I2C_Master_Write
 11473  0D8E  160A  118A  2191  120A  158A  	line	332
 11474                           ;Proyecto1_master.c: 332:     I2C_Master_Write(DEC_2_BCD(month));
 11475                           	bsf	status, 5	;RP0=1, select bank1
 11476  0D93  1683               	bcf	status, 6	;RP1=0, select bank1
 11477  0D94  1303               	movf	(_month+1)^080h,w
 11478  0D95  0841               	bcf	status, 5	;RP0=0, select bank0
 11479  0D96  1283               	bcf	status, 6	;RP1=0, select bank0
 11480  0D97  1303               	movwf	(DEC_2_BCD@to_convert+1)
 11481  0D98  00AA               	bsf	status, 5	;RP0=1, select bank1
 11482  0D99  1683               	bcf	status, 6	;RP1=0, select bank1
 11483  0D9A  1303               	movf	(_month)^080h,w
 11484  0D9B  0840               	bcf	status, 5	;RP0=0, select bank0
 11485  0D9C  1283               	bcf	status, 6	;RP1=0, select bank0
 11486  0D9D  1303               	movwf	(DEC_2_BCD@to_convert)
 11487  0D9E  00A9               	fcall	_DEC_2_BCD
 11488  0D9F  160A  118A  240F  120A  158A  	bcf	status, 5	;RP0=0, select bank0
 11489  0DA4  1283               	bcf	status, 6	;RP1=0, select bank0
 11490  0DA5  1303               	movf	(1+(?_DEC_2_BCD)),w
 11491  0DA6  082A               	movwf	(I2C_Master_Write@d+1)
 11492  0DA7  00AE               	movf	(0+(?_DEC_2_BCD)),w
 11493  0DA8  0829               	movwf	(I2C_Master_Write@d)
 11494  0DA9  00AD               	fcall	_I2C_Master_Write
 11495  0DAA  160A  118A  2191  120A  158A  	line	333
 11496                           ;Proyecto1_master.c: 333:     I2C_Master_Write(DEC_2_BCD(year));
 11497                           	bsf	status, 5	;RP0=1, select bank1
 11498  0DAF  1683               	bcf	status, 6	;RP1=0, select bank1
 11499  0DB0  1303               	movf	(_year+1)^080h,w
 11500  0DB1  083F               	bcf	status, 5	;RP0=0, select bank0
 11501  0DB2  1283               	bcf	status, 6	;RP1=0, select bank0
 11502  0DB3  1303               	movwf	(DEC_2_BCD@to_convert+1)
 11503  0DB4  00AA               	bsf	status, 5	;RP0=1, select bank1
 11504  0DB5  1683               	bcf	status, 6	;RP1=0, select bank1
 11505  0DB6  1303               	movf	(_year)^080h,w
 11506  0DB7  083E               	bcf	status, 5	;RP0=0, select bank0
 11507  0DB8  1283               	bcf	status, 6	;RP1=0, select bank0
 11508  0DB9  1303               	movwf	(DEC_2_BCD@to_convert)
 11509  0DBA  00A9               	fcall	_DEC_2_BCD
 11510  0DBB  160A  118A  240F  120A  158A  	bcf	status, 5	;RP0=0, select bank0
 11511  0DC0  1283               	bcf	status, 6	;RP1=0, select bank0
 11512  0DC1  1303               	movf	(1+(?_DEC_2_BCD)),w
 11513  0DC2  082A               	movwf	(I2C_Master_Write@d+1)
 11514  0DC3  00AE               	movf	(0+(?_DEC_2_BCD)),w
 11515  0DC4  0829               	movwf	(I2C_Master_Write@d)
 11516  0DC5  00AD               	fcall	_I2C_Master_Write
 11517  0DC6  160A  118A  2191  120A  158A  	line	334
 11518                           ;Proyecto1_master.c: 334:     I2C_Master_Stop();
 11519                           	fcall	_I2C_Master_Stop
 11520  0DCB  160A  118A  2188  120A  158A  	line	336
 11521                           	
 11522                           l222:	
 11523  0DD0                     	return
 11524  0DD0  0008               	opt stack 0
 11525                           GLOBAL	__end_of_Set_Time_Date
 11526                           	__end_of_Set_Time_Date:
 11527  0DD1                     	signat	_Set_Time_Date,89
 11528                           	global	_I2C_Master_Write
 11529                           
 11530 ;; *************** function _I2C_Master_Write *****************
 11531 ;; Defined at:
 11532 ;;		line 62 in file "I2C.c"
 11533 ;; Parameters:    Size  Location     Type
 11534 ;;  d               2   13[BANK0 ] unsigned int 
 11535 ;; Auto vars:     Size  Location     Type
 11536 ;;		None
 11537 ;; Return value:  Size  Location     Type
 11538 ;;                  1    wreg      void 
 11539 ;; Registers used:
 11540 ;;		wreg, status,2, status,0, pclath, cstack
 11541 ;; Tracked objects:
 11542 ;;		On entry : 0/0
 11543 ;;		On exit  : 0/0
 11544 ;;		Unchanged: 0/0
 11545 ;; Data sizes:     COMMON   BANK0   BANK1   BANK3   BANK2
 11546 ;;      Params:         0       2       0       0       0
 11547 ;;      Locals:         0       0       0       0       0
 11548 ;;      Temps:          0       0       0       0       0
 11549 ;;      Totals:         0       2       0       0       0
 11550 ;;Total ram usage:        2 bytes
 11551 ;; Hardware stack levels used:    1
 11552 ;; Hardware stack levels required when called:    5
 11553 ;; This function calls:
 11554 ;;		_I2C_Master_Wait
 11555 ;; This function is called by:
 11556 ;;		_Set_Time_Date
 11557 ;;		_Update_Current_Date_Time
 11558 ;;		_slave_1
 11559 ;;		_slave_2
 11560 ;;		_slave_3
 11561 ;; This function uses a non-reentrant model
 11562 ;;
 11563                           psect	text37,local,class=CODE,delta=2,merge=1,group=0
 11564                           	file	"I2C.c"
 11565                           	line	62
 11566                           global __ptext37
 11567                           __ptext37:	;psect for function _I2C_Master_Write
 11568  1191                     psect	text37
 11569                           	file	"I2C.c"
 11570                           	line	62
 11571                           	global	__size_of_I2C_Master_Write
 11572                           	__size_of_I2C_Master_Write	equ	__end_of_I2C_Master_Write-_I2C_Master_Write
 11573  000A                     	
 11574                           _I2C_Master_Write:	
 11575  1191                     ;incstack = 0
 11576                           	opt	stack 0
 11577                           ; Regs used in _I2C_Master_Write: [wreg+status,2+status,0+pclath+cstack]
 11578                           	line	64
 11579                           	
 11580                           l2692:	
 11581  1191                     ;I2C.c: 62: void I2C_Master_Write(unsigned d);I2C.c: 63: {;I2C.c: 64:     I2C_Master_Wai
                                 t();
 11582                           	fcall	_I2C_Master_Wait
 11583  1191  160A  118A  21A5  160A  118A  	line	65
 11584                           	
 11585                           l2694:	
 11586  1196                     ;I2C.c: 65:     SSPBUF = d;
 11587                           	bcf	status, 5	;RP0=0, select bank0
 11588  1196  1283               	bcf	status, 6	;RP1=0, select bank0
 11589  1197  1303               	movf	(I2C_Master_Write@d),w
 11590  1198  082D               	movwf	(19)	;volatile
 11591  1199  0093               	line	66
 11592                           	
 11593                           l342:	
 11594  119A                     	return
 11595  119A  0008               	opt stack 0
 11596                           GLOBAL	__end_of_I2C_Master_Write
 11597                           	__end_of_I2C_Master_Write:
 11598  119B                     	signat	_I2C_Master_Write,4217
 11599                           	global	_I2C_Master_Stop
 11600                           
 11601 ;; *************** function _I2C_Master_Stop *****************
 11602 ;; Defined at:
 11603 ;;		line 52 in file "I2C.c"
 11604 ;; Parameters:    Size  Location     Type
 11605 ;;		None
 11606 ;; Auto vars:     Size  Location     Type
 11607 ;;		None
 11608 ;; Return value:  Size  Location     Type
 11609 ;;                  1    wreg      void 
 11610 ;; Registers used:
 11611 ;;		wreg, status,2, status,0, pclath, cstack
 11612 ;; Tracked objects:
 11613 ;;		On entry : 0/0
 11614 ;;		On exit  : 0/0
 11615 ;;		Unchanged: 0/0
 11616 ;; Data sizes:     COMMON   BANK0   BANK1   BANK3   BANK2
 11617 ;;      Params:         0       0       0       0       0
 11618 ;;      Locals:         0       0       0       0       0
 11619 ;;      Temps:          0       0       0       0       0
 11620 ;;      Totals:         0       0       0       0       0
 11621 ;;Total ram usage:        0 bytes
 11622 ;; Hardware stack levels used:    1
 11623 ;; Hardware stack levels required when called:    5
 11624 ;; This function calls:
 11625 ;;		_I2C_Master_Wait
 11626 ;; This function is called by:
 11627 ;;		_Set_Time_Date
 11628 ;;		_Update_Current_Date_Time
 11629 ;;		_slave_1
 11630 ;;		_slave_2
 11631 ;;		_slave_3
 11632 ;; This function uses a non-reentrant model
 11633 ;;
 11634                           psect	text38,local,class=CODE,delta=2,merge=1,group=0
 11635                           	line	52
 11636                           global __ptext38
 11637                           __ptext38:	;psect for function _I2C_Master_Stop
 11638  1188                     psect	text38
 11639                           	file	"I2C.c"
 11640                           	line	52
 11641                           	global	__size_of_I2C_Master_Stop
 11642                           	__size_of_I2C_Master_Stop	equ	__end_of_I2C_Master_Stop-_I2C_Master_Stop
 11643  0009                     	
 11644                           _I2C_Master_Stop:	
 11645  1188                     ;incstack = 0
 11646                           	opt	stack 0
 11647                           ; Regs used in _I2C_Master_Stop: [wreg+status,2+status,0+pclath+cstack]
 11648                           	line	54
 11649                           	
 11650                           l2696:	
 11651  1188                     ;I2C.c: 54:     I2C_Master_Wait();
 11652                           	fcall	_I2C_Master_Wait
 11653  1188  160A  118A  21A5  160A  118A  	line	55
 11654                           	
 11655                           l2698:	
 11656  118D                     ;I2C.c: 55:     SSPCON2bits.PEN = 1;
 11657                           	bsf	status, 5	;RP0=1, select bank1
 11658  118D  1683               	bcf	status, 6	;RP1=0, select bank1
 11659  118E  1303               	bsf	(145)^080h,2	;volatile
 11660  118F  1511               	line	56
 11661                           	
 11662                           l339:	
 11663  1190                     	return
 11664  1190  0008               	opt stack 0
 11665                           GLOBAL	__end_of_I2C_Master_Stop
 11666                           	__end_of_I2C_Master_Stop:
 11667  1191                     	signat	_I2C_Master_Stop,89
 11668                           	global	_I2C_Master_Start
 11669                           
 11670 ;; *************** function _I2C_Master_Start *****************
 11671 ;; Defined at:
 11672 ;;		line 36 in file "I2C.c"
 11673 ;; Parameters:    Size  Location     Type
 11674 ;;		None
 11675 ;; Auto vars:     Size  Location     Type
 11676 ;;		None
 11677 ;; Return value:  Size  Location     Type
 11678 ;;                  1    wreg      void 
 11679 ;; Registers used:
 11680 ;;		wreg, status,2, status,0, pclath, cstack
 11681 ;; Tracked objects:
 11682 ;;		On entry : 0/0
 11683 ;;		On exit  : 0/0
 11684 ;;		Unchanged: 0/0
 11685 ;; Data sizes:     COMMON   BANK0   BANK1   BANK3   BANK2
 11686 ;;      Params:         0       0       0       0       0
 11687 ;;      Locals:         0       0       0       0       0
 11688 ;;      Temps:          0       0       0       0       0
 11689 ;;      Totals:         0       0       0       0       0
 11690 ;;Total ram usage:        0 bytes
 11691 ;; Hardware stack levels used:    1
 11692 ;; Hardware stack levels required when called:    5
 11693 ;; This function calls:
 11694 ;;		_I2C_Master_Wait
 11695 ;; This function is called by:
 11696 ;;		_Set_Time_Date
 11697 ;;		_Update_Current_Date_Time
 11698 ;;		_slave_1
 11699 ;;		_slave_2
 11700 ;;		_slave_3
 11701 ;; This function uses a non-reentrant model
 11702 ;;
 11703                           psect	text39,local,class=CODE,delta=2,merge=1,group=0
 11704                           	line	36
 11705                           global __ptext39
 11706                           __ptext39:	;psect for function _I2C_Master_Start
 11707  117F                     psect	text39
 11708                           	file	"I2C.c"
 11709                           	line	36
 11710                           	global	__size_of_I2C_Master_Start
 11711                           	__size_of_I2C_Master_Start	equ	__end_of_I2C_Master_Start-_I2C_Master_Start
 11712  0009                     	
 11713                           _I2C_Master_Start:	
 11714  117F                     ;incstack = 0
 11715                           	opt	stack 0
 11716                           ; Regs used in _I2C_Master_Start: [wreg+status,2+status,0+pclath+cstack]
 11717                           	line	38
 11718                           	
 11719                           l2688:	
 11720  117F                     ;I2C.c: 38:     I2C_Master_Wait();
 11721                           	fcall	_I2C_Master_Wait
 11722  117F  160A  118A  21A5  160A  118A  	line	39
 11723                           	
 11724                           l2690:	
 11725  1184                     ;I2C.c: 39:     SSPCON2bits.SEN = 1;
 11726                           	bsf	status, 5	;RP0=1, select bank1
 11727  1184  1683               	bcf	status, 6	;RP1=0, select bank1
 11728  1185  1303               	bsf	(145)^080h,0	;volatile
 11729  1186  1411               	line	40
 11730                           	
 11731                           l333:	
 11732  1187                     	return
 11733  1187  0008               	opt stack 0
 11734                           GLOBAL	__end_of_I2C_Master_Start
 11735                           	__end_of_I2C_Master_Start:
 11736  1188                     	signat	_I2C_Master_Start,89
 11737                           	global	_I2C_Master_Wait
 11738                           
 11739 ;; *************** function _I2C_Master_Wait *****************
 11740 ;; Defined at:
 11741 ;;		line 29 in file "I2C.c"
 11742 ;; Parameters:    Size  Location     Type
 11743 ;;		None
 11744 ;; Auto vars:     Size  Location     Type
 11745 ;;		None
 11746 ;; Return value:  Size  Location     Type
 11747 ;;                  1    wreg      void 
 11748 ;; Registers used:
 11749 ;;		wreg, status,2
 11750 ;; Tracked objects:
 11751 ;;		On entry : 0/0
 11752 ;;		On exit  : 0/0
 11753 ;;		Unchanged: 0/0
 11754 ;; Data sizes:     COMMON   BANK0   BANK1   BANK3   BANK2
 11755 ;;      Params:         0       0       0       0       0
 11756 ;;      Locals:         0       0       0       0       0
 11757 ;;      Temps:          0       0       0       0       0
 11758 ;;      Totals:         0       0       0       0       0
 11759 ;;Total ram usage:        0 bytes
 11760 ;; Hardware stack levels used:    1
 11761 ;; Hardware stack levels required when called:    4
 11762 ;; This function calls:
 11763 ;;		Nothing
 11764 ;; This function is called by:
 11765 ;;		_I2C_Master_Start
 11766 ;;		_I2C_Master_Stop
 11767 ;;		_I2C_Master_Write
 11768 ;;		_I2C_Master_Read
 11769 ;;		_I2C_Master_RepeatedStart
 11770 ;; This function uses a non-reentrant model
 11771 ;;
 11772                           psect	text40,local,class=CODE,delta=2,merge=1,group=0
 11773                           	line	29
 11774                           global __ptext40
 11775                           __ptext40:	;psect for function _I2C_Master_Wait
 11776  11A5                     psect	text40
 11777                           	file	"I2C.c"
 11778                           	line	29
 11779                           	global	__size_of_I2C_Master_Wait
 11780                           	__size_of_I2C_Master_Wait	equ	__end_of_I2C_Master_Wait-_I2C_Master_Wait
 11781  000F                     	
 11782                           _I2C_Master_Wait:	
 11783  11A5                     ;incstack = 0
 11784                           	opt	stack 0
 11785                           ; Regs used in _I2C_Master_Wait: [wreg+status,2]
 11786                           	line	31
 11787                           	
 11788                           l2160:	
 11789  11A5                     ;I2C.c: 31:     while ((SSPSTAT & 0x04) || (SSPCON2 & 0x1F));
 11790                           	goto	l327
 11791  11A5  29A6               	
 11792                           l328:	
 11793  11A6                     	
 11794                           l327:	
 11795  11A6                     	bsf	status, 5	;RP0=1, select bank1
 11796  11A6  1683               	bcf	status, 6	;RP1=0, select bank1
 11797  11A7  1303               	btfsc	(148)^080h,(2)&7	;volatile
 11798  11A8  1914               	goto	u1951
 11799  11A9  29AB               	goto	u1950
 11800  11AA  29AC               u1951:
 11801  11AB                     	goto	l327
 11802  11AB  29A6               u1950:
 11803  11AC                     	
 11804                           l2162:	
 11805  11AC                     	movf	(145)^080h,w	;volatile
 11806  11AC  0811               	andlw	01Fh
 11807  11AD  391F               	btfss	status,2
 11808  11AE  1D03               	goto	u1961
 11809  11AF  29B1               	goto	u1960
 11810  11B0  29B2               u1961:
 11811  11B1                     	goto	l327
 11812  11B1  29A6               u1960:
 11813  11B2                     	goto	l330
 11814  11B2  29B3               	
 11815                           l329:	
 11816  11B3                     	line	32
 11817                           	
 11818                           l330:	
 11819  11B3                     	return
 11820  11B3  0008               	opt stack 0
 11821                           GLOBAL	__end_of_I2C_Master_Wait
 11822                           	__end_of_I2C_Master_Wait:
 11823  11B4                     	signat	_I2C_Master_Wait,89
 11824                           	global	_DEC_2_BCD
 11825                           
 11826 ;; *************** function _DEC_2_BCD *****************
 11827 ;; Defined at:
 11828 ;;		line 317 in file "Proyecto1_master.c"
 11829 ;; Parameters:    Size  Location     Type
 11830 ;;  to_convert      2    9[BANK0 ] int 
 11831 ;; Auto vars:     Size  Location     Type
 11832 ;;		None
 11833 ;; Return value:  Size  Location     Type
 11834 ;;                  2    9[BANK0 ] int 
 11835 ;; Registers used:
 11836 ;;		wreg, status,2, status,0, pclath, cstack
 11837 ;; Tracked objects:
 11838 ;;		On entry : 0/0
 11839 ;;		On exit  : 0/0
 11840 ;;		Unchanged: 0/0
 11841 ;; Data sizes:     COMMON   BANK0   BANK1   BANK3   BANK2
 11842 ;;      Params:         0       2       0       0       0
 11843 ;;      Locals:         0       0       0       0       0
 11844 ;;      Temps:          0       2       0       0       0
 11845 ;;      Totals:         0       4       0       0       0
 11846 ;;Total ram usage:        4 bytes
 11847 ;; Hardware stack levels used:    1
 11848 ;; Hardware stack levels required when called:    5
 11849 ;; This function calls:
 11850 ;;		___awdiv
 11851 ;;		___awmod
 11852 ;; This function is called by:
 11853 ;;		_Set_Time_Date
 11854 ;; This function uses a non-reentrant model
 11855 ;;
 11856                           psect	text41,local,class=CODE,delta=2,merge=1,group=0
 11857                           	file	"Proyecto1_master.c"
 11858                           	line	317
 11859                           global __ptext41
 11860                           __ptext41:	;psect for function _DEC_2_BCD
 11861  140F                     psect	text41
 11862                           	file	"Proyecto1_master.c"
 11863                           	line	317
 11864                           	global	__size_of_DEC_2_BCD
 11865                           	__size_of_DEC_2_BCD	equ	__end_of_DEC_2_BCD-_DEC_2_BCD
 11866  0037                     	
 11867                           _DEC_2_BCD:	
 11868  140F                     ;incstack = 0
 11869                           	opt	stack 1
 11870                           ; Regs used in _DEC_2_BCD: [wreg+status,2+status,0+pclath+cstack]
 11871                           	line	318
 11872                           	
 11873                           l2882:	
 11874  140F                     ;Proyecto1_master.c: 318:    return ((to_convert / 10) << 4) + (to_convert % 10);
 11875                           	movlw	0Ah
 11876  140F  300A               	bcf	status, 5	;RP0=0, select bank0
 11877  1410  1283               	bcf	status, 6	;RP1=0, select bank0
 11878  1411  1303               	movwf	(___awdiv@divisor)
 11879  1412  00A0               	movlw	0
 11880  1413  3000               	movwf	((___awdiv@divisor))+1
 11881  1414  00A1               	movf	(DEC_2_BCD@to_convert+1),w
 11882  1415  082A               	movwf	(___awdiv@dividend+1)
 11883  1416  00A3               	movf	(DEC_2_BCD@to_convert),w
 11884  1417  0829               	movwf	(___awdiv@dividend)
 11885  1418  00A2               	fcall	___awdiv
 11886  1419  160A  118A  26A2  160A  118A  	bcf	status, 5	;RP0=0, select bank0
 11887  141E  1283               	bcf	status, 6	;RP1=0, select bank0
 11888  141F  1303               	movf	(0+?___awdiv),w
 11889  1420  0820               	movwf	(??_DEC_2_BCD+0)+0
 11890  1421  00AB               	movf	(1+?___awdiv),w
 11891  1422  0821               	movwf	((??_DEC_2_BCD+0)+0+1)
 11892  1423  00AC               	swapf	(??_DEC_2_BCD+0)+0,f
 11893  1424  0EAB               	swapf	(??_DEC_2_BCD+0)+1,f
 11894  1425  0EAC               	movlw	0f0h
 11895  1426  30F0               	andwf	(??_DEC_2_BCD+0)+1,f
 11896  1427  05AC               	movf	(??_DEC_2_BCD+0)+0,w
 11897  1428  082B               	andlw	0fh
 11898  1429  390F               	iorwf	(??_DEC_2_BCD+0)+1,f
 11899  142A  04AC               	movlw	0f0h
 11900  142B  30F0               	andwf	(??_DEC_2_BCD+0)+0,f
 11901  142C  05AB               	movlw	0Ah
 11902  142D  300A               	movwf	(___awmod@divisor)
 11903  142E  00A0               	movlw	0
 11904  142F  3000               	movwf	((___awmod@divisor))+1
 11905  1430  00A1               	movf	(DEC_2_BCD@to_convert+1),w
 11906  1431  082A               	movwf	(___awmod@dividend+1)
 11907  1432  00A3               	movf	(DEC_2_BCD@to_convert),w
 11908  1433  0829               	movwf	(___awmod@dividend)
 11909  1434  00A2               	fcall	___awmod
 11910  1435  160A  118A  263D  160A  118A  	bcf	status, 5	;RP0=0, select bank0
 11911  143A  1283               	bcf	status, 6	;RP1=0, select bank0
 11912  143B  1303               	movf	(0+(?___awmod)),w
 11913  143C  0820               	addwf	0+(??_DEC_2_BCD+0)+0,w
 11914  143D  072B               	movwf	(?_DEC_2_BCD)
 11915  143E  00A9               	movf	(1+(?___awmod)),w
 11916  143F  0821               	skipnc
 11917  1440  1803               	incf	(1+(?___awmod)),w
 11918  1441  0A21               	addwf	1+(??_DEC_2_BCD+0)+0,w
 11919  1442  072C               	movwf	1+(?_DEC_2_BCD)
 11920  1443  00AA               	goto	l219
 11921  1444  2C45               	
 11922                           l2884:	
 11923  1445                     	line	319
 11924                           	
 11925                           l219:	
 11926  1445                     	return
 11927  1445  0008               	opt stack 0
 11928                           GLOBAL	__end_of_DEC_2_BCD
 11929                           	__end_of_DEC_2_BCD:
 11930  1446                     	signat	_DEC_2_BCD,4218
 11931                           	global	___awmod
 11932                           
 11933 ;; *************** function ___awmod *****************
 11934 ;; Defined at:
 11935 ;;		line 5 in file "C:\Program Files (x86)\Microchip\xc8\v2.00\pic\sources\c90\common\awmod.c"
 11936 ;; Parameters:    Size  Location     Type
 11937 ;;  divisor         2    0[BANK0 ] int 
 11938 ;;  dividend        2    2[BANK0 ] int 
 11939 ;; Auto vars:     Size  Location     Type
 11940 ;;  sign            1    6[BANK0 ] unsigned char 
 11941 ;;  counter         1    5[BANK0 ] unsigned char 
 11942 ;; Return value:  Size  Location     Type
 11943 ;;                  2    0[BANK0 ] int 
 11944 ;; Registers used:
 11945 ;;		wreg, status,2, status,0
 11946 ;; Tracked objects:
 11947 ;;		On entry : 0/0
 11948 ;;		On exit  : 0/0
 11949 ;;		Unchanged: 0/0
 11950 ;; Data sizes:     COMMON   BANK0   BANK1   BANK3   BANK2
 11951 ;;      Params:         0       4       0       0       0
 11952 ;;      Locals:         0       2       0       0       0
 11953 ;;      Temps:          0       1       0       0       0
 11954 ;;      Totals:         0       7       0       0       0
 11955 ;;Total ram usage:        7 bytes
 11956 ;; Hardware stack levels used:    1
 11957 ;; Hardware stack levels required when called:    4
 11958 ;; This function calls:
 11959 ;;		Nothing
 11960 ;; This function is called by:
 11961 ;;		_separa_digitos_rtc
 11962 ;;		_DEC_2_BCD
 11963 ;; This function uses a non-reentrant model
 11964 ;;
 11965                           psect	text42,local,class=CODE,delta=2,merge=1,group=1
 11966                           	file	"C:\Program Files (x86)\Microchip\xc8\v2.00\pic\sources\c90\common\awmod.c"
 11967                           	line	5
 11968                           global __ptext42
 11969                           __ptext42:	;psect for function ___awmod
 11970  163D                     psect	text42
 11971                           	file	"C:\Program Files (x86)\Microchip\xc8\v2.00\pic\sources\c90\common\awmod.c"
 11972                           	line	5
 11973                           	global	__size_of___awmod
 11974                           	__size_of___awmod	equ	__end_of___awmod-___awmod
 11975  0065                     	
 11976                           ___awmod:	
 11977  163D                     ;incstack = 0
 11978                           	opt	stack 1
 11979                           ; Regs used in ___awmod: [wreg+status,2+status,0]
 11980                           	line	12
 11981                           	
 11982                           l2746:	
 11983  163D                     	bcf	status, 5	;RP0=0, select bank0
 11984  163D  1283               	bcf	status, 6	;RP1=0, select bank0
 11985  163E  1303               	clrf	(___awmod@sign)
 11986  163F  01A6               	line	13
 11987                           	
 11988                           l2748:	
 11989  1640                     	btfss	(___awmod@dividend+1),7
 11990  1640  1FA3               	goto	u3191
 11991  1641  2E43               	goto	u3190
 11992  1642  2E44               u3191:
 11993  1643                     	goto	l2754
 11994  1643  2E4C               u3190:
 11995  1644                     	line	14
 11996                           	
 11997                           l2750:	
 11998  1644                     	comf	(___awmod@dividend),f
 11999  1644  09A2               	comf	(___awmod@dividend+1),f
 12000  1645  09A3               	incf	(___awmod@dividend),f
 12001  1646  0AA2               	skipnz
 12002  1647  1903               	incf	(___awmod@dividend+1),f
 12003  1648  0AA3               	line	15
 12004                           	
 12005                           l2752:	
 12006  1649                     	clrf	(___awmod@sign)
 12007  1649  01A6               	incf	(___awmod@sign),f
 12008  164A  0AA6               	goto	l2754
 12009  164B  2E4C               	line	16
 12010                           	
 12011                           l663:	
 12012  164C                     	line	17
 12013                           	
 12014                           l2754:	
 12015  164C                     	btfss	(___awmod@divisor+1),7
 12016  164C  1FA1               	goto	u3201
 12017  164D  2E4F               	goto	u3200
 12018  164E  2E50               u3201:
 12019  164F                     	goto	l2758
 12020  164F  2E56               u3200:
 12021  1650                     	line	18
 12022                           	
 12023                           l2756:	
 12024  1650                     	comf	(___awmod@divisor),f
 12025  1650  09A0               	comf	(___awmod@divisor+1),f
 12026  1651  09A1               	incf	(___awmod@divisor),f
 12027  1652  0AA0               	skipnz
 12028  1653  1903               	incf	(___awmod@divisor+1),f
 12029  1654  0AA1               	goto	l2758
 12030  1655  2E56               	
 12031                           l664:	
 12032  1656                     	line	19
 12033                           	
 12034                           l2758:	
 12035  1656                     	movf	((___awmod@divisor)),w
 12036  1656  0820               iorwf	((___awmod@divisor+1)),w
 12037  1657  0421               	btfsc	status,2
 12038  1658  1903               	goto	u3211
 12039  1659  2E5B               	goto	u3210
 12040  165A  2E5C               u3211:
 12041  165B                     	goto	l2776
 12042  165B  2E91               u3210:
 12043  165C                     	line	20
 12044                           	
 12045                           l2760:	
 12046  165C                     	clrf	(___awmod@counter)
 12047  165C  01A5               	incf	(___awmod@counter),f
 12048  165D  0AA5               	line	21
 12049                           	goto	l2766
 12050  165E  2E6B               	
 12051                           l667:	
 12052  165F                     	line	22
 12053                           	
 12054                           l2762:	
 12055  165F                     	movlw	01h
 12056  165F  3001               	
 12057                           u3225:
 12058  1660                     	clrc
 12059  1660  1003               	rlf	(___awmod@divisor),f
 12060  1661  0DA0               	rlf	(___awmod@divisor+1),f
 12061  1662  0DA1               	addlw	-1
 12062  1663  3EFF               	skipz
 12063  1664  1D03               	goto	u3225
 12064  1665  2E60               	line	23
 12065                           	
 12066                           l2764:	
 12067  1666                     	movlw	low(01h)
 12068  1666  3001               	movwf	(??___awmod+0)+0
 12069  1667  00A4               	movf	(??___awmod+0)+0,w
 12070  1668  0824               	addwf	(___awmod@counter),f
 12071  1669  07A5               	goto	l2766
 12072  166A  2E6B               	line	24
 12073                           	
 12074                           l666:	
 12075  166B                     	line	21
 12076                           	
 12077                           l2766:	
 12078  166B                     	btfss	(___awmod@divisor+1),(15)&7
 12079  166B  1FA1               	goto	u3231
 12080  166C  2E6E               	goto	u3230
 12081  166D  2E6F               u3231:
 12082  166E                     	goto	l2762
 12083  166E  2E5F               u3230:
 12084  166F                     	goto	l2768
 12085  166F  2E71               	
 12086                           l668:	
 12087  1670                     	goto	l2768
 12088  1670  2E71               	line	25
 12089                           	
 12090                           l669:	
 12091  1671                     	line	26
 12092                           	
 12093                           l2768:	
 12094  1671                     	movf	(___awmod@divisor+1),w
 12095  1671  0821               	subwf	(___awmod@dividend+1),w
 12096  1672  0223               	skipz
 12097  1673  1D03               	goto	u3245
 12098  1674  2E77               	movf	(___awmod@divisor),w
 12099  1675  0820               	subwf	(___awmod@dividend),w
 12100  1676  0222               u3245:
 12101  1677                     	skipc
 12102  1677  1C03               	goto	u3241
 12103  1678  2E7A               	goto	u3240
 12104  1679  2E7B               u3241:
 12105  167A                     	goto	l2772
 12106  167A  2E82               u3240:
 12107  167B                     	line	27
 12108                           	
 12109                           l2770:	
 12110  167B                     	movf	(___awmod@divisor),w
 12111  167B  0820               	subwf	(___awmod@dividend),f
 12112  167C  02A2               	movf	(___awmod@divisor+1),w
 12113  167D  0821               	skipc
 12114  167E  1C03               	decf	(___awmod@dividend+1),f
 12115  167F  03A3               	subwf	(___awmod@dividend+1),f
 12116  1680  02A3               	goto	l2772
 12117  1681  2E82               	
 12118                           l670:	
 12119  1682                     	line	28
 12120                           	
 12121                           l2772:	
 12122  1682                     	movlw	01h
 12123  1682  3001               	
 12124                           u3255:
 12125  1683                     	clrc
 12126  1683  1003               	rrf	(___awmod@divisor+1),f
 12127  1684  0CA1               	rrf	(___awmod@divisor),f
 12128  1685  0CA0               	addlw	-1
 12129  1686  3EFF               	skipz
 12130  1687  1D03               	goto	u3255
 12131  1688  2E83               	line	29
 12132                           	
 12133                           l2774:	
 12134  1689                     	movlw	01h
 12135  1689  3001               	subwf	(___awmod@counter),f
 12136  168A  02A5               	btfss	status,2
 12137  168B  1D03               	goto	u3261
 12138  168C  2E8E               	goto	u3260
 12139  168D  2E8F               u3261:
 12140  168E                     	goto	l2768
 12141  168E  2E71               u3260:
 12142  168F                     	goto	l2776
 12143  168F  2E91               	
 12144                           l671:	
 12145  1690                     	goto	l2776
 12146  1690  2E91               	line	30
 12147                           	
 12148                           l665:	
 12149  1691                     	line	31
 12150                           	
 12151                           l2776:	
 12152  1691                     	movf	((___awmod@sign)),w
 12153  1691  0826               	btfsc	status,2
 12154  1692  1903               	goto	u3271
 12155  1693  2E95               	goto	u3270
 12156  1694  2E96               u3271:
 12157  1695                     	goto	l2780
 12158  1695  2E9C               u3270:
 12159  1696                     	line	32
 12160                           	
 12161                           l2778:	
 12162  1696                     	comf	(___awmod@dividend),f
 12163  1696  09A2               	comf	(___awmod@dividend+1),f
 12164  1697  09A3               	incf	(___awmod@dividend),f
 12165  1698  0AA2               	skipnz
 12166  1699  1903               	incf	(___awmod@dividend+1),f
 12167  169A  0AA3               	goto	l2780
 12168  169B  2E9C               	
 12169                           l672:	
 12170  169C                     	line	33
 12171                           	
 12172                           l2780:	
 12173  169C                     	movf	(___awmod@dividend+1),w
 12174  169C  0823               	movwf	(?___awmod+1)
 12175  169D  00A1               	movf	(___awmod@dividend),w
 12176  169E  0822               	movwf	(?___awmod)
 12177  169F  00A0               	goto	l673
 12178  16A0  2EA1               	
 12179                           l2782:	
 12180  16A1                     	line	34
 12181                           	
 12182                           l673:	
 12183  16A1                     	return
 12184  16A1  0008               	opt stack 0
 12185                           GLOBAL	__end_of___awmod
 12186                           	__end_of___awmod:
 12187  16A2                     	signat	___awmod,8314
 12188                           	global	___awdiv
 12189                           
 12190 ;; *************** function ___awdiv *****************
 12191 ;; Defined at:
 12192 ;;		line 5 in file "C:\Program Files (x86)\Microchip\xc8\v2.00\pic\sources\c90\common\awdiv.c"
 12193 ;; Parameters:    Size  Location     Type
 12194 ;;  divisor         2    0[BANK0 ] int 
 12195 ;;  dividend        2    2[BANK0 ] int 
 12196 ;; Auto vars:     Size  Location     Type
 12197 ;;  quotient        2    7[BANK0 ] int 
 12198 ;;  sign            1    6[BANK0 ] unsigned char 
 12199 ;;  counter         1    5[BANK0 ] unsigned char 
 12200 ;; Return value:  Size  Location     Type
 12201 ;;                  2    0[BANK0 ] int 
 12202 ;; Registers used:
 12203 ;;		wreg, status,2, status,0
 12204 ;; Tracked objects:
 12205 ;;		On entry : 0/0
 12206 ;;		On exit  : 0/0
 12207 ;;		Unchanged: 0/0
 12208 ;; Data sizes:     COMMON   BANK0   BANK1   BANK3   BANK2
 12209 ;;      Params:         0       4       0       0       0
 12210 ;;      Locals:         0       4       0       0       0
 12211 ;;      Temps:          0       1       0       0       0
 12212 ;;      Totals:         0       9       0       0       0
 12213 ;;Total ram usage:        9 bytes
 12214 ;; Hardware stack levels used:    1
 12215 ;; Hardware stack levels required when called:    4
 12216 ;; This function calls:
 12217 ;;		Nothing
 12218 ;; This function is called by:
 12219 ;;		_separa_digitos_rtc
 12220 ;;		_DEC_2_BCD
 12221 ;;		_b1
 12222 ;;		_b0
 12223 ;; This function uses a non-reentrant model
 12224 ;;
 12225                           psect	text43,local,class=CODE,delta=2,merge=1,group=1
 12226                           	file	"C:\Program Files (x86)\Microchip\xc8\v2.00\pic\sources\c90\common\awdiv.c"
 12227                           	line	5
 12228                           global __ptext43
 12229                           __ptext43:	;psect for function ___awdiv
 12230  16A2                     psect	text43
 12231                           	file	"C:\Program Files (x86)\Microchip\xc8\v2.00\pic\sources\c90\common\awdiv.c"
 12232                           	line	5
 12233                           	global	__size_of___awdiv
 12234                           	__size_of___awdiv	equ	__end_of___awdiv-___awdiv
 12235  0073                     	
 12236                           ___awdiv:	
 12237  16A2                     ;incstack = 0
 12238                           	opt	stack 0
 12239                           ; Regs used in ___awdiv: [wreg+status,2+status,0]
 12240                           	line	13
 12241                           	
 12242                           l2202:	
 12243  16A2                     	bcf	status, 5	;RP0=0, select bank0
 12244  16A2  1283               	bcf	status, 6	;RP1=0, select bank0
 12245  16A3  1303               	clrf	(___awdiv@sign)
 12246  16A4  01A6               	line	14
 12247                           	
 12248                           l2204:	
 12249  16A5                     	btfss	(___awdiv@divisor+1),7
 12250  16A5  1FA1               	goto	u2031
 12251  16A6  2EA8               	goto	u2030
 12252  16A7  2EA9               u2031:
 12253  16A8                     	goto	l2210
 12254  16A8  2EB1               u2030:
 12255  16A9                     	line	15
 12256                           	
 12257                           l2206:	
 12258  16A9                     	comf	(___awdiv@divisor),f
 12259  16A9  09A0               	comf	(___awdiv@divisor+1),f
 12260  16AA  09A1               	incf	(___awdiv@divisor),f
 12261  16AB  0AA0               	skipnz
 12262  16AC  1903               	incf	(___awdiv@divisor+1),f
 12263  16AD  0AA1               	line	16
 12264                           	
 12265                           l2208:	
 12266  16AE                     	clrf	(___awdiv@sign)
 12267  16AE  01A6               	incf	(___awdiv@sign),f
 12268  16AF  0AA6               	goto	l2210
 12269  16B0  2EB1               	line	17
 12270                           	
 12271                           l650:	
 12272  16B1                     	line	18
 12273                           	
 12274                           l2210:	
 12275  16B1                     	btfss	(___awdiv@dividend+1),7
 12276  16B1  1FA3               	goto	u2041
 12277  16B2  2EB4               	goto	u2040
 12278  16B3  2EB5               u2041:
 12279  16B4                     	goto	l2216
 12280  16B4  2EBF               u2040:
 12281  16B5                     	line	19
 12282                           	
 12283                           l2212:	
 12284  16B5                     	comf	(___awdiv@dividend),f
 12285  16B5  09A2               	comf	(___awdiv@dividend+1),f
 12286  16B6  09A3               	incf	(___awdiv@dividend),f
 12287  16B7  0AA2               	skipnz
 12288  16B8  1903               	incf	(___awdiv@dividend+1),f
 12289  16B9  0AA3               	line	20
 12290                           	
 12291                           l2214:	
 12292  16BA                     	movlw	low(01h)
 12293  16BA  3001               	movwf	(??___awdiv+0)+0
 12294  16BB  00A4               	movf	(??___awdiv+0)+0,w
 12295  16BC  0824               	xorwf	(___awdiv@sign),f
 12296  16BD  06A6               	goto	l2216
 12297  16BE  2EBF               	line	21
 12298                           	
 12299                           l651:	
 12300  16BF                     	line	22
 12301                           	
 12302                           l2216:	
 12303  16BF                     	clrf	(___awdiv@quotient)
 12304  16BF  01A7               	clrf	(___awdiv@quotient+1)
 12305  16C0  01A8               	line	23
 12306                           	
 12307                           l2218:	
 12308  16C1                     	movf	((___awdiv@divisor)),w
 12309  16C1  0820               iorwf	((___awdiv@divisor+1)),w
 12310  16C2  0421               	btfsc	status,2
 12311  16C3  1903               	goto	u2051
 12312  16C4  2EC6               	goto	u2050
 12313  16C5  2EC7               u2051:
 12314  16C6                     	goto	l2238
 12315  16C6  2F04               u2050:
 12316  16C7                     	line	24
 12317                           	
 12318                           l2220:	
 12319  16C7                     	clrf	(___awdiv@counter)
 12320  16C7  01A5               	incf	(___awdiv@counter),f
 12321  16C8  0AA5               	line	25
 12322                           	goto	l2226
 12323  16C9  2ED6               	
 12324                           l654:	
 12325  16CA                     	line	26
 12326                           	
 12327                           l2222:	
 12328  16CA                     	movlw	01h
 12329  16CA  3001               	
 12330                           u2065:
 12331  16CB                     	clrc
 12332  16CB  1003               	rlf	(___awdiv@divisor),f
 12333  16CC  0DA0               	rlf	(___awdiv@divisor+1),f
 12334  16CD  0DA1               	addlw	-1
 12335  16CE  3EFF               	skipz
 12336  16CF  1D03               	goto	u2065
 12337  16D0  2ECB               	line	27
 12338                           	
 12339                           l2224:	
 12340  16D1                     	movlw	low(01h)
 12341  16D1  3001               	movwf	(??___awdiv+0)+0
 12342  16D2  00A4               	movf	(??___awdiv+0)+0,w
 12343  16D3  0824               	addwf	(___awdiv@counter),f
 12344  16D4  07A5               	goto	l2226
 12345  16D5  2ED6               	line	28
 12346                           	
 12347                           l653:	
 12348  16D6                     	line	25
 12349                           	
 12350                           l2226:	
 12351  16D6                     	btfss	(___awdiv@divisor+1),(15)&7
 12352  16D6  1FA1               	goto	u2071
 12353  16D7  2ED9               	goto	u2070
 12354  16D8  2EDA               u2071:
 12355  16D9                     	goto	l2222
 12356  16D9  2ECA               u2070:
 12357  16DA                     	goto	l2228
 12358  16DA  2EDC               	
 12359                           l655:	
 12360  16DB                     	goto	l2228
 12361  16DB  2EDC               	line	29
 12362                           	
 12363                           l656:	
 12364  16DC                     	line	30
 12365                           	
 12366                           l2228:	
 12367  16DC                     	movlw	01h
 12368  16DC  3001               	
 12369                           u2085:
 12370  16DD                     	clrc
 12371  16DD  1003               	rlf	(___awdiv@quotient),f
 12372  16DE  0DA7               	rlf	(___awdiv@quotient+1),f
 12373  16DF  0DA8               	addlw	-1
 12374  16E0  3EFF               	skipz
 12375  16E1  1D03               	goto	u2085
 12376  16E2  2EDD               	line	31
 12377                           	movf	(___awdiv@divisor+1),w
 12378  16E3  0821               	subwf	(___awdiv@dividend+1),w
 12379  16E4  0223               	skipz
 12380  16E5  1D03               	goto	u2095
 12381  16E6  2EE9               	movf	(___awdiv@divisor),w
 12382  16E7  0820               	subwf	(___awdiv@dividend),w
 12383  16E8  0222               u2095:
 12384  16E9                     	skipc
 12385  16E9  1C03               	goto	u2091
 12386  16EA  2EEC               	goto	u2090
 12387  16EB  2EED               u2091:
 12388  16EC                     	goto	l2234
 12389  16EC  2EF5               u2090:
 12390  16ED                     	line	32
 12391                           	
 12392                           l2230:	
 12393  16ED                     	movf	(___awdiv@divisor),w
 12394  16ED  0820               	subwf	(___awdiv@dividend),f
 12395  16EE  02A2               	movf	(___awdiv@divisor+1),w
 12396  16EF  0821               	skipc
 12397  16F0  1C03               	decf	(___awdiv@dividend+1),f
 12398  16F1  03A3               	subwf	(___awdiv@dividend+1),f
 12399  16F2  02A3               	line	33
 12400                           	
 12401                           l2232:	
 12402  16F3                     	bsf	(___awdiv@quotient)+(0/8),(0)&7
 12403  16F3  1427               	goto	l2234
 12404  16F4  2EF5               	line	34
 12405                           	
 12406                           l657:	
 12407  16F5                     	line	35
 12408                           	
 12409                           l2234:	
 12410  16F5                     	movlw	01h
 12411  16F5  3001               	
 12412                           u2105:
 12413  16F6                     	clrc
 12414  16F6  1003               	rrf	(___awdiv@divisor+1),f
 12415  16F7  0CA1               	rrf	(___awdiv@divisor),f
 12416  16F8  0CA0               	addlw	-1
 12417  16F9  3EFF               	skipz
 12418  16FA  1D03               	goto	u2105
 12419  16FB  2EF6               	line	36
 12420                           	
 12421                           l2236:	
 12422  16FC                     	movlw	01h
 12423  16FC  3001               	subwf	(___awdiv@counter),f
 12424  16FD  02A5               	btfss	status,2
 12425  16FE  1D03               	goto	u2111
 12426  16FF  2F01               	goto	u2110
 12427  1700  2F02               u2111:
 12428  1701                     	goto	l2228
 12429  1701  2EDC               u2110:
 12430  1702                     	goto	l2238
 12431  1702  2F04               	
 12432                           l658:	
 12433  1703                     	goto	l2238
 12434  1703  2F04               	line	37
 12435                           	
 12436                           l652:	
 12437  1704                     	line	38
 12438                           	
 12439                           l2238:	
 12440  1704                     	movf	((___awdiv@sign)),w
 12441  1704  0826               	btfsc	status,2
 12442  1705  1903               	goto	u2121
 12443  1706  2F08               	goto	u2120
 12444  1707  2F09               u2121:
 12445  1708                     	goto	l2242
 12446  1708  2F0F               u2120:
 12447  1709                     	line	39
 12448                           	
 12449                           l2240:	
 12450  1709                     	comf	(___awdiv@quotient),f
 12451  1709  09A7               	comf	(___awdiv@quotient+1),f
 12452  170A  09A8               	incf	(___awdiv@quotient),f
 12453  170B  0AA7               	skipnz
 12454  170C  1903               	incf	(___awdiv@quotient+1),f
 12455  170D  0AA8               	goto	l2242
 12456  170E  2F0F               	
 12457                           l659:	
 12458  170F                     	line	40
 12459                           	
 12460                           l2242:	
 12461  170F                     	movf	(___awdiv@quotient+1),w
 12462  170F  0828               	movwf	(?___awdiv+1)
 12463  1710  00A1               	movf	(___awdiv@quotient),w
 12464  1711  0827               	movwf	(?___awdiv)
 12465  1712  00A0               	goto	l660
 12466  1713  2F14               	
 12467                           l2244:	
 12468  1714                     	line	41
 12469                           	
 12470                           l660:	
 12471  1714                     	return
 12472  1714  0008               	opt stack 0
 12473                           GLOBAL	__end_of___awdiv
 12474                           	__end_of___awdiv:
 12475  1715                     	signat	___awdiv,8314
 12476                           	global	_I2C_Master_Init
 12477                           
 12478 ;; *************** function _I2C_Master_Init *****************
 12479 ;; Defined at:
 12480 ;;		line 13 in file "I2C.c"
 12481 ;; Parameters:    Size  Location     Type
 12482 ;;  c               4   14[BANK0 ] const unsigned long 
 12483 ;; Auto vars:     Size  Location     Type
 12484 ;;		None
 12485 ;; Return value:  Size  Location     Type
 12486 ;;                  1    wreg      void 
 12487 ;; Registers used:
 12488 ;;		wreg, status,2, status,0, pclath, cstack
 12489 ;; Tracked objects:
 12490 ;;		On entry : 0/0
 12491 ;;		On exit  : 0/0
 12492 ;;		Unchanged: 0/0
 12493 ;; Data sizes:     COMMON   BANK0   BANK1   BANK3   BANK2
 12494 ;;      Params:         0       4       0       0       0
 12495 ;;      Locals:         0       0       0       0       0
 12496 ;;      Temps:          0       4       0       0       0
 12497 ;;      Totals:         0       8       0       0       0
 12498 ;;Total ram usage:        8 bytes
 12499 ;; Hardware stack levels used:    1
 12500 ;; Hardware stack levels required when called:    5
 12501 ;; This function calls:
 12502 ;;		___lldiv
 12503 ;; This function is called by:
 12504 ;;		_main
 12505 ;; This function uses a non-reentrant model
 12506 ;;
 12507                           psect	text44,local,class=CODE,delta=2,merge=1,group=0
 12508                           	file	"I2C.c"
 12509                           	line	13
 12510                           global __ptext44
 12511                           __ptext44:	;psect for function _I2C_Master_Init
 12512  1446                     psect	text44
 12513                           	file	"I2C.c"
 12514                           	line	13
 12515                           	global	__size_of_I2C_Master_Init
 12516                           	__size_of_I2C_Master_Init	equ	__end_of_I2C_Master_Init-_I2C_Master_Init
 12517  003A                     	
 12518                           _I2C_Master_Init:	
 12519  1446                     ;incstack = 0
 12520                           	opt	stack 2
 12521                           ; Regs used in _I2C_Master_Init: [wreg+status,2+status,0+pclath+cstack]
 12522                           	line	15
 12523                           	
 12524                           l2964:	
 12525  1446                     ;I2C.c: 13: void I2C_Master_Init(const unsigned long c);I2C.c: 14: {;I2C.c: 15:     SSPC
                                 ON = 0b00101000;
 12526                           	movlw	low(028h)
 12527  1446  3028               	bcf	status, 5	;RP0=0, select bank0
 12528  1447  1283               	bcf	status, 6	;RP1=0, select bank0
 12529  1448  1303               	movwf	(20)	;volatile
 12530  1449  0094               	line	16
 12531                           	
 12532                           l2966:	
 12533  144A                     ;I2C.c: 16:     SSPCON2 = 0;
 12534                           	bsf	status, 5	;RP0=1, select bank1
 12535  144A  1683               	bcf	status, 6	;RP1=0, select bank1
 12536  144B  1303               	clrf	(145)^080h	;volatile
 12537  144C  0191               	line	17
 12538                           	
 12539                           l2968:	
 12540  144D                     ;I2C.c: 17:     SSPADD = (4000000/(4*c))-1;
 12541                           	bcf	status, 5	;RP0=0, select bank0
 12542  144D  1283               	bcf	status, 6	;RP1=0, select bank0
 12543  144E  1303               	movf	(I2C_Master_Init@c),w
 12544  144F  082E               	movwf	(??_I2C_Master_Init+0)+0
 12545  1450  00B2               	movf	(I2C_Master_Init@c+1),w
 12546  1451  082F               	movwf	((??_I2C_Master_Init+0)+0+1)
 12547  1452  00B3               	movf	(I2C_Master_Init@c+2),w
 12548  1453  0830               	movwf	((??_I2C_Master_Init+0)+0+2)
 12549  1454  00B4               	movf	(I2C_Master_Init@c+3),w
 12550  1455  0831               	movwf	((??_I2C_Master_Init+0)+0+3)
 12551  1456  00B5               	movlw	02h
 12552  1457  3002               u3455:
 12553  1458                     	clrc
 12554  1458  1003               	rlf	(??_I2C_Master_Init+0)+0,f
 12555  1459  0DB2               	rlf	(??_I2C_Master_Init+0)+1,f
 12556  145A  0DB3               	rlf	(??_I2C_Master_Init+0)+2,f
 12557  145B  0DB4               	rlf	(??_I2C_Master_Init+0)+3,f
 12558  145C  0DB5               u3450:
 12559  145D                     	addlw	-1
 12560  145D  3EFF               	skipz
 12561  145E  1D03               	goto	u3455
 12562  145F  2C58               	movf	3+(??_I2C_Master_Init+0)+0,w
 12563  1460  0835               	movwf	(___lldiv@divisor+3)
 12564  1461  00A3               	movf	2+(??_I2C_Master_Init+0)+0,w
 12565  1462  0834               	movwf	(___lldiv@divisor+2)
 12566  1463  00A2               	movf	1+(??_I2C_Master_Init+0)+0,w
 12567  1464  0833               	movwf	(___lldiv@divisor+1)
 12568  1465  00A1               	movf	0+(??_I2C_Master_Init+0)+0,w
 12569  1466  0832               	movwf	(___lldiv@divisor)
 12570  1467  00A0               
 12571                           	movlw	0
 12572  1468  3000               	movwf	(___lldiv@dividend+3)
 12573  1469  00A7               	movlw	03Dh
 12574  146A  303D               	movwf	(___lldiv@dividend+2)
 12575  146B  00A6               	movlw	09h
 12576  146C  3009               	movwf	(___lldiv@dividend+1)
 12577  146D  00A5               	movlw	0
 12578  146E  3000               	movwf	(___lldiv@dividend)
 12579  146F  00A4               
 12580                           	fcall	___lldiv
 12581  1470  120A  158A  2078  160A  118A  	bcf	status, 5	;RP0=0, select bank0
 12582  1475  1283               	bcf	status, 6	;RP1=0, select bank0
 12583  1476  1303               	movf	(0+(?___lldiv)),w
 12584  1477  0820               	addlw	0FFh
 12585  1478  3EFF               	bsf	status, 5	;RP0=1, select bank1
 12586  1479  1683               	bcf	status, 6	;RP1=0, select bank1
 12587  147A  1303               	movwf	(147)^080h	;volatile
 12588  147B  0093               	line	18
 12589                           	
 12590                           l2970:	
 12591  147C                     ;I2C.c: 18:     SSPSTAT = 0;
 12592                           	clrf	(148)^080h	;volatile
 12593  147C  0194               	line	19
 12594                           	
 12595                           l2972:	
 12596  147D                     ;I2C.c: 19:     TRISCbits.TRISC3 = 1;
 12597                           	bsf	(135)^080h,3	;volatile
 12598  147D  1587               	line	20
 12599                           	
 12600                           l2974:	
 12601  147E                     ;I2C.c: 20:     TRISCbits.TRISC4 = 1;
 12602                           	bsf	(135)^080h,4	;volatile
 12603  147E  1607               	line	21
 12604                           	
 12605                           l324:	
 12606  147F                     	return
 12607  147F  0008               	opt stack 0
 12608                           GLOBAL	__end_of_I2C_Master_Init
 12609                           	__end_of_I2C_Master_Init:
 12610  1480                     	signat	_I2C_Master_Init,4217
 12611                           	global	___lldiv
 12612                           
 12613 ;; *************** function ___lldiv *****************
 12614 ;; Defined at:
 12615 ;;		line 5 in file "C:\Program Files (x86)\Microchip\xc8\v2.00\pic\sources\c90\common\__lldiv.c"
 12616 ;; Parameters:    Size  Location     Type
 12617 ;;  divisor         4    0[BANK0 ] unsigned long 
 12618 ;;  dividend        4    4[BANK0 ] unsigned long 
 12619 ;; Auto vars:     Size  Location     Type
 12620 ;;  quotient        4    9[BANK0 ] unsigned long 
 12621 ;;  counter         1   13[BANK0 ] unsigned char 
 12622 ;; Return value:  Size  Location     Type
 12623 ;;                  4    0[BANK0 ] unsigned long 
 12624 ;; Registers used:
 12625 ;;		wreg, status,2, status,0
 12626 ;; Tracked objects:
 12627 ;;		On entry : 0/0
 12628 ;;		On exit  : 0/0
 12629 ;;		Unchanged: 0/0
 12630 ;; Data sizes:     COMMON   BANK0   BANK1   BANK3   BANK2
 12631 ;;      Params:         0       8       0       0       0
 12632 ;;      Locals:         0       5       0       0       0
 12633 ;;      Temps:          0       1       0       0       0
 12634 ;;      Totals:         0      14       0       0       0
 12635 ;;Total ram usage:       14 bytes
 12636 ;; Hardware stack levels used:    1
 12637 ;; Hardware stack levels required when called:    4
 12638 ;; This function calls:
 12639 ;;		Nothing
 12640 ;; This function is called by:
 12641 ;;		_I2C_Master_Init
 12642 ;; This function uses a non-reentrant model
 12643 ;;
 12644                           psect	text45,local,class=CODE,delta=2,merge=1,group=1
 12645                           	file	"C:\Program Files (x86)\Microchip\xc8\v2.00\pic\sources\c90\common\__lldiv.c"
 12646                           	line	5
 12647                           global __ptext45
 12648                           __ptext45:	;psect for function ___lldiv
 12649  0878                     psect	text45
 12650                           	file	"C:\Program Files (x86)\Microchip\xc8\v2.00\pic\sources\c90\common\__lldiv.c"
 12651                           	line	5
 12652                           	global	__size_of___lldiv
 12653                           	__size_of___lldiv	equ	__end_of___lldiv-___lldiv
 12654  006F                     	
 12655                           ___lldiv:	
 12656  0878                     ;incstack = 0
 12657                           	opt	stack 2
 12658                           ; Regs used in ___lldiv: [wreg+status,2+status,0]
 12659                           	line	13
 12660                           	
 12661                           l2886:	
 12662  0878                     	movlw	high highword(0)
 12663  0878  3000               	bcf	status, 5	;RP0=0, select bank0
 12664  0879  1283               	bcf	status, 6	;RP1=0, select bank0
 12665  087A  1303               	movwf	(___lldiv@quotient+3)
 12666  087B  00AC               	movlw	low highword(0)
 12667  087C  3000               	movwf	(___lldiv@quotient+2)
 12668  087D  00AB               	movlw	high(0)
 12669  087E  3000               	movwf	(___lldiv@quotient+1)
 12670  087F  00AA               	movlw	low(0)
 12671  0880  3000               	movwf	(___lldiv@quotient)
 12672  0881  00A9               
 12673                           	line	14
 12674                           	movf	(___lldiv@divisor+3),w
 12675  0882  0823               	iorwf	(___lldiv@divisor+2),w
 12676  0883  0422               	iorwf	(___lldiv@divisor+1),w
 12677  0884  0421               	iorwf	(___lldiv@divisor),w
 12678  0885  0420               	skipnz
 12679  0886  1903               	goto	u3381
 12680  0887  2889               	goto	u3380
 12681  0888  288A               u3381:
 12682  0889                     	goto	l2906
 12683  0889  28DD               u3380:
 12684  088A                     	line	15
 12685                           	
 12686                           l2888:	
 12687  088A                     	clrf	(___lldiv@counter)
 12688  088A  01AD               	incf	(___lldiv@counter),f
 12689  088B  0AAD               	line	16
 12690                           	goto	l2892
 12691  088C  289B               	
 12692                           l538:	
 12693  088D                     	line	17
 12694                           	
 12695                           l2890:	
 12696  088D                     	movlw	01h
 12697  088D  3001               	movwf	(??___lldiv+0)+0
 12698  088E  00A8               u3395:
 12699  088F                     	clrc
 12700  088F  1003               	rlf	(___lldiv@divisor),f
 12701  0890  0DA0               	rlf	(___lldiv@divisor+1),f
 12702  0891  0DA1               	rlf	(___lldiv@divisor+2),f
 12703  0892  0DA2               	rlf	(___lldiv@divisor+3),f
 12704  0893  0DA3               	decfsz	(??___lldiv+0)+0
 12705  0894  0BA8               	goto	u3395
 12706  0895  288F               	line	18
 12707                           	movlw	low(01h)
 12708  0896  3001               	movwf	(??___lldiv+0)+0
 12709  0897  00A8               	movf	(??___lldiv+0)+0,w
 12710  0898  0828               	addwf	(___lldiv@counter),f
 12711  0899  07AD               	goto	l2892
 12712  089A  289B               	line	19
 12713                           	
 12714                           l537:	
 12715  089B                     	line	16
 12716                           	
 12717                           l2892:	
 12718  089B                     	btfss	(___lldiv@divisor+3),(31)&7
 12719  089B  1FA3               	goto	u3401
 12720  089C  289E               	goto	u3400
 12721  089D  289F               u3401:
 12722  089E                     	goto	l2890
 12723  089E  288D               u3400:
 12724  089F                     	goto	l2894
 12725  089F  28A1               	
 12726                           l539:	
 12727  08A0                     	goto	l2894
 12728  08A0  28A1               	line	20
 12729                           	
 12730                           l540:	
 12731  08A1                     	line	21
 12732                           	
 12733                           l2894:	
 12734  08A1                     	movlw	01h
 12735  08A1  3001               	movwf	(??___lldiv+0)+0
 12736  08A2  00A8               u3415:
 12737  08A3                     	clrc
 12738  08A3  1003               	rlf	(___lldiv@quotient),f
 12739  08A4  0DA9               	rlf	(___lldiv@quotient+1),f
 12740  08A5  0DAA               	rlf	(___lldiv@quotient+2),f
 12741  08A6  0DAB               	rlf	(___lldiv@quotient+3),f
 12742  08A7  0DAC               	decfsz	(??___lldiv+0)+0
 12743  08A8  0BA8               	goto	u3415
 12744  08A9  28A3               	line	22
 12745                           	
 12746                           l2896:	
 12747  08AA                     	movf	(___lldiv@divisor+3),w
 12748  08AA  0823               	subwf	(___lldiv@dividend+3),w
 12749  08AB  0227               	skipz
 12750  08AC  1D03               	goto	u3425
 12751  08AD  28B8               	movf	(___lldiv@divisor+2),w
 12752  08AE  0822               	subwf	(___lldiv@dividend+2),w
 12753  08AF  0226               	skipz
 12754  08B0  1D03               	goto	u3425
 12755  08B1  28B8               	movf	(___lldiv@divisor+1),w
 12756  08B2  0821               	subwf	(___lldiv@dividend+1),w
 12757  08B3  0225               	skipz
 12758  08B4  1D03               	goto	u3425
 12759  08B5  28B8               	movf	(___lldiv@divisor),w
 12760  08B6  0820               	subwf	(___lldiv@dividend),w
 12761  08B7  0224               u3425:
 12762  08B8                     	skipc
 12763  08B8  1C03               	goto	u3421
 12764  08B9  28BB               	goto	u3420
 12765  08BA  28BC               u3421:
 12766  08BB                     	goto	l2902
 12767  08BB  28CC               u3420:
 12768  08BC                     	line	23
 12769                           	
 12770                           l2898:	
 12771  08BC                     	movf	(___lldiv@divisor),w
 12772  08BC  0820               	subwf	(___lldiv@dividend),f
 12773  08BD  02A4               	movf	(___lldiv@divisor+1),w
 12774  08BE  0821               	skipc
 12775  08BF  1C03               	incfsz	(___lldiv@divisor+1),w
 12776  08C0  0F21               	subwf	(___lldiv@dividend+1),f
 12777  08C1  02A5               	movf	(___lldiv@divisor+2),w
 12778  08C2  0822               	skipc
 12779  08C3  1C03               	incfsz	(___lldiv@divisor+2),w
 12780  08C4  0F22               	subwf	(___lldiv@dividend+2),f
 12781  08C5  02A6               	movf	(___lldiv@divisor+3),w
 12782  08C6  0823               	skipc
 12783  08C7  1C03               	incfsz	(___lldiv@divisor+3),w
 12784  08C8  0F23               	subwf	(___lldiv@dividend+3),f
 12785  08C9  02A7               	line	24
 12786                           	
 12787                           l2900:	
 12788  08CA                     	bsf	(___lldiv@quotient)+(0/8),(0)&7
 12789  08CA  1429               	goto	l2902
 12790  08CB  28CC               	line	25
 12791                           	
 12792                           l541:	
 12793  08CC                     	line	26
 12794                           	
 12795                           l2902:	
 12796  08CC                     	movlw	01h
 12797  08CC  3001               u3435:
 12798  08CD                     	clrc
 12799  08CD  1003               	rrf	(___lldiv@divisor+3),f
 12800  08CE  0CA3               	rrf	(___lldiv@divisor+2),f
 12801  08CF  0CA2               	rrf	(___lldiv@divisor+1),f
 12802  08D0  0CA1               	rrf	(___lldiv@divisor),f
 12803  08D1  0CA0               	addlw	-1
 12804  08D2  3EFF               	skipz
 12805  08D3  1D03               	goto	u3435
 12806  08D4  28CD               
 12807                           	line	27
 12808                           	
 12809                           l2904:	
 12810  08D5                     	movlw	01h
 12811  08D5  3001               	subwf	(___lldiv@counter),f
 12812  08D6  02AD               	btfss	status,2
 12813  08D7  1D03               	goto	u3441
 12814  08D8  28DA               	goto	u3440
 12815  08D9  28DB               u3441:
 12816  08DA                     	goto	l2894
 12817  08DA  28A1               u3440:
 12818  08DB                     	goto	l2906
 12819  08DB  28DD               	
 12820                           l542:	
 12821  08DC                     	goto	l2906
 12822  08DC  28DD               	line	28
 12823                           	
 12824                           l536:	
 12825  08DD                     	line	29
 12826                           	
 12827                           l2906:	
 12828  08DD                     	movf	(___lldiv@quotient+3),w
 12829  08DD  082C               	movwf	(?___lldiv+3)
 12830  08DE  00A3               	movf	(___lldiv@quotient+2),w
 12831  08DF  082B               	movwf	(?___lldiv+2)
 12832  08E0  00A2               	movf	(___lldiv@quotient+1),w
 12833  08E1  082A               	movwf	(?___lldiv+1)
 12834  08E2  00A1               	movf	(___lldiv@quotient),w
 12835  08E3  0829               	movwf	(?___lldiv)
 12836  08E4  00A0               
 12837                           	goto	l543
 12838  08E5  28E6               	
 12839                           l2908:	
 12840  08E6                     	line	30
 12841                           	
 12842                           l543:	
 12843  08E6                     	return
 12844  08E6  0008               	opt stack 0
 12845                           GLOBAL	__end_of___lldiv
 12846                           	__end_of___lldiv:
 12847  08E7                     	signat	___lldiv,8316
 12848                           	global	_isr
 12849                           
 12850 ;; *************** function _isr *****************
 12851 ;; Defined at:
 12852 ;;		line 96 in file "Proyecto1_master.c"
 12853 ;; Parameters:    Size  Location     Type
 12854 ;;		None
 12855 ;; Auto vars:     Size  Location     Type
 12856 ;;		None
 12857 ;; Return value:  Size  Location     Type
 12858 ;;                  1    wreg      void 
 12859 ;; Registers used:
 12860 ;;		wreg, status,2, status,0, pclath, cstack
 12861 ;; Tracked objects:
 12862 ;;		On entry : 0/0
 12863 ;;		On exit  : 0/0
 12864 ;;		Unchanged: 0/0
 12865 ;; Data sizes:     COMMON   BANK0   BANK1   BANK3   BANK2
 12866 ;;      Params:         0       0       0       0       0
 12867 ;;      Locals:         0       0       0       0       0
 12868 ;;      Temps:          5       0       0       0       0
 12869 ;;      Totals:         5       0       0       0       0
 12870 ;;Total ram usage:        5 bytes
 12871 ;; Hardware stack levels used:    1
 12872 ;; Hardware stack levels required when called:    3
 12873 ;; This function calls:
 12874 ;;		i1_lcd_clear
 12875 ;; This function is called by:
 12876 ;;		Interrupt level 1
 12877 ;; This function uses a non-reentrant model
 12878 ;;
 12879                           psect	text46,local,class=CODE,delta=2,merge=1,group=0
 12880                           	file	"Proyecto1_master.c"
 12881                           	line	96
 12882                           global __ptext46
 12883                           __ptext46:	;psect for function _isr
 12884  12DD                     psect	text46
 12885                           	file	"Proyecto1_master.c"
 12886                           	line	96
 12887                           	global	__size_of_isr
 12888                           	__size_of_isr	equ	__end_of_isr-_isr
 12889  002F                     	
 12890                           _isr:	
 12891  12DD                     ;incstack = 0
 12892 ;; hardware stack exceeded
 12893                           	opt	stack 0
 12894                           ; Regs used in _isr: [wreg+status,2+status,0+pclath+cstack]
 12895                           psect	intentry,class=CODE,delta=2
 12896                           global __pintentry
 12897                           __pintentry:
 12898  0004                     global interrupt_function
 12899                           interrupt_function:
 12900  0004                     	global saved_w
 12901                           	saved_w	set	btemp+0
 12902  007E                     	movwf	saved_w
 12903  0004  00FE               	swapf	status,w
 12904  0005  0E03               	movwf	(??_isr+3)
 12905  0006  00F7               	movf	pclath,w
 12906  0007  080A               	movwf	(??_isr+4)
 12907  0008  00F8               	ljmp	_isr
 12908  0009  160A  118A  2ADD   psect	text46
 12909                           	line	98
 12910                           	
 12911                           i1l3092:	
 12912  12DD                     ;Proyecto1_master.c: 98:     if (INTCONbits.RBIF == 1){
 12913                           	btfss	(11),0	;volatile
 12914  12DD  1C0B               	goto	u369_21
 12915  12DE  2AE0               	goto	u369_20
 12916  12DF  2AE1               u369_21:
 12917  12E0                     	goto	i1l159
 12918  12E0  2B05               u369_20:
 12919  12E1                     	line	99
 12920                           	
 12921                           i1l3094:	
 12922  12E1                     ;Proyecto1_master.c: 99:          INTCONbits.RBIF = 0;
 12923                           	bcf	(11),0	;volatile
 12924  12E1  100B               	line	101
 12925                           ;Proyecto1_master.c: 101:         if (PORTBbits.RB4 == 1){
 12926                           	bcf	status, 5	;RP0=0, select bank0
 12927  12E2  1283               	bcf	status, 6	;RP1=0, select bank0
 12928  12E3  1303               	btfss	(6),4	;volatile
 12929  12E4  1E06               	goto	u370_21
 12930  12E5  2AE7               	goto	u370_20
 12931  12E6  2AE8               u370_21:
 12932  12E7                     	goto	i1l159
 12933  12E7  2B05               u370_20:
 12934  12E8                     	line	102
 12935                           	
 12936                           i1l3096:	
 12937  12E8                     ;Proyecto1_master.c: 102:             modo++;
 12938                           	movlw	low(01h)
 12939  12E8  3001               	movwf	(??_isr+0)+0
 12940  12E9  00F4               	movf	(??_isr+0)+0,w
 12941  12EA  0874               	bsf	status, 5	;RP0=1, select bank1
 12942  12EB  1683               	bcf	status, 6	;RP1=0, select bank1
 12943  12EC  1303               	addwf	(_modo)^080h,f
 12944  12ED  07AE               	line	103
 12945                           	
 12946                           i1l3098:	
 12947  12EE                     ;Proyecto1_master.c: 103:             lcd_clear();
 12948                           	fcall	i1_lcd_clear
 12949  12EE  160A  118A  215A  160A  118A  	line	104
 12950                           	
 12951                           i1l3100:	
 12952  12F3                     ;Proyecto1_master.c: 104:             limpiar_lcd=1;
 12953                           	bsf	status, 5	;RP0=1, select bank1
 12954  12F3  1683               	bcf	status, 6	;RP1=0, select bank1
 12955  12F4  1303               	clrf	(_limpiar_lcd)^080h
 12956  12F5  01AD               	incf	(_limpiar_lcd)^080h,f
 12957  12F6  0AAD               	line	105
 12958                           	
 12959                           i1l3102:	
 12960  12F7                     ;Proyecto1_master.c: 105:             _delay((unsigned long)((200)*(8000000/4000.0)));
 12961                           	opt asmopt_push
 12962                           opt asmopt_off
 12963                           movlw  3
 12964  12F7  3003               movwf	((??_isr+0)+0+2),f
 12965  12F8  00F6               movlw	8
 12966  12F9  3008               movwf	((??_isr+0)+0+1),f
 12967  12FA  00F5               	movlw	119
 12968  12FB  3077               movwf	((??_isr+0)+0),f
 12969  12FC  00F4               	u384_27:
 12970  12FD                     decfsz	((??_isr+0)+0),f
 12971  12FD  0BF4               	goto	u384_27
 12972  12FE  2AFD               	decfsz	((??_isr+0)+0+1),f
 12973  12FF  0BF5               	goto	u384_27
 12974  1300  2AFD               	decfsz	((??_isr+0)+0+2),f
 12975  1301  0BF6               	goto	u384_27
 12976  1302  2AFD               opt asmopt_pop
 12977                           
 12978                           	goto	i1l159
 12979  1303  2B05               	line	106
 12980                           ;Proyecto1_master.c: 106:     }
 12981                           	
 12982                           i1l158:	
 12983  1304                     	goto	i1l159
 12984  1304  2B05               	line	108
 12985                           ;Proyecto1_master.c: 108: }
 12986                           	
 12987                           i1l157:	
 12988  1305                     	line	109
 12989                           	
 12990                           i1l159:	
 12991  1305                     	movf	(??_isr+4),w
 12992  1305  0878               	movwf	pclath
 12993  1306  008A               	swapf	(??_isr+3)^0FFFFFF80h,w
 12994  1307  0E77               	movwf	status
 12995  1308  0083               	swapf	saved_w,f
 12996  1309  0EFE               	swapf	saved_w,w
 12997  130A  0E7E               	retfie
 12998  130B  0009               	opt stack 0
 12999                           GLOBAL	__end_of_isr
 13000                           	__end_of_isr:
 13001  130C                     	signat	_isr,89
 13002                           	global	i1_lcd_clear
 13003                           
 13004 ;; *************** function i1_lcd_clear *****************
 13005 ;; Defined at:
 13006 ;;		line 105 in file "LCD.c"
 13007 ;; Parameters:    Size  Location     Type
 13008 ;;		None
 13009 ;; Auto vars:     Size  Location     Type
 13010 ;;		None
 13011 ;; Return value:  Size  Location     Type
 13012 ;;                  1    wreg      void 
 13013 ;; Registers used:
 13014 ;;		wreg, status,2, status,0, pclath, cstack
 13015 ;; Tracked objects:
 13016 ;;		On entry : 0/0
 13017 ;;		On exit  : 0/0
 13018 ;;		Unchanged: 0/0
 13019 ;; Data sizes:     COMMON   BANK0   BANK1   BANK3   BANK2
 13020 ;;      Params:         0       0       0       0       0
 13021 ;;      Locals:         0       0       0       0       0
 13022 ;;      Temps:          0       0       0       0       0
 13023 ;;      Totals:         0       0       0       0       0
 13024 ;;Total ram usage:        0 bytes
 13025 ;; Hardware stack levels used:    1
 13026 ;; Hardware stack levels required when called:    2
 13027 ;; This function calls:
 13028 ;;		i1_lcd_cmd
 13029 ;; This function is called by:
 13030 ;;		_isr
 13031 ;; This function uses a non-reentrant model
 13032 ;;
 13033                           psect	text47,local,class=CODE,delta=2,merge=1,group=0
 13034                           	file	"LCD.c"
 13035                           	line	105
 13036                           global __ptext47
 13037                           __ptext47:	;psect for function i1_lcd_clear
 13038  115A                     psect	text47
 13039                           	file	"LCD.c"
 13040                           	line	105
 13041                           	global	__size_ofi1_lcd_clear
 13042                           	__size_ofi1_lcd_clear	equ	__end_ofi1_lcd_clear-i1_lcd_clear
 13043  0007                     	
 13044                           i1_lcd_clear:	
 13045  115A                     ;incstack = 0
 13046 ;; hardware stack exceeded
 13047                           	opt	stack 0
 13048                           ; Regs used in i1_lcd_clear: [wreg+status,2+status,0+pclath+cstack]
 13049                           	line	107
 13050                           	
 13051                           i1l3090:	
 13052  115A                     ;LCD.c: 107:     lcd_cmd(0x01);
 13053                           	movlw	low(01h)
 13054  115A  3001               	fcall	i1_lcd_cmd
 13055  115B  120A  118A  27E6  160A  118A  	line	108
 13056                           	
 13057                           i1l400:	
 13058  1160                     	return
 13059  1160  0008               	opt stack 0
 13060                           GLOBAL	__end_ofi1_lcd_clear
 13061                           	__end_ofi1_lcd_clear:
 13062  1161                     	signat	i1_lcd_clear,89
 13063                           	global	i1_lcd_cmd
 13064                           
 13065 ;; *************** function i1_lcd_cmd *****************
 13066 ;; Defined at:
 13067 ;;		line 75 in file "LCD.c"
 13068 ;; Parameters:    Size  Location     Type
 13069 ;;  a               1    wreg     unsigned char 
 13070 ;; Auto vars:     Size  Location     Type
 13071 ;;  a               1    3[COMMON] unsigned char 
 13072 ;; Return value:  Size  Location     Type
 13073 ;;                  1    wreg      void 
 13074 ;; Registers used:
 13075 ;;		wreg, status,2, status,0, pclath, cstack
 13076 ;; Tracked objects:
 13077 ;;		On entry : 0/0
 13078 ;;		On exit  : 0/0
 13079 ;;		Unchanged: 0/0
 13080 ;; Data sizes:     COMMON   BANK0   BANK1   BANK3   BANK2
 13081 ;;      Params:         0       0       0       0       0
 13082 ;;      Locals:         1       0       0       0       0
 13083 ;;      Temps:          2       0       0       0       0
 13084 ;;      Totals:         3       0       0       0       0
 13085 ;;Total ram usage:        3 bytes
 13086 ;; Hardware stack levels used:    1
 13087 ;; Hardware stack levels required when called:    1
 13088 ;; This function calls:
 13089 ;;		i1_lcd_port
 13090 ;; This function is called by:
 13091 ;;		i1_lcd_clear
 13092 ;; This function uses a non-reentrant model
 13093 ;;
 13094                           psect	text48,local,class=CODE,delta=2,merge=1,group=0
 13095                           	line	75
 13096                           global __ptext48
 13097                           __ptext48:	;psect for function i1_lcd_cmd
 13098  07E6                     psect	text48
 13099                           	file	"LCD.c"
 13100                           	line	75
 13101                           	global	__size_ofi1_lcd_cmd
 13102                           	__size_ofi1_lcd_cmd	equ	__end_ofi1_lcd_cmd-i1_lcd_cmd
 13103  001A                     	
 13104                           i1_lcd_cmd:	
 13105  07E6                     ;incstack = 0
 13106 ;; hardware stack exceeded
 13107                           	opt	stack 0
 13108                           ; Regs used in i1_lcd_cmd: [wreg+status,2+status,0+pclath+cstack]
 13109                           ;i1lcd_cmd@a stored from wreg
 13110                           	movwf	(i1lcd_cmd@a)
 13111  07E6  00F3               	line	77
 13112                           	
 13113                           i1l2910:	
 13114  07E7                     ;LCD.c: 77:     RB7 = 0;
 13115                           	bcf	status, 5	;RP0=0, select bank0
 13116  07E7  1283               	bcf	status, 6	;RP1=0, select bank0
 13117  07E8  1303               	bcf	(55/8),(55)&7	;volatile
 13118  07E9  1386               	line	78
 13119                           	
 13120                           i1l2912:	
 13121  07EA                     ;LCD.c: 78:     lcd_port(a);
 13122                           	movf	(i1lcd_cmd@a),w
 13123  07EA  0873               	fcall	i1_lcd_port
 13124  07EB  160A  118A  24F7  120A  118A  	line	80
 13125                           	
 13126                           i1l2914:	
 13127  07F0                     ;LCD.c: 80:     RD7 = 1;
 13128                           	bcf	status, 5	;RP0=0, select bank0
 13129  07F0  1283               	bcf	status, 6	;RP1=0, select bank0
 13130  07F1  1303               	bsf	(71/8),(71)&7	;volatile
 13131  07F2  1788               	line	81
 13132                           	
 13133                           i1l2916:	
 13134  07F3                     ;LCD.c: 81:     _delay((unsigned long)((10)*(8000000/4000.0)));
 13135                           	opt asmopt_push
 13136                           opt asmopt_off
 13137                           movlw	26
 13138  07F3  301A               movwf	((??i1_lcd_cmd+0)+0+1),f
 13139  07F4  00F2               	movlw	248
 13140  07F5  30F8               movwf	((??i1_lcd_cmd+0)+0),f
 13141  07F6  00F1               	u385_27:
 13142  07F7                     decfsz	((??i1_lcd_cmd+0)+0),f
 13143  07F7  0BF1               	goto	u385_27
 13144  07F8  2FF7               	decfsz	((??i1_lcd_cmd+0)+0+1),f
 13145  07F9  0BF2               	goto	u385_27
 13146  07FA  2FF7               	nop
 13147  07FB  0000               opt asmopt_pop
 13148                           
 13149                           	line	82
 13150                           	
 13151                           i1l2918:	
 13152  07FC                     ;LCD.c: 82:     RD7 = 0;
 13153                           	bcf	status, 5	;RP0=0, select bank0
 13154  07FC  1283               	bcf	status, 6	;RP1=0, select bank0
 13155  07FD  1303               	bcf	(71/8),(71)&7	;volatile
 13156  07FE  1388               	line	83
 13157                           	
 13158                           i1l394:	
 13159  07FF                     	return
 13160  07FF  0008               	opt stack 0
 13161                           GLOBAL	__end_ofi1_lcd_cmd
 13162                           	__end_ofi1_lcd_cmd:
 13163  0800                     	signat	i1_lcd_cmd,89
 13164                           	global	i1_lcd_port
 13165                           
 13166 ;; *************** function i1_lcd_port *****************
 13167 ;; Defined at:
 13168 ;;		line 24 in file "LCD.c"
 13169 ;; Parameters:    Size  Location     Type
 13170 ;;  a               1    wreg     unsigned char 
 13171 ;; Auto vars:     Size  Location     Type
 13172 ;;  a               1    0[COMMON] unsigned char 
 13173 ;; Return value:  Size  Location     Type
 13174 ;;                  1    wreg      void 
 13175 ;; Registers used:
 13176 ;;		wreg
 13177 ;; Tracked objects:
 13178 ;;		On entry : 0/0
 13179 ;;		On exit  : 0/0
 13180 ;;		Unchanged: 0/0
 13181 ;; Data sizes:     COMMON   BANK0   BANK1   BANK3   BANK2
 13182 ;;      Params:         0       0       0       0       0
 13183 ;;      Locals:         1       0       0       0       0
 13184 ;;      Temps:          0       0       0       0       0
 13185 ;;      Totals:         1       0       0       0       0
 13186 ;;Total ram usage:        1 bytes
 13187 ;; Hardware stack levels used:    1
 13188 ;; This function calls:
 13189 ;;		Nothing
 13190 ;; This function is called by:
 13191 ;;		i1_lcd_cmd
 13192 ;; This function uses a non-reentrant model
 13193 ;;
 13194                           psect	text49,local,class=CODE,delta=2,merge=1,group=0
 13195                           	line	24
 13196                           global __ptext49
 13197                           __ptext49:	;psect for function i1_lcd_port
 13198  14F7                     psect	text49
 13199                           	file	"LCD.c"
 13200                           	line	24
 13201                           	global	__size_ofi1_lcd_port
 13202                           	__size_ofi1_lcd_port	equ	__end_ofi1_lcd_port-i1_lcd_port
 13203  003F                     	
 13204                           i1_lcd_port:	
 13205  14F7                     ;incstack = 0
 13206 ;; hardware stack exceeded
 13207                           	opt	stack 0
 13208                           ; Regs used in i1_lcd_port: [wreg]
 13209                           ;i1lcd_port@a stored from wreg
 13210                           	movwf	(i1lcd_port@a)
 13211  14F7  00F0               	line	26
 13212                           	
 13213                           i1l2784:	
 13214  14F8                     ;LCD.c: 26:     if(a & 1){
 13215                           	btfss	(i1lcd_port@a),(0)&7
 13216  14F8  1C70               	goto	u328_21
 13217  14F9  2CFB               	goto	u328_20
 13218  14FA  2CFC               u328_21:
 13219  14FB                     	goto	i1l375
 13220  14FB  2D00               u328_20:
 13221  14FC                     	line	27
 13222                           	
 13223                           i1l2786:	
 13224  14FC                     ;LCD.c: 27:         RA0 = 1;
 13225                           	bcf	status, 5	;RP0=0, select bank0
 13226  14FC  1283               	bcf	status, 6	;RP1=0, select bank0
 13227  14FD  1303               	bsf	(40/8),(40)&7	;volatile
 13228  14FE  1405               	line	28
 13229                           ;LCD.c: 28:     } else {
 13230                           	goto	i1l376
 13231  14FF  2D03               	
 13232                           i1l375:	
 13233  1500                     	line	29
 13234                           ;LCD.c: 29:         RA0 = 0;
 13235                           	bcf	status, 5	;RP0=0, select bank0
 13236  1500  1283               	bcf	status, 6	;RP1=0, select bank0
 13237  1501  1303               	bcf	(40/8),(40)&7	;volatile
 13238  1502  1005               	line	30
 13239                           ;LCD.c: 30:     }
 13240                           	
 13241                           i1l376:	
 13242  1503                     	line	32
 13243                           ;LCD.c: 32:     if(a & 2){
 13244                           	btfss	(i1lcd_port@a),(1)&7
 13245  1503  1CF0               	goto	u329_21
 13246  1504  2D06               	goto	u329_20
 13247  1505  2D07               u329_21:
 13248  1506                     	goto	i1l377
 13249  1506  2D09               u329_20:
 13250  1507                     	line	33
 13251                           	
 13252                           i1l2788:	
 13253  1507                     ;LCD.c: 33:         RA1 = 1;
 13254                           	bsf	(41/8),(41)&7	;volatile
 13255  1507  1485               	line	34
 13256                           ;LCD.c: 34:     } else {
 13257                           	goto	i1l378
 13258  1508  2D0A               	
 13259                           i1l377:	
 13260  1509                     	line	35
 13261                           ;LCD.c: 35:         RA1 = 0;
 13262                           	bcf	(41/8),(41)&7	;volatile
 13263  1509  1085               	line	36
 13264                           ;LCD.c: 36:     }
 13265                           	
 13266                           i1l378:	
 13267  150A                     	line	38
 13268                           ;LCD.c: 38:     if(a & 4){
 13269                           	btfss	(i1lcd_port@a),(2)&7
 13270  150A  1D70               	goto	u330_21
 13271  150B  2D0D               	goto	u330_20
 13272  150C  2D0E               u330_21:
 13273  150D                     	goto	i1l379
 13274  150D  2D10               u330_20:
 13275  150E                     	line	39
 13276                           	
 13277                           i1l2790:	
 13278  150E                     ;LCD.c: 39:         RA2 = 1;
 13279                           	bsf	(42/8),(42)&7	;volatile
 13280  150E  1505               	line	40
 13281                           ;LCD.c: 40:     } else {
 13282                           	goto	i1l380
 13283  150F  2D11               	
 13284                           i1l379:	
 13285  1510                     	line	41
 13286                           ;LCD.c: 41:         RA2 = 0;
 13287                           	bcf	(42/8),(42)&7	;volatile
 13288  1510  1105               	line	42
 13289                           ;LCD.c: 42:     }
 13290                           	
 13291                           i1l380:	
 13292  1511                     	line	44
 13293                           ;LCD.c: 44:     if(a & 8){
 13294                           	btfss	(i1lcd_port@a),(3)&7
 13295  1511  1DF0               	goto	u331_21
 13296  1512  2D14               	goto	u331_20
 13297  1513  2D15               u331_21:
 13298  1514                     	goto	i1l381
 13299  1514  2D17               u331_20:
 13300  1515                     	line	45
 13301                           	
 13302                           i1l2792:	
 13303  1515                     ;LCD.c: 45:         RA3 = 1;
 13304                           	bsf	(43/8),(43)&7	;volatile
 13305  1515  1585               	line	46
 13306                           ;LCD.c: 46:     } else {
 13307                           	goto	i1l382
 13308  1516  2D18               	
 13309                           i1l381:	
 13310  1517                     	line	47
 13311                           ;LCD.c: 47:         RA3 = 0;
 13312                           	bcf	(43/8),(43)&7	;volatile
 13313  1517  1185               	line	48
 13314                           ;LCD.c: 48:     }
 13315                           	
 13316                           i1l382:	
 13317  1518                     	line	50
 13318                           ;LCD.c: 50:     if(a & 16){
 13319                           	btfss	(i1lcd_port@a),(4)&7
 13320  1518  1E70               	goto	u332_21
 13321  1519  2D1B               	goto	u332_20
 13322  151A  2D1C               u332_21:
 13323  151B                     	goto	i1l383
 13324  151B  2D1E               u332_20:
 13325  151C                     	line	51
 13326                           	
 13327                           i1l2794:	
 13328  151C                     ;LCD.c: 51:         RA4 = 1;
 13329                           	bsf	(44/8),(44)&7	;volatile
 13330  151C  1605               	line	52
 13331                           ;LCD.c: 52:     } else {
 13332                           	goto	i1l384
 13333  151D  2D1F               	
 13334                           i1l383:	
 13335  151E                     	line	53
 13336                           ;LCD.c: 53:         RA4 = 0;
 13337                           	bcf	(44/8),(44)&7	;volatile
 13338  151E  1205               	line	54
 13339                           ;LCD.c: 54:     }
 13340                           	
 13341                           i1l384:	
 13342  151F                     	line	56
 13343                           ;LCD.c: 56:     if(a & 32){
 13344                           	btfss	(i1lcd_port@a),(5)&7
 13345  151F  1EF0               	goto	u333_21
 13346  1520  2D22               	goto	u333_20
 13347  1521  2D23               u333_21:
 13348  1522                     	goto	i1l385
 13349  1522  2D25               u333_20:
 13350  1523                     	line	57
 13351                           	
 13352                           i1l2796:	
 13353  1523                     ;LCD.c: 57:         RA5 = 1;
 13354                           	bsf	(45/8),(45)&7	;volatile
 13355  1523  1685               	line	58
 13356                           ;LCD.c: 58:     } else {
 13357                           	goto	i1l386
 13358  1524  2D26               	
 13359                           i1l385:	
 13360  1525                     	line	59
 13361                           ;LCD.c: 59:         RA5 = 0;
 13362                           	bcf	(45/8),(45)&7	;volatile
 13363  1525  1285               	line	60
 13364                           ;LCD.c: 60:     }
 13365                           	
 13366                           i1l386:	
 13367  1526                     	line	62
 13368                           ;LCD.c: 62:     if(a & 64){
 13369                           	btfss	(i1lcd_port@a),(6)&7
 13370  1526  1F70               	goto	u334_21
 13371  1527  2D29               	goto	u334_20
 13372  1528  2D2A               u334_21:
 13373  1529                     	goto	i1l387
 13374  1529  2D2C               u334_20:
 13375  152A                     	line	63
 13376                           	
 13377                           i1l2798:	
 13378  152A                     ;LCD.c: 63:         RA6 = 1;
 13379                           	bsf	(46/8),(46)&7	;volatile
 13380  152A  1705               	line	64
 13381                           ;LCD.c: 64:     } else {
 13382                           	goto	i1l388
 13383  152B  2D2D               	
 13384                           i1l387:	
 13385  152C                     	line	65
 13386                           ;LCD.c: 65:         RA6 = 0;
 13387                           	bcf	(46/8),(46)&7	;volatile
 13388  152C  1305               	line	66
 13389                           ;LCD.c: 66:     }
 13390                           	
 13391                           i1l388:	
 13392  152D                     	line	68
 13393                           ;LCD.c: 68:     if(a & 128){
 13394                           	btfss	(i1lcd_port@a),(7)&7
 13395  152D  1FF0               	goto	u335_21
 13396  152E  2D30               	goto	u335_20
 13397  152F  2D31               u335_21:
 13398  1530                     	goto	i1l389
 13399  1530  2D33               u335_20:
 13400  1531                     	line	69
 13401                           	
 13402                           i1l2800:	
 13403  1531                     ;LCD.c: 69:         RA7 = 1;
 13404                           	bsf	(47/8),(47)&7	;volatile
 13405  1531  1785               	line	70
 13406                           ;LCD.c: 70:     } else {
 13407                           	goto	i1l391
 13408  1532  2D35               	
 13409                           i1l389:	
 13410  1533                     	line	71
 13411                           ;LCD.c: 71:         RA7 = 0;
 13412                           	bcf	(47/8),(47)&7	;volatile
 13413  1533  1385               	goto	i1l391
 13414  1534  2D35               	line	72
 13415                           ;LCD.c: 72:     }
 13416                           	
 13417                           i1l390:	
 13418  1535                     	line	73
 13419                           	
 13420                           i1l391:	
 13421  1535                     	return
 13422  1535  0008               	opt stack 0
 13423                           GLOBAL	__end_ofi1_lcd_port
 13424                           	__end_ofi1_lcd_port:
 13425  1536                     	signat	i1_lcd_port,89
 13426                           global	___latbits
 13427                           ___latbits	equ	2
 13428  0002                     	global	btemp
 13429                           	btemp set 07Eh
 13430  007E                     
 13431                           	DABS	1,126,2	;btemp
 13432                           	global	wtemp0
 13433                           	wtemp0 set btemp+0
 13434  007E                     	end


Data Sizes:
    Strings     104
    Constant    0
    Data        12
    BSS         34
    Persistent  0
    Stack       0

Auto Spaces:
    Space          Size  Autos    Used
    COMMON           14      9      14
    BANK0            80     79      80
    BANK1            80      8      48
    BANK3            96      0       0
    BANK2            96      0       0

Pointer List with Targets:

    lcd_write_string@a	PTR unsigned char  size(2) Largest target is 16
		 -> STR_17(CODE[9]), STR_16(CODE[9]), STR_15(CODE[15]), STR_14(CODE[16]), 
		 -> STR_13(CODE[2]), s1(BANK1[5]), STR_12(CODE[2]), STR_11(CODE[2]), 
		 -> STR_10(CODE[2]), STR_9(CODE[2]), STR_8(CODE[6]), STR_7(CODE[9]), 
		 -> STR_6(CODE[13]), STR_5(CODE[10]), STR_4(CODE[6]), STR_3(CODE[7]), 
		 -> STR_2(CODE[6]), STR_1(CODE[7]), 


Critical Paths under _main in COMMON

    None.

Critical Paths under _isr in COMMON

    i1_lcd_clear->i1_lcd_cmd
    i1_lcd_cmd->i1_lcd_port

Critical Paths under _main in BANK0

    _main->_boton_lcd
    _lcd_init->_lcd_cmd
    _boton_lcd->_slave_1
    _slave_3->_I2C_Master_Write
    _slave_2->_I2C_Master_Write
    _lcd_clear->_lcd_cmd
    _slave_1->_b0
    _b2->___fltol
    _b1->___fltol
    _b0->___fltol
    ___xxtofl->___wmul
    ___fltol->___fladd
    ___flneg->___xxtofl
    ___fladd->___flneg
    _separa_digitos_rtc->___awdiv
    _mostrar_lcd->_lcd_write_string
    _lcd_write_string->_lcd_write_char
    _lcd_write_char->_lcd_port
    _lcd_set_cursor->_lcd_cmd
    _lcd_cmd->_lcd_port
    _Update_Current_Date_Time->_I2C_Master_Write
    _BCD_2_DEC->_I2C_Master_Read
    _BCD_2_DEC->___wmul
    _Set_Time_Date->_I2C_Master_Write
    _I2C_Master_Write->_DEC_2_BCD
    _DEC_2_BCD->___awdiv
    _I2C_Master_Init->___lldiv

Critical Paths under _isr in BANK0

    None.

Critical Paths under _main in BANK1

    _boton_lcd->_slave_1

Critical Paths under _isr in BANK1

    None.

Critical Paths under _main in BANK3

    None.

Critical Paths under _isr in BANK3

    None.

Critical Paths under _main in BANK2

    None.

Critical Paths under _isr in BANK2

    None.

Call Graph Tables:

 ---------------------------------------------------------------------------------
 (Depth) Function   	        Calls       Base Space   Used Autos Params    Refs
 ---------------------------------------------------------------------------------
 (0) _main                                                 2     2      0   59849
                                             77 BANK0      2     2      0
                    _I2C_Master_Init
                      _Set_Time_Date
           _Update_Current_Date_Time
                       _apagar_luces
                          _boton_lcd
                   _check_infrarrojo
               _configInterrupciones
                        _configPorts
                       _initOsci8MHZ
                          _lcd_clear
                           _lcd_init
                     _lcd_set_cursor
                   _lcd_write_string
                    _primera_llamada
                    _segunda_llamada
                    _tercera_llamada
 ---------------------------------------------------------------------------------
 (1) _tercera_llamada                                      5     3      2     218
                                              0 BANK0      5     3      2
 ---------------------------------------------------------------------------------
 (1) _segunda_llamada                                      5     3      2     218
                                              0 BANK0      5     3      2
 ---------------------------------------------------------------------------------
 (1) _primera_llamada                                      5     3      2     218
                                              0 BANK0      5     3      2
 ---------------------------------------------------------------------------------
 (1) _lcd_init                                             2     2      0     374
                                              4 BANK0      2     2      0
                            _lcd_cmd
                           _lcd_port
 ---------------------------------------------------------------------------------
 (1) _initOsci8MHZ                                         0     0      0       0
 ---------------------------------------------------------------------------------
 (1) _configPorts                                          0     0      0       0
 ---------------------------------------------------------------------------------
 (1) _configInterrupciones                                 0     0      0       0
 ---------------------------------------------------------------------------------
 (1) _check_infrarrojo                                     2     2      0       0
                                              0 BANK0      2     2      0
 ---------------------------------------------------------------------------------
 (1) _boton_lcd                                            1     1      0   46262
                                             76 BANK0      1     1      0
                     _lcd_set_cursor
                     _lcd_write_char
                   _lcd_write_string
                        _mostrar_lcd
                 _separa_digitos_rtc
                            _slave_1
                            _slave_2
                            _slave_3
 ---------------------------------------------------------------------------------
 (2) _slave_3                                              3     3      0    5657
                                             15 BANK0      3     3      0
                    _I2C_Master_Read
                   _I2C_Master_Start
                    _I2C_Master_Stop
                   _I2C_Master_Write
                     _lcd_set_cursor
                   _lcd_write_string
 ---------------------------------------------------------------------------------
 (2) _slave_2                                              3     3      0    5855
                                             15 BANK0      3     3      0
                    _I2C_Master_Read
                   _I2C_Master_Start
                    _I2C_Master_Stop
                   _I2C_Master_Write
                          _lcd_clear
                     _lcd_set_cursor
                   _lcd_write_string
 ---------------------------------------------------------------------------------
 (1) _lcd_clear                                            0     0      0     198
                            _lcd_cmd
 ---------------------------------------------------------------------------------
 (2) _slave_1                                             13    13      0   25162
                                             71 BANK0      5     5      0
                                              0 BANK1      8     8      0
                    _I2C_Master_Read
                   _I2C_Master_Start
                    _I2C_Master_Stop
                   _I2C_Master_Write
                           ___xxtofl
                                 _b0
                                 _b1
                                 _b2
                     _lcd_set_cursor
                     _lcd_write_char
                   _lcd_write_string
 ---------------------------------------------------------------------------------
 (3) _b2                                                  11     7      4    2384
                                             59 BANK0      7     3      4
                            ___fldiv
                            ___fltol
                           ___xxtofl (ARG)
                           _num_case
 ---------------------------------------------------------------------------------
 (3) _b1                                                  11     7      4    7981
                                             59 BANK0     11     7      4
                            ___awdiv
                            ___fladd
                            ___fldiv
                            ___flneg
                            ___fltol
                             ___wmul
                           ___xxtofl
                           _num_case
 ---------------------------------------------------------------------------------
 (3) _b0                                                  12     8      4    8194
                                             59 BANK0     12     8      4
                            ___awdiv
                             ___bmul
                            ___fladd
                            ___fldiv
                            ___flneg
                            ___fltol
                             ___wmul
                           ___xxtofl
                           _num_case
 ---------------------------------------------------------------------------------
 (4) _num_case                                             4     4      0      54
                                              0 BANK0      4     4      0
 ---------------------------------------------------------------------------------
 (4) ___xxtofl                                            14    10      4     702
                                              6 BANK0     14    10      4
                             ___wmul (ARG)
 ---------------------------------------------------------------------------------
 (4) ___fltol                                             11     7      4     609
                                             48 BANK0     11     7      4
                            ___fladd (ARG)
                            ___fldiv (ARG)
                            ___flneg (ARG)
                             ___wmul (ARG)
                           ___xxtofl (ARG)
 ---------------------------------------------------------------------------------
 (4) ___flneg                                              4     0      4     197
                                             20 BANK0      4     0      4
                             ___wmul (ARG)
                           ___xxtofl (ARG)
 ---------------------------------------------------------------------------------
 (4) ___fldiv                                             26    18      8    1577
                                              0 BANK0     26    18      8
 ---------------------------------------------------------------------------------
 (4) ___fladd                                             24    16      8    2414
                                             24 BANK0     24    16      8
                            ___flneg (ARG)
                             ___wmul (ARG)
                           ___xxtofl (ARG)
 ---------------------------------------------------------------------------------
 (4) ___bmul                                               4     3      1     168
                                              0 BANK0      4     3      1
 ---------------------------------------------------------------------------------
 (2) _separa_digitos_rtc                                   1     1      0    3028
                                              9 BANK0      1     1      0
                            ___awdiv
                            ___awmod
 ---------------------------------------------------------------------------------
 (2) _mostrar_lcd                                          1     1      0    3280
                                             11 BANK0      1     1      0
                     _lcd_set_cursor
                     _lcd_write_char
                   _lcd_write_string
 ---------------------------------------------------------------------------------
 (1) _lcd_write_string                                     7     5      2    1656
                                              4 BANK0      7     5      2
                     _lcd_write_char
 ---------------------------------------------------------------------------------
 (2) _lcd_write_char                                       3     3      0     198
                                              1 BANK0      3     3      0
                           _lcd_port
 ---------------------------------------------------------------------------------
 (1) _lcd_set_cursor                                       2     1      1    1426
                                              4 BANK0      2     1      1
                            _lcd_cmd
 ---------------------------------------------------------------------------------
 (2) _lcd_cmd                                              3     3      0     198
                                              1 BANK0      3     3      0
                           _lcd_port
 ---------------------------------------------------------------------------------
 (3) _lcd_port                                             1     1      0     176
                                              0 BANK0      1     1      0
 ---------------------------------------------------------------------------------
 (1) _apagar_luces                                         3     3      0      22
                                              0 BANK0      3     3      0
 ---------------------------------------------------------------------------------
 (1) _Update_Current_Date_Time                             0     0      0    3623
                          _BCD_2_DEC
                    _I2C_Master_Read
                   _I2C_Master_Start
                    _I2C_Master_Stop
                   _I2C_Master_Write
 ---------------------------------------------------------------------------------
 (3) _I2C_Master_Read                                      6     4      2     881
                                              0 BANK0      6     4      2
                    _I2C_Master_Wait
 ---------------------------------------------------------------------------------
 (2) _BCD_2_DEC                                            4     2      2    1048
                                              6 BANK0      4     2      2
                    _I2C_Master_Read (ARG)
                             ___wmul
 ---------------------------------------------------------------------------------
 (4) ___wmul                                               6     2      4     548
                                              0 BANK0      6     2      4
 ---------------------------------------------------------------------------------
 (1) _Set_Time_Date                                        0     0      0    5222
                          _DEC_2_BCD
                   _I2C_Master_Start
                    _I2C_Master_Stop
                   _I2C_Master_Write
 ---------------------------------------------------------------------------------
 (3) _I2C_Master_Write                                     2     0      2    1694
                                             13 BANK0      2     0      2
                          _DEC_2_BCD (ARG)
                    _I2C_Master_Wait
 ---------------------------------------------------------------------------------
 (3) _I2C_Master_Stop                                      0     0      0       0
                    _I2C_Master_Wait
 ---------------------------------------------------------------------------------
 (3) _I2C_Master_Start                                     0     0      0       0
                    _I2C_Master_Wait
 ---------------------------------------------------------------------------------
 (4) _I2C_Master_Wait                                      0     0      0       0
 ---------------------------------------------------------------------------------
 (2) _DEC_2_BCD                                            4     2      2    3528
                                              9 BANK0      4     2      2
                            ___awdiv
                            ___awmod
 ---------------------------------------------------------------------------------
 (3) ___awmod                                              7     3      4    1360
                                              0 BANK0      7     3      4
 ---------------------------------------------------------------------------------
 (4) ___awdiv                                              9     5      4    1668
                                              0 BANK0      9     5      4
 ---------------------------------------------------------------------------------
 (1) _I2C_Master_Init                                      8     4      4     412
                                             14 BANK0      8     4      4
                            ___lldiv
 ---------------------------------------------------------------------------------
 (2) ___lldiv                                             14     6      8     314
                                              0 BANK0     14     6      8
 ---------------------------------------------------------------------------------
 Estimated maximum stack depth 4
 ---------------------------------------------------------------------------------
 (Depth) Function   	        Calls       Base Space   Used Autos Params    Refs
 ---------------------------------------------------------------------------------
 (6) _isr                                                  5     5      0     198
                                              4 COMMON     5     5      0
                        i1_lcd_clear
 ---------------------------------------------------------------------------------
 (7) i1_lcd_clear                                          0     0      0     198
                          i1_lcd_cmd
 ---------------------------------------------------------------------------------
 (8) i1_lcd_cmd                                            3     3      0     198
                                              1 COMMON     3     3      0
                         i1_lcd_port
 ---------------------------------------------------------------------------------
 (9) i1_lcd_port                                           1     1      0     176
                                              0 COMMON     1     1      0
 ---------------------------------------------------------------------------------
 Estimated maximum stack depth 9
 ---------------------------------------------------------------------------------

 Call Graph Graphs:

 _main (ROOT)
   _I2C_Master_Init
     ___lldiv
   _Set_Time_Date
     _DEC_2_BCD
       ___awdiv
       ___awmod
     _I2C_Master_Start
       _I2C_Master_Wait
     _I2C_Master_Stop
       _I2C_Master_Wait
     _I2C_Master_Write
       _DEC_2_BCD (ARG)
         ___awdiv
         ___awmod
       _I2C_Master_Wait (ARG)
   _Update_Current_Date_Time
     _BCD_2_DEC
       _I2C_Master_Read (ARG)
         _I2C_Master_Wait
       ___wmul (ARG)
     _I2C_Master_Read
       _I2C_Master_Wait
     _I2C_Master_Start
       _I2C_Master_Wait
     _I2C_Master_Stop
       _I2C_Master_Wait
     _I2C_Master_Write
       _DEC_2_BCD (ARG)
         ___awdiv
         ___awmod
       _I2C_Master_Wait (ARG)
   _apagar_luces
   _boton_lcd
     _lcd_set_cursor
       _lcd_cmd
         _lcd_port
     _lcd_write_char
       _lcd_port
     _lcd_write_string
       _lcd_write_char
         _lcd_port
     _mostrar_lcd
       _lcd_set_cursor
         _lcd_cmd
           _lcd_port
       _lcd_write_char
         _lcd_port
       _lcd_write_string
         _lcd_write_char
           _lcd_port
     _separa_digitos_rtc
       ___awdiv
       ___awmod
     _slave_1
       _I2C_Master_Read
         _I2C_Master_Wait
       _I2C_Master_Start
         _I2C_Master_Wait
       _I2C_Master_Stop
         _I2C_Master_Wait
       _I2C_Master_Write
         _DEC_2_BCD (ARG)
           ___awdiv
           ___awmod
         _I2C_Master_Wait (ARG)
       ___xxtofl
         ___wmul (ARG)
       _b0
         ___awdiv
         ___bmul
         ___fladd
           ___flneg (ARG)
             ___wmul (ARG)
             ___xxtofl (ARG)
               ___wmul (ARG)
           ___wmul (ARG)
           ___xxtofl (ARG)
             ___wmul (ARG)
         ___fldiv
         ___flneg
           ___wmul (ARG)
           ___xxtofl (ARG)
             ___wmul (ARG)
         ___fltol
           ___fladd (ARG)
             ___flneg (ARG)
               ___wmul (ARG)
               ___xxtofl (ARG)
                 ___wmul (ARG)
             ___wmul (ARG)
             ___xxtofl (ARG)
               ___wmul (ARG)
           ___fldiv (ARG)
           ___flneg (ARG)
             ___wmul (ARG)
             ___xxtofl (ARG)
               ___wmul (ARG)
           ___wmul (ARG)
           ___xxtofl (ARG)
             ___wmul (ARG)
         ___wmul
         ___xxtofl
           ___wmul (ARG)
         _num_case
       _b1
         ___awdiv
         ___fladd
           ___flneg (ARG)
             ___wmul (ARG)
             ___xxtofl (ARG)
               ___wmul (ARG)
           ___wmul (ARG)
           ___xxtofl (ARG)
             ___wmul (ARG)
         ___fldiv
         ___flneg
           ___wmul (ARG)
           ___xxtofl (ARG)
             ___wmul (ARG)
         ___fltol
           ___fladd (ARG)
             ___flneg (ARG)
               ___wmul (ARG)
               ___xxtofl (ARG)
                 ___wmul (ARG)
             ___wmul (ARG)
             ___xxtofl (ARG)
               ___wmul (ARG)
           ___fldiv (ARG)
           ___flneg (ARG)
             ___wmul (ARG)
             ___xxtofl (ARG)
               ___wmul (ARG)
           ___wmul (ARG)
           ___xxtofl (ARG)
             ___wmul (ARG)
         ___wmul
         ___xxtofl
           ___wmul (ARG)
         _num_case
       _b2
         ___fldiv
         ___fltol
           ___fladd (ARG)
             ___flneg (ARG)
               ___wmul (ARG)
               ___xxtofl (ARG)
                 ___wmul (ARG)
             ___wmul (ARG)
             ___xxtofl (ARG)
               ___wmul (ARG)
           ___fldiv (ARG)
           ___flneg (ARG)
             ___wmul (ARG)
             ___xxtofl (ARG)
               ___wmul (ARG)
           ___wmul (ARG)
           ___xxtofl (ARG)
             ___wmul (ARG)
         ___xxtofl (ARG)
           ___wmul (ARG)
         _num_case (ARG)
       _lcd_set_cursor
         _lcd_cmd
           _lcd_port
       _lcd_write_char
         _lcd_port
       _lcd_write_string
         _lcd_write_char
           _lcd_port
     _slave_2
       _I2C_Master_Read
         _I2C_Master_Wait
       _I2C_Master_Start
         _I2C_Master_Wait
       _I2C_Master_Stop
         _I2C_Master_Wait
       _I2C_Master_Write
         _DEC_2_BCD (ARG)
           ___awdiv
           ___awmod
         _I2C_Master_Wait (ARG)
       _lcd_clear
         _lcd_cmd
           _lcd_port
       _lcd_set_cursor
         _lcd_cmd
           _lcd_port
       _lcd_write_string
         _lcd_write_char
           _lcd_port
     _slave_3
       _I2C_Master_Read
         _I2C_Master_Wait
       _I2C_Master_Start
         _I2C_Master_Wait
       _I2C_Master_Stop
         _I2C_Master_Wait
       _I2C_Master_Write
         _DEC_2_BCD (ARG)
           ___awdiv
           ___awmod
         _I2C_Master_Wait (ARG)
       _lcd_set_cursor
         _lcd_cmd
           _lcd_port
       _lcd_write_string
         _lcd_write_char
           _lcd_port
   _check_infrarrojo
   _configInterrupciones
   _configPorts
   _initOsci8MHZ
   _lcd_clear
     _lcd_cmd
       _lcd_port
   _lcd_init
     _lcd_cmd
       _lcd_port
     _lcd_port
   _lcd_set_cursor
     _lcd_cmd
       _lcd_port
   _lcd_write_string
     _lcd_write_char
       _lcd_port
   _primera_llamada
   _segunda_llamada
   _tercera_llamada

 _isr (ROOT)
   i1_lcd_clear
     i1_lcd_cmd
       i1_lcd_port

 Address spaces:
Name               Size   Autos  Total    Cost      Usage
BANK3               60      0       0       9        0.0%
BITBANK3            60      0       0       8        0.0%
SFR3                 0      0       0       4        0.0%
BITSFR3              0      0       0       4        0.0%
BANK2               60      0       0      11        0.0%
BITBANK2            60      0       0      10        0.0%
SFR2                 0      0       0       5        0.0%
BITSFR2              0      0       0       5        0.0%
BANK1               50      8      30       7       60.0%
BITBANK1            50      0       0       6        0.0%
SFR1                 0      0       0       2        0.0%
BITSFR1              0      0       0       2        0.0%
BANK0               50     4F      50       5      100.0%
BITBANK0            50      0       0       4        0.0%
SFR0                 0      0       0       1        0.0%
BITSFR0              0      0       0       1        0.0%
COMMON               E      9       E       1      100.0%
BITCOMMON            E      0       0       0        0.0%
CODE                 0      0       0       0        0.0%
DATA                 0      0      8E      12        0.0%
ABS                  0      0      8E       3        0.0%
NULL                 0      0       0       0        0.0%
STACK                0      0       0       2        0.0%
EEDATA             100      0       0       0        0.0%


Microchip Technology PIC Macro Assembler V2.00 build -1524193055 
Symbol Table                                                                                   Sat Feb 29 12:17:42 2020

                     ___fldiv@aexp 0039                       ___fldiv@bexp 0038  
                                pc 0002                       ___fldiv@sign 0031  
                   ___bmul@product 0022                        __CFG_CP$OFF 0000  
                               _b0 0B88                                 _b1 0A2D  
                               _b2 1480                       ___awdiv@sign 0026  
                               _s1 00B9                 __size_of_DEC_2_BCD 0037  
                               fsr 0004                ___wmul@multiplicand 0022  
                 ?_segunda_llamada 0020                                ?_b0 005B  
                              ?_b1 005B                                ?_b2 005B  
                              l210 11D5                                l202 140E  
                              l203 140E                                l213 1176  
                              b0@m 005B                                l222 0DD0  
                              l206 12DC                                l230 1332  
                              l207 12DC                                l231 133C  
                              l216 12B1                                l400 1167  
                              l240 17FF                                l232 133C  
                              l225 0698                                b1@m 005B  
                              l330 11B3                                l250 163A  
                              l219 1445                                l403 124C  
                              l251 15E4                                l235 0FFF  
                              l243 1771                                l324 147F  
                              l404 125D                                l412 1560  
                              l260 163C                                l252 15E9  
                              l244 1787                                l180 0EA5  
                              l172 0E0D                                l228 1317  
                              l164 09D1                                l333 1187  
                              l405 125C                                l413 153B  
                              l253 15EE                                l245 1787  
                              l173 0ED7                                l181 0ED4  
                              l229 1333                                l165 0A26  
                              b2@m 005B                                l342 119A  
                              l406 125D                                l414 157D  
                              l254 15F3                                l238 17E9  
                              l182 0EC8                                l174 0E5F  
                              l166 0A28                                l327 11A6  
                              l415 157D                                l191 0B87  
                              l255 15F8                                l263 14B9  
                              l239 17FF                                l183 0ED3  
                              l175 0E45                                l167 0A29  
                              l328 11A6                                l248 1612  
                              l256 15FD                                l184 0ED2  
                              l176 0E4E                                l168 0A2A  
                              l329 11B3                                l345 1364  
                              l409 123B                                l257 1602  
                              l249 15DF                                l177 0ED6  
                              l185 0ED7                                l169 0A2A  
                              l506 1263                                l346 1367  
                              l530 11EE                                l258 1607  
                              l266 0AD8                                l178 0E82  
                              l194 13A4                                l339 1190  
                              l507 126D                                l347 136F  
                              l531 11F7                                l259 160C  
                              l179 0ED5                                l195 13A4  
                              l540 08A1                                l508 1282  
                              l380 14D2                                l188 07E5  
                              l532 1201                                l700 096B  
                              l541 08CC                                l509 1287  
                              l381 14D8                                l533 1203  
                              l701 0960                                l269 0C45  
                              l542 08DC                                l390 14F6  
                              l382 14D9                                l702 0971  
                              l198 13D9                                l543 08E6  
                              l391 14F6                                l383 14DF  
                              l375 14C3                                l703 0982  
                              l295 116E                                l199 13D9  
                              l536 08DD                                l384 14E0  
                              l376 14C4                                l800 00A2  
                              l537 089B                                l385 14E6  
                              l377 14CA                                l801 00EE  
                              _AR1 00A7                                l538 088D  
                              l650 16B1                                l386 14E7  
                              l378 14CB                                l394 121F  
                              l810 0155                                l802 00B1  
                              l539 08A0                                l651 16BF  
                              l387 14ED                                l379 14D1  
                              l811 01A8                                l803 0127  
                              l660 1714                                l652 1704  
                              l388 14EE                                l820 0223  
                              l812 0168                                l804 0155  
                              l653 16D6                                l389 14F4  
                              l821 0232                                l813 02F4  
                              l805 014C                                l397 15DA  
                              l654 16CA                                l670 1682  
                              l830 0288                                l822 0249  
                              l814 01A7                                l806 0128  
                              l655 16DB                                l671 1690  
                              l663 164C                                l831 027F  
                              l823 026B                                l815 0190  
                              l807 0135                                l656 16DC  
                              l672 169C                                l664 1656  
                              l840 02DD                                l832 0287  
                              l824 024A                                l816 0193  
                              l808 0138                                l920 0C96  
                              l657 16F5                                l673 16A1  
                              l665 1691                                l841 02E4  
                              l833 0286                                l825 0258  
                              l817 0199                                l809 013E  
                              l921 0CB2                                l658 1703  
                              l666 166B                                l842 02E8  
                              l834 02C3                                l818 0271  
                              l826 025F                                l850 031E  
                              l930 0D00                                l922 0C97  
                              l914 0C62                                l659 170F  
                              l667 165F                                l843 02F4  
                              l835 02C3                                l827 0262  
                              l819 0224                                l851 031B  
                              l923 0CB9                                l915 0C6A  
                              l668 1670                                l836 02C2  
                              l828 026A                                l860 040E  
                              l852 0327                                l692 0906  
                              l924 0CC6                                l916 0C7C  
                              l669 1671                                l837 02DE  
                              l829 0270                                l861 03C0  
                              l853 0338                                l693 0982  
                              l925 0CBA                                l917 0D09  
                              l870 0444                                l862 03E7  
                              l854 034E                                l694 094F  
                              l918 0C8F                                l839 02CE  
                              l871 0469                                l863 03DD  
                              l855 034B                                l695 093B  
                              l927 0CD1                                l919 0C81  
                              l792 004C                                l880 04E9  
                              l872 0460                                l864 0409  
                              l856 0356                                l688 11C1  
                              l696 093C                                l928 0CD1  
                              l793 0062                                l873 0468  
                              l865 0415                                l857 0378  
                              l849 0308                                l689 11C2  
                              l697 094E                                l929 0CDD  
                              l794 005F                                l874 0467  
                              l866 041F                                l858 04FD  
                              l698 0972                                l795 006B  
                              l875 04A1                                l867 043F  
                              l859 038F                                l699 095F  
                              l796 0078                                l876 04A0  
                              l868 0420                                l797 0084  
                              l877 04BD                                l869 042F  
                              l798 009A                                l878 04D9  
                              l799 0097                                l879 04E5  
                              _GIE 005F                                _RA0 0028  
                              _RA1 0029                                _RA2 002A  
                              _RA3 002B                                _RA4 002C  
                              _RA5 002D                                _RA6 002E  
                              _RA7 002F                                _RB7 0037  
                              _RD7 0047                       __CFG_CPD$OFF 0000  
                              _day 00C2                                _min 007C  
                              _sec 0079                                _isr 12DD  
                              _pot 00A0                                fsr0 0004  
                              indf 0000                       ___awmod@sign 0026  
                       i1_lcd_port 14F7                               ??_b0 005F  
                             ??_b1 005F                               ??_b2 005F  
                  ?_lcd_set_cursor 0024                       __CFG_LVP$OFF 0000  
                     ___fltol@exp1 005A                               l2100 14C8  
                             l2110 14EB                               l2102 14CF  
                             l2112 14F2                               l2104 14D6  
                             l2120 122D                               l2200 1203  
                             l3000 0E33                               l2210 16B1  
                             l2202 16A2                               l2106 14DD  
                             l2122 1238                               l2114 1223  
                             l2130 15E9                               l3010 0E4E  
                             l3002 0E3B                               l2220 16C7  
                             l2212 16B5                               l2204 16A5  
                             l2108 14E4                               l2116 1224  
                             l2300 0051                               l2140 1602  
                             l2132 15EE                               l2124 15DE  
                             l3020 0E7C                               l3012 0E55  
                             l3004 0E43                               l2230 16ED  
                             l2222 16CA                               l2214 16BA  
                             l2206 16A9                               l2118 122A  
                             l2310 006B                               l2302 0056  
                             l2142 1607                               l2134 15F3  
                             l2150 163A                               l2126 15DF  
                             l3030 0EA5                               l3022 0E82  
                             l3006 0E45                               l3014 0E5F  
                             l3110 09A6                               l2240 1709  
                             l2232 16F3                               l2224 16D1  
                             l2216 16BF                               l2208 16AE  
                             l2160 11A5                               l2400 0187  
                             l2320 0082                               l2312 0070  
                             l2304 005F                               l2152 163C  
                             l2144 160C                               l2136 15F8  
                             l2128 15E4                               l3040 0ED0  
                             l3032 0EAD                               l3024 0E8A  
                             l3016 0E67                               l3008 0E4B  
                             l3120 09CF                               l3112 09B1  
                             l3104 0983                               b0@p0 0065  
                             l2242 170F                               l2234 16F5  
                             l2226 16D6                               l2218 16C1  
                             l2162 11AC                               l2170 1211  
                             l2410 01A2                               l2402 0190  
                             l2330 0098                               l2322 0084  
                             l2314 0076                               l2306 0060  
                             l2250 11C1                               l2146 1611  
                             l2138 15FD                               l3034 0EB7  
                             l3026 0E94                               l3018 0E71  
                             l3042 1373                               l3050 13A8  
                             l3130 09FB                               l3122 09D1  
                             l3114 09C6                               l3106 0988  
                             l2244 1714                               l2236 16FC  
                             l2228 16DC                               l2180 1274  
                             l2172 121C                               l2164 1207  
                             l2420 0214                               l2404 0193  
                             l2412 01A8                               l2340 00B5  
                             l2324 0089                               l2332 009A  
                             l2316 0078                               l2308 0062  
                             l2500 031C                               l2252 11C2  
                             l2260 0906                               l2148 1612  
                             l3036 0EC2                               l3028 0E9F  
                             l3044 1388                               l3052 13BD  
                             l3060 13F2                               l3140 0A22  
                             l3132 0A0B                               l3124 09D6  
                             l3116 09CB                               l3108 098D  
                             l2238 1704                               l2182 127B  
                             l2174 125E                               l3070 12C5  
                             l2166 1208                               l2190 11EE  
                             l2430 024A                               l2414 01BE  
                             l2422 0224                               l2406 0197  
                             l2350 00C9                               l2342 00B9  
                             l2334 00A8                               l2326 008E  
                             l2318 007E                               l2510 0336  
                             l2502 031E                               l2246 11B4  
                             l2270 092A                               l2262 091B  
                             l2254 08E7                               l3038 0EC8  
                             l3046 1395                               l3054 13CA  
                             l3062 13FF                               l3142 0A26  
                             l3134 0A11                               l3126 09DB  
                             l3118 09CE                               l2184 1282  
                             l2176 1263                               l3072 12D8  
                             l2096 14BD                               l2168 120E  
                             l2192 11F2                               l2440 0262  
                             l2432 0253                               l2424 023A  
                             l2416 020D                               l2408 0199  
                             l2360 00DD                               l2352 00CD  
                             l2344 00BD                               l2336 00AC  
                             l2328 0097                               l2600 0480  
                             l2520 034C                               l2512 0338  
                             l2504 0327                               l2248 11BE  
                             l2280 0955                               l2272 0931  
                             l2264 091C                               l2256 08FC  
                             l3080 131E                               l3048 13A2  
                             l3056 13D7                               l3064 140C  
                             l3136 0A16                               l3128 09EB  
                             b1@p1 0065                               l2186 1287  
                             l2178 1267                               l3066 12B5  
                             l2098 14C1                               l2194 11F7  
                             l2450 0276                               l2442 0267  
                             l2434 0257                               l2426 023F  
                             l2418 020F                               l2370 00EF  
                             l2362 00E1                               l2354 00D1  
                             l2346 00C1                               l2338 00B1  
                             l2290 0039                               l2610 04CC  
                             l2602 0499                               l2530 0377  
                             l2514 033D                               l2522 034E  
                             l2506 032C                               l2282 095E  
                             l2274 093A                               l2266 0924  
                             l2258 0905                               l3082 1326  
                             l3074 130C                               l3058 13DD  
                             l3138 0A1D                               l2700 133D  
                             l3068 12BE                               l2196 11F9  
                             l2188 11EC                               l2460 029B  
                             l2452 027C                               l2436 025C  
                             l2428 0248                               l2444 026B  
                             l2380 013C                               l2372 010B  
                             l2364 00E5                               l2356 00D5  
                             l2348 00C5                               l2292 0040  
                             l2620 04E5                               l2612 04D0  
                             l2604 04A1                               l2540 03A6  
                             l2524 035E                               l2532 0378  
                             l2516 0342                               l2508 0332  
                             l2284 0960                               l2276 093C  
                             l2268 0926                               l3084 1327  
                             l3076 1312                               l2710 1360  
                             l2702 1342                               l2198 1201  
                             l2470 02D6                               l2462 029F  
                             l2454 0283                               l2438 025F  
                             l2446 0271                               l2390 015E  
                             l2382 013E                               l2374 012C  
                             l2366 00E9                               l2358 00D9  
                             l2294 0046                               l2622 04F4  
                             l2614 04D8                               l2606 04AE  
                             l2550 03C5                               l2542 03AE  
                             l2534 037D                               l2526 036A  
                             l2518 034B                               l2286 0972  
                             l2278 094F                               l2630 0C52  
                             l3182 161A                               l3086 1333  
                             l3078 1317                               l2712 1368  
                             l2704 134A                               l2480 02EF  
                             l2472 02DB                               l2464 02BD  
                             l2456 0288                               l2448 0272  
                             l2392 0167                               l2384 0147  
                             l2376 0135                               l2368 00EE  
                             l2296 004A                               l2624 04FD  
                             l2616 04DF                               l2608 04BD  
                             l2560 03F9                               l2552 03D7  
                             l2544 03B6                               l2536 038E  
                             l2528 036E                               l2288 0977  
                             l2640 0C81                               l2632 0C62  
                             l2720 0C26                               l3088 133A  
                             l2714 136F                               l2706 1353  
                             l2810 0B0B                               l2802 0699  
                             l2482 02F3                               l2474 02DE  
                             l2466 02C8                               l2458 028D  
                             l2394 0168                               l2378 0138  
                             l2386 014C                               l2298 004C  
                             l2618 04E3                               l2570 041D  
                             l2562 03FA                               l2554 03DB  
                             l2546 03BE                               l2538 038F  
                             l2490 0306                               l2650 0CBA  
                             l2642 0C8F                               l2634 0C72  
                             l2626 0C49                               l2722 0C38  
                             l2730 0AB5                               b2@p2 0061  
                             l2900 08CA                               l2708 1358  
                             l2820 0B6C                               l2812 0B14  
                             l2804 0AD9                               l2476 02E2  
                             l2468 02CE                               l2396 017F  
                             l2388 0159                               l2580 0438  
                             l2572 0420                               l2564 0409  
                             l2556 03DD                               l2548 03C0  
                             l2492 0308                               l2484 02F5  
                             l2660 0CF5                               l2652 0CC6  
                             l2644 0C97                               l2636 0C7B  
                             l2628 0C4E                               l2724 0C43  
                             l2716 0B88                               l2732 0ACB  
                             l2740 14AC                               l2902 08CC  
                             l2750 1644                               l2814 0B4F  
                             l2806 0AF7                               l2478 02E4  
                             l2398 0183                               l2590 045D  
                             l2574 0429                               l2582 043F  
                             l2558 03E7                               l2566 040E  
                             l2494 030D                               l2486 02FC  
                             l2662 0CFA                               l2654 0CCA  
                             l2646 0C9B                               l2638 0C7C  
                             l2726 0C45                               l2718 0C10  
                             l2734 0AD6                               l2742 14B7  
                             l2830 0F47                               l2822 0ED8  
                             l2670 1161                               l2904 08D5  
                             l2760 165C                               l2752 1649  
                             l2680 123F                               l2672 1536  
                             l2816 0B5A                               l2808 0B02  
                             l2592 0464                               l2584 0444  
                             l2576 042D                               l2568 0415  
                             l2496 0312                               l2488 0302  
                             l2664 0CFE                               l2656 0CD5  
                             l2648 0CA9                               l2736 0AD8  
                             l2728 0A2D                               l2744 14B9  
                             l2840 0FEE                               l2832 0F69  
                             l2824 0EFF                               l2920 1168  
                             l2906 08DD                               l2770 167B  
                             l2762 165F                               l2754 164C  
                             l2746 163D                               l2690 1184  
                             l2682 1244                               l2674 153B  
                             l2818 0B63                               l2594 0469  
                             l2586 0445                               l2578 042F  
                             l2498 031B                               l2666 0D00  
                             l2658 0CDF                               l2738 1480  
                             l2842 0FF4                               l2834 0F96  
                             l2826 0F0E                               l2850 17C0  
                             l2930 11CE                               l2922 11C3  
                             l2908 08E6                               l2780 169C  
                             l2772 1682                               l2764 1666  
                             l2756 1650                               l2748 1640  
                             l2692 1191                               l2684 124C  
                             l2676 1557                               l2596 046E  
                             l2588 0449                               l2668 0D09  
                             l2836 0FB8                               l2828 0F18  
                             l2860 17F3                               l2852 17CA  
                             l2844 1788                               l2940 116F  
                             l2932 11CF                               l2924 11C6  
                             l2782 16A1                               l2774 1689  
                             l2766 166B                               l2758 1656  
                             l2694 1196                               l2686 1254  
                             l2678 1560                               l2598 047C  
                             l2838 0FE3                               l2854 17D5  
                             l2846 17AF                               l2870 1757  
                             l2862 1715                               l2934 11D0  
                             l2926 11C8                               l2950 15A9  
                             l2942 157E                               l2768 1671  
                             l2776 1691                               l2688 117F  
                             l2696 1188                               l2880 12B1  
                             l2856 17E3                               l2848 17B9  
                             l2872 1762                               l2864 173C  
                             l2936 11D1                               l2928 11CB  
                             l2960 15CE                               l2952 15B6  
                             l2944 1589                               l2890 088D  
                             l2970 147C                               l2778 1696  
                             l2882 140F                               l2698 118D  
                             l2858 17E9                               l2874 1771  
                             l2866 1746                               l2938 11D4  
                             l2962 15D4                               l2954 15BC  
                             l2946 158F                               l2892 089B  
                             l2972 147D                               l2964 1446  
                             l2884 1445                               l2876 177B  
                             l2868 174D                               l2980 0DD1  
                             l2956 15C2                               l2948 159F  
                             l2894 08A1                               l2886 0878  
                             l2974 147E                               l2966 144A  
                             l2878 1288                               l2990 0E07  
                             l2982 0DD8                               l2958 15C8  
                             l2896 08AA                               l2888 088A  
                             l2968 144D                               l2976 0D0A  
                             l2984 0DE2                               l2992 0E0D  
                             l2898 08BC                               l2978 04FE  
                             l2994 0E14                               l2986 0DED  
                             l2996 0E1E                               l2988 0E02  
                             l2998 0E29                               ?_isr 0070  
                             STR_1 0861                               STR_2 0868  
                             STR_3 0861                               STR_4 0868  
                             STR_5 083C                               STR_6 082F  
                             STR_7 084F                               STR_8 086E  
                             STR_9 0874                               u2000 1281  
                             u2001 1280                               u2010 11F2  
                             u2011 11F1                               u2020 1200  
                             u2021 11FF                               u2110 1702  
                             u2030 16A9                               u2111 1701  
                             u2031 16A8                               u2120 1709  
                             u2040 16B5                               u2200 0955  
                             u3000 0C52                               u2121 1708  
                             u2105 16F6                               u2041 16B4  
                             u2201 0954                               u3001 0C51  
                             u2050 16C7                               u2130 11BE  
                             u3010 0C72                               u2051 16C6  
                             u2131 11BD                               u3011 0C71  
                             u2300 008E                               u2220 0970  
                             u2140 08FC                               u3100 0CEA  
                             u2301 008D                               u2221 096F  
                             u2141 08FB                               u2070 16DA  
                             u2310 00A8                               u2230 0977  
                             u2150 0914                               u3110 0CFA  
                             u3030 0C95                               u2071 16D9  
                             u2311 00A7                               u2231 0976  
                             u2215 0962                               u3111 0CF9  
                             u3031 0C94                               u3200 1650  
                             u2400 0159                               u2320 00AC  
                             u2240 004A                               u2160 092A  
                             u3120 0CFE                               u2065 16CB  
                             u3201 164F                               u2401 0158  
                             u2321 00AB                               u2241 0049  
                             u2161 0929                               u3121 0CFD  
                             u3105 0CE5                               u3025 0C86  
                             u2090 16ED                               u3210 165C  
                             u3130 1545                               u2410 015E  
                             u2330 010B                               u2250 0051  
                             u2170 0931                               u3050 0CB8  
                             u2091 16EC                               u3211 165B  
                             u2411 015D                               u2331 010A  
                             u2251 0050                               u2171 0930  
                             u2155 090F                               u3051 0CB7  
                             u3140 156A                               u2500 0214  
                             u2340 0116                               u2260 0056  
                             u2085 16DD                               u2501 0213  
                             u2421 0171                               u2341 0114  
                             u2261 0055                               u3045 0CAA  
                             u3230 166F                               u3150 157C  
                             u2510 023A                               u2430 0183  
                             u2422 0178                               u2350 0117  
                             u2270 0076                               u2190 094D  
                             u3070 0CCA                               u2095 16E9  
                             u3231 166E                               u3151 157B  
                             u2511 0239                               u2431 0182  
                             u2423 017F                               u2335 0107  
                             u2271 0075                               u2191 094C  
                             u3071 0CC9                               u3400 089F  
                             u3240 167B                               u3160 1244  
                             u2600 0283                               u2520 023F  
                             u2440 0187                               u2360 012C  
                             u2280 0082                               u3080 0CD0  
                             u3401 089E                               u3241 167A  
                             u3225 1660                               u3161 1243  
                             u2601 0282                               u2521 023E  
                             u2441 0186                               u2361 012B  
                             u2281 0081                               u2185 093D  
                             u3081 0CCF                               u3065 0CBE  
                             u3170 1254                               u2610 028D  
                             u2450 0197                               u2370 013C  
                             u2290 0089                               u3090 0CD5  
                             u3171 1253                               u2611 028C  
                             u2451 0196                               u2371 013B  
                             u2291 0088                               u3091 0CD4  
                             u3420 08BC                               u3260 168F  
                             u3180 1360                               u1900 14D6  
                             u2620 029F                               u2540 0257  
                             u2700 0306                               u3500 0E67  
                             u3421 08BB                               u3261 168E  
                             u3245 1677                               u3181 135F  
                             u1901 14D5                               u2621 029E  
                             u2541 0256                               u2701 0305  
                             u3501 0E66                               u3270 1696  
                             u3190 1644                               u1910 14DD  
                             u2630 02AE                               u2550 025C  
                             u2470 01BE                               u2390 0154  
                             u2710 030D                               u3510 0E8A  
                             u3415 08A3                               u3271 1695  
                             u3255 1683                               u3191 1643  
                             u1911 14DC                               u2551 025B  
                             u2535 024C                               u2471 01BD  
                             u2391 0153                               u2711 030C  
                             u3511 0E89                               u3440 08DB  
                             u1920 14E4                               u2640 02BD  
                             u2560 0267                               u2480 01E4  
                             u2720 0312                               u3360 17C0  
                             u3520 0EAD                               u3600 13F2  
                             u3441 08DA                               u3425 08B8  
                             u1921 14E3                               u2641 02BC  
                             u2561 0266                               u2481 01E5  
                             u2473 01BA                               u2465 019B  
                             u2385 0140                               u2721 0311  
                             u3361 17BF                               u3521 0EAC  
                             u3601 13F1                               u3450 145D  
                             u1930 14EB                               u2650 02C8  
                             u2570 026F                               u2490 01F6  
                             u2482 01EA                               u2810 03DB  
                             u2730 0336                               u3370 174D  
                             u3530 0ED0                               u3610 13FF  
                             u3435 08CD                               u1931 14EA  
                             u2651 02C7                               u2635 02A9  
                             u2571 026E                               u2491 01F7  
                             u2483 01EB                               u2811 03DA  
                             u2731 0335                               u3371 174C  
                             u3531 0ECF                               u3611 13FE  
                             u3380 088A                               u1940 14F2  
                             u2660 02CD                               u2580 0276  
                             u2492 01FC                               u2900 0449  
                             u2740 033D                               u3460 0DD8  
                             u3540 1388                               u3620 140C  
                             u3381 0889                               u1941 14F1  
                             u2661 02CC                               u2581 0275  
                             u2493 01FD                               u2901 0448  
                             u2805 03D0                               u2741 033C  
                             u3461 0DD7                               u3541 1387  
                             u3621 140B                               u3605 13EE  
                             u1950 11AC                               u3630 12BE  
                             u1870 14C1                               u2670 02DB  
                             u2590 027C                               u2910 045D  
                             u2830 03F9                               u2750 0342  
                             u3470 0E14                               u3550 1395  
                             u3710 0A1D                               u3455 1458  
                             u1951 11AB                               u3631 12BD  
                             u1871 14C0                               u2671 02DA  
                             u2591 027B                               u2911 045C  
                             u2831 03F8                               u2751 0341  
                             u3471 0E13                               u3551 1394  
                             u3615 13FB                               u3711 0A1C  
                             u1960 11B2                               u3640 12C5  
                             u1880 14C8                               u2680 02E2  
                             u2920 0464                               u2840 0414  
                             u2760 035E                               u3480 0E3B  
                             u3560 13A2                               u1961 11B1  
                             u3641 12C4                               u1881 14C7  
                             u2681 02E1                               u2921 0463  
                             u2841 0413                               u2825 03DF  
                             u2761 035D                               u3481 0E3A  
                             u3561 13A1                               u3545 1384  
                             u3625 1408                               u1970 1267  
                             u3650 12D8                               u1890 14CF  
                             u2690 02F3                               u2930 046E  
                             u2850 041D                               u2770 037D  
                             u3490 0E4B                               u3570 13BD  
                             u3395 088F                               u1971 1266  
                             u3651 12D7                               u1891 14CE  
                             u2691 02F2                               u2931 046D  
                             u2851 041C                               u2835 03F5  
                             u2771 037C                               u3491 0E4A  
                             u3555 1391                               u3571 13BC  
                             _PEIE 005E                               u2940 0480  
                             u2780 03C5                               u3660 1312  
                             u3580 13CA                               u2941 047F  
                             u2781 03C4                               u3661 1311  
                             u3565 139E                               u3581 13C9  
                             u2950 048F                               u2870 042D  
                             u3670 131E                               u3590 13D7  
                             u3655 12D4                               u2871 042C  
                             u3807 17DD                               u3671 131D  
                             u3727 1584                               u3591 13D6  
                             u3575 13B9                               u2960 04AE  
                             u3680 133A                               u1985 126E  
                             u2961 04AD                               u2865 0422  
                             u3817 0F07                               u3681 1339  
                             u3737 1595                               u3585 13C6  
                             u2970 04CC                               u2890 0443  
                             u1995 1275                               u3827 1233  
                             u2971 04CB                               u2955 048A  
                             u2891 0442                               u2795 03C7  
                             u3747 15A5                               u3595 13D3  
                             u2980 04E3                               u3837 1217  
                             u2981 04E2                               u2965 04AA  
                             u2885 0431                               u3757 15B3  
                             u2990 0C4E                               u2975 04C8  
                             u2991 0C4D                               u3767 132D  
                             u3777 1742                               u3787 176A  
                             u3797 17B5                    lcd_write_char@a 0023  
                     __CFG_WRT$OFF 0000             __end_of_lcd_write_char 123C  
                             _date 00C4                               _main 0983  
                             _hour 00C6                               _modo 00AE  
                             _humo 00AA                               _year 00BE  
                             btemp 007E                               start 000C  
                    __CFG_IESO$OFF 0000                    ___fldiv@new_exp 0032  
                      i1_lcd_clear 115A                  ___bmul@multiplier 0023  
                       i1lcd_cmd@a 0073               __end_of_apagar_luces 12DD  
                            ??_isr 0074                   ?_I2C_Master_Init 002E  
                 ?_I2C_Master_Read 0020                   ?_I2C_Master_Wait 0070  
                 ?_I2C_Master_Stop 0070                              b0@bb0 0064  
                            b0@bb1 0063                              b0@bb2 0062  
                            b1@bb1 0063                              b1@bb2 0062  
                    ___fltol@sign1 0059                              b2@bb2 0060  
                  __end_of___fladd 02F5                              ?_main 0070  
                  __end_of___fldiv 04FE                    __end_of___awdiv 1715  
                  __end_of___flneg 11C3                              STR_10 0874  
                            STR_11 0866                              STR_12 0866  
                            STR_13 0876                              STR_14 0810  
                            STR_15 0820                              STR_16 0858  
                            STR_17 0846                      __CFG_WDTE$OFF 0000  
                  __end_of___awmod 16A2                    __end_of___fltol 0983  
                            _ANSEL 0188                    __end_of___lldiv 08E7  
                  ___awdiv@divisor 0020                              i1l400 1160  
                            i1l157 1305                              i1l158 1304  
                            i1l159 1305                              i1l380 1511  
                            i1l381 1517                              i1l390 1535  
                            i1l382 1518                              i1l391 1535  
                            i1l383 151E                              i1l375 1500  
                            i1l384 151F                              i1l376 1503  
                            i1l385 1525                              i1l377 1509  
                            i1l386 1526                              i1l378 150A  
                            i1l394 07FF                              i1l387 152C  
                            i1l379 1510                              i1l388 152D  
                            i1l389 1533                    ___awdiv@counter 0025  
                            _PORTA 0005       __end_of_configInterrupciones 1177  
                            _PORTB 0006                              _PORTD 0008  
                            _PORTE 0009                              _TRISA 0085  
                            _TRISB 0086                              _TRISD 0088  
                            _SSPIE 0463                              _TRISE 0089  
                            _SSPIF 0063                     __CFG_FCMEN$OFF 0000  
                  __end_of_lcd_cmd 1220                  __end_of_BCD_2_DEC 12B2  
                            _min_0 00B8                              _min_1 00B7  
                            _sec_0 006F                              _sec_1 007B  
                            _month 00C0                              _sismo 00AB  
                   __CFG_BOREN$OFF 0000                              pclath 000A  
                  __end_of_slave_1 1000                    __end_of_slave_2 1800  
                  __end_of_slave_3 1788                  __end_of_DEC_2_BCD 1446  
                  ?_lcd_write_char 0070                              status 0003  
                            wtemp0 007E                   _check_infrarrojo 130C  
                   __CFG_MCLRE$OFF 0000                    __initialization 000F  
               __size_ofi1_lcd_cmd 001A                    _tercera_llamada 13DA  
                     __end_of_main 0A2D                        i1lcd_port@a 0070  
                    ?_initOsci8MHZ 0070           __size_of_primera_llamada 0035  
                           ??_main 006D                  ?_I2C_Master_Start 0070  
                ?_I2C_Master_Write 002D                        ?i1_lcd_port 0070  
               ??_I2C_Master_Start 0020                 ??_I2C_Master_Write 002F  
                 ___awdiv@dividend 0022                             _ANSELH 0189  
                           i1l3100 12F3                             i1l3102 12F7  
                           i1l3090 115A                             i1l3092 12DD  
                           i1l3094 12E1                             i1l2800 1531  
                           i1l3096 12E8                             i1l3098 12EE  
                           i1l2910 07E7                             i1l2912 07EA  
                           i1l2914 07F0                             i1l2916 07F3  
                           i1l2790 150E                             i1l2918 07FC  
                           i1l2792 1515                             i1l2784 14F8  
                           i1l2794 151C                             i1l2786 14FC  
                           i1l2796 1523                             i1l2788 1507  
                           i1l2798 152A                             u330_20 150E  
                           u330_21 150D                             u331_20 1515  
                           u331_21 1514                             u332_20 151C  
                           u332_21 151B                             u333_20 1523  
                           u333_21 1522                             u334_20 152A  
                           u334_21 1529                             u335_20 1531  
                           u335_21 1530                             u328_20 14FC  
                           u328_21 14FB                             u329_20 1507  
                           u329_21 1506                             u370_20 12E8  
                           u370_21 12E7                             u384_27 12FD  
                           u369_20 12E1                             u369_21 12E0  
                           u385_27 07F7                             _SSPADD 0093  
                           _TRISC3 043B                             _TRISC4 043C  
                           _SSPCON 0014                             _SSPBUF 0013  
                 __end_of___xxtofl 0D0A                     __CFG_PWRTE$OFF 0000  
                 __end_of_lcd_init 15DB                   __end_of_lcd_port 14F7  
                           ___bmul 11E9               __size_of_configPorts 0013  
                        ??___fladd 0040                             ___wmul 125E  
                        ??___fldiv 0028                             _date_0 00B4  
                        ??___awdiv 0024                             _date_1 00B3  
                        ??___flneg 0038                          ??___awmod 0024  
                        ??___fltol 0054                          ??___lldiv 0028  
                   ??_initOsci8MHZ 0020                             _hour_0 00B6  
                           _hour_1 00B5                   segunda_llamada@h 0024  
                 segunda_llamada@m 0020                   segunda_llamada@s 0021  
                           _s_humo 00A5                   ___awdiv@quotient 0027  
                  ___awmod@divisor 0020           __end_of_lcd_write_string 157E  
                           _year_0 00B0                             _year_1 00AF  
                  ___awmod@counter 0025   __end_of_Update_Current_Date_Time 0699  
                        ??_lcd_cmd 0021                       __pdataCOMMON 007C  
                     ?_mostrar_lcd 0070                   __end_of_num_case 163D  
                           saved_w 007E                          ??_slave_1 0067  
                        ??_slave_2 002F                          ??_slave_3 002F  
                __end_ofi1_lcd_cmd 0800                       ___xxtofl@arg 0030  
                lcd_write_string@a 0024                       ___xxtofl@exp 002F  
                lcd_write_string@i 0029                       ___xxtofl@val 0026  
          __end_of__initialization 0035                         ___flneg@f1 0034  
          __end_of_tercera_llamada 140F              __size_of_apagar_luces 002B  
                       ___fltol@f1 0050                ___bmul@multiplicand 0020  
             _configInterrupciones 116F                     __pcstackCOMMON 0070  
                     __pidataBANK1 119B                __size_ofi1_lcd_port 003F  
                       __end_of_b0 0C46                         __end_of_b1 0AD9  
                       __end_of_b2 14BA                   ??_lcd_set_cursor 0025  
      __size_of_separa_digitos_rtc 014D                  ??_primera_llamada 0022  
               __size_of_lcd_clear 0007                       _apagar_luces 12B2  
               __size_of_boton_lcd 0107                         __pbssBANK0 006F  
                       __pbssBANK1 00A0              ?_configInterrupciones 0070  
                 primera_llamada@h 0024                   primera_llamada@m 0020  
                 primera_llamada@s 0021                       ?i1_lcd_clear 0070  
                       __pmaintext 0983                            ?___bmul 0020  
                          ?___wmul 0020                         __pintentry 0004  
                          b0@local 0066                            b1@local 0064  
         __end_of_check_infrarrojo 133D                          ?___xxtofl 0026  
         _Update_Current_Date_Time 04FE             __size_of_Set_Time_Date 00C7  
         __size_of_segunda_llamada 0035                   ??_lcd_write_char 0021  
                          _SSPCON2 0091                          ?_lcd_init 0070  
                          _SSPSTAT 0094                          ?_lcd_port 0070  
                       __stringtab 0800               __end_of_initOsci8MHZ 116F  
                        _BCD_2_DEC 1288                   ?_tercera_llamada 0020  
                        _DEC_2_BCD 140F                  __end_of_lcd_clear 1168  
                        ?_num_case 0070                    __size_of___bmul 001B  
                          ___fladd 0039                            ___fldiv 02F5  
                          ___awdiv 16A2                            ___flneg 11B4  
                          ___awmod 163D                            ___fltol 08E7  
                          ___lldiv 0878                    __size_of___wmul 002A  
                __end_of_boton_lcd 0ED8                            _decenas 00A8  
                          __ptext1 13DA                            __ptext2 13A5  
                          __ptext3 1370                            __ptext4 157E  
                          __ptext5 1168                            __ptext6 11C3  
                          __ptext7 116F                            __ptext8 130C  
                          __ptext9 0DD1                            _lcd_cmd 1204  
                     __size_of_isr 002F                         ??___xxtofl 002A  
                 ___awmod@dividend 0022                            _month_0 00B2  
                          _month_1 00B1           __size_of_I2C_Master_Init 003A  
         __size_of_I2C_Master_Read 0033                            _slave_1 0ED8  
                          _slave_2 1788                            _slave_3 1715  
                     ??i1_lcd_port 0070           __size_of_I2C_Master_Wait 000F  
         __size_of_I2C_Master_Stop 0009               __size_of_mostrar_lcd 00AF  
                          clrloop0 1178                         ??_lcd_init 0024  
                       ??_lcd_port 0020               end_of_initialization 0035  
                       ?_BCD_2_DEC 0026                        num_case@num 0022  
           ??_configInterrupciones 0020          __size_of_I2C_Master_Start 0009  
                       ?_DEC_2_BCD 0029          __size_of_I2C_Master_Write 000A  
                  ___lldiv@divisor 0020                    ___lldiv@counter 002D  
                    _Set_Time_Date 0D0A                         ??_num_case 0020  
                 I2C_Master_Init@c 002E                   I2C_Master_Read@a 0020  
               __end_ofi1_lcd_port 1536                      apagar_luces@t 0022  
                        _PORTBbits 0006                  ?_lcd_write_string 0024  
                        _PORTDbits 0008                        ___fladd@grs 004F  
               ??_lcd_write_string 0026                      ___xxtofl@sign 002E  
                        _TRISCbits 0087                        ___fldiv@grs 0034  
                      ___fldiv@rem 002D                          i1_lcd_cmd 07E6  
                ??_segunda_llamada 0022                      ??_configPorts 0020  
                   ?_Set_Time_Date 0070                BCD_2_DEC@to_convert 0026  
             __size_ofi1_lcd_clear 0007                    _primera_llamada 1370  
                   __end_of___bmul 1204                     __end_of___wmul 1288  
                    __pidataCOMMON 1158                start_initialization 000F  
            __size_of_initOsci8MHZ 0007                        __end_of_isr 130C  
                      ??_BCD_2_DEC 0028                         ?i1_lcd_cmd 0070  
                ??_I2C_Master_Init 0032                  ??_I2C_Master_Read 0022  
                ??_I2C_Master_Wait 0020                  ??_I2C_Master_Stop 0020  
         __CFG_FOSC$INTRC_NOCLKOUT 0000                        ??_DEC_2_BCD 002B  
                         ??___bmul 0021                           ??___wmul 0024  
                       init_fetch0 11D6                      _s_temperatura 00A6  
                      __pdataBANK1 00BE                __end_of_configPorts 11D6  
       ??_Update_Current_Date_Time 002F                       _initOsci8MHZ 1168  
       __end_of_separa_digitos_rtc 07E6                          ___fladd@a 003C  
                        ___fladd@b 0038                          ___fldiv@a 0020  
                        ___fldiv@b 0024                        __pbssCOMMON 0079  
                        ___latbits 0002                  ?_check_infrarrojo 0070  
                    __pcstackBANK0 0020                      __pcstackBANK1 00C8  
                __size_of___xxtofl 00C4                 ??_check_infrarrojo 0020  
                __size_of_lcd_init 005D                  __size_of_lcd_port 003D  
                  ??_Set_Time_Date 002F                   _I2C_Master_Start 117F  
          __end_of_primera_llamada 13A5                   _I2C_Master_Write 1191  
                         ?___fladd 0038                           ?___fldiv 0020  
                         ?___awdiv 0020                           ?___flneg 0034  
                         ?___awmod 0020                           ?___fltol 0050  
                         ?___lldiv 0020                  __size_of_num_case 0062  
                        _lcd_clear 1161                          __pstrings 0800  
                         ?_lcd_cmd 0070                          _boton_lcd 0DD1  
                         ?_slave_1 0070                           ?_slave_2 0070  
                         ?_slave_3 0070                   tercera_llamada@h 0024  
                 tercera_llamada@m 0020                   tercera_llamada@s 0021  
                      __size_of_b0 00BE                        __size_of_b1 00AC  
                      __size_of_b2 003A            __size_of_lcd_set_cursor 0022  
                      ??i1_lcd_cmd 0071                  interrupt_function 0004  
                   ___wmul@product 0024                           _IOCBbits 0096  
                        _s_temblor 00A4                          clear_ram0 1177  
                  lcd_set_cursor@a 0025                    lcd_set_cursor@b 0024  
                      _configPorts 11C3           __size_of_tercera_llamada 0035  
                       ?_lcd_clear 0070                        __stringbase 080F  
                ___wmul@multiplier 0020                         ?_boton_lcd 0070  
                    ??_mostrar_lcd 002B                          lcd_port@a 0020  
                  _segunda_llamada 13A5                I2C_Master_Read@temp 0024  
        __size_of_lcd_write_string 0048                   ?_primera_llamada 0020  
          __size_of_lcd_write_char 001C      __size_of_configInterrupciones 0008  
                 __size_of___fladd 02BC                   __size_of___fldiv 0209  
                 __size_of___awdiv 0073                   __size_of___flneg 000F  
                 __size_of___awmod 0065                   __size_of___fltol 009C  
                 __size_of___lldiv 006F                 __end_of__stringtab 0810  
                 __size_of_lcd_cmd 001C                    _I2C_Master_Init 1446  
                  _I2C_Master_Read 133D                           ___xxtofl 0C46  
                  _I2C_Master_Wait 11A5                    _I2C_Master_Stop 1188  
                    ?_apagar_luces 0070                           __ptext10 1715  
                         __ptext11 1788                           __ptext20 11B4  
                         __ptext12 1161                           __ptext21 02F5  
                         __ptext13 0ED8                           __ptext30 14BA  
                         __ptext22 0039                           __ptext14 1480  
                         __ptext31 12B2                           __ptext23 11E9  
                         __ptext15 0A2D                           __ptext40 11A5  
                         __ptext32 04FE                           __ptext24 0699  
                         __ptext16 0B88                           __ptext41 140F  
                         __ptext33 133D                           __ptext25 0AD9  
                         __ptext17 15DB                           __ptext42 163D  
                         __ptext34 1288                           __ptext26 1536  
                         __ptext18 0C46                           __ptext43 16A2  
                         __ptext35 125E                           __ptext27 1220  
                         __ptext19 08E7                           __ptext44 1446  
                         __ptext36 0D0A                           __ptext28 123C  
                         __ptext45 0878                           __ptext37 1191  
                         __ptext29 1204                           __ptext46 12DD  
                         __ptext38 1188                           __ptext47 115A  
                         __ptext39 117F                           __ptext48 07E6  
                         __ptext49 14F7                   __size_of_slave_1 0128  
                 __size_of_slave_2 0078                   __size_of_slave_3 0073  
                     _slave_1$1192 00C8                       _slave_1$1193 00CC  
                __CFG_BOR4V$BOR40V 0000                           _lcd_init 157E  
                         _lcd_port 14BA                __end_of_mostrar_lcd 0B88  
                      _limpiar_lcd 00AD                      __size_of_main 00AA  
                    ??i1_lcd_clear 0074                          num_case@r 0023  
                         _num_case 15DB                           _unidades 00A9  
                         lcd_cmd@a 0023                        ??_lcd_clear 0024  
          __end_of_segunda_llamada 13DA                        ??_boton_lcd 006C  
                ??_tercera_llamada 0022           __end_of_I2C_Master_Start 1188  
         __end_of_I2C_Master_Write 119B                         _INTCONbits 000B  
                   ??_apagar_luces 0020                           init_ram0 11DA  
                         intlevel1 0000                     _lcd_set_cursor 123C  
               _separa_digitos_rtc 0699                   ___lldiv@dividend 0024  
        __size_of_check_infrarrojo 0031                          stringcode 080A  
              ?_separa_digitos_rtc 0070                         _OSCCONbits 008F  
          __end_of_I2C_Master_Init 1480            __end_of_I2C_Master_Read 1370  
          __end_of_I2C_Master_Wait 11B4            __end_of_I2C_Master_Stop 1191  
              __end_ofi1_lcd_clear 1161                        _temperatura 00AC  
                 ___lldiv@quotient 0029                  I2C_Master_Write@d 002D  
             ??_separa_digitos_rtc 0029                        _mostrar_lcd 0AD9  
                         stringdir 080A                           stringtab 0800  
                      _SSPCON2bits 0091             __end_of_lcd_set_cursor 125E  
                    ___fladd@signs 004C  __size_of_Update_Current_Date_Time 019B  
        ?_Update_Current_Date_Time 0070                   _lcd_write_string 1536  
                     ___fladd@aexp 004D                       ___fladd@bexp 004E  
                   _lcd_write_char 1220                       ?_configPorts 0070  
            __end_of_Set_Time_Date 0DD1                DEC_2_BCD@to_convert 0029  
               __size_of_BCD_2_DEC 002A  
