

Microchip MPLAB XC8 Assembler V2.10 build 88905656 
                                                                                               Fri Feb 28 23:32:39 2020

Microchip MPLAB XC8 C Compiler v2.10 (Free license) build 20190730164152 Og1 
     1                           	processor	16F887
     2                           	opt	pw 120
     3                           	opt	flic
     4                           	psect	strings,global,class=STRING,delta=2
     5                           	psect	cinit,global,class=CODE,merge=1,delta=2
     6                           	psect	bssBANK0,global,class=BANK0,space=1,delta=1
     7                           	psect	cstackCOMMON,global,class=COMMON,space=1,delta=1
     8                           	psect	cstackBANK0,global,class=BANK0,space=1,delta=1
     9                           	psect	maintext,global,class=CODE,split=1,delta=2
    10                           	psect	text1,local,class=CODE,merge=1,delta=2
    11                           	psect	text2,local,class=CODE,merge=1,delta=2
    12                           	psect	text3,local,class=CODE,merge=1,delta=2
    13                           	psect	text4,local,class=CODE,merge=1,delta=2
    14                           	psect	text5,local,class=CODE,merge=1,delta=2,group=1
    15                           	psect	text6,local,class=CODE,merge=1,delta=2,group=1
    16                           	psect	text7,local,class=CODE,merge=1,delta=2,group=1
    17                           	psect	text8,local,class=CODE,merge=1,delta=2,group=1
    18                           	psect	text9,local,class=CODE,merge=1,delta=2,group=1
    19                           	psect	text10,local,class=CODE,merge=1,delta=2,group=1
    20                           	psect	text11,local,class=CODE,merge=1,delta=2,group=1
    21                           	psect	text12,local,class=CODE,merge=1,delta=2,group=1
    22                           	psect	text13,local,class=CODE,merge=1,delta=2
    23                           	psect	text14,local,class=CODE,merge=1,delta=2
    24                           	psect	text15,local,class=CODE,merge=1,delta=2
    25                           	psect	text16,local,class=CODE,merge=1,delta=2
    26                           	psect	text17,local,class=CODE,merge=1,delta=2
    27                           	psect	text18,local,class=CODE,merge=1,delta=2
    28                           	psect	text19,local,class=CODE,merge=1,delta=2
    29                           	psect	text20,local,class=CODE,merge=1,delta=2
    30                           	psect	text21,local,class=CODE,merge=1,delta=2
    31                           	psect	text22,local,class=CODE,merge=1,delta=2
    32                           	psect	text23,local,class=CODE,merge=1,delta=2
    33                           	psect	text24,local,class=CODE,merge=1,delta=2
    34                           	psect	text25,local,class=CODE,merge=1,delta=2,group=1
    35                           	dabs	1,0x7E,2
    36  0000                     
    37                           ; Version 2.10
    38                           ; Generated 31/07/2019 GMT
    39                           ; 
    40                           ; Copyright © 2019, Microchip Technology Inc. and its subsidiaries ("Microchip")
    41                           ; All rights reserved.
    42                           ; 
    43                           ; This software is developed by Microchip Technology Inc. and its subsidiaries ("Microch
      +                          ip").
    44                           ; 
    45                           ; Redistribution and use in source and binary forms, with or without modification, are
    46                           ; permitted provided that the following conditions are met:
    47                           ; 
    48                           ;     1. Redistributions of source code must retain the above copyright notice, this lis
      +                          t of
    49                           ;        conditions and the following disclaimer.
    50                           ; 
    51                           ;     2. Redistributions in binary form must reproduce the above copyright notice, this 
      +                          list
    52                           ;        of conditions and the following disclaimer in the documentation and/or other
    53                           ;        materials provided with the distribution.
    54                           ; 
    55                           ;     3. Microchip's name may not be used to endorse or promote products derived from th
      +                          is
    56                           ;        software without specific prior written permission.
    57                           ; 
    58                           ; THIS SOFTWARE IS PROVIDED BY MICROCHIP "AS IS" AND ANY EXPRESS OR IMPLIED WARRANTIES,
    59                           ; INCLUDING, BUT NOT LIMITED TO, THE IMPLIED WARRANTIES OF MERCHANTABILITY AND FITNESS F
      +                          OR
    60                           ; PURPOSE ARE DISCLAIMED.  IN NO EVENT SHALL MICROCHIP BE LIABLE FOR ANY DIRECT, INDIREC
      +                          T,
    61                           ; INCIDENTAL, SPECIAL, EXEMPLARY, OR CONSEQUENTIAL DAMAGES (INCLUDING BUT NOT LIMITED TO
    62                           ; PROCUREMENT OF SUBSTITUTE GOODS OR SERVICES; LOSS OF USE, DATA OR PROFITS; OR BUSINESS
    63                           ; INTERRUPTION) HOWSOEVER CAUSED AND ON ANY THEORY OF LIABILITY, WHETHER IN CONTRACT, ST
      +                          RICT
    64                           ; LIABILITY, OR TORT (INCLUDING NEGLIGENCE OR OTHERWISE) ARISING IN ANY WAY OUT OF THE U
      +                          SE OF
    65                           ; THIS SOFTWARE, EVEN IF ADVISED OF THE POSSIBILITY OF SUCH DAMAGE.
    66                           ; 
    67                           ; 
    68                           ; Code-generator required, PIC16F887 Definitions
    69                           ; 
    70                           ; SFR Addresses
    71  0000                     	;# 
    72  0001                     	;# 
    73  0002                     	;# 
    74  0003                     	;# 
    75  0004                     	;# 
    76  0005                     	;# 
    77  0006                     	;# 
    78  0007                     	;# 
    79  0008                     	;# 
    80  0009                     	;# 
    81  000A                     	;# 
    82  000B                     	;# 
    83  000C                     	;# 
    84  000D                     	;# 
    85  000E                     	;# 
    86  000E                     	;# 
    87  000F                     	;# 
    88  0010                     	;# 
    89  0011                     	;# 
    90  0012                     	;# 
    91  0013                     	;# 
    92  0014                     	;# 
    93  0015                     	;# 
    94  0015                     	;# 
    95  0016                     	;# 
    96  0017                     	;# 
    97  0018                     	;# 
    98  0019                     	;# 
    99  001A                     	;# 
   100  001B                     	;# 
   101  001B                     	;# 
   102  001C                     	;# 
   103  001D                     	;# 
   104  001E                     	;# 
   105  001F                     	;# 
   106  0081                     	;# 
   107  0085                     	;# 
   108  0086                     	;# 
   109  0087                     	;# 
   110  0088                     	;# 
   111  0089                     	;# 
   112  008C                     	;# 
   113  008D                     	;# 
   114  008E                     	;# 
   115  008F                     	;# 
   116  0090                     	;# 
   117  0091                     	;# 
   118  0092                     	;# 
   119  0093                     	;# 
   120  0093                     	;# 
   121  0093                     	;# 
   122  0094                     	;# 
   123  0095                     	;# 
   124  0096                     	;# 
   125  0097                     	;# 
   126  0098                     	;# 
   127  0099                     	;# 
   128  009A                     	;# 
   129  009B                     	;# 
   130  009C                     	;# 
   131  009D                     	;# 
   132  009E                     	;# 
   133  009F                     	;# 
   134  0105                     	;# 
   135  0107                     	;# 
   136  0108                     	;# 
   137  0109                     	;# 
   138  010C                     	;# 
   139  010C                     	;# 
   140  010D                     	;# 
   141  010E                     	;# 
   142  010F                     	;# 
   143  0185                     	;# 
   144  0187                     	;# 
   145  0188                     	;# 
   146  0189                     	;# 
   147  018C                     	;# 
   148  018D                     	;# 
   149  0000                     	;# 
   150  0001                     	;# 
   151  0002                     	;# 
   152  0003                     	;# 
   153  0004                     	;# 
   154  0005                     	;# 
   155  0006                     	;# 
   156  0007                     	;# 
   157  0008                     	;# 
   158  0009                     	;# 
   159  000A                     	;# 
   160  000B                     	;# 
   161  000C                     	;# 
   162  000D                     	;# 
   163  000E                     	;# 
   164  000E                     	;# 
   165  000F                     	;# 
   166  0010                     	;# 
   167  0011                     	;# 
   168  0012                     	;# 
   169  0013                     	;# 
   170  0014                     	;# 
   171  0015                     	;# 
   172  0015                     	;# 
   173  0016                     	;# 
   174  0017                     	;# 
   175  0018                     	;# 
   176  0019                     	;# 
   177  001A                     	;# 
   178  001B                     	;# 
   179  001B                     	;# 
   180  001C                     	;# 
   181  001D                     	;# 
   182  001E                     	;# 
   183  001F                     	;# 
   184  0081                     	;# 
   185  0085                     	;# 
   186  0086                     	;# 
   187  0087                     	;# 
   188  0088                     	;# 
   189  0089                     	;# 
   190  008C                     	;# 
   191  008D                     	;# 
   192  008E                     	;# 
   193  008F                     	;# 
   194  0090                     	;# 
   195  0091                     	;# 
   196  0092                     	;# 
   197  0093                     	;# 
   198  0093                     	;# 
   199  0093                     	;# 
   200  0094                     	;# 
   201  0095                     	;# 
   202  0096                     	;# 
   203  0097                     	;# 
   204  0098                     	;# 
   205  0099                     	;# 
   206  009A                     	;# 
   207  009B                     	;# 
   208  009C                     	;# 
   209  009D                     	;# 
   210  009E                     	;# 
   211  009F                     	;# 
   212  0105                     	;# 
   213  0107                     	;# 
   214  0108                     	;# 
   215  0109                     	;# 
   216  010C                     	;# 
   217  010C                     	;# 
   218  010D                     	;# 
   219  010E                     	;# 
   220  010F                     	;# 
   221  0185                     	;# 
   222  0187                     	;# 
   223  0188                     	;# 
   224  0189                     	;# 
   225  018C                     	;# 
   226  018D                     	;# 
   227  0000                     	;# 
   228  0001                     	;# 
   229  0002                     	;# 
   230  0003                     	;# 
   231  0004                     	;# 
   232  0005                     	;# 
   233  0006                     	;# 
   234  0007                     	;# 
   235  0008                     	;# 
   236  0009                     	;# 
   237  000A                     	;# 
   238  000B                     	;# 
   239  000C                     	;# 
   240  000D                     	;# 
   241  000E                     	;# 
   242  000E                     	;# 
   243  000F                     	;# 
   244  0010                     	;# 
   245  0011                     	;# 
   246  0012                     	;# 
   247  0013                     	;# 
   248  0014                     	;# 
   249  0015                     	;# 
   250  0015                     	;# 
   251  0016                     	;# 
   252  0017                     	;# 
   253  0018                     	;# 
   254  0019                     	;# 
   255  001A                     	;# 
   256  001B                     	;# 
   257  001B                     	;# 
   258  001C                     	;# 
   259  001D                     	;# 
   260  001E                     	;# 
   261  001F                     	;# 
   262  0081                     	;# 
   263  0085                     	;# 
   264  0086                     	;# 
   265  0087                     	;# 
   266  0088                     	;# 
   267  0089                     	;# 
   268  008C                     	;# 
   269  008D                     	;# 
   270  008E                     	;# 
   271  008F                     	;# 
   272  0090                     	;# 
   273  0091                     	;# 
   274  0092                     	;# 
   275  0093                     	;# 
   276  0093                     	;# 
   277  0093                     	;# 
   278  0094                     	;# 
   279  0095                     	;# 
   280  0096                     	;# 
   281  0097                     	;# 
   282  0098                     	;# 
   283  0099                     	;# 
   284  009A                     	;# 
   285  009B                     	;# 
   286  009C                     	;# 
   287  009D                     	;# 
   288  009E                     	;# 
   289  009F                     	;# 
   290  0105                     	;# 
   291  0107                     	;# 
   292  0108                     	;# 
   293  0109                     	;# 
   294  010C                     	;# 
   295  010C                     	;# 
   296  010D                     	;# 
   297  010E                     	;# 
   298  010F                     	;# 
   299  0185                     	;# 
   300  0187                     	;# 
   301  0188                     	;# 
   302  0189                     	;# 
   303  018C                     	;# 
   304  018D                     	;# 
   305  0000                     	;# 
   306  0001                     	;# 
   307  0002                     	;# 
   308  0003                     	;# 
   309  0004                     	;# 
   310  0005                     	;# 
   311  0006                     	;# 
   312  0007                     	;# 
   313  0008                     	;# 
   314  0009                     	;# 
   315  000A                     	;# 
   316  000B                     	;# 
   317  000C                     	;# 
   318  000D                     	;# 
   319  000E                     	;# 
   320  000E                     	;# 
   321  000F                     	;# 
   322  0010                     	;# 
   323  0011                     	;# 
   324  0012                     	;# 
   325  0013                     	;# 
   326  0014                     	;# 
   327  0015                     	;# 
   328  0015                     	;# 
   329  0016                     	;# 
   330  0017                     	;# 
   331  0018                     	;# 
   332  0019                     	;# 
   333  001A                     	;# 
   334  001B                     	;# 
   335  001B                     	;# 
   336  001C                     	;# 
   337  001D                     	;# 
   338  001E                     	;# 
   339  001F                     	;# 
   340  0081                     	;# 
   341  0085                     	;# 
   342  0086                     	;# 
   343  0087                     	;# 
   344  0088                     	;# 
   345  0089                     	;# 
   346  008C                     	;# 
   347  008D                     	;# 
   348  008E                     	;# 
   349  008F                     	;# 
   350  0090                     	;# 
   351  0091                     	;# 
   352  0092                     	;# 
   353  0093                     	;# 
   354  0093                     	;# 
   355  0093                     	;# 
   356  0094                     	;# 
   357  0095                     	;# 
   358  0096                     	;# 
   359  0097                     	;# 
   360  0098                     	;# 
   361  0099                     	;# 
   362  009A                     	;# 
   363  009B                     	;# 
   364  009C                     	;# 
   365  009D                     	;# 
   366  009E                     	;# 
   367  009F                     	;# 
   368  0105                     	;# 
   369  0107                     	;# 
   370  0108                     	;# 
   371  0109                     	;# 
   372  010C                     	;# 
   373  010C                     	;# 
   374  010D                     	;# 
   375  010E                     	;# 
   376  010F                     	;# 
   377  0185                     	;# 
   378  0187                     	;# 
   379  0188                     	;# 
   380  0189                     	;# 
   381  018C                     	;# 
   382  018D                     	;# 
   383  0013                     _SSPBUF	set	19
   384  0014                     _SSPCON	set	20
   385  0038                     _RC0	set	56
   386  0039                     _RC1	set	57
   387  002F                     _RA7	set	47
   388  002E                     _RA6	set	46
   389  002D                     _RA5	set	45
   390  002C                     _RA4	set	44
   391  002B                     _RA3	set	43
   392  002A                     _RA2	set	42
   393  0029                     _RA1	set	41
   394  0028                     _RA0	set	40
   395  0063                     _SSPIF	set	99
   396  005E                     _PEIE	set	94
   397  005F                     _GIE	set	95
   398  0031                     _RB1	set	49
   399  0030                     _RB0	set	48
   400  0091                     _SSPCON2bits	set	145
   401  0087                     _TRISCbits	set	135
   402  0094                     _SSPSTAT	set	148
   403  0093                     _SSPADD	set	147
   404  0091                     _SSPCON2	set	145
   405  0088                     _TRISD	set	136
   406  0086                     _TRISB	set	134
   407  0087                     _TRISC	set	135
   408  0085                     _TRISA	set	133
   409  0463                     _SSPIE	set	1123
   410  043C                     _TRISC4	set	1084
   411  043B                     _TRISC3	set	1083
   412  0189                     _ANSELH	set	393
   413  0188                     _ANSEL	set	392
   414                           
   415                           	psect	strings
   416  0800                     __pstrings:	
   417  0800                     stringtab:	
   418  0800                     __stringtab:	
   419                           
   420                           ;	String table - string pointers are 1 byte each
   421  0800  1BFF               	btfsc	btemp+1,7
   422  0801  280A               	ljmp	stringcode
   423  0802  1383               	bcf	3,7
   424  0803  187F               	btfsc	btemp+1,0
   425  0804  1783               	bsf	3,7
   426  0805  0800               	movf	0,w
   427  0806  0A84               	incf	4,f
   428  0807  1903               	skipnz
   429  0808  0AFF               	incf	btemp+1,f
   430  0809  0008               	return
   431  080A                     stringcode:	
   432  080A                     stringdir:	
   433  080A  3008               	movlw	high stringdir
   434  080B  008A               	movwf	10
   435  080C  0804               	movf	4,w
   436  080D  0A84               	incf	4,f
   437  080E  0782               	addwf	2,f
   438  080F                     __stringbase:	
   439  080F  3400               	retlw	0
   440  0810                     __end_of__stringtab:	
   441  0810                     STR_1:	
   442  0810  3454               	retlw	84	;'T'
   443  0811  3465               	retlw	101	;'e'
   444  0812  346D               	retlw	109	;'m'
   445  0813  3470               	retlw	112	;'p'
   446  0814  343A               	retlw	58	;':'
   447  0815  3400               	retlw	0
   448                           
   449                           ; #config settings
   450  0000                     
   451                           	psect	cinit
   452  07F2                     start_initialization:	
   453  07F2                     __initialization:	
   454                           
   455                           ; Clear objects allocated to BANK0
   456  07F2  1283               	bcf	3,5	;RP0=0, select bank0
   457  07F3  1303               	bcf	3,6	;RP1=0, select bank0
   458  07F4  01D9               	clrf	__pbssBANK0& (0+127)
   459  07F5  01DA               	clrf	(__pbssBANK0+1)& (0+127)
   460  07F6  01DB               	clrf	(__pbssBANK0+2)& (0+127)
   461  07F7  01DC               	clrf	(__pbssBANK0+3)& (0+127)
   462  07F8  01DD               	clrf	(__pbssBANK0+4)& (0+127)
   463  07F9  01DE               	clrf	(__pbssBANK0+5)& (0+127)
   464  07FA  01DF               	clrf	(__pbssBANK0+6)& (0+127)
   465  07FB  01E0               	clrf	(__pbssBANK0+7)& (0+127)
   466  07FC                     end_of_initialization:	
   467                           ;End of C runtime variable initialization code
   468                           
   469  07FC                     __end_of__initialization:	
   470  07FC  0183               	clrf	3
   471  07FD  120A  118A  2A10   	ljmp	_main	;jump to C main() function
   472                           
   473                           	psect	bssBANK0
   474  0059                     __pbssBANK0:	
   475  0059                     main@F1510:	
   476  0059                     	ds	5
   477  005E                     _HUMO:	
   478  005E                     	ds	1
   479  005F                     _SISMO:	
   480  005F                     	ds	1
   481  0060                     _TEMPERATURA:	
   482  0060                     	ds	1
   483                           
   484                           	psect	cstackCOMMON
   485  0070                     __pcstackCOMMON:	
   486  0070                     ?_Lcd_Init:	
   487  0070                     ?_I2C_Master_Start:	
   488                           ; 1 bytes @ 0x0
   489                           
   490  0070                     ??_I2C_Master_Start:	
   491                           ; 1 bytes @ 0x0
   492                           
   493  0070                     ?_I2C_Master_Write:	
   494                           ; 1 bytes @ 0x0
   495                           
   496  0070                     ?_I2C_Master_Stop:	
   497                           ; 1 bytes @ 0x0
   498                           
   499  0070                     ??_I2C_Master_Stop:	
   500                           ; 1 bytes @ 0x0
   501                           
   502  0070                     ?_main:	
   503                           ; 1 bytes @ 0x0
   504                           
   505  0070                     ?_num_case:	
   506                           ; 1 bytes @ 0x0
   507                           
   508  0070                     ??_num_case:	
   509                           ; 1 bytes @ 0x0
   510                           
   511  0070                     ?_I2C_Master_Wait:	
   512                           ; 1 bytes @ 0x0
   513                           
   514  0070                     ??_I2C_Master_Wait:	
   515                           ; 1 bytes @ 0x0
   516                           
   517  0070                     ?_Lcd_Port:	
   518                           ; 1 bytes @ 0x0
   519                           
   520  0070                     ??_Lcd_Port:	
   521                           ; 1 bytes @ 0x0
   522                           
   523  0070                     ?_Lcd_Cmd:	
   524                           ; 1 bytes @ 0x0
   525                           
   526  0070                     ?_Lcd_Write_Char:	
   527                           ; 1 bytes @ 0x0
   528                           
   529  0070                     ?___bmul:	
   530                           ; 1 bytes @ 0x0
   531                           
   532  0070                     ?_I2C_Master_Read:	
   533                           ; 1 bytes @ 0x0
   534                           
   535  0070                     ?___wmul:	
   536                           ; 2 bytes @ 0x0
   537                           
   538  0070                     ?___awdiv:	
   539                           ; 2 bytes @ 0x0
   540                           
   541  0070                     ?___lldiv:	
   542                           ; 2 bytes @ 0x0
   543                           
   544  0070                     ?___fladd:	
   545                           ; 4 bytes @ 0x0
   546                           
   547  0070                     ?___fldiv:	
   548                           ; 4 bytes @ 0x0
   549                           
   550  0070                     Lcd_Port@a:	
   551                           ; 4 bytes @ 0x0
   552                           
   553  0070                     ___bmul@multiplicand:	
   554                           ; 1 bytes @ 0x0
   555                           
   556  0070                     I2C_Master_Write@d:	
   557                           ; 1 bytes @ 0x0
   558                           
   559  0070                     I2C_Master_Read@a:	
   560                           ; 2 bytes @ 0x0
   561                           
   562  0070                     ___wmul@multiplier:	
   563                           ; 2 bytes @ 0x0
   564                           
   565  0070                     ___awdiv@divisor:	
   566                           ; 2 bytes @ 0x0
   567                           
   568  0070                     ___lldiv@divisor:	
   569                           ; 2 bytes @ 0x0
   570                           
   571  0070                     ___fladd@b:	
   572                           ; 4 bytes @ 0x0
   573                           
   574  0070                     ___fldiv@a:	
   575                           ; 4 bytes @ 0x0
   576                           
   577                           
   578                           ; 4 bytes @ 0x0
   579  0070                     	ds	1
   580  0071                     ??_Lcd_Cmd:	
   581  0071                     ??_Lcd_Write_Char:	
   582                           ; 1 bytes @ 0x1
   583                           
   584  0071                     ??___bmul:	
   585                           ; 1 bytes @ 0x1
   586                           
   587                           
   588                           ; 1 bytes @ 0x1
   589  0071                     	ds	1
   590  0072                     ??_I2C_Master_Write:	
   591  0072                     ??_I2C_Master_Read:	
   592                           ; 1 bytes @ 0x2
   593                           
   594  0072                     num_case@num:	
   595                           ; 1 bytes @ 0x2
   596                           
   597  0072                     Lcd_Write_Char@a:	
   598                           ; 1 bytes @ 0x2
   599                           
   600  0072                     ___bmul@product:	
   601                           ; 1 bytes @ 0x2
   602                           
   603  0072                     ___wmul@multiplicand:	
   604                           ; 1 bytes @ 0x2
   605                           
   606  0072                     ___awdiv@dividend:	
   607                           ; 2 bytes @ 0x2
   608                           
   609                           
   610                           ; 2 bytes @ 0x2
   611  0072                     	ds	1
   612  0073                     ?_Lcd_Write_String:	
   613  0073                     num_case@r:	
   614                           ; 1 bytes @ 0x3
   615                           
   616  0073                     Lcd_Cmd@a:	
   617                           ; 1 bytes @ 0x3
   618                           
   619  0073                     ___bmul@multiplier:	
   620                           ; 1 bytes @ 0x3
   621                           
   622  0073                     Lcd_Write_String@a:	
   623                           ; 1 bytes @ 0x3
   624                           
   625                           
   626                           ; 2 bytes @ 0x3
   627  0073                     	ds	1
   628  0074                     ??_Lcd_Init:	
   629  0074                     ?_Lcd_Set_Cursor:	
   630                           ; 1 bytes @ 0x4
   631                           
   632  0074                     ??___wmul:	
   633                           ; 1 bytes @ 0x4
   634                           
   635  0074                     ??___awdiv:	
   636                           ; 1 bytes @ 0x4
   637                           
   638  0074                     Lcd_Set_Cursor@b:	
   639                           ; 1 bytes @ 0x4
   640                           
   641  0074                     I2C_Master_Read@temp:	
   642                           ; 1 bytes @ 0x4
   643                           
   644  0074                     ___wmul@product:	
   645                           ; 2 bytes @ 0x4
   646                           
   647  0074                     ___lldiv@dividend:	
   648                           ; 2 bytes @ 0x4
   649                           
   650  0074                     ___fladd@a:	
   651                           ; 4 bytes @ 0x4
   652                           
   653  0074                     ___fldiv@b:	
   654                           ; 4 bytes @ 0x4
   655                           
   656                           
   657                           ; 4 bytes @ 0x4
   658  0074                     	ds	1
   659  0075                     ??_Lcd_Set_Cursor:	
   660  0075                     ??_Lcd_Write_String:	
   661                           ; 1 bytes @ 0x5
   662                           
   663  0075                     Lcd_Set_Cursor@a:	
   664                           ; 1 bytes @ 0x5
   665                           
   666  0075                     ___awdiv@counter:	
   667                           ; 1 bytes @ 0x5
   668                           
   669                           
   670                           ; 1 bytes @ 0x5
   671  0075                     	ds	1
   672  0076                     ?___xxtofl:	
   673  0076                     ___awdiv@sign:	
   674                           ; 4 bytes @ 0x6
   675                           
   676  0076                     ___xxtofl@val:	
   677                           ; 1 bytes @ 0x6
   678                           
   679                           
   680                           ; 4 bytes @ 0x6
   681  0076                     	ds	1
   682  0077                     ___awdiv@quotient:	
   683                           
   684                           ; 2 bytes @ 0x7
   685  0077                     	ds	1
   686  0078                     ??___lldiv:	
   687  0078                     ??___fldiv:	
   688                           ; 1 bytes @ 0x8
   689                           
   690  0078                     ___fladd@signs:	
   691                           ; 1 bytes @ 0x8
   692                           
   693  0078                     Lcd_Write_String@i:	
   694                           ; 1 bytes @ 0x8
   695                           
   696                           
   697                           ; 2 bytes @ 0x8
   698  0078                     	ds	1
   699  0079                     ___fladd@aexp:	
   700  0079                     ___lldiv@quotient:	
   701                           ; 1 bytes @ 0x9
   702                           
   703                           
   704                           ; 4 bytes @ 0x9
   705  0079                     	ds	1
   706  007A                     ??___xxtofl:	
   707  007A                     ___fladd@bexp:	
   708                           ; 1 bytes @ 0xA
   709                           
   710                           
   711                           ; 1 bytes @ 0xA
   712  007A                     	ds	1
   713  007B                     ___fladd@grs:	
   714                           
   715                           ; 1 bytes @ 0xB
   716  007B                     	ds	2
   717  007D                     ___lldiv@counter:	
   718                           
   719                           ; 1 bytes @ 0xD
   720  007D                     	ds	1
   721  007E                     ??___flsub:	
   722                           
   723                           	psect	cstackBANK0
   724  0020                     __pcstackBANK0:	
   725                           ; 1 bytes @ 0xE
   726                           
   727  0020                     ?_I2C_Master_Init:	
   728  0020                     ??___fladd:	
   729                           ; 1 bytes @ 0x0
   730                           
   731  0020                     ___xxtofl@sign:	
   732                           ; 1 bytes @ 0x0
   733                           
   734  0020                     I2C_Master_Init@c:	
   735                           ; 1 bytes @ 0x0
   736                           
   737  0020                     ___fldiv@rem:	
   738                           ; 4 bytes @ 0x0
   739                           
   740                           
   741                           ; 4 bytes @ 0x0
   742  0020                     	ds	1
   743  0021                     ___xxtofl@exp:	
   744                           
   745                           ; 1 bytes @ 0x1
   746  0021                     	ds	1
   747  0022                     ___xxtofl@arg:	
   748                           
   749                           ; 4 bytes @ 0x2
   750  0022                     	ds	2
   751  0024                     ??_I2C_Master_Init:	
   752  0024                     ___fldiv@sign:	
   753                           ; 1 bytes @ 0x4
   754                           
   755                           
   756                           ; 1 bytes @ 0x4
   757  0024                     	ds	1
   758  0025                     ___fldiv@new_exp:	
   759                           
   760                           ; 2 bytes @ 0x5
   761  0025                     	ds	2
   762  0027                     ___fldiv@grs:	
   763                           
   764                           ; 4 bytes @ 0x7
   765  0027                     	ds	1
   766  0028                     ?___flsub:	
   767  0028                     ___flsub@a:	
   768                           ; 4 bytes @ 0x8
   769                           
   770                           
   771                           ; 4 bytes @ 0x8
   772  0028                     	ds	3
   773  002B                     ___fldiv@bexp:	
   774                           
   775                           ; 1 bytes @ 0xB
   776  002B                     	ds	1
   777  002C                     ___fldiv@aexp:	
   778  002C                     ___flsub@b:	
   779                           ; 1 bytes @ 0xC
   780                           
   781                           
   782                           ; 4 bytes @ 0xC
   783  002C                     	ds	4
   784  0030                     ?___fltol:	
   785  0030                     ___fltol@f1:	
   786                           ; 4 bytes @ 0x10
   787                           
   788                           
   789                           ; 4 bytes @ 0x10
   790  0030                     	ds	4
   791  0034                     ??___fltol:	
   792                           
   793                           ; 1 bytes @ 0x14
   794  0034                     	ds	5
   795  0039                     ___fltol@sign1:	
   796                           
   797                           ; 1 bytes @ 0x19
   798  0039                     	ds	1
   799  003A                     ___fltol@exp1:	
   800                           
   801                           ; 1 bytes @ 0x1A
   802  003A                     	ds	1
   803  003B                     ?_b0:	
   804  003B                     ?_b1:	
   805                           ; 1 bytes @ 0x1B
   806                           
   807  003B                     ?_b2:	
   808                           ; 1 bytes @ 0x1B
   809                           
   810  003B                     b2@m:	
   811                           ; 1 bytes @ 0x1B
   812                           
   813  003B                     b1@m:	
   814                           ; 4 bytes @ 0x1B
   815                           
   816  003B                     b0@m:	
   817                           ; 4 bytes @ 0x1B
   818                           
   819                           
   820                           ; 4 bytes @ 0x1B
   821  003B                     	ds	4
   822  003F                     ??_b0:	
   823  003F                     ??_b1:	
   824                           ; 1 bytes @ 0x1F
   825                           
   826  003F                     ??_b2:	
   827                           ; 1 bytes @ 0x1F
   828                           
   829                           
   830                           ; 1 bytes @ 0x1F
   831  003F                     	ds	1
   832  0040                     b2@bb2:	
   833                           
   834                           ; 1 bytes @ 0x20
   835  0040                     	ds	1
   836  0041                     b2@p2:	
   837                           
   838                           ; 1 bytes @ 0x21
   839  0041                     	ds	1
   840  0042                     b1@bb2:	
   841  0042                     b0@bb2:	
   842                           ; 1 bytes @ 0x22
   843                           
   844                           
   845                           ; 1 bytes @ 0x22
   846  0042                     	ds	1
   847  0043                     b1@bb1:	
   848  0043                     b0@bb1:	
   849                           ; 1 bytes @ 0x23
   850                           
   851                           
   852                           ; 1 bytes @ 0x23
   853  0043                     	ds	1
   854  0044                     b1@local:	
   855  0044                     b0@bb0:	
   856                           ; 1 bytes @ 0x24
   857                           
   858                           
   859                           ; 1 bytes @ 0x24
   860  0044                     	ds	1
   861  0045                     b1@p1:	
   862  0045                     b0@p0:	
   863                           ; 1 bytes @ 0x25
   864                           
   865                           
   866                           ; 1 bytes @ 0x25
   867  0045                     	ds	1
   868  0046                     b0@local:	
   869                           
   870                           ; 1 bytes @ 0x26
   871  0046                     	ds	1
   872  0047                     ??_main:	
   873                           
   874                           ; 1 bytes @ 0x27
   875  0047                     	ds	5
   876  004C                     main@s3:	
   877                           
   878                           ; 5 bytes @ 0x2C
   879  004C                     	ds	5
   880  0051                     _main$861:	
   881                           
   882                           ; 4 bytes @ 0x31
   883  0051                     	ds	4
   884  0055                     _main$862:	
   885                           
   886                           ; 4 bytes @ 0x35
   887  0055                     	ds	4
   888                           
   889                           	psect	maintext
   890  0210                     __pmaintext:	
   891 ;;
   892 ;;Main: autosize = 0, tempsize = 5, incstack = 0, save=0
   893 ;;
   894 ;; *************** function _main *****************
   895 ;; Defined at:
   896 ;;		line 52 in file "Master_HTS.c"
   897 ;; Parameters:    Size  Location     Type
   898 ;;		None
   899 ;; Auto vars:     Size  Location     Type
   900 ;;  s3              5   44[BANK0 ] unsigned char [5]
   901 ;; Return value:  Size  Location     Type
   902 ;;                  1    wreg      void 
   903 ;; Registers used:
   904 ;;		wreg, fsr0l, fsr0h, status,2, status,0, btemp+1, pclath, cstack
   905 ;; Tracked objects:
   906 ;;		On entry : B00/0
   907 ;;		On exit  : 0/0
   908 ;;		Unchanged: 0/0
   909 ;; Data sizes:     COMMON   BANK0   BANK1   BANK3   BANK2
   910 ;;      Params:         0       0       0       0       0
   911 ;;      Locals:         0      13       0       0       0
   912 ;;      Temps:          0       5       0       0       0
   913 ;;      Totals:         0      18       0       0       0
   914 ;;Total ram usage:       18 bytes
   915 ;; Hardware stack levels required when called:    3
   916 ;; This function calls:
   917 ;;		_I2C_Master_Init
   918 ;;		_I2C_Master_Read
   919 ;;		_I2C_Master_Start
   920 ;;		_I2C_Master_Stop
   921 ;;		_I2C_Master_Write
   922 ;;		_Lcd_Init
   923 ;;		_Lcd_Set_Cursor
   924 ;;		_Lcd_Write_String
   925 ;;		___xxtofl
   926 ;;		_b0
   927 ;;		_b1
   928 ;;		_b2
   929 ;; This function is called by:
   930 ;;		Startup code after reset
   931 ;; This function uses a non-reentrant model
   932 ;;
   933                           
   934                           
   935                           ;psect for function _main
   936  0210                     _main:	
   937  0210                     l2314:	
   938                           ;incstack = 0
   939                           ; Regs used in _main: [wreg-fsr0h+status,2+status,0+btemp+1+pclath+cstack]
   940                           
   941                           
   942                           ;Master_HTS.c: 53:     ANSEL = 0;
   943  0210  1683               	bsf	3,5	;RP0=1, select bank3
   944  0211  1703               	bsf	3,6	;RP1=1, select bank3
   945  0212  0188               	clrf	8	;volatile
   946                           
   947                           ;Master_HTS.c: 54:     ANSELH = 0;
   948  0213  0189               	clrf	9	;volatile
   949                           
   950                           ;Master_HTS.c: 55:     TRISA = 0;
   951  0214  1683               	bsf	3,5	;RP0=1, select bank1
   952  0215  1303               	bcf	3,6	;RP1=0, select bank1
   953  0216  0185               	clrf	5	;volatile
   954                           
   955                           ;Master_HTS.c: 56:     TRISC = 0x00;
   956  0217  0187               	clrf	7	;volatile
   957                           
   958                           ;Master_HTS.c: 57:     TRISB = 0x00;
   959  0218  0186               	clrf	6	;volatile
   960                           
   961                           ;Master_HTS.c: 58:     TRISD = 0x00;
   962  0219  0188               	clrf	8	;volatile
   963  021A                     l2316:	
   964                           
   965                           ;Master_HTS.c: 60:     Lcd_Init();
   966  021A  120A  158A  2612  120A  118A  	fcall	_Lcd_Init
   967  021F                     l2318:	
   968                           
   969                           ;Master_HTS.c: 62:     I2C_Master_Init(100000);
   970  021F  3000               	movlw	0
   971  0220  1283               	bcf	3,5	;RP0=0, select bank0
   972  0221  1303               	bcf	3,6	;RP1=0, select bank0
   973  0222  00A3               	movwf	I2C_Master_Init@c+3
   974  0223  3001               	movlw	1
   975  0224  00A2               	movwf	I2C_Master_Init@c+2
   976  0225  3086               	movlw	134
   977  0226  00A1               	movwf	I2C_Master_Init@c+1
   978  0227  30A0               	movlw	160
   979  0228  00A0               	movwf	I2C_Master_Init@c
   980  0229  120A  158A  2521  120A  118A  	fcall	_I2C_Master_Init
   981  022E                     l2320:	
   982                           
   983                           ;Master_HTS.c: 65:     Lcd_Set_Cursor(1,1);
   984  022E  01F4               	clrf	Lcd_Set_Cursor@b
   985  022F  0AF4               	incf	Lcd_Set_Cursor@b,f
   986  0230  3001               	movlw	1
   987  0231  120A  158A  246B  120A  118A  	fcall	_Lcd_Set_Cursor
   988  0236                     l2322:	
   989                           
   990                           ;Master_HTS.c: 66:     Lcd_Write_String("Temp:");
   991  0236  3001               	movlw	(low ((STR_1-__stringbase)| (0+32768)))& (0+255)
   992  0237  00F3               	movwf	Lcd_Write_String@a
   993  0238  3080               	movlw	128
   994  0239  00F4               	movwf	Lcd_Write_String@a+1
   995  023A  120A  158A  25D0  120A  118A  	fcall	_Lcd_Write_String
   996  023F                     l2324:	
   997                           
   998                           ;Master_HTS.c: 68:     char s3[5] = "";
   999  023F  304C               	movlw	main@s3& (0+255)
  1000  0240  0084               	movwf	4
  1001  0241  3005               	movlw	5
  1002  0242  00FF               	movwf	btemp+1
  1003  0243                     u2840:	
  1004  0243  1383               	bcf	3,7	;select IRP bank0
  1005  0244  0180               	clrf	0
  1006  0245  0A84               	incf	4,f
  1007  0246  0BFF               	decfsz	btemp+1,f
  1008  0247  2A43               	goto	u2840
  1009  0248                     l2326:	
  1010                           
  1011                           ;Master_HTS.c: 72:         I2C_Master_Start();
  1012  0248  120A  158A  2424  120A  118A  	fcall	_I2C_Master_Start
  1013  024D                     l2328:	
  1014                           
  1015                           ;Master_HTS.c: 73:         I2C_Master_Write(0x11);
  1016  024D  3011               	movlw	17
  1017  024E  00F0               	movwf	I2C_Master_Write@d
  1018  024F  3000               	movlw	0
  1019  0250  00F1               	movwf	I2C_Master_Write@d+1
  1020  0251  120A  158A  2436  120A  118A  	fcall	_I2C_Master_Write
  1021  0256                     l2330:	
  1022                           
  1023                           ;Master_HTS.c: 74:         TEMPERATURA = I2C_Master_Read(0);
  1024  0256  3000               	movlw	0
  1025  0257  00F0               	movwf	I2C_Master_Read@a
  1026  0258  00F1               	movwf	I2C_Master_Read@a+1
  1027  0259  120A  158A  24F3  120A  118A  	fcall	_I2C_Master_Read
  1028  025E  0870               	movf	?_I2C_Master_Read,w
  1029  025F  1283               	bcf	3,5	;RP0=0, select bank0
  1030  0260  1303               	bcf	3,6	;RP1=0, select bank0
  1031  0261  00C7               	movwf	??_main
  1032  0262  0847               	movf	??_main,w
  1033  0263  00E0               	movwf	_TEMPERATURA
  1034  0264                     l2332:	
  1035                           
  1036                           ;Master_HTS.c: 75:         I2C_Master_Stop();
  1037  0264  120A  158A  242D  120A  118A  	fcall	_I2C_Master_Stop
  1038  0269                     l2334:	
  1039                           
  1040                           ;Master_HTS.c: 76:         _delay((unsigned long)((5)*(8000000/4000.0)));
  1041  0269  300D               	movlw	13
  1042  026A  1283               	bcf	3,5	;RP0=0, select bank0
  1043  026B  1303               	bcf	3,6	;RP1=0, select bank0
  1044  026C  00C8               	movwf	??_main+1
  1045  026D  30FB               	movlw	251
  1046  026E  00C7               	movwf	??_main
  1047  026F                     u2877:	
  1048  026F  0BC7               	decfsz	??_main,f
  1049  0270  2A6F               	goto	u2877
  1050  0271  0BC8               	decfsz	??_main+1,f
  1051  0272  2A6F               	goto	u2877
  1052  0273                     l2336:	
  1053                           
  1054                           ;Master_HTS.c: 78:         Lcd_Set_Cursor(2,1);
  1055  0273  01F4               	clrf	Lcd_Set_Cursor@b
  1056  0274  0AF4               	incf	Lcd_Set_Cursor@b,f
  1057  0275  3002               	movlw	2
  1058  0276  120A  158A  246B  120A  118A  	fcall	_Lcd_Set_Cursor
  1059  027B                     l2338:	
  1060                           
  1061                           ;Master_HTS.c: 79:         s3[2] = b0(TEMPERATURA);
  1062  027B  1283               	bcf	3,5	;RP0=0, select bank0
  1063  027C  1303               	bcf	3,6	;RP1=0, select bank0
  1064  027D  0860               	movf	_TEMPERATURA,w
  1065  027E  00C7               	movwf	??_main
  1066  027F  01C8               	clrf	??_main+1
  1067  0280  01C9               	clrf	??_main+2
  1068  0281  01CA               	clrf	??_main+3
  1069  0282  084A               	movf	??_main+3,w
  1070  0283  00F9               	movwf	___xxtofl@val+3
  1071  0284  0849               	movf	??_main+2,w
  1072  0285  00F8               	movwf	___xxtofl@val+2
  1073  0286  0848               	movf	??_main+1,w
  1074  0287  00F7               	movwf	___xxtofl@val+1
  1075  0288  0847               	movf	??_main,w
  1076  0289  00F6               	movwf	___xxtofl@val
  1077  028A  3000               	movlw	0
  1078  028B  120A  118A  2154  120A  118A  	fcall	___xxtofl
  1079  0290  0879               	movf	?___xxtofl+3,w
  1080  0291  1283               	bcf	3,5	;RP0=0, select bank0
  1081  0292  1303               	bcf	3,6	;RP1=0, select bank0
  1082  0293  00D4               	movwf	_main$861+3
  1083  0294  0878               	movf	?___xxtofl+2,w
  1084  0295  00D3               	movwf	_main$861+2
  1085  0296  0877               	movf	?___xxtofl+1,w
  1086  0297  00D2               	movwf	_main$861+1
  1087  0298  0876               	movf	?___xxtofl,w
  1088  0299  00D1               	movwf	_main$861
  1089  029A                     l2340:	
  1090                           
  1091                           ;Master_HTS.c: 79:         s3[2] = b0(TEMPERATURA);
  1092  029A  0854               	movf	_main$861+3,w
  1093  029B  00BE               	movwf	b0@m+3
  1094  029C  0853               	movf	_main$861+2,w
  1095  029D  00BD               	movwf	b0@m+2
  1096  029E  0852               	movf	_main$861+1,w
  1097  029F  00BC               	movwf	b0@m+1
  1098  02A0  0851               	movf	_main$861,w
  1099  02A1  00BB               	movwf	b0@m
  1100  02A2  120A  118A  20AA  120A  118A  	fcall	_b0
  1101  02A7  1283               	bcf	3,5	;RP0=0, select bank0
  1102  02A8  1303               	bcf	3,6	;RP1=0, select bank0
  1103  02A9  00C7               	movwf	??_main
  1104  02AA  0847               	movf	??_main,w
  1105  02AB  00CE               	movwf	main@s3+2
  1106  02AC                     l2342:	
  1107                           
  1108                           ;Master_HTS.c: 80:         s3[1] = b1(TEMPERATURA);
  1109  02AC  0860               	movf	_TEMPERATURA,w
  1110  02AD  00C7               	movwf	??_main
  1111  02AE  01C8               	clrf	??_main+1
  1112  02AF  01C9               	clrf	??_main+2
  1113  02B0  01CA               	clrf	??_main+3
  1114  02B1  084A               	movf	??_main+3,w
  1115  02B2  00F9               	movwf	___xxtofl@val+3
  1116  02B3  0849               	movf	??_main+2,w
  1117  02B4  00F8               	movwf	___xxtofl@val+2
  1118  02B5  0848               	movf	??_main+1,w
  1119  02B6  00F7               	movwf	___xxtofl@val+1
  1120  02B7  0847               	movf	??_main,w
  1121  02B8  00F6               	movwf	___xxtofl@val
  1122  02B9  3000               	movlw	0
  1123  02BA  120A  118A  2154  120A  118A  	fcall	___xxtofl
  1124  02BF  0879               	movf	?___xxtofl+3,w
  1125  02C0  1283               	bcf	3,5	;RP0=0, select bank0
  1126  02C1  1303               	bcf	3,6	;RP1=0, select bank0
  1127  02C2  00D8               	movwf	_main$862+3
  1128  02C3  0878               	movf	?___xxtofl+2,w
  1129  02C4  00D7               	movwf	_main$862+2
  1130  02C5  0877               	movf	?___xxtofl+1,w
  1131  02C6  00D6               	movwf	_main$862+1
  1132  02C7  0876               	movf	?___xxtofl,w
  1133  02C8  00D5               	movwf	_main$862
  1134  02C9                     l2344:	
  1135                           
  1136                           ;Master_HTS.c: 80:         s3[1] = b1(TEMPERATURA);
  1137  02C9  0858               	movf	_main$862+3,w
  1138  02CA  00BE               	movwf	b1@m+3
  1139  02CB  0857               	movf	_main$862+2,w
  1140  02CC  00BD               	movwf	b1@m+2
  1141  02CD  0856               	movf	_main$862+1,w
  1142  02CE  00BC               	movwf	b1@m+1
  1143  02CF  0855               	movf	_main$862,w
  1144  02D0  00BB               	movwf	b1@m
  1145  02D1  120A  118A  2010  120A  118A  	fcall	_b1
  1146  02D6  1283               	bcf	3,5	;RP0=0, select bank0
  1147  02D7  1303               	bcf	3,6	;RP1=0, select bank0
  1148  02D8  00C7               	movwf	??_main
  1149  02D9  0847               	movf	??_main,w
  1150  02DA  00CD               	movwf	main@s3+1
  1151  02DB                     l2346:	
  1152                           
  1153                           ;Master_HTS.c: 81:         s3[0] = b2(TEMPERATURA);
  1154  02DB  0860               	movf	_TEMPERATURA,w
  1155  02DC  00C7               	movwf	??_main
  1156  02DD  01C8               	clrf	??_main+1
  1157  02DE  01C9               	clrf	??_main+2
  1158  02DF  01CA               	clrf	??_main+3
  1159  02E0  084A               	movf	??_main+3,w
  1160  02E1  00F9               	movwf	___xxtofl@val+3
  1161  02E2  0849               	movf	??_main+2,w
  1162  02E3  00F8               	movwf	___xxtofl@val+2
  1163  02E4  0848               	movf	??_main+1,w
  1164  02E5  00F7               	movwf	___xxtofl@val+1
  1165  02E6  0847               	movf	??_main,w
  1166  02E7  00F6               	movwf	___xxtofl@val
  1167  02E8  3000               	movlw	0
  1168  02E9  120A  118A  2154  120A  118A  	fcall	___xxtofl
  1169  02EE  0879               	movf	?___xxtofl+3,w
  1170  02EF  1283               	bcf	3,5	;RP0=0, select bank0
  1171  02F0  1303               	bcf	3,6	;RP1=0, select bank0
  1172  02F1  00BE               	movwf	b2@m+3
  1173  02F2  0878               	movf	?___xxtofl+2,w
  1174  02F3  00BD               	movwf	b2@m+2
  1175  02F4  0877               	movf	?___xxtofl+1,w
  1176  02F5  00BC               	movwf	b2@m+1
  1177  02F6  0876               	movf	?___xxtofl,w
  1178  02F7  00BB               	movwf	b2@m
  1179  02F8  120A  158A  2559  120A  118A  	fcall	_b2
  1180  02FD  1283               	bcf	3,5	;RP0=0, select bank0
  1181  02FE  1303               	bcf	3,6	;RP1=0, select bank0
  1182  02FF  00CB               	movwf	??_main+4
  1183  0300  084B               	movf	??_main+4,w
  1184  0301  00CC               	movwf	main@s3
  1185  0302                     l2348:	
  1186                           
  1187                           ;Master_HTS.c: 82:         Lcd_Write_String(s3);
  1188  0302  304C               	movlw	(low (main@s3| 0))& (0+255)
  1189  0303  00F3               	movwf	Lcd_Write_String@a
  1190  0304  3000               	movlw	0
  1191  0305  00F4               	movwf	Lcd_Write_String@a+1
  1192  0306  120A  158A  25D0  120A  118A  	fcall	_Lcd_Write_String
  1193  030B                     l2350:	
  1194                           
  1195                           ;Master_HTS.c: 85:         I2C_Master_Start();
  1196  030B  120A  158A  2424  120A  118A  	fcall	_I2C_Master_Start
  1197  0310                     l2352:	
  1198                           
  1199                           ;Master_HTS.c: 86:         I2C_Master_Write(0x21);
  1200  0310  3021               	movlw	33
  1201  0311  00F0               	movwf	I2C_Master_Write@d
  1202  0312  3000               	movlw	0
  1203  0313  00F1               	movwf	I2C_Master_Write@d+1
  1204  0314  120A  158A  2436  120A  118A  	fcall	_I2C_Master_Write
  1205  0319                     l2354:	
  1206                           
  1207                           ;Master_HTS.c: 87:         SISMO = I2C_Master_Read(0);
  1208  0319  3000               	movlw	0
  1209  031A  00F0               	movwf	I2C_Master_Read@a
  1210  031B  00F1               	movwf	I2C_Master_Read@a+1
  1211  031C  120A  158A  24F3  120A  118A  	fcall	_I2C_Master_Read
  1212  0321  0870               	movf	?_I2C_Master_Read,w
  1213  0322  1283               	bcf	3,5	;RP0=0, select bank0
  1214  0323  1303               	bcf	3,6	;RP1=0, select bank0
  1215  0324  00C7               	movwf	??_main
  1216  0325  0847               	movf	??_main,w
  1217  0326  00DF               	movwf	_SISMO
  1218  0327                     l2356:	
  1219                           
  1220                           ;Master_HTS.c: 88:         I2C_Master_Stop();
  1221  0327  120A  158A  242D  120A  118A  	fcall	_I2C_Master_Stop
  1222  032C                     l2358:	
  1223                           
  1224                           ;Master_HTS.c: 89:         _delay((unsigned long)((5)*(8000000/4000.0)));
  1225  032C  300D               	movlw	13
  1226  032D  1283               	bcf	3,5	;RP0=0, select bank0
  1227  032E  1303               	bcf	3,6	;RP1=0, select bank0
  1228  032F  00C8               	movwf	??_main+1
  1229  0330  30FB               	movlw	251
  1230  0331  00C7               	movwf	??_main
  1231  0332                     u2887:	
  1232  0332  0BC7               	decfsz	??_main,f
  1233  0333  2B32               	goto	u2887
  1234  0334  0BC8               	decfsz	??_main+1,f
  1235  0335  2B32               	goto	u2887
  1236  0336                     l2360:	
  1237                           
  1238                           ;Master_HTS.c: 91:         I2C_Master_Start();
  1239  0336  120A  158A  2424  120A  118A  	fcall	_I2C_Master_Start
  1240  033B                     l2362:	
  1241                           
  1242                           ;Master_HTS.c: 92:         I2C_Master_Write(0x31);
  1243  033B  3031               	movlw	49
  1244  033C  00F0               	movwf	I2C_Master_Write@d
  1245  033D  3000               	movlw	0
  1246  033E  00F1               	movwf	I2C_Master_Write@d+1
  1247  033F  120A  158A  2436  120A  118A  	fcall	_I2C_Master_Write
  1248  0344                     l2364:	
  1249                           
  1250                           ;Master_HTS.c: 93:         HUMO = I2C_Master_Read(0);
  1251  0344  3000               	movlw	0
  1252  0345  00F0               	movwf	I2C_Master_Read@a
  1253  0346  00F1               	movwf	I2C_Master_Read@a+1
  1254  0347  120A  158A  24F3  120A  118A  	fcall	_I2C_Master_Read
  1255  034C  0870               	movf	?_I2C_Master_Read,w
  1256  034D  1283               	bcf	3,5	;RP0=0, select bank0
  1257  034E  1303               	bcf	3,6	;RP1=0, select bank0
  1258  034F  00C7               	movwf	??_main
  1259  0350  0847               	movf	??_main,w
  1260  0351  00DE               	movwf	_HUMO
  1261  0352                     l2366:	
  1262                           
  1263                           ;Master_HTS.c: 94:         I2C_Master_Stop();
  1264  0352  120A  158A  242D  120A  118A  	fcall	_I2C_Master_Stop
  1265  0357                     l2368:	
  1266                           
  1267                           ;Master_HTS.c: 95:         _delay((unsigned long)((5)*(8000000/4000.0)));
  1268  0357  300D               	movlw	13
  1269  0358  1283               	bcf	3,5	;RP0=0, select bank0
  1270  0359  1303               	bcf	3,6	;RP1=0, select bank0
  1271  035A  00C8               	movwf	??_main+1
  1272  035B  30FB               	movlw	251
  1273  035C  00C7               	movwf	??_main
  1274  035D                     u2897:	
  1275  035D  0BC7               	decfsz	??_main,f
  1276  035E  2B5D               	goto	u2897
  1277  035F  0BC8               	decfsz	??_main+1,f
  1278  0360  2B5D               	goto	u2897
  1279  0361                     l2370:	
  1280                           
  1281                           ;Master_HTS.c: 97:         if (SISMO == 1){
  1282  0361  1283               	bcf	3,5	;RP0=0, select bank0
  1283  0362  1303               	bcf	3,6	;RP1=0, select bank0
  1284  0363  035F               	decf	_SISMO,w
  1285  0364  1D03               	btfss	3,2
  1286  0365  2B67               	goto	u2851
  1287  0366  2B68               	goto	u2850
  1288  0367                     u2851:	
  1289  0367  2B6A               	goto	l54
  1290  0368                     u2850:	
  1291  0368                     l2372:	
  1292                           
  1293                           ;Master_HTS.c: 98:             RB0 = 1;
  1294  0368  1406               	bsf	6,0	;volatile
  1295                           
  1296                           ;Master_HTS.c: 99:         }
  1297  0369  2B6B               	goto	l2374
  1298  036A                     l54:	
  1299                           ;Master_HTS.c: 100:         else {
  1300                           
  1301                           
  1302                           ;Master_HTS.c: 101:             RB0 = 0;
  1303  036A  1006               	bcf	6,0	;volatile
  1304  036B                     l2374:	
  1305                           
  1306                           ;Master_HTS.c: 104:         if (HUMO == 1){
  1307  036B  035E               	decf	_HUMO,w
  1308  036C  1D03               	btfss	3,2
  1309  036D  2B6F               	goto	u2861
  1310  036E  2B70               	goto	u2860
  1311  036F                     u2861:	
  1312  036F  2B72               	goto	l56
  1313  0370                     u2860:	
  1314  0370                     l2376:	
  1315                           
  1316                           ;Master_HTS.c: 105:             RB1 = 1;
  1317  0370  1486               	bsf	6,1	;volatile
  1318                           
  1319                           ;Master_HTS.c: 106:         }
  1320  0371  2A48               	goto	l2326
  1321  0372                     l56:	
  1322                           ;Master_HTS.c: 107:         else {
  1323                           
  1324                           
  1325                           ;Master_HTS.c: 108:             RB1 = 0;
  1326  0372  1086               	bcf	6,1	;volatile
  1327  0373  2A48               	goto	l2326
  1328  0374  120A  118A  2800   	ljmp	start
  1329  0377                     __end_of_main:	
  1330                           
  1331                           	psect	text1
  1332  0D59                     __ptext1:	
  1333 ;; *************** function _b2 *****************
  1334 ;; Defined at:
  1335 ;;		line 151 in file "Master_HTS.c"
  1336 ;; Parameters:    Size  Location     Type
  1337 ;;  m               4   27[BANK0 ] float 
  1338 ;; Auto vars:     Size  Location     Type
  1339 ;;  local           4    0        float 
  1340 ;;  p2              1   33[BANK0 ] unsigned char 
  1341 ;;  bb2             1   32[BANK0 ] unsigned char 
  1342 ;; Return value:  Size  Location     Type
  1343 ;;                  1    wreg      unsigned char 
  1344 ;; Registers used:
  1345 ;;		wreg, fsr0l, fsr0h, status,2, status,0, btemp+1, pclath, cstack
  1346 ;; Tracked objects:
  1347 ;;		On entry : 0/0
  1348 ;;		On exit  : 0/0
  1349 ;;		Unchanged: 0/0
  1350 ;; Data sizes:     COMMON   BANK0   BANK1   BANK3   BANK2
  1351 ;;      Params:         0       4       0       0       0
  1352 ;;      Locals:         0       2       0       0       0
  1353 ;;      Temps:          0       1       0       0       0
  1354 ;;      Totals:         0       7       0       0       0
  1355 ;;Total ram usage:        7 bytes
  1356 ;; Hardware stack levels used:    1
  1357 ;; Hardware stack levels required when called:    1
  1358 ;; This function calls:
  1359 ;;		___fldiv
  1360 ;;		___fltol
  1361 ;;		_num_case
  1362 ;; This function is called by:
  1363 ;;		_main
  1364 ;; This function uses a non-reentrant model
  1365 ;;
  1366                           
  1367                           
  1368                           ;psect for function _b2
  1369  0D59                     _b2:	
  1370  0D59                     l2306:	
  1371                           ;incstack = 0
  1372                           ; Regs used in _b2: [wreg-fsr0h+status,2+status,0+btemp+1+pclath+cstack]
  1373                           
  1374                           
  1375                           ;Master_HTS.c: 152:     uint8_t bb2;;Master_HTS.c: 153:     float local;;Master_HTS.c: 1
      +                          54:     char p2;;Master_HTS.c: 156:     bb2 = m/100;
  1376  0D59  1283               	bcf	3,5	;RP0=0, select bank0
  1377  0D5A  1303               	bcf	3,6	;RP1=0, select bank0
  1378  0D5B  083E               	movf	b2@m+3,w
  1379  0D5C  00F7               	movwf	___fldiv@b+3
  1380  0D5D  083D               	movf	b2@m+2,w
  1381  0D5E  00F6               	movwf	___fldiv@b+2
  1382  0D5F  083C               	movf	b2@m+1,w
  1383  0D60  00F5               	movwf	___fldiv@b+1
  1384  0D61  083B               	movf	b2@m,w
  1385  0D62  00F4               	movwf	___fldiv@b
  1386  0D63  3042               	movlw	66
  1387  0D64  00F3               	movwf	___fldiv@a+3
  1388  0D65  30C8               	movlw	200
  1389  0D66  00F2               	movwf	___fldiv@a+2
  1390  0D67  3000               	movlw	0
  1391  0D68  00F1               	movwf	___fldiv@a+1
  1392  0D69  3000               	movlw	0
  1393  0D6A  00F0               	movwf	___fldiv@a
  1394  0D6B  120A  118A  2377  120A  158A  	fcall	___fldiv
  1395  0D70  0873               	movf	?___fldiv+3,w
  1396  0D71  1283               	bcf	3,5	;RP0=0, select bank0
  1397  0D72  1303               	bcf	3,6	;RP1=0, select bank0
  1398  0D73  00B3               	movwf	___fltol@f1+3
  1399  0D74  0872               	movf	?___fldiv+2,w
  1400  0D75  00B2               	movwf	___fltol@f1+2
  1401  0D76  0871               	movf	?___fldiv+1,w
  1402  0D77  00B1               	movwf	___fltol@f1+1
  1403  0D78  0870               	movf	?___fldiv,w
  1404  0D79  00B0               	movwf	___fltol@f1
  1405  0D7A  120A  158A  2784  120A  158A  	fcall	___fltol
  1406  0D7F  1283               	bcf	3,5	;RP0=0, select bank0
  1407  0D80  1303               	bcf	3,6	;RP1=0, select bank0
  1408  0D81  0830               	movf	?___fltol,w
  1409  0D82  00BF               	movwf	??_b2
  1410  0D83  083F               	movf	??_b2,w
  1411  0D84  00C0               	movwf	b2@bb2
  1412  0D85                     l2308:	
  1413                           
  1414                           ;Master_HTS.c: 157:     p2 = num_case(bb2);
  1415  0D85  0840               	movf	b2@bb2,w
  1416  0D86  120A  158A  2659  120A  158A  	fcall	_num_case
  1417  0D8B  1283               	bcf	3,5	;RP0=0, select bank0
  1418  0D8C  1303               	bcf	3,6	;RP1=0, select bank0
  1419  0D8D  00BF               	movwf	??_b2
  1420  0D8E  083F               	movf	??_b2,w
  1421  0D8F  00C1               	movwf	b2@p2
  1422  0D90                     l2310:	
  1423                           
  1424                           ;Master_HTS.c: 158:     return p2;
  1425  0D90  0841               	movf	b2@p2,w
  1426  0D91                     l78:	
  1427  0D91  0008               	return
  1428  0D92                     __end_of_b2:	
  1429                           
  1430                           	psect	text2
  1431  0010                     __ptext2:	
  1432 ;; *************** function _b1 *****************
  1433 ;; Defined at:
  1434 ;;		line 161 in file "Master_HTS.c"
  1435 ;; Parameters:    Size  Location     Type
  1436 ;;  m               4   27[BANK0 ] float 
  1437 ;; Auto vars:     Size  Location     Type
  1438 ;;  p1              1   37[BANK0 ] unsigned char 
  1439 ;;  local           1   36[BANK0 ] unsigned char 
  1440 ;;  bb1             1   35[BANK0 ] unsigned char 
  1441 ;;  bb2             1   34[BANK0 ] unsigned char 
  1442 ;; Return value:  Size  Location     Type
  1443 ;;                  1    wreg      unsigned char 
  1444 ;; Registers used:
  1445 ;;		wreg, fsr0l, fsr0h, status,2, status,0, btemp+1, pclath, cstack
  1446 ;; Tracked objects:
  1447 ;;		On entry : 0/0
  1448 ;;		On exit  : 0/0
  1449 ;;		Unchanged: 0/0
  1450 ;; Data sizes:     COMMON   BANK0   BANK1   BANK3   BANK2
  1451 ;;      Params:         0       4       0       0       0
  1452 ;;      Locals:         0       4       0       0       0
  1453 ;;      Temps:          0       3       0       0       0
  1454 ;;      Totals:         0      11       0       0       0
  1455 ;;Total ram usage:       11 bytes
  1456 ;; Hardware stack levels used:    1
  1457 ;; Hardware stack levels required when called:    2
  1458 ;; This function calls:
  1459 ;;		___awdiv
  1460 ;;		___fldiv
  1461 ;;		___flsub
  1462 ;;		___fltol
  1463 ;;		___wmul
  1464 ;;		___xxtofl
  1465 ;;		_num_case
  1466 ;; This function is called by:
  1467 ;;		_main
  1468 ;; This function uses a non-reentrant model
  1469 ;;
  1470                           
  1471                           
  1472                           ;psect for function _b1
  1473  0010                     _b1:	
  1474  0010                     l2296:	
  1475                           ;incstack = 0
  1476                           ; Regs used in _b1: [wreg-fsr0h+status,2+status,0+btemp+1+pclath+cstack]
  1477                           
  1478                           
  1479                           ;Master_HTS.c: 162:     uint8_t bb2;;Master_HTS.c: 163:     uint8_t bb1;;Master_HTS.c: 1
      +                          64:     uint8_t local;;Master_HTS.c: 165:     char p1;;Master_HTS.c: 167:     bb2 = m/10
      +                          0;
  1480  0010  1283               	bcf	3,5	;RP0=0, select bank0
  1481  0011  1303               	bcf	3,6	;RP1=0, select bank0
  1482  0012  083E               	movf	b1@m+3,w
  1483  0013  00F7               	movwf	___fldiv@b+3
  1484  0014  083D               	movf	b1@m+2,w
  1485  0015  00F6               	movwf	___fldiv@b+2
  1486  0016  083C               	movf	b1@m+1,w
  1487  0017  00F5               	movwf	___fldiv@b+1
  1488  0018  083B               	movf	b1@m,w
  1489  0019  00F4               	movwf	___fldiv@b
  1490  001A  3042               	movlw	66
  1491  001B  00F3               	movwf	___fldiv@a+3
  1492  001C  30C8               	movlw	200
  1493  001D  00F2               	movwf	___fldiv@a+2
  1494  001E  3000               	movlw	0
  1495  001F  00F1               	movwf	___fldiv@a+1
  1496  0020  3000               	movlw	0
  1497  0021  00F0               	movwf	___fldiv@a
  1498  0022  120A  118A  2377  120A  118A  	fcall	___fldiv
  1499  0027  0873               	movf	?___fldiv+3,w
  1500  0028  1283               	bcf	3,5	;RP0=0, select bank0
  1501  0029  1303               	bcf	3,6	;RP1=0, select bank0
  1502  002A  00B3               	movwf	___fltol@f1+3
  1503  002B  0872               	movf	?___fldiv+2,w
  1504  002C  00B2               	movwf	___fltol@f1+2
  1505  002D  0871               	movf	?___fldiv+1,w
  1506  002E  00B1               	movwf	___fltol@f1+1
  1507  002F  0870               	movf	?___fldiv,w
  1508  0030  00B0               	movwf	___fltol@f1
  1509  0031  120A  158A  2784  120A  118A  	fcall	___fltol
  1510  0036  1283               	bcf	3,5	;RP0=0, select bank0
  1511  0037  1303               	bcf	3,6	;RP1=0, select bank0
  1512  0038  0830               	movf	?___fltol,w
  1513  0039  00BF               	movwf	??_b1
  1514  003A  083F               	movf	??_b1,w
  1515  003B  00C2               	movwf	b1@bb2
  1516                           
  1517                           ;Master_HTS.c: 168:     local = m-bb2*100;
  1518  003C  083E               	movf	b1@m+3,w
  1519  003D  00AF               	movwf	___flsub@b+3
  1520  003E  083D               	movf	b1@m+2,w
  1521  003F  00AE               	movwf	___flsub@b+2
  1522  0040  083C               	movf	b1@m+1,w
  1523  0041  00AD               	movwf	___flsub@b+1
  1524  0042  083B               	movf	b1@m,w
  1525  0043  00AC               	movwf	___flsub@b
  1526  0044  3064               	movlw	100
  1527  0045  00F2               	movwf	___wmul@multiplicand
  1528  0046  3000               	movlw	0
  1529  0047  00F3               	movwf	___wmul@multiplicand+1
  1530  0048  0842               	movf	b1@bb2,w
  1531  0049  00BF               	movwf	??_b1
  1532  004A  01C0               	clrf	??_b1+1
  1533  004B  083F               	movf	??_b1,w
  1534  004C  00F0               	movwf	___wmul@multiplier
  1535  004D  0840               	movf	??_b1+1,w
  1536  004E  00F1               	movwf	___wmul@multiplier+1
  1537  004F  120A  158A  24CE  120A  118A  	fcall	___wmul
  1538  0054  0870               	movf	?___wmul,w
  1539  0055  00F6               	movwf	___xxtofl@val
  1540  0056  0871               	movf	?___wmul+1,w
  1541  0057  00F7               	movwf	___xxtofl@val+1
  1542  0058  3000               	movlw	0
  1543  0059  1BF7               	btfsc	___xxtofl@val+1,7
  1544  005A  30FF               	movlw	255
  1545  005B  00F8               	movwf	___xxtofl@val+2
  1546  005C  00F9               	movwf	___xxtofl@val+3
  1547  005D  3001               	movlw	1
  1548  005E  120A  118A  2154  120A  118A  	fcall	___xxtofl
  1549  0063  0879               	movf	?___xxtofl+3,w
  1550  0064  1283               	bcf	3,5	;RP0=0, select bank0
  1551  0065  1303               	bcf	3,6	;RP1=0, select bank0
  1552  0066  00AB               	movwf	___flsub@a+3
  1553  0067  0878               	movf	?___xxtofl+2,w
  1554  0068  00AA               	movwf	___flsub@a+2
  1555  0069  0877               	movf	?___xxtofl+1,w
  1556  006A  00A9               	movwf	___flsub@a+1
  1557  006B  0876               	movf	?___xxtofl,w
  1558  006C  00A8               	movwf	___flsub@a
  1559  006D  120A  158A  24AA  120A  118A  	fcall	___flsub
  1560  0072  1283               	bcf	3,5	;RP0=0, select bank0
  1561  0073  1303               	bcf	3,6	;RP1=0, select bank0
  1562  0074  082B               	movf	?___flsub+3,w
  1563  0075  00B3               	movwf	___fltol@f1+3
  1564  0076  082A               	movf	?___flsub+2,w
  1565  0077  00B2               	movwf	___fltol@f1+2
  1566  0078  0829               	movf	?___flsub+1,w
  1567  0079  00B1               	movwf	___fltol@f1+1
  1568  007A  0828               	movf	?___flsub,w
  1569  007B  00B0               	movwf	___fltol@f1
  1570  007C  120A  158A  2784  120A  118A  	fcall	___fltol
  1571  0081  1283               	bcf	3,5	;RP0=0, select bank0
  1572  0082  1303               	bcf	3,6	;RP1=0, select bank0
  1573  0083  0830               	movf	?___fltol,w
  1574  0084  00C1               	movwf	??_b1+2
  1575  0085  0841               	movf	??_b1+2,w
  1576  0086  00C4               	movwf	b1@local
  1577  0087                     l2298:	
  1578                           
  1579                           ;Master_HTS.c: 169:     bb1 = local/10;
  1580  0087  300A               	movlw	10
  1581  0088  00F0               	movwf	___awdiv@divisor
  1582  0089  3000               	movlw	0
  1583  008A  00F1               	movwf	___awdiv@divisor+1
  1584  008B  0844               	movf	b1@local,w
  1585  008C  00BF               	movwf	??_b1
  1586  008D  01C0               	clrf	??_b1+1
  1587  008E  083F               	movf	??_b1,w
  1588  008F  00F2               	movwf	___awdiv@dividend
  1589  0090  0840               	movf	??_b1+1,w
  1590  0091  00F3               	movwf	___awdiv@dividend+1
  1591  0092  120A  158A  271D  120A  118A  	fcall	___awdiv
  1592  0097  0870               	movf	?___awdiv,w
  1593  0098  1283               	bcf	3,5	;RP0=0, select bank0
  1594  0099  1303               	bcf	3,6	;RP1=0, select bank0
  1595  009A  00C1               	movwf	??_b1+2
  1596  009B  0841               	movf	??_b1+2,w
  1597  009C  00C3               	movwf	b1@bb1
  1598  009D                     l2300:	
  1599                           
  1600                           ;Master_HTS.c: 170:     p1 = num_case(bb1);
  1601  009D  0843               	movf	b1@bb1,w
  1602  009E  120A  158A  2659  120A  118A  	fcall	_num_case
  1603  00A3  1283               	bcf	3,5	;RP0=0, select bank0
  1604  00A4  1303               	bcf	3,6	;RP1=0, select bank0
  1605  00A5  00BF               	movwf	??_b1
  1606  00A6  083F               	movf	??_b1,w
  1607  00A7  00C5               	movwf	b1@p1
  1608  00A8                     l2302:	
  1609                           
  1610                           ;Master_HTS.c: 171:     return p1;
  1611  00A8  0845               	movf	b1@p1,w
  1612  00A9                     l81:	
  1613  00A9  0008               	return
  1614  00AA                     __end_of_b1:	
  1615                           
  1616                           	psect	text3
  1617  00AA                     __ptext3:	
  1618 ;; *************** function _b0 *****************
  1619 ;; Defined at:
  1620 ;;		line 174 in file "Master_HTS.c"
  1621 ;; Parameters:    Size  Location     Type
  1622 ;;  m               4   27[BANK0 ] float 
  1623 ;; Auto vars:     Size  Location     Type
  1624 ;;  local           1   38[BANK0 ] unsigned char 
  1625 ;;  p0              1   37[BANK0 ] unsigned char 
  1626 ;;  bb0             1   36[BANK0 ] unsigned char 
  1627 ;;  bb1             1   35[BANK0 ] unsigned char 
  1628 ;;  bb2             1   34[BANK0 ] unsigned char 
  1629 ;; Return value:  Size  Location     Type
  1630 ;;                  1    wreg      unsigned char 
  1631 ;; Registers used:
  1632 ;;		wreg, fsr0l, fsr0h, status,2, status,0, btemp+1, pclath, cstack
  1633 ;; Tracked objects:
  1634 ;;		On entry : 0/0
  1635 ;;		On exit  : 0/0
  1636 ;;		Unchanged: 0/0
  1637 ;; Data sizes:     COMMON   BANK0   BANK1   BANK3   BANK2
  1638 ;;      Params:         0       4       0       0       0
  1639 ;;      Locals:         0       5       0       0       0
  1640 ;;      Temps:          0       3       0       0       0
  1641 ;;      Totals:         0      12       0       0       0
  1642 ;;Total ram usage:       12 bytes
  1643 ;; Hardware stack levels used:    1
  1644 ;; Hardware stack levels required when called:    2
  1645 ;; This function calls:
  1646 ;;		___awdiv
  1647 ;;		___bmul
  1648 ;;		___fldiv
  1649 ;;		___flsub
  1650 ;;		___fltol
  1651 ;;		___wmul
  1652 ;;		___xxtofl
  1653 ;;		_num_case
  1654 ;; This function is called by:
  1655 ;;		_main
  1656 ;; This function uses a non-reentrant model
  1657 ;;
  1658                           
  1659                           
  1660                           ;psect for function _b0
  1661  00AA                     _b0:	
  1662  00AA                     l2284:	
  1663                           ;incstack = 0
  1664                           ; Regs used in _b0: [wreg-fsr0h+status,2+status,0+btemp+1+pclath+cstack]
  1665                           
  1666                           
  1667                           ;Master_HTS.c: 175:     uint8_t bb2;;Master_HTS.c: 176:     uint8_t bb1;;Master_HTS.c: 1
      +                          77:     uint8_t bb0;;Master_HTS.c: 178:     uint8_t local;;Master_HTS.c: 179:     char p
      +                          0;;Master_HTS.c: 181:     bb2 = m/100;
  1668  00AA  1283               	bcf	3,5	;RP0=0, select bank0
  1669  00AB  1303               	bcf	3,6	;RP1=0, select bank0
  1670  00AC  083E               	movf	b0@m+3,w
  1671  00AD  00F7               	movwf	___fldiv@b+3
  1672  00AE  083D               	movf	b0@m+2,w
  1673  00AF  00F6               	movwf	___fldiv@b+2
  1674  00B0  083C               	movf	b0@m+1,w
  1675  00B1  00F5               	movwf	___fldiv@b+1
  1676  00B2  083B               	movf	b0@m,w
  1677  00B3  00F4               	movwf	___fldiv@b
  1678  00B4  3042               	movlw	66
  1679  00B5  00F3               	movwf	___fldiv@a+3
  1680  00B6  30C8               	movlw	200
  1681  00B7  00F2               	movwf	___fldiv@a+2
  1682  00B8  3000               	movlw	0
  1683  00B9  00F1               	movwf	___fldiv@a+1
  1684  00BA  3000               	movlw	0
  1685  00BB  00F0               	movwf	___fldiv@a
  1686  00BC  120A  118A  2377  120A  118A  	fcall	___fldiv
  1687  00C1  0873               	movf	?___fldiv+3,w
  1688  00C2  1283               	bcf	3,5	;RP0=0, select bank0
  1689  00C3  1303               	bcf	3,6	;RP1=0, select bank0
  1690  00C4  00B3               	movwf	___fltol@f1+3
  1691  00C5  0872               	movf	?___fldiv+2,w
  1692  00C6  00B2               	movwf	___fltol@f1+2
  1693  00C7  0871               	movf	?___fldiv+1,w
  1694  00C8  00B1               	movwf	___fltol@f1+1
  1695  00C9  0870               	movf	?___fldiv,w
  1696  00CA  00B0               	movwf	___fltol@f1
  1697  00CB  120A  158A  2784  120A  118A  	fcall	___fltol
  1698  00D0  1283               	bcf	3,5	;RP0=0, select bank0
  1699  00D1  1303               	bcf	3,6	;RP1=0, select bank0
  1700  00D2  0830               	movf	?___fltol,w
  1701  00D3  00BF               	movwf	??_b0
  1702  00D4  083F               	movf	??_b0,w
  1703  00D5  00C2               	movwf	b0@bb2
  1704                           
  1705                           ;Master_HTS.c: 182:     local = m-bb2*100;
  1706  00D6  083E               	movf	b0@m+3,w
  1707  00D7  00AF               	movwf	___flsub@b+3
  1708  00D8  083D               	movf	b0@m+2,w
  1709  00D9  00AE               	movwf	___flsub@b+2
  1710  00DA  083C               	movf	b0@m+1,w
  1711  00DB  00AD               	movwf	___flsub@b+1
  1712  00DC  083B               	movf	b0@m,w
  1713  00DD  00AC               	movwf	___flsub@b
  1714  00DE  3064               	movlw	100
  1715  00DF  00F2               	movwf	___wmul@multiplicand
  1716  00E0  3000               	movlw	0
  1717  00E1  00F3               	movwf	___wmul@multiplicand+1
  1718  00E2  0842               	movf	b0@bb2,w
  1719  00E3  00BF               	movwf	??_b0
  1720  00E4  01C0               	clrf	??_b0+1
  1721  00E5  083F               	movf	??_b0,w
  1722  00E6  00F0               	movwf	___wmul@multiplier
  1723  00E7  0840               	movf	??_b0+1,w
  1724  00E8  00F1               	movwf	___wmul@multiplier+1
  1725  00E9  120A  158A  24CE  120A  118A  	fcall	___wmul
  1726  00EE  0870               	movf	?___wmul,w
  1727  00EF  00F6               	movwf	___xxtofl@val
  1728  00F0  0871               	movf	?___wmul+1,w
  1729  00F1  00F7               	movwf	___xxtofl@val+1
  1730  00F2  3000               	movlw	0
  1731  00F3  1BF7               	btfsc	___xxtofl@val+1,7
  1732  00F4  30FF               	movlw	255
  1733  00F5  00F8               	movwf	___xxtofl@val+2
  1734  00F6  00F9               	movwf	___xxtofl@val+3
  1735  00F7  3001               	movlw	1
  1736  00F8  120A  118A  2154  120A  118A  	fcall	___xxtofl
  1737  00FD  0879               	movf	?___xxtofl+3,w
  1738  00FE  1283               	bcf	3,5	;RP0=0, select bank0
  1739  00FF  1303               	bcf	3,6	;RP1=0, select bank0
  1740  0100  00AB               	movwf	___flsub@a+3
  1741  0101  0878               	movf	?___xxtofl+2,w
  1742  0102  00AA               	movwf	___flsub@a+2
  1743  0103  0877               	movf	?___xxtofl+1,w
  1744  0104  00A9               	movwf	___flsub@a+1
  1745  0105  0876               	movf	?___xxtofl,w
  1746  0106  00A8               	movwf	___flsub@a
  1747  0107  120A  158A  24AA  120A  118A  	fcall	___flsub
  1748  010C  1283               	bcf	3,5	;RP0=0, select bank0
  1749  010D  1303               	bcf	3,6	;RP1=0, select bank0
  1750  010E  082B               	movf	?___flsub+3,w
  1751  010F  00B3               	movwf	___fltol@f1+3
  1752  0110  082A               	movf	?___flsub+2,w
  1753  0111  00B2               	movwf	___fltol@f1+2
  1754  0112  0829               	movf	?___flsub+1,w
  1755  0113  00B1               	movwf	___fltol@f1+1
  1756  0114  0828               	movf	?___flsub,w
  1757  0115  00B0               	movwf	___fltol@f1
  1758  0116  120A  158A  2784  120A  118A  	fcall	___fltol
  1759  011B  1283               	bcf	3,5	;RP0=0, select bank0
  1760  011C  1303               	bcf	3,6	;RP1=0, select bank0
  1761  011D  0830               	movf	?___fltol,w
  1762  011E  00C1               	movwf	??_b0+2
  1763  011F  0841               	movf	??_b0+2,w
  1764  0120  00C6               	movwf	b0@local
  1765  0121                     l2286:	
  1766                           
  1767                           ;Master_HTS.c: 183:     bb1 = local/10;
  1768  0121  300A               	movlw	10
  1769  0122  00F0               	movwf	___awdiv@divisor
  1770  0123  3000               	movlw	0
  1771  0124  00F1               	movwf	___awdiv@divisor+1
  1772  0125  0846               	movf	b0@local,w
  1773  0126  00BF               	movwf	??_b0
  1774  0127  01C0               	clrf	??_b0+1
  1775  0128  083F               	movf	??_b0,w
  1776  0129  00F2               	movwf	___awdiv@dividend
  1777  012A  0840               	movf	??_b0+1,w
  1778  012B  00F3               	movwf	___awdiv@dividend+1
  1779  012C  120A  158A  271D  120A  118A  	fcall	___awdiv
  1780  0131  0870               	movf	?___awdiv,w
  1781  0132  1283               	bcf	3,5	;RP0=0, select bank0
  1782  0133  1303               	bcf	3,6	;RP1=0, select bank0
  1783  0134  00C1               	movwf	??_b0+2
  1784  0135  0841               	movf	??_b0+2,w
  1785  0136  00C3               	movwf	b0@bb1
  1786  0137                     l2288:	
  1787                           
  1788                           ;Master_HTS.c: 184:     bb0 = local-bb1*10;
  1789  0137  30F6               	movlw	246
  1790  0138  00BF               	movwf	??_b0
  1791  0139  083F               	movf	??_b0,w
  1792  013A  00F0               	movwf	___bmul@multiplicand
  1793  013B  0843               	movf	b0@bb1,w
  1794  013C  120A  158A  2440  120A  118A  	fcall	___bmul
  1795  0141  1283               	bcf	3,5	;RP0=0, select bank0
  1796  0142  1303               	bcf	3,6	;RP1=0, select bank0
  1797  0143  0746               	addwf	b0@local,w
  1798  0144  00C0               	movwf	??_b0+1
  1799  0145  0840               	movf	??_b0+1,w
  1800  0146  00C4               	movwf	b0@bb0
  1801  0147                     l2290:	
  1802                           
  1803                           ;Master_HTS.c: 185:     p0 = num_case(bb0);
  1804  0147  0844               	movf	b0@bb0,w
  1805  0148  120A  158A  2659  120A  118A  	fcall	_num_case
  1806  014D  1283               	bcf	3,5	;RP0=0, select bank0
  1807  014E  1303               	bcf	3,6	;RP1=0, select bank0
  1808  014F  00BF               	movwf	??_b0
  1809  0150  083F               	movf	??_b0,w
  1810  0151  00C5               	movwf	b0@p0
  1811  0152                     l2292:	
  1812                           
  1813                           ;Master_HTS.c: 186:     return p0;
  1814  0152  0845               	movf	b0@p0,w
  1815  0153                     l84:	
  1816  0153  0008               	return
  1817  0154                     __end_of_b0:	
  1818                           
  1819                           	psect	text4
  1820  0E59                     __ptext4:	
  1821 ;; *************** function _num_case *****************
  1822 ;; Defined at:
  1823 ;;		line 114 in file "Master_HTS.c"
  1824 ;; Parameters:    Size  Location     Type
  1825 ;;  num             1    wreg     unsigned char 
  1826 ;; Auto vars:     Size  Location     Type
  1827 ;;  num             1    2[COMMON] unsigned char 
  1828 ;;  r               1    3[COMMON] unsigned char 
  1829 ;; Return value:  Size  Location     Type
  1830 ;;                  1    wreg      unsigned char 
  1831 ;; Registers used:
  1832 ;;		wreg, fsr0l, fsr0h, status,2, status,0
  1833 ;; Tracked objects:
  1834 ;;		On entry : 0/0
  1835 ;;		On exit  : 0/0
  1836 ;;		Unchanged: 0/0
  1837 ;; Data sizes:     COMMON   BANK0   BANK1   BANK3   BANK2
  1838 ;;      Params:         0       0       0       0       0
  1839 ;;      Locals:         2       0       0       0       0
  1840 ;;      Temps:          2       0       0       0       0
  1841 ;;      Totals:         4       0       0       0       0
  1842 ;;Total ram usage:        4 bytes
  1843 ;; Hardware stack levels used:    1
  1844 ;; This function calls:
  1845 ;;		Nothing
  1846 ;; This function is called by:
  1847 ;;		_b2
  1848 ;;		_b1
  1849 ;;		_b0
  1850 ;; This function uses a non-reentrant model
  1851 ;;
  1852                           
  1853                           
  1854                           ;psect for function _num_case
  1855  0E59                     _num_case:	
  1856                           
  1857                           ;incstack = 0
  1858                           ; Regs used in _num_case: [wreg-fsr0h+status,2+status,0]
  1859                           ;num_case@num stored from wreg
  1860  0E59  00F2               	movwf	num_case@num
  1861  0E5A                     l1824:	
  1862                           
  1863                           ;Master_HTS.c: 115:     char r;;Master_HTS.c: 116:     switch(num){
  1864  0E5A  2E8D               	goto	l1848
  1865  0E5B                     l1826:	
  1866                           
  1867                           ;Master_HTS.c: 118:             r = '0';
  1868  0E5B  3030               	movlw	48
  1869  0E5C  00F0               	movwf	??_num_case
  1870  0E5D  0870               	movf	??_num_case,w
  1871  0E5E  00F3               	movwf	num_case@r
  1872                           
  1873                           ;Master_HTS.c: 119:             break;
  1874  0E5F  2EB5               	goto	l1850
  1875  0E60                     l1828:	
  1876                           
  1877                           ;Master_HTS.c: 121:             r = '1';
  1878  0E60  3031               	movlw	49
  1879  0E61  00F0               	movwf	??_num_case
  1880  0E62  0870               	movf	??_num_case,w
  1881  0E63  00F3               	movwf	num_case@r
  1882                           
  1883                           ;Master_HTS.c: 122:             break;
  1884  0E64  2EB5               	goto	l1850
  1885  0E65                     l1830:	
  1886                           
  1887                           ;Master_HTS.c: 124:             r = '2';
  1888  0E65  3032               	movlw	50
  1889  0E66  00F0               	movwf	??_num_case
  1890  0E67  0870               	movf	??_num_case,w
  1891  0E68  00F3               	movwf	num_case@r
  1892                           
  1893                           ;Master_HTS.c: 125:             break;
  1894  0E69  2EB5               	goto	l1850
  1895  0E6A                     l1832:	
  1896                           
  1897                           ;Master_HTS.c: 127:             r = '3';
  1898  0E6A  3033               	movlw	51
  1899  0E6B  00F0               	movwf	??_num_case
  1900  0E6C  0870               	movf	??_num_case,w
  1901  0E6D  00F3               	movwf	num_case@r
  1902                           
  1903                           ;Master_HTS.c: 128:             break;
  1904  0E6E  2EB5               	goto	l1850
  1905  0E6F                     l1834:	
  1906                           
  1907                           ;Master_HTS.c: 130:             r = '4';
  1908  0E6F  3034               	movlw	52
  1909  0E70  00F0               	movwf	??_num_case
  1910  0E71  0870               	movf	??_num_case,w
  1911  0E72  00F3               	movwf	num_case@r
  1912                           
  1913                           ;Master_HTS.c: 131:             break;
  1914  0E73  2EB5               	goto	l1850
  1915  0E74                     l1836:	
  1916                           
  1917                           ;Master_HTS.c: 133:             r = '5';
  1918  0E74  3035               	movlw	53
  1919  0E75  00F0               	movwf	??_num_case
  1920  0E76  0870               	movf	??_num_case,w
  1921  0E77  00F3               	movwf	num_case@r
  1922                           
  1923                           ;Master_HTS.c: 134:             break;
  1924  0E78  2EB5               	goto	l1850
  1925  0E79                     l1838:	
  1926                           
  1927                           ;Master_HTS.c: 136:             r = '6';
  1928  0E79  3036               	movlw	54
  1929  0E7A  00F0               	movwf	??_num_case
  1930  0E7B  0870               	movf	??_num_case,w
  1931  0E7C  00F3               	movwf	num_case@r
  1932                           
  1933                           ;Master_HTS.c: 137:             break;
  1934  0E7D  2EB5               	goto	l1850
  1935  0E7E                     l1840:	
  1936                           
  1937                           ;Master_HTS.c: 139:             r = '7';
  1938  0E7E  3037               	movlw	55
  1939  0E7F  00F0               	movwf	??_num_case
  1940  0E80  0870               	movf	??_num_case,w
  1941  0E81  00F3               	movwf	num_case@r
  1942                           
  1943                           ;Master_HTS.c: 140:             break;
  1944  0E82  2EB5               	goto	l1850
  1945  0E83                     l1842:	
  1946                           
  1947                           ;Master_HTS.c: 142:             r = '8';
  1948  0E83  3038               	movlw	56
  1949  0E84  00F0               	movwf	??_num_case
  1950  0E85  0870               	movf	??_num_case,w
  1951  0E86  00F3               	movwf	num_case@r
  1952                           
  1953                           ;Master_HTS.c: 143:             break;
  1954  0E87  2EB5               	goto	l1850
  1955  0E88                     l1844:	
  1956                           
  1957                           ;Master_HTS.c: 145:             r = '9';
  1958  0E88  3039               	movlw	57
  1959  0E89  00F0               	movwf	??_num_case
  1960  0E8A  0870               	movf	??_num_case,w
  1961  0E8B  00F3               	movwf	num_case@r
  1962                           
  1963                           ;Master_HTS.c: 146:             break;
  1964  0E8C  2EB5               	goto	l1850
  1965  0E8D                     l1848:	
  1966  0E8D  0872               	movf	num_case@num,w
  1967  0E8E  00F0               	movwf	??_num_case
  1968  0E8F  01F1               	clrf	??_num_case+1
  1969                           
  1970                           ; Switch on 2 bytes has been partitioned into a top level switch of size 1, and 1 sub-sw
      +                          itches
  1971                           ; Switch size 1, requested type "simple"
  1972                           ; Number of cases is 1, Range of values is 0 to 0
  1973                           ; switch strategies available:
  1974                           ; Name         Instructions Cycles
  1975                           ; simple_byte            4     3 (average)
  1976                           ; direct_byte           11     8 (fixed)
  1977                           ; jumptable            260     6 (fixed)
  1978                           ;	Chosen strategy is simple_byte
  1979  0E90  0871               	movf	??_num_case+1,w
  1980  0E91  3A00               	xorlw	0	; case 0
  1981  0E92  1903               	skipnz
  1982  0E93  2E95               	goto	l2408
  1983  0E94  2EB5               	goto	l1850
  1984  0E95                     l2408:	
  1985                           
  1986                           ; Switch size 1, requested type "simple"
  1987                           ; Number of cases is 10, Range of values is 0 to 9
  1988                           ; switch strategies available:
  1989                           ; Name         Instructions Cycles
  1990                           ; simple_byte           31    16 (average)
  1991                           ; direct_byte           38     8 (fixed)
  1992                           ; jumptable            260     6 (fixed)
  1993                           ;	Chosen strategy is simple_byte
  1994  0E95  0870               	movf	??_num_case,w
  1995  0E96  3A00               	xorlw	0	; case 0
  1996  0E97  1903               	skipnz
  1997  0E98  2E5B               	goto	l1826
  1998  0E99  3A01               	xorlw	1	; case 1
  1999  0E9A  1903               	skipnz
  2000  0E9B  2E60               	goto	l1828
  2001  0E9C  3A03               	xorlw	3	; case 2
  2002  0E9D  1903               	skipnz
  2003  0E9E  2E65               	goto	l1830
  2004  0E9F  3A01               	xorlw	1	; case 3
  2005  0EA0  1903               	skipnz
  2006  0EA1  2E6A               	goto	l1832
  2007  0EA2  3A07               	xorlw	7	; case 4
  2008  0EA3  1903               	skipnz
  2009  0EA4  2E6F               	goto	l1834
  2010  0EA5  3A01               	xorlw	1	; case 5
  2011  0EA6  1903               	skipnz
  2012  0EA7  2E74               	goto	l1836
  2013  0EA8  3A03               	xorlw	3	; case 6
  2014  0EA9  1903               	skipnz
  2015  0EAA  2E79               	goto	l1838
  2016  0EAB  3A01               	xorlw	1	; case 7
  2017  0EAC  1903               	skipnz
  2018  0EAD  2E7E               	goto	l1840
  2019  0EAE  3A0F               	xorlw	15	; case 8
  2020  0EAF  1903               	skipnz
  2021  0EB0  2E83               	goto	l1842
  2022  0EB1  3A01               	xorlw	1	; case 9
  2023  0EB2  1903               	skipnz
  2024  0EB3  2E88               	goto	l1844
  2025  0EB4  2EB5               	goto	l1850
  2026  0EB5                     l1850:	
  2027                           
  2028                           ;Master_HTS.c: 148:     return r;
  2029  0EB5  0873               	movf	num_case@r,w
  2030  0EB6                     l75:	
  2031  0EB6  0008               	return
  2032  0EB7                     __end_of_num_case:	
  2033                           
  2034                           	psect	text5
  2035  0154                     __ptext5:	
  2036 ;; *************** function ___xxtofl *****************
  2037 ;; Defined at:
  2038 ;;		line 10 in file "C:\Program Files (x86)\Microchip\xc8\v2.10\pic\sources\c90\common\xxtofl.c"
  2039 ;; Parameters:    Size  Location     Type
  2040 ;;  sign            1    wreg     unsigned char 
  2041 ;;  val             4    6[COMMON] long 
  2042 ;; Auto vars:     Size  Location     Type
  2043 ;;  sign            1    0[BANK0 ] unsigned char 
  2044 ;;  arg             4    2[BANK0 ] unsigned long 
  2045 ;;  exp             1    1[BANK0 ] unsigned char 
  2046 ;; Return value:  Size  Location     Type
  2047 ;;                  4    6[COMMON] unsigned char 
  2048 ;; Registers used:
  2049 ;;		wreg, status,2, status,0
  2050 ;; Tracked objects:
  2051 ;;		On entry : 0/0
  2052 ;;		On exit  : 0/0
  2053 ;;		Unchanged: 0/0
  2054 ;; Data sizes:     COMMON   BANK0   BANK1   BANK3   BANK2
  2055 ;;      Params:         4       0       0       0       0
  2056 ;;      Locals:         0       6       0       0       0
  2057 ;;      Temps:          4       0       0       0       0
  2058 ;;      Totals:         8       6       0       0       0
  2059 ;;Total ram usage:       14 bytes
  2060 ;; Hardware stack levels used:    1
  2061 ;; This function calls:
  2062 ;;		Nothing
  2063 ;; This function is called by:
  2064 ;;		_main
  2065 ;;		_b1
  2066 ;;		_b0
  2067 ;; This function uses a non-reentrant model
  2068 ;;
  2069                           
  2070                           
  2071                           ;psect for function ___xxtofl
  2072  0154                     ___xxtofl:	
  2073                           
  2074                           ;incstack = 0
  2075                           ; Regs used in ___xxtofl: [wreg+status,2+status,0]
  2076                           ;___xxtofl@sign stored from wreg
  2077  0154  1283               	bcf	3,5	;RP0=0, select bank0
  2078  0155  1303               	bcf	3,6	;RP1=0, select bank0
  2079  0156  00A0               	movwf	___xxtofl@sign
  2080  0157                     l2164:	
  2081  0157  0820               	movf	___xxtofl@sign,w
  2082  0158  1903               	btfsc	3,2
  2083  0159  295B               	goto	u2631
  2084  015A  295C               	goto	u2630
  2085  015B                     u2631:	
  2086  015B  2970               	goto	l2170
  2087  015C                     u2630:	
  2088  015C                     l2166:	
  2089  015C  1FF9               	btfss	___xxtofl@val+3,7
  2090  015D  295F               	goto	u2641
  2091  015E  2960               	goto	u2640
  2092  015F                     u2641:	
  2093  015F  2970               	goto	l2170
  2094  0160                     u2640:	
  2095  0160                     l2168:	
  2096  0160  0976               	comf	___xxtofl@val,w
  2097  0161  00A2               	movwf	___xxtofl@arg
  2098  0162  0977               	comf	___xxtofl@val+1,w
  2099  0163  00A3               	movwf	___xxtofl@arg+1
  2100  0164  0978               	comf	___xxtofl@val+2,w
  2101  0165  00A4               	movwf	___xxtofl@arg+2
  2102  0166  0979               	comf	___xxtofl@val+3,w
  2103  0167  00A5               	movwf	___xxtofl@arg+3
  2104  0168  0AA2               	incf	___xxtofl@arg,f
  2105  0169  1903               	skipnz
  2106  016A  0AA3               	incf	___xxtofl@arg+1,f
  2107  016B  1903               	skipnz
  2108  016C  0AA4               	incf	___xxtofl@arg+2,f
  2109  016D  1903               	skipnz
  2110  016E  0AA5               	incf	___xxtofl@arg+3,f
  2111  016F  2978               	goto	l723
  2112  0170                     l2170:	
  2113  0170  0879               	movf	___xxtofl@val+3,w
  2114  0171  00A5               	movwf	___xxtofl@arg+3
  2115  0172  0878               	movf	___xxtofl@val+2,w
  2116  0173  00A4               	movwf	___xxtofl@arg+2
  2117  0174  0877               	movf	___xxtofl@val+1,w
  2118  0175  00A3               	movwf	___xxtofl@arg+1
  2119  0176  0876               	movf	___xxtofl@val,w
  2120  0177  00A2               	movwf	___xxtofl@arg
  2121  0178                     l723:	
  2122  0178  0879               	movf	___xxtofl@val+3,w
  2123  0179  0478               	iorwf	___xxtofl@val+2,w
  2124  017A  0477               	iorwf	___xxtofl@val+1,w
  2125  017B  0476               	iorwf	___xxtofl@val,w
  2126  017C  1D03               	skipz
  2127  017D  297F               	goto	u2651
  2128  017E  2980               	goto	u2650
  2129  017F                     u2651:	
  2130  017F  2989               	goto	l2176
  2131  0180                     u2650:	
  2132  0180                     l2172:	
  2133  0180  3000               	movlw	0
  2134  0181  00F9               	movwf	?___xxtofl+3
  2135  0182  3000               	movlw	0
  2136  0183  00F8               	movwf	?___xxtofl+2
  2137  0184  3000               	movlw	0
  2138  0185  00F7               	movwf	?___xxtofl+1
  2139  0186  3000               	movlw	0
  2140  0187  00F6               	movwf	?___xxtofl
  2141  0188  2A0F               	goto	l725
  2142  0189                     l2176:	
  2143  0189  3096               	movlw	150
  2144  018A  00FA               	movwf	??___xxtofl
  2145  018B  087A               	movf	??___xxtofl,w
  2146  018C  00A1               	movwf	___xxtofl@exp
  2147  018D  299B               	goto	l2180
  2148  018E                     l2178:	
  2149  018E  3001               	movlw	1
  2150  018F  00FA               	movwf	??___xxtofl
  2151  0190  087A               	movf	??___xxtofl,w
  2152  0191  07A1               	addwf	___xxtofl@exp,f
  2153  0192  3001               	movlw	1
  2154  0193                     u2665:	
  2155  0193  1003               	clrc
  2156  0194  0CA5               	rrf	___xxtofl@arg+3,f
  2157  0195  0CA4               	rrf	___xxtofl@arg+2,f
  2158  0196  0CA3               	rrf	___xxtofl@arg+1,f
  2159  0197  0CA2               	rrf	___xxtofl@arg,f
  2160  0198  3EFF               	addlw	-1
  2161  0199  1D03               	skipz
  2162  019A  2993               	goto	u2665
  2163  019B                     l2180:	
  2164  019B  30FE               	movlw	254
  2165  019C  0525               	andwf	___xxtofl@arg+3,w
  2166  019D  1D03               	btfss	3,2
  2167  019E  29A0               	goto	u2671
  2168  019F  29A1               	goto	u2670
  2169  01A0                     u2671:	
  2170  01A0  298E               	goto	l2178
  2171  01A1                     u2670:	
  2172  01A1  29BD               	goto	l729
  2173  01A2                     l2182:	
  2174  01A2  3001               	movlw	1
  2175  01A3  00FA               	movwf	??___xxtofl
  2176  01A4  087A               	movf	??___xxtofl,w
  2177  01A5  07A1               	addwf	___xxtofl@exp,f
  2178  01A6                     l2184:	
  2179  01A6  3001               	movlw	1
  2180  01A7  07A2               	addwf	___xxtofl@arg,f
  2181  01A8  3000               	movlw	0
  2182  01A9  1803               	skipnc
  2183  01AA  3001               	movlw	1
  2184  01AB  07A3               	addwf	___xxtofl@arg+1,f
  2185  01AC  3000               	movlw	0
  2186  01AD  1803               	skipnc
  2187  01AE  3001               	movlw	1
  2188  01AF  07A4               	addwf	___xxtofl@arg+2,f
  2189  01B0  3000               	movlw	0
  2190  01B1  1803               	skipnc
  2191  01B2  3001               	movlw	1
  2192  01B3  07A5               	addwf	___xxtofl@arg+3,f
  2193  01B4                     l2186:	
  2194  01B4  3001               	movlw	1
  2195  01B5                     u2685:	
  2196  01B5  1003               	clrc
  2197  01B6  0CA5               	rrf	___xxtofl@arg+3,f
  2198  01B7  0CA4               	rrf	___xxtofl@arg+2,f
  2199  01B8  0CA3               	rrf	___xxtofl@arg+1,f
  2200  01B9  0CA2               	rrf	___xxtofl@arg,f
  2201  01BA  3EFF               	addlw	-1
  2202  01BB  1D03               	skipz
  2203  01BC  29B5               	goto	u2685
  2204  01BD                     l729:	
  2205  01BD  30FF               	movlw	255
  2206  01BE  0525               	andwf	___xxtofl@arg+3,w
  2207  01BF  1D03               	btfss	3,2
  2208  01C0  29C2               	goto	u2691
  2209  01C1  29C3               	goto	u2690
  2210  01C2                     u2691:	
  2211  01C2  29A2               	goto	l2182
  2212  01C3                     u2690:	
  2213  01C3  29CF               	goto	l2190
  2214  01C4                     l2188:	
  2215  01C4  3001               	movlw	1
  2216  01C5  02A1               	subwf	___xxtofl@exp,f
  2217  01C6  3001               	movlw	1
  2218  01C7  00FA               	movwf	??___xxtofl
  2219  01C8                     u2705:	
  2220  01C8  1003               	clrc
  2221  01C9  0DA2               	rlf	___xxtofl@arg,f
  2222  01CA  0DA3               	rlf	___xxtofl@arg+1,f
  2223  01CB  0DA4               	rlf	___xxtofl@arg+2,f
  2224  01CC  0DA5               	rlf	___xxtofl@arg+3,f
  2225  01CD  0BFA               	decfsz	??___xxtofl,f
  2226  01CE  29C8               	goto	u2705
  2227  01CF                     l2190:	
  2228  01CF  1BA4               	btfsc	___xxtofl@arg+2,7
  2229  01D0  29D2               	goto	u2711
  2230  01D1  29D3               	goto	u2710
  2231  01D2                     u2711:	
  2232  01D2  29D9               	goto	l736
  2233  01D3                     u2710:	
  2234  01D3                     l2192:	
  2235  01D3  3002               	movlw	2
  2236  01D4  0221               	subwf	___xxtofl@exp,w
  2237  01D5  1803               	skipnc
  2238  01D6  29D8               	goto	u2721
  2239  01D7  29D9               	goto	u2720
  2240  01D8                     u2721:	
  2241  01D8  29C4               	goto	l2188
  2242  01D9                     u2720:	
  2243  01D9                     l736:	
  2244  01D9  1821               	btfsc	___xxtofl@exp,0
  2245  01DA  29DC               	goto	u2731
  2246  01DB  29DD               	goto	u2730
  2247  01DC                     u2731:	
  2248  01DC  29E5               	goto	l737
  2249  01DD                     u2730:	
  2250  01DD                     l2194:	
  2251  01DD  30FF               	movlw	255
  2252  01DE  05A2               	andwf	___xxtofl@arg,f
  2253  01DF  30FF               	movlw	255
  2254  01E0  05A3               	andwf	___xxtofl@arg+1,f
  2255  01E1  307F               	movlw	127
  2256  01E2  05A4               	andwf	___xxtofl@arg+2,f
  2257  01E3  30FF               	movlw	255
  2258  01E4  05A5               	andwf	___xxtofl@arg+3,f
  2259  01E5                     l737:	
  2260  01E5  1003               	clrc
  2261  01E6  0CA1               	rrf	___xxtofl@exp,f
  2262  01E7                     l2196:	
  2263  01E7  0821               	movf	___xxtofl@exp,w
  2264  01E8  00FA               	movwf	??___xxtofl
  2265  01E9  01FB               	clrf	??___xxtofl+1
  2266  01EA  01FC               	clrf	??___xxtofl+2
  2267  01EB  01FD               	clrf	??___xxtofl+3
  2268  01EC  3018               	movlw	24
  2269  01ED                     u2745:	
  2270  01ED  1003               	clrc
  2271  01EE  0DFA               	rlf	??___xxtofl,f
  2272  01EF  0DFB               	rlf	??___xxtofl+1,f
  2273  01F0  0DFC               	rlf	??___xxtofl+2,f
  2274  01F1  0DFD               	rlf	??___xxtofl+3,f
  2275  01F2                     u2740:	
  2276  01F2  3EFF               	addlw	-1
  2277  01F3  1D03               	skipz
  2278  01F4  29ED               	goto	u2745
  2279  01F5  087A               	movf	??___xxtofl,w
  2280  01F6  04A2               	iorwf	___xxtofl@arg,f
  2281  01F7  087B               	movf	??___xxtofl+1,w
  2282  01F8  04A3               	iorwf	___xxtofl@arg+1,f
  2283  01F9  087C               	movf	??___xxtofl+2,w
  2284  01FA  04A4               	iorwf	___xxtofl@arg+2,f
  2285  01FB  087D               	movf	??___xxtofl+3,w
  2286  01FC  04A5               	iorwf	___xxtofl@arg+3,f
  2287  01FD                     l2198:	
  2288  01FD  0820               	movf	___xxtofl@sign,w
  2289  01FE  1903               	btfsc	3,2
  2290  01FF  2A01               	goto	u2751
  2291  0200  2A02               	goto	u2750
  2292  0201                     u2751:	
  2293  0201  2A07               	goto	l2204
  2294  0202                     u2750:	
  2295  0202                     l2200:	
  2296  0202  1FF9               	btfss	___xxtofl@val+3,7
  2297  0203  2A05               	goto	u2761
  2298  0204  2A06               	goto	u2760
  2299  0205                     u2761:	
  2300  0205  2A07               	goto	l2204
  2301  0206                     u2760:	
  2302  0206                     l2202:	
  2303  0206  17A5               	bsf	___xxtofl@arg+3,7
  2304  0207                     l2204:	
  2305  0207  0825               	movf	___xxtofl@arg+3,w
  2306  0208  00F9               	movwf	?___xxtofl+3
  2307  0209  0824               	movf	___xxtofl@arg+2,w
  2308  020A  00F8               	movwf	?___xxtofl+2
  2309  020B  0823               	movf	___xxtofl@arg+1,w
  2310  020C  00F7               	movwf	?___xxtofl+1
  2311  020D  0822               	movf	___xxtofl@arg,w
  2312  020E  00F6               	movwf	?___xxtofl
  2313  020F                     l725:	
  2314  020F  0008               	return
  2315  0210                     __end_of___xxtofl:	
  2316                           
  2317                           	psect	text6
  2318  0CCE                     __ptext6:	
  2319 ;; *************** function ___wmul *****************
  2320 ;; Defined at:
  2321 ;;		line 15 in file "C:\Program Files (x86)\Microchip\xc8\v2.10\pic\sources\c90\common\Umul16.c"
  2322 ;; Parameters:    Size  Location     Type
  2323 ;;  multiplier      2    0[COMMON] unsigned int 
  2324 ;;  multiplicand    2    2[COMMON] unsigned int 
  2325 ;; Auto vars:     Size  Location     Type
  2326 ;;  product         2    4[COMMON] unsigned int 
  2327 ;; Return value:  Size  Location     Type
  2328 ;;                  2    0[COMMON] unsigned int 
  2329 ;; Registers used:
  2330 ;;		wreg, status,2, status,0
  2331 ;; Tracked objects:
  2332 ;;		On entry : 0/0
  2333 ;;		On exit  : 0/0
  2334 ;;		Unchanged: 0/0
  2335 ;; Data sizes:     COMMON   BANK0   BANK1   BANK3   BANK2
  2336 ;;      Params:         4       0       0       0       0
  2337 ;;      Locals:         2       0       0       0       0
  2338 ;;      Temps:          0       0       0       0       0
  2339 ;;      Totals:         6       0       0       0       0
  2340 ;;Total ram usage:        6 bytes
  2341 ;; Hardware stack levels used:    1
  2342 ;; This function calls:
  2343 ;;		Nothing
  2344 ;; This function is called by:
  2345 ;;		_b1
  2346 ;;		_b0
  2347 ;; This function uses a non-reentrant model
  2348 ;;
  2349                           
  2350                           
  2351                           ;psect for function ___wmul
  2352  0CCE                     ___wmul:	
  2353  0CCE                     l1884:	
  2354                           ;incstack = 0
  2355                           ; Regs used in ___wmul: [wreg+status,2+status,0]
  2356                           
  2357  0CCE  01F4               	clrf	___wmul@product
  2358  0CCF  01F5               	clrf	___wmul@product+1
  2359  0CD0                     l1886:	
  2360  0CD0  1C70               	btfss	___wmul@multiplier,0
  2361  0CD1  2CD3               	goto	u2001
  2362  0CD2  2CD4               	goto	u2000
  2363  0CD3                     u2001:	
  2364  0CD3  2CDA               	goto	l296
  2365  0CD4                     u2000:	
  2366  0CD4                     l1888:	
  2367  0CD4  0872               	movf	___wmul@multiplicand,w
  2368  0CD5  07F4               	addwf	___wmul@product,f
  2369  0CD6  1803               	skipnc
  2370  0CD7  0AF5               	incf	___wmul@product+1,f
  2371  0CD8  0873               	movf	___wmul@multiplicand+1,w
  2372  0CD9  07F5               	addwf	___wmul@product+1,f
  2373  0CDA                     l296:	
  2374  0CDA  3001               	movlw	1
  2375  0CDB                     u2015:	
  2376  0CDB  1003               	clrc
  2377  0CDC  0DF2               	rlf	___wmul@multiplicand,f
  2378  0CDD  0DF3               	rlf	___wmul@multiplicand+1,f
  2379  0CDE  3EFF               	addlw	-1
  2380  0CDF  1D03               	skipz
  2381  0CE0  2CDB               	goto	u2015
  2382  0CE1                     l1890:	
  2383  0CE1  3001               	movlw	1
  2384  0CE2                     u2025:	
  2385  0CE2  1003               	clrc
  2386  0CE3  0CF1               	rrf	___wmul@multiplier+1,f
  2387  0CE4  0CF0               	rrf	___wmul@multiplier,f
  2388  0CE5  3EFF               	addlw	-1
  2389  0CE6  1D03               	skipz
  2390  0CE7  2CE2               	goto	u2025
  2391  0CE8                     l1892:	
  2392  0CE8  0870               	movf	___wmul@multiplier,w
  2393  0CE9  0471               	iorwf	___wmul@multiplier+1,w
  2394  0CEA  1D03               	btfss	3,2
  2395  0CEB  2CED               	goto	u2031
  2396  0CEC  2CEE               	goto	u2030
  2397  0CED                     u2031:	
  2398  0CED  2CD0               	goto	l1886
  2399  0CEE                     u2030:	
  2400  0CEE                     l1894:	
  2401  0CEE  0875               	movf	___wmul@product+1,w
  2402  0CEF  00F1               	movwf	?___wmul+1
  2403  0CF0  0874               	movf	___wmul@product,w
  2404  0CF1  00F0               	movwf	?___wmul
  2405  0CF2                     l298:	
  2406  0CF2  0008               	return
  2407  0CF3                     __end_of___wmul:	
  2408                           
  2409                           	psect	text7
  2410  0F84                     __ptext7:	
  2411 ;; *************** function ___fltol *****************
  2412 ;; Defined at:
  2413 ;;		line 43 in file "C:\Program Files (x86)\Microchip\xc8\v2.10\pic\sources\c90\common\fltol.c"
  2414 ;; Parameters:    Size  Location     Type
  2415 ;;  f1              4   16[BANK0 ] unsigned int 
  2416 ;; Auto vars:     Size  Location     Type
  2417 ;;  exp1            1   26[BANK0 ] unsigned char 
  2418 ;;  sign1           1   25[BANK0 ] unsigned char 
  2419 ;; Return value:  Size  Location     Type
  2420 ;;                  4   16[BANK0 ] long 
  2421 ;; Registers used:
  2422 ;;		wreg, status,2, status,0
  2423 ;; Tracked objects:
  2424 ;;		On entry : 0/0
  2425 ;;		On exit  : 0/0
  2426 ;;		Unchanged: 0/0
  2427 ;; Data sizes:     COMMON   BANK0   BANK1   BANK3   BANK2
  2428 ;;      Params:         0       4       0       0       0
  2429 ;;      Locals:         0       2       0       0       0
  2430 ;;      Temps:          0       5       0       0       0
  2431 ;;      Totals:         0      11       0       0       0
  2432 ;;Total ram usage:       11 bytes
  2433 ;; Hardware stack levels used:    1
  2434 ;; This function calls:
  2435 ;;		Nothing
  2436 ;; This function is called by:
  2437 ;;		_b2
  2438 ;;		_b1
  2439 ;;		_b0
  2440 ;; This function uses a non-reentrant model
  2441 ;;
  2442                           
  2443                           
  2444                           ;psect for function ___fltol
  2445  0F84                     ___fltol:	
  2446  0F84                     l1980:	
  2447                           ;incstack = 0
  2448                           ; Regs used in ___fltol: [wreg+status,2+status,0]
  2449                           
  2450  0F84  1003               	clrc
  2451  0F85  1283               	bcf	3,5	;RP0=0, select bank0
  2452  0F86  1303               	bcf	3,6	;RP1=0, select bank0
  2453  0F87  0D32               	rlf	___fltol@f1+2,w
  2454  0F88  0D33               	rlf	___fltol@f1+3,w
  2455  0F89  00B4               	movwf	??___fltol
  2456  0F8A  0834               	movf	??___fltol,w
  2457  0F8B  00BA               	movwf	___fltol@exp1
  2458  0F8C  083A               	movf	___fltol@exp1,w
  2459  0F8D  1D03               	btfss	3,2
  2460  0F8E  2F90               	goto	u2231
  2461  0F8F  2F91               	goto	u2230
  2462  0F90                     u2231:	
  2463  0F90  2F9A               	goto	l1986
  2464  0F91                     u2230:	
  2465  0F91                     l1982:	
  2466  0F91  3000               	movlw	0
  2467  0F92  00B3               	movwf	?___fltol+3
  2468  0F93  3000               	movlw	0
  2469  0F94  00B2               	movwf	?___fltol+2
  2470  0F95  3000               	movlw	0
  2471  0F96  00B1               	movwf	?___fltol+1
  2472  0F97  3000               	movlw	0
  2473  0F98  00B0               	movwf	?___fltol
  2474  0F99  2FFF               	goto	l482
  2475  0F9A                     l1986:	
  2476  0F9A  0830               	movf	___fltol@f1,w
  2477  0F9B  00B4               	movwf	??___fltol
  2478  0F9C  0831               	movf	___fltol@f1+1,w
  2479  0F9D  00B5               	movwf	??___fltol+1
  2480  0F9E  0832               	movf	___fltol@f1+2,w
  2481  0F9F  00B6               	movwf	??___fltol+2
  2482  0FA0  0833               	movf	___fltol@f1+3,w
  2483  0FA1  00B7               	movwf	??___fltol+3
  2484  0FA2  301F               	movlw	31
  2485  0FA3                     u2245:	
  2486  0FA3  1003               	clrc
  2487  0FA4  0CB7               	rrf	??___fltol+3,f
  2488  0FA5  0CB6               	rrf	??___fltol+2,f
  2489  0FA6  0CB5               	rrf	??___fltol+1,f
  2490  0FA7  0CB4               	rrf	??___fltol,f
  2491  0FA8                     u2240:	
  2492  0FA8  3EFF               	addlw	-1
  2493  0FA9  1D03               	skipz
  2494  0FAA  2FA3               	goto	u2245
  2495  0FAB  0834               	movf	??___fltol,w
  2496  0FAC  00B8               	movwf	??___fltol+4
  2497  0FAD  0838               	movf	??___fltol+4,w
  2498  0FAE  00B9               	movwf	___fltol@sign1
  2499  0FAF                     l1988:	
  2500  0FAF  17B2               	bsf	___fltol@f1+2,7
  2501  0FB0                     l1990:	
  2502  0FB0  30FF               	movlw	255
  2503  0FB1  05B0               	andwf	___fltol@f1,f
  2504  0FB2  30FF               	movlw	255
  2505  0FB3  05B1               	andwf	___fltol@f1+1,f
  2506  0FB4  30FF               	movlw	255
  2507  0FB5  05B2               	andwf	___fltol@f1+2,f
  2508  0FB6  3000               	movlw	0
  2509  0FB7  05B3               	andwf	___fltol@f1+3,f
  2510  0FB8                     l1992:	
  2511  0FB8  3096               	movlw	150
  2512  0FB9  02BA               	subwf	___fltol@exp1,f
  2513  0FBA                     l1994:	
  2514  0FBA  1FBA               	btfss	___fltol@exp1,7
  2515  0FBB  2FBD               	goto	u2251
  2516  0FBC  2FBE               	goto	u2250
  2517  0FBD                     u2251:	
  2518  0FBD  2FD8               	goto	l2004
  2519  0FBE                     u2250:	
  2520  0FBE                     l1996:	
  2521  0FBE  083A               	movf	___fltol@exp1,w
  2522  0FBF  3A80               	xorlw	128
  2523  0FC0  3E97               	addlw	151
  2524  0FC1  1803               	skipnc
  2525  0FC2  2FC4               	goto	u2261
  2526  0FC3  2FC5               	goto	u2260
  2527  0FC4                     u2261:	
  2528  0FC4  2FC6               	goto	l2002
  2529  0FC5                     u2260:	
  2530  0FC5  2F91               	goto	l1982
  2531  0FC6                     l2002:	
  2532  0FC6  3001               	movlw	1
  2533  0FC7                     u2275:	
  2534  0FC7  1003               	clrc
  2535  0FC8  0CB3               	rrf	___fltol@f1+3,f
  2536  0FC9  0CB2               	rrf	___fltol@f1+2,f
  2537  0FCA  0CB1               	rrf	___fltol@f1+1,f
  2538  0FCB  0CB0               	rrf	___fltol@f1,f
  2539  0FCC  3EFF               	addlw	-1
  2540  0FCD  1D03               	skipz
  2541  0FCE  2FC7               	goto	u2275
  2542  0FCF  3001               	movlw	1
  2543  0FD0  00B4               	movwf	??___fltol
  2544  0FD1  0834               	movf	??___fltol,w
  2545  0FD2  07BA               	addwf	___fltol@exp1,f
  2546  0FD3  1D03               	btfss	3,2
  2547  0FD4  2FD6               	goto	u2281
  2548  0FD5  2FD7               	goto	u2280
  2549  0FD6                     u2281:	
  2550  0FD6  2FC6               	goto	l2002
  2551  0FD7                     u2280:	
  2552  0FD7  2FEF               	goto	l2012
  2553  0FD8                     l2004:	
  2554  0FD8  3020               	movlw	32
  2555  0FD9  023A               	subwf	___fltol@exp1,w
  2556  0FDA  1C03               	skipc
  2557  0FDB  2FDD               	goto	u2291
  2558  0FDC  2FDE               	goto	u2290
  2559  0FDD                     u2291:	
  2560  0FDD  2FEA               	goto	l489
  2561  0FDE                     u2290:	
  2562  0FDE  2F91               	goto	l1982
  2563  0FDF                     l2010:	
  2564  0FDF  3001               	movlw	1
  2565  0FE0  00B4               	movwf	??___fltol
  2566  0FE1                     u2305:	
  2567  0FE1  1003               	clrc
  2568  0FE2  0DB0               	rlf	___fltol@f1,f
  2569  0FE3  0DB1               	rlf	___fltol@f1+1,f
  2570  0FE4  0DB2               	rlf	___fltol@f1+2,f
  2571  0FE5  0DB3               	rlf	___fltol@f1+3,f
  2572  0FE6  0BB4               	decfsz	??___fltol,f
  2573  0FE7  2FE1               	goto	u2305
  2574  0FE8  3001               	movlw	1
  2575  0FE9  02BA               	subwf	___fltol@exp1,f
  2576  0FEA                     l489:	
  2577  0FEA  083A               	movf	___fltol@exp1,w
  2578  0FEB  1D03               	btfss	3,2
  2579  0FEC  2FEE               	goto	u2311
  2580  0FED  2FEF               	goto	u2310
  2581  0FEE                     u2311:	
  2582  0FEE  2FDF               	goto	l2010
  2583  0FEF                     u2310:	
  2584  0FEF                     l2012:	
  2585  0FEF  0839               	movf	___fltol@sign1,w
  2586  0FF0  1903               	btfsc	3,2
  2587  0FF1  2FF3               	goto	u2321
  2588  0FF2  2FF4               	goto	u2320
  2589  0FF3                     u2321:	
  2590  0FF3  2FFF               	goto	l492
  2591  0FF4                     u2320:	
  2592  0FF4                     l2014:	
  2593  0FF4  09B0               	comf	___fltol@f1,f
  2594  0FF5  09B1               	comf	___fltol@f1+1,f
  2595  0FF6  09B2               	comf	___fltol@f1+2,f
  2596  0FF7  09B3               	comf	___fltol@f1+3,f
  2597  0FF8  0AB0               	incf	___fltol@f1,f
  2598  0FF9  1903               	skipnz
  2599  0FFA  0AB1               	incf	___fltol@f1+1,f
  2600  0FFB  1903               	skipnz
  2601  0FFC  0AB2               	incf	___fltol@f1+2,f
  2602  0FFD  1903               	skipnz
  2603  0FFE  0AB3               	incf	___fltol@f1+3,f
  2604  0FFF                     l492:	
  2605  0FFF                     l482:	
  2606  0FFF  0008               	return
  2607  1000                     __end_of___fltol:	
  2608                           
  2609                           	psect	text8
  2610  0CAA                     __ptext8:	
  2611 ;; *************** function ___flsub *****************
  2612 ;; Defined at:
  2613 ;;		line 242 in file "C:\Program Files (x86)\Microchip\xc8\v2.10\pic\sources\c90\common\sprcadd.c"
  2614 ;; Parameters:    Size  Location     Type
  2615 ;;  a               4    8[BANK0 ] long 
  2616 ;;  b               4   12[BANK0 ] long 
  2617 ;; Auto vars:     Size  Location     Type
  2618 ;;		None
  2619 ;; Return value:  Size  Location     Type
  2620 ;;                  4    8[BANK0 ] long 
  2621 ;; Registers used:
  2622 ;;		wreg, status,2, status,0, btemp+1, pclath, cstack
  2623 ;; Tracked objects:
  2624 ;;		On entry : 0/0
  2625 ;;		On exit  : 0/0
  2626 ;;		Unchanged: 0/0
  2627 ;; Data sizes:     COMMON   BANK0   BANK1   BANK3   BANK2
  2628 ;;      Params:         0       8       0       0       0
  2629 ;;      Locals:         0       0       0       0       0
  2630 ;;      Temps:          0       0       0       0       0
  2631 ;;      Totals:         0       8       0       0       0
  2632 ;;Total ram usage:        8 bytes
  2633 ;; Hardware stack levels used:    1
  2634 ;; Hardware stack levels required when called:    1
  2635 ;; This function calls:
  2636 ;;		___fladd
  2637 ;; This function is called by:
  2638 ;;		_b1
  2639 ;;		_b0
  2640 ;; This function uses a non-reentrant model
  2641 ;;
  2642                           
  2643                           
  2644                           ;psect for function ___flsub
  2645  0CAA                     ___flsub:	
  2646  0CAA                     l2016:	
  2647                           ;incstack = 0
  2648                           ; Regs used in ___flsub: [wreg+status,2+status,0+btemp+1+pclath+cstack]
  2649                           
  2650  0CAA  3080               	movlw	128
  2651  0CAB  1283               	bcf	3,5	;RP0=0, select bank0
  2652  0CAC  1303               	bcf	3,6	;RP1=0, select bank0
  2653  0CAD  06AB               	xorwf	___flsub@a+3,f
  2654  0CAE                     l2018:	
  2655  0CAE  082F               	movf	___flsub@b+3,w
  2656  0CAF  00F3               	movwf	___fladd@b+3
  2657  0CB0  082E               	movf	___flsub@b+2,w
  2658  0CB1  00F2               	movwf	___fladd@b+2
  2659  0CB2  082D               	movf	___flsub@b+1,w
  2660  0CB3  00F1               	movwf	___fladd@b+1
  2661  0CB4  082C               	movf	___flsub@b,w
  2662  0CB5  00F0               	movwf	___fladd@b
  2663  0CB6  082B               	movf	___flsub@a+3,w
  2664  0CB7  00F7               	movwf	___fladd@a+3
  2665  0CB8  082A               	movf	___flsub@a+2,w
  2666  0CB9  00F6               	movwf	___fladd@a+2
  2667  0CBA  0829               	movf	___flsub@a+1,w
  2668  0CBB  00F5               	movwf	___fladd@a+1
  2669  0CBC  0828               	movf	___flsub@a,w
  2670  0CBD  00F4               	movwf	___fladd@a
  2671  0CBE  120A  118A  255A  120A  158A  	fcall	___fladd
  2672  0CC3  0873               	movf	?___fladd+3,w
  2673  0CC4  1283               	bcf	3,5	;RP0=0, select bank0
  2674  0CC5  1303               	bcf	3,6	;RP1=0, select bank0
  2675  0CC6  00AB               	movwf	?___flsub+3
  2676  0CC7  0872               	movf	?___fladd+2,w
  2677  0CC8  00AA               	movwf	?___flsub+2
  2678  0CC9  0871               	movf	?___fladd+1,w
  2679  0CCA  00A9               	movwf	?___flsub+1
  2680  0CCB  0870               	movf	?___fladd,w
  2681  0CCC  00A8               	movwf	?___flsub
  2682  0CCD                     l635:	
  2683  0CCD  0008               	return
  2684  0CCE                     __end_of___flsub:	
  2685                           
  2686                           	psect	text9
  2687  055A                     __ptext9:	
  2688 ;; *************** function ___fladd *****************
  2689 ;; Defined at:
  2690 ;;		line 10 in file "C:\Program Files (x86)\Microchip\xc8\v2.10\pic\sources\c90\common\sprcadd.c"
  2691 ;; Parameters:    Size  Location     Type
  2692 ;;  b               4    0[COMMON] long 
  2693 ;;  a               4    4[COMMON] long 
  2694 ;; Auto vars:     Size  Location     Type
  2695 ;;  grs             1   11[COMMON] unsigned char 
  2696 ;;  bexp            1   10[COMMON] unsigned char 
  2697 ;;  aexp            1    9[COMMON] unsigned char 
  2698 ;;  signs           1    8[COMMON] unsigned char 
  2699 ;; Return value:  Size  Location     Type
  2700 ;;                  4    0[COMMON] unsigned char 
  2701 ;; Registers used:
  2702 ;;		wreg, status,2, status,0, btemp+1
  2703 ;; Tracked objects:
  2704 ;;		On entry : 0/0
  2705 ;;		On exit  : 0/0
  2706 ;;		Unchanged: 0/0
  2707 ;; Data sizes:     COMMON   BANK0   BANK1   BANK3   BANK2
  2708 ;;      Params:         8       0       0       0       0
  2709 ;;      Locals:         4       0       0       0       0
  2710 ;;      Temps:          0       8       0       0       0
  2711 ;;      Totals:        12       8       0       0       0
  2712 ;;Total ram usage:       20 bytes
  2713 ;; Hardware stack levels used:    1
  2714 ;; This function calls:
  2715 ;;		Nothing
  2716 ;; This function is called by:
  2717 ;;		___flsub
  2718 ;; This function uses a non-reentrant model
  2719 ;;
  2720                           
  2721                           
  2722                           ;psect for function ___fladd
  2723  055A                     ___fladd:	
  2724  055A                     l1630:	
  2725                           ;incstack = 0
  2726                           ; Regs used in ___fladd: [wreg+status,2+status,0+btemp+1]
  2727                           
  2728  055A  0873               	movf	___fladd@b+3,w
  2729  055B  3980               	andlw	128
  2730  055C  1283               	bcf	3,5	;RP0=0, select bank0
  2731  055D  1303               	bcf	3,6	;RP1=0, select bank0
  2732  055E  00A0               	movwf	??___fladd
  2733  055F  0820               	movf	??___fladd,w
  2734  0560  00F8               	movwf	___fladd@signs
  2735  0561                     l1632:	
  2736  0561  0873               	movf	___fladd@b+3,w
  2737  0562  00A0               	movwf	??___fladd
  2738  0563  0720               	addwf	??___fladd,w
  2739  0564  00A1               	movwf	??___fladd+1
  2740  0565  0821               	movf	??___fladd+1,w
  2741  0566  00FA               	movwf	___fladd@bexp
  2742  0567                     l1634:	
  2743  0567  1FF2               	btfss	___fladd@b+2,7
  2744  0568  2D6A               	goto	u1521
  2745  0569  2D6B               	goto	u1520
  2746  056A                     u1521:	
  2747  056A  2D6C               	goto	l1638
  2748  056B                     u1520:	
  2749  056B                     l1636:	
  2750  056B  147A               	bsf	___fladd@bexp,0
  2751  056C                     l1638:	
  2752  056C  087A               	movf	___fladd@bexp,w
  2753  056D  1903               	btfsc	3,2
  2754  056E  2D70               	goto	u1531
  2755  056F  2D71               	goto	u1530
  2756  0570                     u1531:	
  2757  0570  2D81               	goto	l1648
  2758  0571                     u1530:	
  2759  0571                     l1640:	
  2760  0571  0A7A               	incf	___fladd@bexp,w
  2761  0572  1D03               	btfss	3,2
  2762  0573  2D75               	goto	u1541
  2763  0574  2D76               	goto	u1540
  2764  0575                     u1541:	
  2765  0575  2D7E               	goto	l1644
  2766  0576                     u1540:	
  2767  0576                     l1642:	
  2768  0576  3000               	movlw	0
  2769  0577  00F3               	movwf	___fladd@b+3
  2770  0578  3000               	movlw	0
  2771  0579  00F2               	movwf	___fladd@b+2
  2772  057A  3000               	movlw	0
  2773  057B  00F1               	movwf	___fladd@b+1
  2774  057C  3000               	movlw	0
  2775  057D  00F0               	movwf	___fladd@b
  2776  057E                     l1644:	
  2777  057E  17F2               	bsf	___fladd@b+2,7
  2778  057F                     l1646:	
  2779  057F  01F3               	clrf	___fladd@b+3
  2780  0580  2D89               	goto	l1650
  2781  0581                     l1648:	
  2782  0581  3000               	movlw	0
  2783  0582  00F3               	movwf	___fladd@b+3
  2784  0583  3000               	movlw	0
  2785  0584  00F2               	movwf	___fladd@b+2
  2786  0585  3000               	movlw	0
  2787  0586  00F1               	movwf	___fladd@b+1
  2788  0587  3000               	movlw	0
  2789  0588  00F0               	movwf	___fladd@b
  2790  0589                     l1650:	
  2791  0589  0877               	movf	___fladd@a+3,w
  2792  058A  3980               	andlw	128
  2793  058B  00A0               	movwf	??___fladd
  2794  058C  0820               	movf	??___fladd,w
  2795  058D  00F9               	movwf	___fladd@aexp
  2796  058E                     l1652:	
  2797  058E  0879               	movf	___fladd@aexp,w
  2798  058F  0678               	xorwf	___fladd@signs,w
  2799  0590  1903               	skipnz
  2800  0591  2D93               	goto	u1551
  2801  0592  2D94               	goto	u1550
  2802  0593                     u1551:	
  2803  0593  2D95               	goto	l1656
  2804  0594                     u1550:	
  2805  0594                     l1654:	
  2806  0594  1778               	bsf	___fladd@signs,6
  2807  0595                     l1656:	
  2808  0595  0877               	movf	___fladd@a+3,w
  2809  0596  00A0               	movwf	??___fladd
  2810  0597  0720               	addwf	??___fladd,w
  2811  0598  00A1               	movwf	??___fladd+1
  2812  0599  0821               	movf	??___fladd+1,w
  2813  059A  00F9               	movwf	___fladd@aexp
  2814  059B                     l1658:	
  2815  059B  1FF6               	btfss	___fladd@a+2,7
  2816  059C  2D9E               	goto	u1561
  2817  059D  2D9F               	goto	u1560
  2818  059E                     u1561:	
  2819  059E  2DA0               	goto	l1662
  2820  059F                     u1560:	
  2821  059F                     l1660:	
  2822  059F  1479               	bsf	___fladd@aexp,0
  2823  05A0                     l1662:	
  2824  05A0  0879               	movf	___fladd@aexp,w
  2825  05A1  1903               	btfsc	3,2
  2826  05A2  2DA4               	goto	u1571
  2827  05A3  2DA5               	goto	u1570
  2828  05A4                     u1571:	
  2829  05A4  2DB5               	goto	l1672
  2830  05A5                     u1570:	
  2831  05A5                     l1664:	
  2832  05A5  0A79               	incf	___fladd@aexp,w
  2833  05A6  1D03               	btfss	3,2
  2834  05A7  2DA9               	goto	u1581
  2835  05A8  2DAA               	goto	u1580
  2836  05A9                     u1581:	
  2837  05A9  2DB2               	goto	l1668
  2838  05AA                     u1580:	
  2839  05AA                     l1666:	
  2840  05AA  3000               	movlw	0
  2841  05AB  00F7               	movwf	___fladd@a+3
  2842  05AC  3000               	movlw	0
  2843  05AD  00F6               	movwf	___fladd@a+2
  2844  05AE  3000               	movlw	0
  2845  05AF  00F5               	movwf	___fladd@a+1
  2846  05B0  3000               	movlw	0
  2847  05B1  00F4               	movwf	___fladd@a
  2848  05B2                     l1668:	
  2849  05B2  17F6               	bsf	___fladd@a+2,7
  2850  05B3                     l1670:	
  2851  05B3  01F7               	clrf	___fladd@a+3
  2852  05B4  2DBD               	goto	l589
  2853  05B5                     l1672:	
  2854  05B5  3000               	movlw	0
  2855  05B6  00F7               	movwf	___fladd@a+3
  2856  05B7  3000               	movlw	0
  2857  05B8  00F6               	movwf	___fladd@a+2
  2858  05B9  3000               	movlw	0
  2859  05BA  00F5               	movwf	___fladd@a+1
  2860  05BB  3000               	movlw	0
  2861  05BC  00F4               	movwf	___fladd@a
  2862  05BD                     l589:	
  2863  05BD  087A               	movf	___fladd@bexp,w
  2864  05BE  0279               	subwf	___fladd@aexp,w
  2865  05BF  1803               	skipnc
  2866  05C0  2DC2               	goto	u1591
  2867  05C1  2DC3               	goto	u1590
  2868  05C2                     u1591:	
  2869  05C2  2E07               	goto	l1708
  2870  05C3                     u1590:	
  2871  05C3                     l1674:	
  2872  05C3  1F78               	btfss	___fladd@signs,6
  2873  05C4  2DC6               	goto	u1601
  2874  05C5  2DC7               	goto	u1600
  2875  05C6                     u1601:	
  2876  05C6  2DCB               	goto	l1678
  2877  05C7                     u1600:	
  2878  05C7                     l1676:	
  2879  05C7  3080               	movlw	128
  2880  05C8  00A0               	movwf	??___fladd
  2881  05C9  0820               	movf	??___fladd,w
  2882  05CA  06F8               	xorwf	___fladd@signs,f
  2883  05CB                     l1678:	
  2884  05CB  087A               	movf	___fladd@bexp,w
  2885  05CC  00A0               	movwf	??___fladd
  2886  05CD  0820               	movf	??___fladd,w
  2887  05CE  00FB               	movwf	___fladd@grs
  2888  05CF                     l1680:	
  2889  05CF  0879               	movf	___fladd@aexp,w
  2890  05D0  00A0               	movwf	??___fladd
  2891  05D1  0820               	movf	??___fladd,w
  2892  05D2  00FA               	movwf	___fladd@bexp
  2893  05D3                     l1682:	
  2894  05D3  087B               	movf	___fladd@grs,w
  2895  05D4  00A0               	movwf	??___fladd
  2896  05D5  0820               	movf	??___fladd,w
  2897  05D6  00F9               	movwf	___fladd@aexp
  2898  05D7                     l1684:	
  2899  05D7  0870               	movf	___fladd@b,w
  2900  05D8  00A0               	movwf	??___fladd
  2901  05D9  0820               	movf	??___fladd,w
  2902  05DA  00FB               	movwf	___fladd@grs
  2903  05DB                     l1686:	
  2904  05DB  0874               	movf	___fladd@a,w
  2905  05DC  00A0               	movwf	??___fladd
  2906  05DD  0820               	movf	??___fladd,w
  2907  05DE  00F0               	movwf	___fladd@b
  2908  05DF                     l1688:	
  2909  05DF  087B               	movf	___fladd@grs,w
  2910  05E0  00A0               	movwf	??___fladd
  2911  05E1  0820               	movf	??___fladd,w
  2912  05E2  00F4               	movwf	___fladd@a
  2913  05E3                     l1690:	
  2914  05E3  0871               	movf	___fladd@b+1,w
  2915  05E4  00A0               	movwf	??___fladd
  2916  05E5  0820               	movf	??___fladd,w
  2917  05E6  00FB               	movwf	___fladd@grs
  2918  05E7                     l1692:	
  2919  05E7  0875               	movf	___fladd@a+1,w
  2920  05E8  00A0               	movwf	??___fladd
  2921  05E9  0820               	movf	??___fladd,w
  2922  05EA  00F1               	movwf	___fladd@b+1
  2923  05EB                     l1694:	
  2924  05EB  087B               	movf	___fladd@grs,w
  2925  05EC  00A0               	movwf	??___fladd
  2926  05ED  0820               	movf	??___fladd,w
  2927  05EE  00F5               	movwf	___fladd@a+1
  2928  05EF                     l1696:	
  2929  05EF  0872               	movf	___fladd@b+2,w
  2930  05F0  00A0               	movwf	??___fladd
  2931  05F1  0820               	movf	??___fladd,w
  2932  05F2  00FB               	movwf	___fladd@grs
  2933  05F3                     l1698:	
  2934  05F3  0876               	movf	___fladd@a+2,w
  2935  05F4  00A0               	movwf	??___fladd
  2936  05F5  0820               	movf	??___fladd,w
  2937  05F6  00F2               	movwf	___fladd@b+2
  2938  05F7                     l1700:	
  2939  05F7  087B               	movf	___fladd@grs,w
  2940  05F8  00A0               	movwf	??___fladd
  2941  05F9  0820               	movf	??___fladd,w
  2942  05FA  00F6               	movwf	___fladd@a+2
  2943  05FB                     l1702:	
  2944  05FB  0873               	movf	___fladd@b+3,w
  2945  05FC  00A0               	movwf	??___fladd
  2946  05FD  0820               	movf	??___fladd,w
  2947  05FE  00FB               	movwf	___fladd@grs
  2948  05FF                     l1704:	
  2949  05FF  0877               	movf	___fladd@a+3,w
  2950  0600  00A0               	movwf	??___fladd
  2951  0601  0820               	movf	??___fladd,w
  2952  0602  00F3               	movwf	___fladd@b+3
  2953  0603                     l1706:	
  2954  0603  087B               	movf	___fladd@grs,w
  2955  0604  00A0               	movwf	??___fladd
  2956  0605  0820               	movf	??___fladd,w
  2957  0606  00F7               	movwf	___fladd@a+3
  2958  0607                     l1708:	
  2959  0607  01FB               	clrf	___fladd@grs
  2960  0608                     l1710:	
  2961  0608  0879               	movf	___fladd@aexp,w
  2962  0609  00A0               	movwf	??___fladd
  2963  060A  01A1               	clrf	??___fladd+1
  2964  060B  0821               	movf	??___fladd+1,w
  2965  060C  00A3               	movwf	??___fladd+3
  2966  060D  087A               	movf	___fladd@bexp,w
  2967  060E  0220               	subwf	??___fladd,w
  2968  060F  00A2               	movwf	??___fladd+2
  2969  0610  1C03               	skipc
  2970  0611  03A3               	decf	??___fladd+3,f
  2971  0612  0823               	movf	??___fladd+3,w
  2972  0613  3A80               	xorlw	128
  2973  0614  00FF               	movwf	btemp+1
  2974  0615  3080               	movlw	128
  2975  0616  027F               	subwf	btemp+1,w
  2976  0617  1D03               	skipz
  2977  0618  2E1B               	goto	u1615
  2978  0619  301A               	movlw	26
  2979  061A  0222               	subwf	??___fladd+2,w
  2980  061B                     u1615:	
  2981  061B  1C03               	skipc
  2982  061C  2E1E               	goto	u1611
  2983  061D  2E1F               	goto	u1610
  2984  061E                     u1611:	
  2985  061E  2E60               	goto	l1726
  2986  061F                     u1610:	
  2987  061F                     l1712:	
  2988  061F  0873               	movf	___fladd@b+3,w
  2989  0620  0472               	iorwf	___fladd@b+2,w
  2990  0621  0471               	iorwf	___fladd@b+1,w
  2991  0622  0470               	iorwf	___fladd@b,w
  2992  0623  1D03               	skipz
  2993  0624  2E26               	goto	u1621
  2994  0625  2E28               	goto	u1620
  2995  0626                     u1621:	
  2996  0626  3001               	movlw	1
  2997  0627  2E29               	goto	u1630
  2998  0628                     u1620:	
  2999  0628  3000               	movlw	0
  3000  0629                     u1630:	
  3001  0629  1283               	bcf	3,5	;RP0=0, select bank0
  3002  062A  1303               	bcf	3,6	;RP1=0, select bank0
  3003  062B  00A0               	movwf	??___fladd
  3004  062C  0820               	movf	??___fladd,w
  3005  062D  00FB               	movwf	___fladd@grs
  3006  062E  3000               	movlw	0
  3007  062F  00F3               	movwf	___fladd@b+3
  3008  0630  3000               	movlw	0
  3009  0631  00F2               	movwf	___fladd@b+2
  3010  0632  3000               	movlw	0
  3011  0633  00F1               	movwf	___fladd@b+1
  3012  0634  3000               	movlw	0
  3013  0635  00F0               	movwf	___fladd@b
  3014  0636  0879               	movf	___fladd@aexp,w
  3015  0637  00A0               	movwf	??___fladd
  3016  0638  0820               	movf	??___fladd,w
  3017  0639  00FA               	movwf	___fladd@bexp
  3018  063A  2E66               	goto	l593
  3019  063B                     l595:	
  3020  063B  1C7B               	btfss	___fladd@grs,0
  3021  063C  2E3E               	goto	u1641
  3022  063D  2E3F               	goto	u1640
  3023  063E                     u1641:	
  3024  063E  2E4A               	goto	l1716
  3025  063F                     u1640:	
  3026  063F                     l1714:	
  3027  063F  087B               	movf	___fladd@grs,w
  3028  0640  1283               	bcf	3,5	;RP0=0, select bank0
  3029  0641  1303               	bcf	3,6	;RP1=0, select bank0
  3030  0642  00A0               	movwf	??___fladd
  3031  0643  1003               	clrc
  3032  0644  0C20               	rrf	??___fladd,w
  3033  0645  3801               	iorlw	1
  3034  0646  00A1               	movwf	??___fladd+1
  3035  0647  0821               	movf	??___fladd+1,w
  3036  0648  00FB               	movwf	___fladd@grs
  3037  0649  2E4C               	goto	l1718
  3038  064A                     l1716:	
  3039  064A  1003               	clrc
  3040  064B  0CFB               	rrf	___fladd@grs,f
  3041  064C                     l1718:	
  3042  064C  1C70               	btfss	___fladd@b,0
  3043  064D  2E4F               	goto	u1651
  3044  064E  2E50               	goto	u1650
  3045  064F                     u1651:	
  3046  064F  2E51               	goto	l1722
  3047  0650                     u1650:	
  3048  0650                     l1720:	
  3049  0650  17FB               	bsf	___fladd@grs,7
  3050  0651                     l1722:	
  3051  0651  3001               	movlw	1
  3052  0652  1283               	bcf	3,5	;RP0=0, select bank0
  3053  0653  1303               	bcf	3,6	;RP1=0, select bank0
  3054  0654  00A0               	movwf	??___fladd
  3055  0655                     u1665:	
  3056  0655  0D73               	rlf	___fladd@b+3,w
  3057  0656  0CF3               	rrf	___fladd@b+3,f
  3058  0657  0CF2               	rrf	___fladd@b+2,f
  3059  0658  0CF1               	rrf	___fladd@b+1,f
  3060  0659  0CF0               	rrf	___fladd@b,f
  3061  065A  0BA0               	decfsz	??___fladd& (0+127),f
  3062  065B  2E55               	goto	u1665
  3063  065C                     l1724:	
  3064  065C  3001               	movlw	1
  3065  065D  00A0               	movwf	??___fladd
  3066  065E  0820               	movf	??___fladd,w
  3067  065F  07FA               	addwf	___fladd@bexp,f
  3068  0660                     l1726:	
  3069  0660  0879               	movf	___fladd@aexp,w
  3070  0661  027A               	subwf	___fladd@bexp,w
  3071  0662  1C03               	skipc
  3072  0663  2E65               	goto	u1671
  3073  0664  2E66               	goto	u1670
  3074  0665                     u1671:	
  3075  0665  2E3B               	goto	l595
  3076  0666                     u1670:	
  3077  0666                     l593:	
  3078  0666  1B78               	btfsc	___fladd@signs,6
  3079  0667  2E69               	goto	u1681
  3080  0668  2E6A               	goto	u1680
  3081  0669                     u1681:	
  3082  0669  2EB9               	goto	l1752
  3083  066A                     u1680:	
  3084  066A                     l1728:	
  3085  066A  087A               	movf	___fladd@bexp,w
  3086  066B  1D03               	btfss	3,2
  3087  066C  2E6E               	goto	u1691
  3088  066D  2E6F               	goto	u1690
  3089  066E                     u1691:	
  3090  066E  2E78               	goto	l1734
  3091  066F                     u1690:	
  3092  066F                     l1730:	
  3093  066F  3000               	movlw	0
  3094  0670  00F3               	movwf	?___fladd+3
  3095  0671  3000               	movlw	0
  3096  0672  00F2               	movwf	?___fladd+2
  3097  0673  3000               	movlw	0
  3098  0674  00F1               	movwf	?___fladd+1
  3099  0675  3000               	movlw	0
  3100  0676  00F0               	movwf	?___fladd
  3101  0677  2FF1               	goto	l602
  3102  0678                     l1734:	
  3103  0678  0874               	movf	___fladd@a,w
  3104  0679  07F0               	addwf	___fladd@b,f
  3105  067A  0875               	movf	___fladd@a+1,w
  3106  067B  1103               	clrz
  3107  067C  1803               	skipnc
  3108  067D  3E01               	addlw	1
  3109  067E  1903               	skipnz
  3110  067F  2E81               	goto	u1701
  3111  0680  07F1               	addwf	___fladd@b+1,f
  3112  0681                     u1701:	
  3113  0681  0876               	movf	___fladd@a+2,w
  3114  0682  1103               	clrz
  3115  0683  1803               	skipnc
  3116  0684  3E01               	addlw	1
  3117  0685  1903               	skipnz
  3118  0686  2E88               	goto	u1702
  3119  0687  07F2               	addwf	___fladd@b+2,f
  3120  0688                     u1702:	
  3121  0688  0877               	movf	___fladd@a+3,w
  3122  0689  1103               	clrz
  3123  068A  1803               	skipnc
  3124  068B  3E01               	addlw	1
  3125  068C  1903               	skipnz
  3126  068D  2E8F               	goto	u1703
  3127  068E  07F3               	addwf	___fladd@b+3,f
  3128  068F                     u1703:	
  3129  068F                     l1736:	
  3130  068F  1C73               	btfss	___fladd@b+3,0
  3131  0690  2E92               	goto	u1711
  3132  0691  2E93               	goto	u1710
  3133  0692                     u1711:	
  3134  0692  2F71               	goto	l1786
  3135  0693                     u1710:	
  3136  0693                     l1738:	
  3137  0693  1C7B               	btfss	___fladd@grs,0
  3138  0694  2E96               	goto	u1721
  3139  0695  2E97               	goto	u1720
  3140  0696                     u1721:	
  3141  0696  2EA2               	goto	l1742
  3142  0697                     u1720:	
  3143  0697                     l1740:	
  3144  0697  087B               	movf	___fladd@grs,w
  3145  0698  1283               	bcf	3,5	;RP0=0, select bank0
  3146  0699  1303               	bcf	3,6	;RP1=0, select bank0
  3147  069A  00A0               	movwf	??___fladd
  3148  069B  1003               	clrc
  3149  069C  0C20               	rrf	??___fladd,w
  3150  069D  3801               	iorlw	1
  3151  069E  00A1               	movwf	??___fladd+1
  3152  069F  0821               	movf	??___fladd+1,w
  3153  06A0  00FB               	movwf	___fladd@grs
  3154  06A1  2EA4               	goto	l1744
  3155  06A2                     l1742:	
  3156  06A2  1003               	clrc
  3157  06A3  0CFB               	rrf	___fladd@grs,f
  3158  06A4                     l1744:	
  3159  06A4  1C70               	btfss	___fladd@b,0
  3160  06A5  2EA7               	goto	u1731
  3161  06A6  2EA8               	goto	u1730
  3162  06A7                     u1731:	
  3163  06A7  2EA9               	goto	l1748
  3164  06A8                     u1730:	
  3165  06A8                     l1746:	
  3166  06A8  17FB               	bsf	___fladd@grs,7
  3167  06A9                     l1748:	
  3168  06A9  3001               	movlw	1
  3169  06AA  1283               	bcf	3,5	;RP0=0, select bank0
  3170  06AB  1303               	bcf	3,6	;RP1=0, select bank0
  3171  06AC  00A0               	movwf	??___fladd
  3172  06AD                     u1745:	
  3173  06AD  0D73               	rlf	___fladd@b+3,w
  3174  06AE  0CF3               	rrf	___fladd@b+3,f
  3175  06AF  0CF2               	rrf	___fladd@b+2,f
  3176  06B0  0CF1               	rrf	___fladd@b+1,f
  3177  06B1  0CF0               	rrf	___fladd@b,f
  3178  06B2  0BA0               	decfsz	??___fladd& (0+127),f
  3179  06B3  2EAD               	goto	u1745
  3180  06B4                     l1750:	
  3181  06B4  3001               	movlw	1
  3182  06B5  00A0               	movwf	??___fladd
  3183  06B6  0820               	movf	??___fladd,w
  3184  06B7  07FA               	addwf	___fladd@bexp,f
  3185  06B8  2F71               	goto	l1786
  3186  06B9                     l1752:	
  3187  06B9  0873               	movf	___fladd@b+3,w
  3188  06BA  3A80               	xorlw	128
  3189  06BB  00FF               	movwf	btemp+1
  3190  06BC  0877               	movf	___fladd@a+3,w
  3191  06BD  3A80               	xorlw	128
  3192  06BE  027F               	subwf	btemp+1,w
  3193  06BF  1D03               	skipz
  3194  06C0  2ECB               	goto	u1753
  3195  06C1  0876               	movf	___fladd@a+2,w
  3196  06C2  0272               	subwf	___fladd@b+2,w
  3197  06C3  1D03               	skipz
  3198  06C4  2ECB               	goto	u1753
  3199  06C5  0875               	movf	___fladd@a+1,w
  3200  06C6  0271               	subwf	___fladd@b+1,w
  3201  06C7  1D03               	skipz
  3202  06C8  2ECB               	goto	u1753
  3203  06C9  0874               	movf	___fladd@a,w
  3204  06CA  0270               	subwf	___fladd@b,w
  3205  06CB                     u1753:	
  3206  06CB  1803               	skipnc
  3207  06CC  2ECE               	goto	u1751
  3208  06CD  2ECF               	goto	u1750
  3209  06CE                     u1751:	
  3210  06CE  2F29               	goto	l1762
  3211  06CF                     u1750:	
  3212  06CF                     l1754:	
  3213  06CF  30FF               	movlw	255
  3214  06D0  1283               	bcf	3,5	;RP0=0, select bank0
  3215  06D1  1303               	bcf	3,6	;RP1=0, select bank0
  3216  06D2  00A0               	movwf	??___fladd
  3217  06D3  30FF               	movlw	255
  3218  06D4  00A1               	movwf	??___fladd+1
  3219  06D5  30FF               	movlw	255
  3220  06D6  00A2               	movwf	??___fladd+2
  3221  06D7  30FF               	movlw	255
  3222  06D8  00A3               	movwf	??___fladd+3
  3223  06D9  0874               	movf	___fladd@a,w
  3224  06DA  00A4               	movwf	??___fladd+4
  3225  06DB  0875               	movf	___fladd@a+1,w
  3226  06DC  00A5               	movwf	??___fladd+5
  3227  06DD  0876               	movf	___fladd@a+2,w
  3228  06DE  00A6               	movwf	??___fladd+6
  3229  06DF  0877               	movf	___fladd@a+3,w
  3230  06E0  00A7               	movwf	??___fladd+7
  3231  06E1  0870               	movf	___fladd@b,w
  3232  06E2  02A4               	subwf	??___fladd+4,f
  3233  06E3  0871               	movf	___fladd@b+1,w
  3234  06E4  1C03               	skipc
  3235  06E5  0F71               	incfsz	___fladd@b+1,w
  3236  06E6  2EE8               	goto	u1761
  3237  06E7  2EE9               	goto	u1762
  3238  06E8                     u1761:	
  3239  06E8  02A5               	subwf	??___fladd+5,f
  3240  06E9                     u1762:	
  3241  06E9  0872               	movf	___fladd@b+2,w
  3242  06EA  1C03               	skipc
  3243  06EB  0F72               	incfsz	___fladd@b+2,w
  3244  06EC  2EEE               	goto	u1763
  3245  06ED  2EEF               	goto	u1764
  3246  06EE                     u1763:	
  3247  06EE  02A6               	subwf	??___fladd+6,f
  3248  06EF                     u1764:	
  3249  06EF  0873               	movf	___fladd@b+3,w
  3250  06F0  1C03               	skipc
  3251  06F1  0F73               	incfsz	___fladd@b+3,w
  3252  06F2  2EF4               	goto	u1765
  3253  06F3  2EF5               	goto	u1766
  3254  06F4                     u1765:	
  3255  06F4  02A7               	subwf	??___fladd+7,f
  3256  06F5                     u1766:	
  3257  06F5  0824               	movf	??___fladd+4,w
  3258  06F6  07A0               	addwf	??___fladd,f
  3259  06F7  0825               	movf	??___fladd+5,w
  3260  06F8  1803               	skipnc
  3261  06F9  0F25               	incfsz	??___fladd+5,w
  3262  06FA  2EFC               	goto	u1770
  3263  06FB  2EFD               	goto	u1771
  3264  06FC                     u1770:	
  3265  06FC  07A1               	addwf	??___fladd+1,f
  3266  06FD                     u1771:	
  3267  06FD  0826               	movf	??___fladd+6,w
  3268  06FE  1803               	skipnc
  3269  06FF  0F26               	incfsz	??___fladd+6,w
  3270  0700  2F02               	goto	u1772
  3271  0701  2F03               	goto	u1773
  3272  0702                     u1772:	
  3273  0702  07A2               	addwf	??___fladd+2,f
  3274  0703                     u1773:	
  3275  0703  0827               	movf	??___fladd+7,w
  3276  0704  1803               	skipnc
  3277  0705  0A27               	incf	??___fladd+7,w
  3278  0706  07A3               	addwf	??___fladd+3,f
  3279  0707  0823               	movf	??___fladd+3,w
  3280  0708  00F3               	movwf	___fladd@b+3
  3281  0709  0822               	movf	??___fladd+2,w
  3282  070A  00F2               	movwf	___fladd@b+2
  3283  070B  0821               	movf	??___fladd+1,w
  3284  070C  00F1               	movwf	___fladd@b+1
  3285  070D  0820               	movf	??___fladd,w
  3286  070E  00F0               	movwf	___fladd@b
  3287  070F                     l1756:	
  3288  070F  3080               	movlw	128
  3289  0710  00A0               	movwf	??___fladd
  3290  0711  0820               	movf	??___fladd,w
  3291  0712  06F8               	xorwf	___fladd@signs,f
  3292  0713  09FB               	comf	___fladd@grs,f
  3293  0714  0AFB               	incf	___fladd@grs,f
  3294  0715                     l1758:	
  3295  0715  087B               	movf	___fladd@grs,w
  3296  0716  1D03               	btfss	3,2
  3297  0717  2F19               	goto	u1781
  3298  0718  2F1A               	goto	u1780
  3299  0719                     u1781:	
  3300  0719  2F37               	goto	l610
  3301  071A                     u1780:	
  3302  071A                     l1760:	
  3303  071A  3001               	movlw	1
  3304  071B  07F0               	addwf	___fladd@b,f
  3305  071C  3000               	movlw	0
  3306  071D  1803               	skipnc
  3307  071E  3001               	movlw	1
  3308  071F  07F1               	addwf	___fladd@b+1,f
  3309  0720  3000               	movlw	0
  3310  0721  1803               	skipnc
  3311  0722  3001               	movlw	1
  3312  0723  07F2               	addwf	___fladd@b+2,f
  3313  0724  3000               	movlw	0
  3314  0725  1803               	skipnc
  3315  0726  3001               	movlw	1
  3316  0727  07F3               	addwf	___fladd@b+3,f
  3317  0728  2F37               	goto	l610
  3318  0729                     l1762:	
  3319  0729  0874               	movf	___fladd@a,w
  3320  072A  02F0               	subwf	___fladd@b,f
  3321  072B  0875               	movf	___fladd@a+1,w
  3322  072C  1C03               	skipc
  3323  072D  0F75               	incfsz	___fladd@a+1,w
  3324  072E  02F1               	subwf	___fladd@b+1,f
  3325  072F  0876               	movf	___fladd@a+2,w
  3326  0730  1C03               	skipc
  3327  0731  0F76               	incfsz	___fladd@a+2,w
  3328  0732  02F2               	subwf	___fladd@b+2,f
  3329  0733  0877               	movf	___fladd@a+3,w
  3330  0734  1C03               	skipc
  3331  0735  0F77               	incfsz	___fladd@a+3,w
  3332  0736  02F3               	subwf	___fladd@b+3,f
  3333  0737                     l610:	
  3334  0737  0873               	movf	___fladd@b+3,w
  3335  0738  0472               	iorwf	___fladd@b+2,w
  3336  0739  0471               	iorwf	___fladd@b+1,w
  3337  073A  0470               	iorwf	___fladd@b,w
  3338  073B  1D03               	skipz
  3339  073C  2F3E               	goto	u1791
  3340  073D  2F3F               	goto	u1790
  3341  073E                     u1791:	
  3342  073E  2F6D               	goto	l1784
  3343  073F                     u1790:	
  3344  073F                     l1764:	
  3345  073F  087B               	movf	___fladd@grs,w
  3346  0740  1D03               	btfss	3,2
  3347  0741  2F43               	goto	u1801
  3348  0742  2F44               	goto	u1800
  3349  0743                     u1801:	
  3350  0743  2F6D               	goto	l1784
  3351  0744                     u1800:	
  3352  0744                     l1766:	
  3353  0744  3000               	movlw	0
  3354  0745  00F3               	movwf	?___fladd+3
  3355  0746  3000               	movlw	0
  3356  0747  00F2               	movwf	?___fladd+2
  3357  0748  3000               	movlw	0
  3358  0749  00F1               	movwf	?___fladd+1
  3359  074A  3000               	movlw	0
  3360  074B  00F0               	movwf	?___fladd
  3361  074C  2FF1               	goto	l602
  3362  074D                     l1770:	
  3363  074D  3001               	movlw	1
  3364  074E  1283               	bcf	3,5	;RP0=0, select bank0
  3365  074F  1303               	bcf	3,6	;RP1=0, select bank0
  3366  0750  00A0               	movwf	??___fladd
  3367  0751                     u1815:	
  3368  0751  1003               	clrc
  3369  0752  0DF0               	rlf	___fladd@b,f
  3370  0753  0DF1               	rlf	___fladd@b+1,f
  3371  0754  0DF2               	rlf	___fladd@b+2,f
  3372  0755  0DF3               	rlf	___fladd@b+3,f
  3373  0756  0BA0               	decfsz	??___fladd,f
  3374  0757  2F51               	goto	u1815
  3375  0758                     l1772:	
  3376  0758  1FFB               	btfss	___fladd@grs,7
  3377  0759  2F5B               	goto	u1821
  3378  075A  2F5C               	goto	u1820
  3379  075B                     u1821:	
  3380  075B  2F5D               	goto	l614
  3381  075C                     u1820:	
  3382  075C                     l1774:	
  3383  075C  1470               	bsf	___fladd@b,0
  3384  075D                     l614:	
  3385  075D  1C7B               	btfss	___fladd@grs,0
  3386  075E  2F60               	goto	u1831
  3387  075F  2F61               	goto	u1830
  3388  0760                     u1831:	
  3389  0760  2F64               	goto	l1778
  3390  0761                     u1830:	
  3391  0761                     l1776:	
  3392  0761  1403               	setc
  3393  0762  0DFB               	rlf	___fladd@grs,f
  3394  0763  2F66               	goto	l1780
  3395  0764                     l1778:	
  3396  0764  1003               	clrc
  3397  0765  0DFB               	rlf	___fladd@grs,f
  3398  0766                     l1780:	
  3399  0766  087A               	movf	___fladd@bexp,w
  3400  0767  1903               	btfsc	3,2
  3401  0768  2F6A               	goto	u1841
  3402  0769  2F6B               	goto	u1840
  3403  076A                     u1841:	
  3404  076A  2F6D               	goto	l1784
  3405  076B                     u1840:	
  3406  076B                     l1782:	
  3407  076B  3001               	movlw	1
  3408  076C  02FA               	subwf	___fladd@bexp,f
  3409  076D                     l1784:	
  3410  076D  1FF2               	btfss	___fladd@b+2,7
  3411  076E  2F70               	goto	u1851
  3412  076F  2F71               	goto	u1850
  3413  0770                     u1851:	
  3414  0770  2F4D               	goto	l1770
  3415  0771                     u1850:	
  3416  0771                     l1786:	
  3417  0771  01F9               	clrf	___fladd@aexp
  3418  0772                     l1788:	
  3419  0772  1FFB               	btfss	___fladd@grs,7
  3420  0773  2F75               	goto	u1861
  3421  0774  2F76               	goto	u1860
  3422  0775                     u1861:	
  3423  0775  2F84               	goto	l1796
  3424  0776                     u1860:	
  3425  0776                     l1790:	
  3426  0776  087B               	movf	___fladd@grs,w
  3427  0777  397F               	andlw	127
  3428  0778  1903               	btfsc	3,2
  3429  0779  2F7B               	goto	u1871
  3430  077A  2F7C               	goto	u1870
  3431  077B                     u1871:	
  3432  077B  2F7F               	goto	l620
  3433  077C                     u1870:	
  3434  077C                     l1792:	
  3435  077C  01F9               	clrf	___fladd@aexp
  3436  077D  0AF9               	incf	___fladd@aexp,f
  3437  077E  2F84               	goto	l1796
  3438  077F                     l620:	
  3439  077F  1C70               	btfss	___fladd@b,0
  3440  0780  2F82               	goto	u1881
  3441  0781  2F83               	goto	u1880
  3442  0782                     u1881:	
  3443  0782  2F84               	goto	l1796
  3444  0783                     u1880:	
  3445  0783  2F7C               	goto	l1792
  3446  0784                     l1796:	
  3447  0784  0879               	movf	___fladd@aexp,w
  3448  0785  1903               	btfsc	3,2
  3449  0786  2F88               	goto	u1891
  3450  0787  2F89               	goto	u1890
  3451  0788                     u1891:	
  3452  0788  2FBF               	goto	l623
  3453  0789                     u1890:	
  3454  0789                     l1798:	
  3455  0789  3001               	movlw	1
  3456  078A  07F0               	addwf	___fladd@b,f
  3457  078B  3000               	movlw	0
  3458  078C  1803               	skipnc
  3459  078D  3001               	movlw	1
  3460  078E  07F1               	addwf	___fladd@b+1,f
  3461  078F  3000               	movlw	0
  3462  0790  1803               	skipnc
  3463  0791  3001               	movlw	1
  3464  0792  07F2               	addwf	___fladd@b+2,f
  3465  0793  3000               	movlw	0
  3466  0794  1803               	skipnc
  3467  0795  3001               	movlw	1
  3468  0796  07F3               	addwf	___fladd@b+3,f
  3469  0797                     l1800:	
  3470  0797  1C73               	btfss	___fladd@b+3,0
  3471  0798  2F9A               	goto	u1901
  3472  0799  2F9B               	goto	u1900
  3473  079A                     u1901:	
  3474  079A  2FBF               	goto	l623
  3475  079B                     u1900:	
  3476  079B                     l1802:	
  3477  079B  0870               	movf	___fladd@b,w
  3478  079C  1283               	bcf	3,5	;RP0=0, select bank0
  3479  079D  1303               	bcf	3,6	;RP1=0, select bank0
  3480  079E  00A0               	movwf	??___fladd
  3481  079F  0871               	movf	___fladd@b+1,w
  3482  07A0  00A1               	movwf	??___fladd+1
  3483  07A1  0872               	movf	___fladd@b+2,w
  3484  07A2  00A2               	movwf	??___fladd+2
  3485  07A3  0873               	movf	___fladd@b+3,w
  3486  07A4  00A3               	movwf	??___fladd+3
  3487  07A5  3001               	movlw	1
  3488  07A6  00A4               	movwf	??___fladd+4
  3489  07A7                     u1915:	
  3490  07A7  0D23               	rlf	??___fladd+3,w
  3491  07A8  0CA3               	rrf	??___fladd+3,f
  3492  07A9  0CA2               	rrf	??___fladd+2,f
  3493  07AA  0CA1               	rrf	??___fladd+1,f
  3494  07AB  0CA0               	rrf	??___fladd,f
  3495  07AC                     u1910:	
  3496  07AC  0BA4               	decfsz	??___fladd+4,f
  3497  07AD  2FA7               	goto	u1915
  3498  07AE  0823               	movf	??___fladd+3,w
  3499  07AF  00F3               	movwf	___fladd@b+3
  3500  07B0  0822               	movf	??___fladd+2,w
  3501  07B1  00F2               	movwf	___fladd@b+2
  3502  07B2  0821               	movf	??___fladd+1,w
  3503  07B3  00F1               	movwf	___fladd@b+1
  3504  07B4  0820               	movf	??___fladd,w
  3505  07B5  00F0               	movwf	___fladd@b
  3506  07B6  0A7A               	incf	___fladd@bexp,w
  3507  07B7  1903               	btfsc	3,2
  3508  07B8  2FBA               	goto	u1921
  3509  07B9  2FBB               	goto	u1920
  3510  07BA                     u1921:	
  3511  07BA  2FBF               	goto	l623
  3512  07BB                     u1920:	
  3513  07BB                     l1804:	
  3514  07BB  3001               	movlw	1
  3515  07BC  00A0               	movwf	??___fladd
  3516  07BD  0820               	movf	??___fladd,w
  3517  07BE  07FA               	addwf	___fladd@bexp,f
  3518  07BF                     l623:	
  3519  07BF  0A7A               	incf	___fladd@bexp,w
  3520  07C0  1903               	btfsc	3,2
  3521  07C1  2FC3               	goto	u1931
  3522  07C2  2FC4               	goto	u1930
  3523  07C3                     u1931:	
  3524  07C3  2FC9               	goto	l1808
  3525  07C4                     u1930:	
  3526  07C4                     l1806:	
  3527  07C4  087A               	movf	___fladd@bexp,w
  3528  07C5  1D03               	btfss	3,2
  3529  07C6  2FC8               	goto	u1941
  3530  07C7  2FC9               	goto	u1940
  3531  07C8                     u1941:	
  3532  07C8  2FD7               	goto	l1814
  3533  07C9                     u1940:	
  3534  07C9                     l1808:	
  3535  07C9  3000               	movlw	0
  3536  07CA  00F3               	movwf	___fladd@b+3
  3537  07CB  3000               	movlw	0
  3538  07CC  00F2               	movwf	___fladd@b+2
  3539  07CD  3000               	movlw	0
  3540  07CE  00F1               	movwf	___fladd@b+1
  3541  07CF  3000               	movlw	0
  3542  07D0  00F0               	movwf	___fladd@b
  3543  07D1                     l1810:	
  3544  07D1  087A               	movf	___fladd@bexp,w
  3545  07D2  1D03               	btfss	3,2
  3546  07D3  2FD5               	goto	u1951
  3547  07D4  2FD6               	goto	u1950
  3548  07D5                     u1951:	
  3549  07D5  2FD7               	goto	l1814
  3550  07D6                     u1950:	
  3551  07D6                     l1812:	
  3552  07D6  01F8               	clrf	___fladd@signs
  3553  07D7                     l1814:	
  3554  07D7  1C7A               	btfss	___fladd@bexp,0
  3555  07D8  2FDA               	goto	u1961
  3556  07D9  2FDB               	goto	u1960
  3557  07DA                     u1961:	
  3558  07DA  2FDD               	goto	l1818
  3559  07DB                     u1960:	
  3560  07DB                     l1816:	
  3561  07DB  17F2               	bsf	___fladd@b+2,7
  3562  07DC  2FE3               	goto	l631
  3563  07DD                     l1818:	
  3564  07DD  307F               	movlw	127
  3565  07DE  1283               	bcf	3,5	;RP0=0, select bank0
  3566  07DF  1303               	bcf	3,6	;RP1=0, select bank0
  3567  07E0  00A0               	movwf	??___fladd
  3568  07E1  0820               	movf	??___fladd,w
  3569  07E2  05F2               	andwf	___fladd@b+2,f
  3570  07E3                     l631:	
  3571  07E3  087A               	movf	___fladd@bexp,w
  3572  07E4  1283               	bcf	3,5	;RP0=0, select bank0
  3573  07E5  1303               	bcf	3,6	;RP1=0, select bank0
  3574  07E6  00A0               	movwf	??___fladd
  3575  07E7  1003               	clrc
  3576  07E8  0C20               	rrf	??___fladd,w
  3577  07E9  00A1               	movwf	??___fladd+1
  3578  07EA  0821               	movf	??___fladd+1,w
  3579  07EB  00F3               	movwf	___fladd@b+3
  3580  07EC                     l1820:	
  3581  07EC  1FF8               	btfss	___fladd@signs,7
  3582  07ED  2FEF               	goto	u1971
  3583  07EE  2FF0               	goto	u1970
  3584  07EF                     u1971:	
  3585  07EF  2FF1               	goto	l632
  3586  07F0                     u1970:	
  3587  07F0                     l1822:	
  3588  07F0  17F3               	bsf	___fladd@b+3,7
  3589  07F1                     l632:	
  3590  07F1                     l602:	
  3591  07F1  0008               	return
  3592  07F2                     __end_of___fladd:	
  3593                           
  3594                           	psect	text10
  3595  0377                     __ptext10:	
  3596 ;; *************** function ___fldiv *****************
  3597 ;; Defined at:
  3598 ;;		line 8 in file "C:\Program Files (x86)\Microchip\xc8\v2.10\pic\sources\c90\common\sprcdiv.c"
  3599 ;; Parameters:    Size  Location     Type
  3600 ;;  a               4    0[COMMON] unsigned char 
  3601 ;;  b               4    4[COMMON] unsigned char 
  3602 ;; Auto vars:     Size  Location     Type
  3603 ;;  grs             4    7[BANK0 ] unsigned long 
  3604 ;;  rem             4    0[BANK0 ] unsigned long 
  3605 ;;  new_exp         2    5[BANK0 ] int 
  3606 ;;  aexp            1   12[BANK0 ] unsigned char 
  3607 ;;  bexp            1   11[BANK0 ] unsigned char 
  3608 ;;  sign            1    4[BANK0 ] unsigned char 
  3609 ;; Return value:  Size  Location     Type
  3610 ;;                  4    0[COMMON] unsigned char 
  3611 ;; Registers used:
  3612 ;;		wreg, status,2, status,0, btemp+1
  3613 ;; Tracked objects:
  3614 ;;		On entry : 0/0
  3615 ;;		On exit  : 0/0
  3616 ;;		Unchanged: 0/0
  3617 ;; Data sizes:     COMMON   BANK0   BANK1   BANK3   BANK2
  3618 ;;      Params:         8       0       0       0       0
  3619 ;;      Locals:         0      13       0       0       0
  3620 ;;      Temps:          5       0       0       0       0
  3621 ;;      Totals:        13      13       0       0       0
  3622 ;;Total ram usage:       26 bytes
  3623 ;; Hardware stack levels used:    1
  3624 ;; This function calls:
  3625 ;;		Nothing
  3626 ;; This function is called by:
  3627 ;;		_b2
  3628 ;;		_b1
  3629 ;;		_b0
  3630 ;; This function uses a non-reentrant model
  3631 ;;
  3632                           
  3633                           
  3634                           ;psect for function ___fldiv
  3635  0377                     ___fldiv:	
  3636  0377                     l2022:	
  3637                           ;incstack = 0
  3638                           ; Regs used in ___fldiv: [wreg+status,2+status,0+btemp+1]
  3639                           
  3640  0377  0877               	movf	___fldiv@b+3,w
  3641  0378  3980               	andlw	128
  3642  0379  00F8               	movwf	??___fldiv
  3643  037A  0878               	movf	??___fldiv,w
  3644  037B  1283               	bcf	3,5	;RP0=0, select bank0
  3645  037C  1303               	bcf	3,6	;RP1=0, select bank0
  3646  037D  00A4               	movwf	___fldiv@sign
  3647  037E                     l2024:	
  3648  037E  0877               	movf	___fldiv@b+3,w
  3649  037F  00F8               	movwf	??___fldiv
  3650  0380  0778               	addwf	??___fldiv,w
  3651  0381  00F9               	movwf	??___fldiv+1
  3652  0382  0879               	movf	??___fldiv+1,w
  3653  0383  00AB               	movwf	___fldiv@bexp
  3654  0384                     l2026:	
  3655  0384  1FF6               	btfss	___fldiv@b+2,7
  3656  0385  2B87               	goto	u2331
  3657  0386  2B88               	goto	u2330
  3658  0387                     u2331:	
  3659  0387  2B89               	goto	l2030
  3660  0388                     u2330:	
  3661  0388                     l2028:	
  3662  0388  142B               	bsf	___fldiv@bexp,0
  3663  0389                     l2030:	
  3664  0389  082B               	movf	___fldiv@bexp,w
  3665  038A  1903               	btfsc	3,2
  3666  038B  2B8D               	goto	u2341
  3667  038C  2B8E               	goto	u2340
  3668  038D                     u2341:	
  3669  038D  2B9E               	goto	l2040
  3670  038E                     u2340:	
  3671  038E                     l2032:	
  3672  038E  0A2B               	incf	___fldiv@bexp,w
  3673  038F  1D03               	btfss	3,2
  3674  0390  2B92               	goto	u2351
  3675  0391  2B93               	goto	u2350
  3676  0392                     u2351:	
  3677  0392  2B9B               	goto	l2036
  3678  0393                     u2350:	
  3679  0393                     l2034:	
  3680  0393  3000               	movlw	0
  3681  0394  00F7               	movwf	___fldiv@b+3
  3682  0395  3000               	movlw	0
  3683  0396  00F6               	movwf	___fldiv@b+2
  3684  0397  3000               	movlw	0
  3685  0398  00F5               	movwf	___fldiv@b+1
  3686  0399  3000               	movlw	0
  3687  039A  00F4               	movwf	___fldiv@b
  3688  039B                     l2036:	
  3689  039B  17F6               	bsf	___fldiv@b+2,7
  3690  039C                     l2038:	
  3691  039C  01F7               	clrf	___fldiv@b+3
  3692  039D  2BA6               	goto	l2042
  3693  039E                     l2040:	
  3694  039E  3000               	movlw	0
  3695  039F  00F7               	movwf	___fldiv@b+3
  3696  03A0  3000               	movlw	0
  3697  03A1  00F6               	movwf	___fldiv@b+2
  3698  03A2  3000               	movlw	0
  3699  03A3  00F5               	movwf	___fldiv@b+1
  3700  03A4  3000               	movlw	0
  3701  03A5  00F4               	movwf	___fldiv@b
  3702  03A6                     l2042:	
  3703  03A6  0873               	movf	___fldiv@a+3,w
  3704  03A7  3980               	andlw	128
  3705  03A8  00F8               	movwf	??___fldiv
  3706  03A9  0878               	movf	??___fldiv,w
  3707  03AA  06A4               	xorwf	___fldiv@sign,f
  3708  03AB                     l2044:	
  3709  03AB  0873               	movf	___fldiv@a+3,w
  3710  03AC  00F8               	movwf	??___fldiv
  3711  03AD  0778               	addwf	??___fldiv,w
  3712  03AE  00F9               	movwf	??___fldiv+1
  3713  03AF  0879               	movf	??___fldiv+1,w
  3714  03B0  00AC               	movwf	___fldiv@aexp
  3715  03B1                     l2046:	
  3716  03B1  1FF2               	btfss	___fldiv@a+2,7
  3717  03B2  2BB4               	goto	u2361
  3718  03B3  2BB5               	goto	u2360
  3719  03B4                     u2361:	
  3720  03B4  2BB6               	goto	l2050
  3721  03B5                     u2360:	
  3722  03B5                     l2048:	
  3723  03B5  142C               	bsf	___fldiv@aexp,0
  3724  03B6                     l2050:	
  3725  03B6  082C               	movf	___fldiv@aexp,w
  3726  03B7  1903               	btfsc	3,2
  3727  03B8  2BBA               	goto	u2371
  3728  03B9  2BBB               	goto	u2370
  3729  03BA                     u2371:	
  3730  03BA  2BCB               	goto	l2060
  3731  03BB                     u2370:	
  3732  03BB                     l2052:	
  3733  03BB  0A2C               	incf	___fldiv@aexp,w
  3734  03BC  1D03               	btfss	3,2
  3735  03BD  2BBF               	goto	u2381
  3736  03BE  2BC0               	goto	u2380
  3737  03BF                     u2381:	
  3738  03BF  2BC8               	goto	l2056
  3739  03C0                     u2380:	
  3740  03C0                     l2054:	
  3741  03C0  3000               	movlw	0
  3742  03C1  00F3               	movwf	___fldiv@a+3
  3743  03C2  3000               	movlw	0
  3744  03C3  00F2               	movwf	___fldiv@a+2
  3745  03C4  3000               	movlw	0
  3746  03C5  00F1               	movwf	___fldiv@a+1
  3747  03C6  3000               	movlw	0
  3748  03C7  00F0               	movwf	___fldiv@a
  3749  03C8                     l2056:	
  3750  03C8  17F2               	bsf	___fldiv@a+2,7
  3751  03C9                     l2058:	
  3752  03C9  01F3               	clrf	___fldiv@a+3
  3753  03CA  2BD3               	goto	l645
  3754  03CB                     l2060:	
  3755  03CB  3000               	movlw	0
  3756  03CC  00F3               	movwf	___fldiv@a+3
  3757  03CD  3000               	movlw	0
  3758  03CE  00F2               	movwf	___fldiv@a+2
  3759  03CF  3000               	movlw	0
  3760  03D0  00F1               	movwf	___fldiv@a+1
  3761  03D1  3000               	movlw	0
  3762  03D2  00F0               	movwf	___fldiv@a
  3763  03D3                     l645:	
  3764  03D3  0873               	movf	___fldiv@a+3,w
  3765  03D4  0472               	iorwf	___fldiv@a+2,w
  3766  03D5  0471               	iorwf	___fldiv@a+1,w
  3767  03D6  0470               	iorwf	___fldiv@a,w
  3768  03D7  1D03               	skipz
  3769  03D8  2BDA               	goto	u2391
  3770  03D9  2BDB               	goto	u2390
  3771  03DA                     u2391:	
  3772  03DA  2BF4               	goto	l2070
  3773  03DB                     u2390:	
  3774  03DB                     l2062:	
  3775  03DB  3000               	movlw	0
  3776  03DC  00F7               	movwf	___fldiv@b+3
  3777  03DD  3000               	movlw	0
  3778  03DE  00F6               	movwf	___fldiv@b+2
  3779  03DF  3000               	movlw	0
  3780  03E0  00F5               	movwf	___fldiv@b+1
  3781  03E1  3000               	movlw	0
  3782  03E2  00F4               	movwf	___fldiv@b
  3783  03E3  3080               	movlw	128
  3784  03E4  04F6               	iorwf	___fldiv@b+2,f
  3785  03E5  307F               	movlw	127
  3786  03E6  04F7               	iorwf	___fldiv@b+3,f
  3787  03E7                     l2064:	
  3788  03E7  0824               	movf	___fldiv@sign,w
  3789  03E8  00F8               	movwf	??___fldiv
  3790  03E9  0878               	movf	??___fldiv,w
  3791  03EA  04F7               	iorwf	___fldiv@b+3,f
  3792  03EB                     l2066:	
  3793  03EB  0877               	movf	___fldiv@b+3,w
  3794  03EC  00F3               	movwf	?___fldiv+3
  3795  03ED  0876               	movf	___fldiv@b+2,w
  3796  03EE  00F2               	movwf	?___fldiv+2
  3797  03EF  0875               	movf	___fldiv@b+1,w
  3798  03F0  00F1               	movwf	?___fldiv+1
  3799  03F1  0874               	movf	___fldiv@b,w
  3800  03F2  00F0               	movwf	?___fldiv
  3801  03F3  2D59               	goto	l647
  3802  03F4                     l2070:	
  3803  03F4  082B               	movf	___fldiv@bexp,w
  3804  03F5  1D03               	btfss	3,2
  3805  03F6  2BF8               	goto	u2401
  3806  03F7  2BF9               	goto	u2400
  3807  03F8                     u2401:	
  3808  03F8  2C02               	goto	l2076
  3809  03F9                     u2400:	
  3810  03F9                     l2072:	
  3811  03F9  3000               	movlw	0
  3812  03FA  00F3               	movwf	?___fldiv+3
  3813  03FB  3000               	movlw	0
  3814  03FC  00F2               	movwf	?___fldiv+2
  3815  03FD  3000               	movlw	0
  3816  03FE  00F1               	movwf	?___fldiv+1
  3817  03FF  3000               	movlw	0
  3818  0400  00F0               	movwf	?___fldiv
  3819  0401  2D59               	goto	l647
  3820  0402                     l2076:	
  3821  0402  082B               	movf	___fldiv@bexp,w
  3822  0403  00F8               	movwf	??___fldiv
  3823  0404  01F9               	clrf	??___fldiv+1
  3824  0405  0879               	movf	??___fldiv+1,w
  3825  0406  00FB               	movwf	??___fldiv+3
  3826  0407  082C               	movf	___fldiv@aexp,w
  3827  0408  0278               	subwf	??___fldiv,w
  3828  0409  00FA               	movwf	??___fldiv+2
  3829  040A  1C03               	skipc
  3830  040B  03FB               	decf	??___fldiv+3,f
  3831  040C  087A               	movf	??___fldiv+2,w
  3832  040D  3E7F               	addlw	127
  3833  040E  00A5               	movwf	___fldiv@new_exp
  3834  040F  087B               	movf	??___fldiv+3,w
  3835  0410  1803               	skipnc
  3836  0411  3E01               	addlw	1
  3837  0412  3E00               	addlw	0
  3838  0413  00A6               	movwf	___fldiv@new_exp+1
  3839  0414                     l2078:	
  3840  0414  0877               	movf	___fldiv@b+3,w
  3841  0415  00A3               	movwf	___fldiv@rem+3
  3842  0416  0876               	movf	___fldiv@b+2,w
  3843  0417  00A2               	movwf	___fldiv@rem+2
  3844  0418  0875               	movf	___fldiv@b+1,w
  3845  0419  00A1               	movwf	___fldiv@rem+1
  3846  041A  0874               	movf	___fldiv@b,w
  3847  041B  00A0               	movwf	___fldiv@rem
  3848  041C                     l2080:	
  3849  041C  3000               	movlw	0
  3850  041D  00F7               	movwf	___fldiv@b+3
  3851  041E  3000               	movlw	0
  3852  041F  00F6               	movwf	___fldiv@b+2
  3853  0420  3000               	movlw	0
  3854  0421  00F5               	movwf	___fldiv@b+1
  3855  0422  3000               	movlw	0
  3856  0423  00F4               	movwf	___fldiv@b
  3857  0424                     l2082:	
  3858  0424  3000               	movlw	0
  3859  0425  00AA               	movwf	___fldiv@grs+3
  3860  0426  3000               	movlw	0
  3861  0427  00A9               	movwf	___fldiv@grs+2
  3862  0428  3000               	movlw	0
  3863  0429  00A8               	movwf	___fldiv@grs+1
  3864  042A  3000               	movlw	0
  3865  042B  00A7               	movwf	___fldiv@grs
  3866  042C                     l2084:	
  3867  042C  01AC               	clrf	___fldiv@aexp
  3868  042D  2C7E               	goto	l2104
  3869  042E                     l2086:	
  3870  042E  082C               	movf	___fldiv@aexp,w
  3871  042F  1903               	btfsc	3,2
  3872  0430  2C32               	goto	u2411
  3873  0431  2C33               	goto	u2410
  3874  0432                     u2411:	
  3875  0432  2C53               	goto	l2096
  3876  0433                     u2410:	
  3877  0433                     l2088:	
  3878  0433  3001               	movlw	1
  3879  0434  00F8               	movwf	??___fldiv
  3880  0435                     u2425:	
  3881  0435  1003               	clrc
  3882  0436  0DA0               	rlf	___fldiv@rem,f
  3883  0437  0DA1               	rlf	___fldiv@rem+1,f
  3884  0438  0DA2               	rlf	___fldiv@rem+2,f
  3885  0439  0DA3               	rlf	___fldiv@rem+3,f
  3886  043A  0BF8               	decfsz	??___fldiv,f
  3887  043B  2C35               	goto	u2425
  3888  043C  3001               	movlw	1
  3889  043D  00F8               	movwf	??___fldiv
  3890  043E                     u2435:	
  3891  043E  1003               	clrc
  3892  043F  0DF4               	rlf	___fldiv@b,f
  3893  0440  0DF5               	rlf	___fldiv@b+1,f
  3894  0441  0DF6               	rlf	___fldiv@b+2,f
  3895  0442  0DF7               	rlf	___fldiv@b+3,f
  3896  0443  0BF8               	decfsz	??___fldiv,f
  3897  0444  2C3E               	goto	u2435
  3898  0445                     l2090:	
  3899  0445  1FAA               	btfss	___fldiv@grs+3,7
  3900  0446  2C48               	goto	u2441
  3901  0447  2C49               	goto	u2440
  3902  0448                     u2441:	
  3903  0448  2C4A               	goto	l2094
  3904  0449                     u2440:	
  3905  0449                     l2092:	
  3906  0449  1474               	bsf	___fldiv@b,0
  3907  044A                     l2094:	
  3908  044A  3001               	movlw	1
  3909  044B  00F8               	movwf	??___fldiv
  3910  044C                     u2455:	
  3911  044C  1003               	clrc
  3912  044D  0DA7               	rlf	___fldiv@grs,f
  3913  044E  0DA8               	rlf	___fldiv@grs+1,f
  3914  044F  0DA9               	rlf	___fldiv@grs+2,f
  3915  0450  0DAA               	rlf	___fldiv@grs+3,f
  3916  0451  0BF8               	decfsz	??___fldiv,f
  3917  0452  2C4C               	goto	u2455
  3918  0453                     l2096:	
  3919  0453  0873               	movf	___fldiv@a+3,w
  3920  0454  0223               	subwf	___fldiv@rem+3,w
  3921  0455  1D03               	skipz
  3922  0456  2C61               	goto	u2465
  3923  0457  0872               	movf	___fldiv@a+2,w
  3924  0458  0222               	subwf	___fldiv@rem+2,w
  3925  0459  1D03               	skipz
  3926  045A  2C61               	goto	u2465
  3927  045B  0871               	movf	___fldiv@a+1,w
  3928  045C  0221               	subwf	___fldiv@rem+1,w
  3929  045D  1D03               	skipz
  3930  045E  2C61               	goto	u2465
  3931  045F  0870               	movf	___fldiv@a,w
  3932  0460  0220               	subwf	___fldiv@rem,w
  3933  0461                     u2465:	
  3934  0461  1C03               	skipc
  3935  0462  2C64               	goto	u2461
  3936  0463  2C65               	goto	u2460
  3937  0464                     u2461:	
  3938  0464  2C7A               	goto	l2102
  3939  0465                     u2460:	
  3940  0465                     l2098:	
  3941  0465  172A               	bsf	___fldiv@grs+3,6
  3942  0466                     l2100:	
  3943  0466  0870               	movf	___fldiv@a,w
  3944  0467  02A0               	subwf	___fldiv@rem,f
  3945  0468  0871               	movf	___fldiv@a+1,w
  3946  0469  1C03               	skipc
  3947  046A  0F71               	incfsz	___fldiv@a+1,w
  3948  046B  2C6D               	goto	u2475
  3949  046C  2C6E               	goto	u2476
  3950  046D                     u2475:	
  3951  046D  02A1               	subwf	___fldiv@rem+1,f
  3952  046E                     u2476:	
  3953  046E  0872               	movf	___fldiv@a+2,w
  3954  046F  1C03               	skipc
  3955  0470  0F72               	incfsz	___fldiv@a+2,w
  3956  0471  2C73               	goto	u2477
  3957  0472  2C74               	goto	u2478
  3958  0473                     u2477:	
  3959  0473  02A2               	subwf	___fldiv@rem+2,f
  3960  0474                     u2478:	
  3961  0474  0873               	movf	___fldiv@a+3,w
  3962  0475  1C03               	skipc
  3963  0476  0F73               	incfsz	___fldiv@a+3,w
  3964  0477  2C79               	goto	u2479
  3965  0478  2C7A               	goto	u2470
  3966  0479                     u2479:	
  3967  0479  02A3               	subwf	___fldiv@rem+3,f
  3968  047A                     u2470:	
  3969  047A                     l2102:	
  3970  047A  3001               	movlw	1
  3971  047B  00F8               	movwf	??___fldiv
  3972  047C  0878               	movf	??___fldiv,w
  3973  047D  07AC               	addwf	___fldiv@aexp,f
  3974  047E                     l2104:	
  3975  047E  301A               	movlw	26
  3976  047F  022C               	subwf	___fldiv@aexp,w
  3977  0480  1C03               	skipc
  3978  0481  2C83               	goto	u2481
  3979  0482  2C84               	goto	u2480
  3980  0483                     u2481:	
  3981  0483  2C2E               	goto	l2086
  3982  0484                     u2480:	
  3983  0484                     l2106:	
  3984  0484  0823               	movf	___fldiv@rem+3,w
  3985  0485  0422               	iorwf	___fldiv@rem+2,w
  3986  0486  0421               	iorwf	___fldiv@rem+1,w
  3987  0487  0420               	iorwf	___fldiv@rem,w
  3988  0488  1903               	skipnz
  3989  0489  2C8B               	goto	u2491
  3990  048A  2C8C               	goto	u2490
  3991  048B                     u2491:	
  3992  048B  2CAB               	goto	l2120
  3993  048C                     u2490:	
  3994  048C                     l2108:	
  3995  048C  1427               	bsf	___fldiv@grs,0
  3996  048D  2CAB               	goto	l2120
  3997  048E                     l2110:	
  3998  048E  3001               	movlw	1
  3999  048F  00F8               	movwf	??___fldiv
  4000  0490                     u2505:	
  4001  0490  1003               	clrc
  4002  0491  0DF4               	rlf	___fldiv@b,f
  4003  0492  0DF5               	rlf	___fldiv@b+1,f
  4004  0493  0DF6               	rlf	___fldiv@b+2,f
  4005  0494  0DF7               	rlf	___fldiv@b+3,f
  4006  0495  0BF8               	decfsz	??___fldiv,f
  4007  0496  2C90               	goto	u2505
  4008  0497                     l2112:	
  4009  0497  1FAA               	btfss	___fldiv@grs+3,7
  4010  0498  2C9A               	goto	u2511
  4011  0499  2C9B               	goto	u2510
  4012  049A                     u2511:	
  4013  049A  2C9C               	goto	l2116
  4014  049B                     u2510:	
  4015  049B                     l2114:	
  4016  049B  1474               	bsf	___fldiv@b,0
  4017  049C                     l2116:	
  4018  049C  3001               	movlw	1
  4019  049D  00F8               	movwf	??___fldiv
  4020  049E                     u2525:	
  4021  049E  1003               	clrc
  4022  049F  0DA7               	rlf	___fldiv@grs,f
  4023  04A0  0DA8               	rlf	___fldiv@grs+1,f
  4024  04A1  0DA9               	rlf	___fldiv@grs+2,f
  4025  04A2  0DAA               	rlf	___fldiv@grs+3,f
  4026  04A3  0BF8               	decfsz	??___fldiv,f
  4027  04A4  2C9E               	goto	u2525
  4028  04A5                     l2118:	
  4029  04A5  30FF               	movlw	255
  4030  04A6  07A5               	addwf	___fldiv@new_exp,f
  4031  04A7  1803               	skipnc
  4032  04A8  0AA6               	incf	___fldiv@new_exp+1,f
  4033  04A9  30FF               	movlw	255
  4034  04AA  07A6               	addwf	___fldiv@new_exp+1,f
  4035  04AB                     l2120:	
  4036  04AB  1FF6               	btfss	___fldiv@b+2,7
  4037  04AC  2CAE               	goto	u2531
  4038  04AD  2CAF               	goto	u2530
  4039  04AE                     u2531:	
  4040  04AE  2C8E               	goto	l2110
  4041  04AF                     u2530:	
  4042  04AF                     l2122:	
  4043  04AF  01AC               	clrf	___fldiv@aexp
  4044  04B0                     l2124:	
  4045  04B0  1FAA               	btfss	___fldiv@grs+3,7
  4046  04B1  2CB3               	goto	u2541
  4047  04B2  2CB4               	goto	u2540
  4048  04B3                     u2541:	
  4049  04B3  2CD0               	goto	l2132
  4050  04B4                     u2540:	
  4051  04B4                     l2126:	
  4052  04B4  30FF               	movlw	255
  4053  04B5  0527               	andwf	___fldiv@grs,w
  4054  04B6  00F8               	movwf	??___fldiv
  4055  04B7  30FF               	movlw	255
  4056  04B8  0528               	andwf	___fldiv@grs+1,w
  4057  04B9  00F9               	movwf	??___fldiv+1
  4058  04BA  30FF               	movlw	255
  4059  04BB  0529               	andwf	___fldiv@grs+2,w
  4060  04BC  00FA               	movwf	??___fldiv+2
  4061  04BD  307F               	movlw	127
  4062  04BE  052A               	andwf	___fldiv@grs+3,w
  4063  04BF  00FB               	movwf	??___fldiv+3
  4064  04C0  087B               	movf	??___fldiv+3,w
  4065  04C1  047A               	iorwf	??___fldiv+2,w
  4066  04C2  0479               	iorwf	??___fldiv+1,w
  4067  04C3  0478               	iorwf	??___fldiv,w
  4068  04C4  1903               	skipnz
  4069  04C5  2CC7               	goto	u2551
  4070  04C6  2CC8               	goto	u2550
  4071  04C7                     u2551:	
  4072  04C7  2CCB               	goto	l661
  4073  04C8                     u2550:	
  4074  04C8                     l2128:	
  4075  04C8  01AC               	clrf	___fldiv@aexp
  4076  04C9  0AAC               	incf	___fldiv@aexp,f
  4077  04CA  2CD0               	goto	l2132
  4078  04CB                     l661:	
  4079  04CB  1C74               	btfss	___fldiv@b,0
  4080  04CC  2CCE               	goto	u2561
  4081  04CD  2CCF               	goto	u2560
  4082  04CE                     u2561:	
  4083  04CE  2CD0               	goto	l2132
  4084  04CF                     u2560:	
  4085  04CF  2CC8               	goto	l2128
  4086  04D0                     l2132:	
  4087  04D0  082C               	movf	___fldiv@aexp,w
  4088  04D1  1903               	btfsc	3,2
  4089  04D2  2CD4               	goto	u2571
  4090  04D3  2CD5               	goto	u2570
  4091  04D4                     u2571:	
  4092  04D4  2D06               	goto	l2142
  4093  04D5                     u2570:	
  4094  04D5                     l2134:	
  4095  04D5  3001               	movlw	1
  4096  04D6  07F4               	addwf	___fldiv@b,f
  4097  04D7  3000               	movlw	0
  4098  04D8  1803               	skipnc
  4099  04D9  3001               	movlw	1
  4100  04DA  07F5               	addwf	___fldiv@b+1,f
  4101  04DB  3000               	movlw	0
  4102  04DC  1803               	skipnc
  4103  04DD  3001               	movlw	1
  4104  04DE  07F6               	addwf	___fldiv@b+2,f
  4105  04DF  3000               	movlw	0
  4106  04E0  1803               	skipnc
  4107  04E1  3001               	movlw	1
  4108  04E2  07F7               	addwf	___fldiv@b+3,f
  4109  04E3                     l2136:	
  4110  04E3  1C77               	btfss	___fldiv@b+3,0
  4111  04E4  2CE6               	goto	u2581
  4112  04E5  2CE7               	goto	u2580
  4113  04E6                     u2581:	
  4114  04E6  2D06               	goto	l2142
  4115  04E7                     u2580:	
  4116  04E7                     l2138:	
  4117  04E7  0874               	movf	___fldiv@b,w
  4118  04E8  00F8               	movwf	??___fldiv
  4119  04E9  0875               	movf	___fldiv@b+1,w
  4120  04EA  00F9               	movwf	??___fldiv+1
  4121  04EB  0876               	movf	___fldiv@b+2,w
  4122  04EC  00FA               	movwf	??___fldiv+2
  4123  04ED  0877               	movf	___fldiv@b+3,w
  4124  04EE  00FB               	movwf	??___fldiv+3
  4125  04EF  3001               	movlw	1
  4126  04F0  00FC               	movwf	??___fldiv+4
  4127  04F1                     u2595:	
  4128  04F1  0D7B               	rlf	??___fldiv+3,w
  4129  04F2  0CFB               	rrf	??___fldiv+3,f
  4130  04F3  0CFA               	rrf	??___fldiv+2,f
  4131  04F4  0CF9               	rrf	??___fldiv+1,f
  4132  04F5  0CF8               	rrf	??___fldiv,f
  4133  04F6                     u2590:	
  4134  04F6  0BFC               	decfsz	??___fldiv+4,f
  4135  04F7  2CF1               	goto	u2595
  4136  04F8  087B               	movf	??___fldiv+3,w
  4137  04F9  00F7               	movwf	___fldiv@b+3
  4138  04FA  087A               	movf	??___fldiv+2,w
  4139  04FB  00F6               	movwf	___fldiv@b+2
  4140  04FC  0879               	movf	??___fldiv+1,w
  4141  04FD  00F5               	movwf	___fldiv@b+1
  4142  04FE  0878               	movf	??___fldiv,w
  4143  04FF  00F4               	movwf	___fldiv@b
  4144  0500                     l2140:	
  4145  0500  3001               	movlw	1
  4146  0501  07A5               	addwf	___fldiv@new_exp,f
  4147  0502  1803               	skipnc
  4148  0503  0AA6               	incf	___fldiv@new_exp+1,f
  4149  0504  3000               	movlw	0
  4150  0505  07A6               	addwf	___fldiv@new_exp+1,f
  4151  0506                     l2142:	
  4152  0506  0826               	movf	___fldiv@new_exp+1,w
  4153  0507  3A80               	xorlw	128
  4154  0508  00FF               	movwf	btemp+1
  4155  0509  3080               	movlw	128
  4156  050A  027F               	subwf	btemp+1,w
  4157  050B  1D03               	skipz
  4158  050C  2D0F               	goto	u2605
  4159  050D  30FF               	movlw	255
  4160  050E  0225               	subwf	___fldiv@new_exp,w
  4161  050F                     u2605:	
  4162  050F  1C03               	skipc
  4163  0510  2D12               	goto	u2601
  4164  0511  2D13               	goto	u2600
  4165  0512                     u2601:	
  4166  0512  2D21               	goto	l2146
  4167  0513                     u2600:	
  4168  0513                     l2144:	
  4169  0513  30FF               	movlw	255
  4170  0514  1283               	bcf	3,5	;RP0=0, select bank0
  4171  0515  1303               	bcf	3,6	;RP1=0, select bank0
  4172  0516  00A5               	movwf	___fldiv@new_exp
  4173  0517  3000               	movlw	0
  4174  0518  00A6               	movwf	___fldiv@new_exp+1
  4175  0519  3000               	movlw	0
  4176  051A  00F7               	movwf	___fldiv@b+3
  4177  051B  3000               	movlw	0
  4178  051C  00F6               	movwf	___fldiv@b+2
  4179  051D  3000               	movlw	0
  4180  051E  00F5               	movwf	___fldiv@b+1
  4181  051F  3000               	movlw	0
  4182  0520  00F4               	movwf	___fldiv@b
  4183  0521                     l2146:	
  4184  0521  1283               	bcf	3,5	;RP0=0, select bank0
  4185  0522  1303               	bcf	3,6	;RP1=0, select bank0
  4186  0523  0826               	movf	___fldiv@new_exp+1,w
  4187  0524  3A80               	xorlw	128
  4188  0525  00FF               	movwf	btemp+1
  4189  0526  3080               	movlw	128
  4190  0527  027F               	subwf	btemp+1,w
  4191  0528  1D03               	skipz
  4192  0529  2D2C               	goto	u2615
  4193  052A  3001               	movlw	1
  4194  052B  0225               	subwf	___fldiv@new_exp,w
  4195  052C                     u2615:	
  4196  052C  1803               	skipnc
  4197  052D  2D2F               	goto	u2611
  4198  052E  2D30               	goto	u2610
  4199  052F                     u2611:	
  4200  052F  2D3D               	goto	l667
  4201  0530                     u2610:	
  4202  0530                     l2148:	
  4203  0530  1283               	bcf	3,5	;RP0=0, select bank0
  4204  0531  1303               	bcf	3,6	;RP1=0, select bank0
  4205  0532  01A5               	clrf	___fldiv@new_exp
  4206  0533  01A6               	clrf	___fldiv@new_exp+1
  4207  0534                     l2150:	
  4208  0534  3000               	movlw	0
  4209  0535  00F7               	movwf	___fldiv@b+3
  4210  0536  3000               	movlw	0
  4211  0537  00F6               	movwf	___fldiv@b+2
  4212  0538  3000               	movlw	0
  4213  0539  00F5               	movwf	___fldiv@b+1
  4214  053A  3000               	movlw	0
  4215  053B  00F4               	movwf	___fldiv@b
  4216  053C                     l2152:	
  4217  053C  01A4               	clrf	___fldiv@sign
  4218  053D                     l667:	
  4219  053D  1283               	bcf	3,5	;RP0=0, select bank0
  4220  053E  1303               	bcf	3,6	;RP1=0, select bank0
  4221  053F  0825               	movf	___fldiv@new_exp,w
  4222  0540  00F8               	movwf	??___fldiv
  4223  0541  0878               	movf	??___fldiv,w
  4224  0542  00AB               	movwf	___fldiv@bexp
  4225  0543                     l2154:	
  4226  0543  1C2B               	btfss	___fldiv@bexp,0
  4227  0544  2D46               	goto	u2621
  4228  0545  2D47               	goto	u2620
  4229  0546                     u2621:	
  4230  0546  2D49               	goto	l2158
  4231  0547                     u2620:	
  4232  0547                     l2156:	
  4233  0547  17F6               	bsf	___fldiv@b+2,7
  4234  0548  2D4D               	goto	l669
  4235  0549                     l2158:	
  4236  0549  307F               	movlw	127
  4237  054A  00F8               	movwf	??___fldiv
  4238  054B  0878               	movf	??___fldiv,w
  4239  054C  05F6               	andwf	___fldiv@b+2,f
  4240  054D                     l669:	
  4241  054D  082B               	movf	___fldiv@bexp,w
  4242  054E  00F8               	movwf	??___fldiv
  4243  054F  1003               	clrc
  4244  0550  0C78               	rrf	??___fldiv,w
  4245  0551  00F9               	movwf	??___fldiv+1
  4246  0552  0879               	movf	??___fldiv+1,w
  4247  0553  00F7               	movwf	___fldiv@b+3
  4248  0554  0824               	movf	___fldiv@sign,w
  4249  0555  00F8               	movwf	??___fldiv
  4250  0556  0878               	movf	??___fldiv,w
  4251  0557  04F7               	iorwf	___fldiv@b+3,f
  4252  0558  2BEB               	goto	l2066
  4253  0559                     l647:	
  4254  0559  0008               	return
  4255  055A                     __end_of___fldiv:	
  4256                           
  4257                           	psect	text11
  4258  0C40                     __ptext11:	
  4259 ;; *************** function ___bmul *****************
  4260 ;; Defined at:
  4261 ;;		line 4 in file "C:\Program Files (x86)\Microchip\xc8\v2.10\pic\sources\c90\common\Umul8.c"
  4262 ;; Parameters:    Size  Location     Type
  4263 ;;  multiplier      1    wreg     unsigned char 
  4264 ;;  multiplicand    1    0[COMMON] unsigned char 
  4265 ;; Auto vars:     Size  Location     Type
  4266 ;;  multiplier      1    3[COMMON] unsigned char 
  4267 ;;  product         1    2[COMMON] unsigned char 
  4268 ;; Return value:  Size  Location     Type
  4269 ;;                  1    wreg      unsigned char 
  4270 ;; Registers used:
  4271 ;;		wreg, status,2, status,0
  4272 ;; Tracked objects:
  4273 ;;		On entry : 0/0
  4274 ;;		On exit  : 0/0
  4275 ;;		Unchanged: 0/0
  4276 ;; Data sizes:     COMMON   BANK0   BANK1   BANK3   BANK2
  4277 ;;      Params:         1       0       0       0       0
  4278 ;;      Locals:         2       0       0       0       0
  4279 ;;      Temps:          1       0       0       0       0
  4280 ;;      Totals:         4       0       0       0       0
  4281 ;;Total ram usage:        4 bytes
  4282 ;; Hardware stack levels used:    1
  4283 ;; This function calls:
  4284 ;;		Nothing
  4285 ;; This function is called by:
  4286 ;;		_b0
  4287 ;; This function uses a non-reentrant model
  4288 ;;
  4289                           
  4290                           
  4291                           ;psect for function ___bmul
  4292  0C40                     ___bmul:	
  4293                           
  4294                           ;incstack = 0
  4295                           ; Regs used in ___bmul: [wreg+status,2+status,0]
  4296                           ;___bmul@multiplier stored from wreg
  4297  0C40  00F3               	movwf	___bmul@multiplier
  4298  0C41                     l1898:	
  4299  0C41  01F2               	clrf	___bmul@product
  4300  0C42                     l1900:	
  4301  0C42  1C73               	btfss	___bmul@multiplier,0
  4302  0C43  2C45               	goto	u2041
  4303  0C44  2C46               	goto	u2040
  4304  0C45                     u2041:	
  4305  0C45  2C4A               	goto	l1904
  4306  0C46                     u2040:	
  4307  0C46                     l1902:	
  4308  0C46  0870               	movf	___bmul@multiplicand,w
  4309  0C47  00F1               	movwf	??___bmul
  4310  0C48  0871               	movf	??___bmul,w
  4311  0C49  07F2               	addwf	___bmul@product,f
  4312  0C4A                     l1904:	
  4313  0C4A  1003               	clrc
  4314  0C4B  0DF0               	rlf	___bmul@multiplicand,f
  4315  0C4C                     l1906:	
  4316  0C4C  1003               	clrc
  4317  0C4D  0CF3               	rrf	___bmul@multiplier,f
  4318  0C4E  0873               	movf	___bmul@multiplier,w
  4319  0C4F  1D03               	btfss	3,2
  4320  0C50  2C52               	goto	u2051
  4321  0C51  2C53               	goto	u2050
  4322  0C52                     u2051:	
  4323  0C52  2C42               	goto	l1900
  4324  0C53                     u2050:	
  4325  0C53                     l1908:	
  4326  0C53  0872               	movf	___bmul@product,w
  4327  0C54                     l322:	
  4328  0C54  0008               	return
  4329  0C55                     __end_of___bmul:	
  4330                           
  4331                           	psect	text12
  4332  0F1D                     __ptext12:	
  4333 ;; *************** function ___awdiv *****************
  4334 ;; Defined at:
  4335 ;;		line 5 in file "C:\Program Files (x86)\Microchip\xc8\v2.10\pic\sources\c90\common\awdiv.c"
  4336 ;; Parameters:    Size  Location     Type
  4337 ;;  divisor         2    0[COMMON] int 
  4338 ;;  dividend        2    2[COMMON] int 
  4339 ;; Auto vars:     Size  Location     Type
  4340 ;;  quotient        2    7[COMMON] int 
  4341 ;;  sign            1    6[COMMON] unsigned char 
  4342 ;;  counter         1    5[COMMON] unsigned char 
  4343 ;; Return value:  Size  Location     Type
  4344 ;;                  2    0[COMMON] int 
  4345 ;; Registers used:
  4346 ;;		wreg, status,2, status,0
  4347 ;; Tracked objects:
  4348 ;;		On entry : 0/0
  4349 ;;		On exit  : 0/0
  4350 ;;		Unchanged: 0/0
  4351 ;; Data sizes:     COMMON   BANK0   BANK1   BANK3   BANK2
  4352 ;;      Params:         4       0       0       0       0
  4353 ;;      Locals:         4       0       0       0       0
  4354 ;;      Temps:          1       0       0       0       0
  4355 ;;      Totals:         9       0       0       0       0
  4356 ;;Total ram usage:        9 bytes
  4357 ;; Hardware stack levels used:    1
  4358 ;; This function calls:
  4359 ;;		Nothing
  4360 ;; This function is called by:
  4361 ;;		_b1
  4362 ;;		_b0
  4363 ;; This function uses a non-reentrant model
  4364 ;;
  4365                           
  4366                           
  4367                           ;psect for function ___awdiv
  4368  0F1D                     ___awdiv:	
  4369  0F1D                     l1936:	
  4370                           ;incstack = 0
  4371                           ; Regs used in ___awdiv: [wreg+status,2+status,0]
  4372                           
  4373  0F1D  01F6               	clrf	___awdiv@sign
  4374  0F1E                     l1938:	
  4375  0F1E  1FF1               	btfss	___awdiv@divisor+1,7
  4376  0F1F  2F21               	goto	u2131
  4377  0F20  2F22               	goto	u2130
  4378  0F21                     u2131:	
  4379  0F21  2F29               	goto	l1944
  4380  0F22                     u2130:	
  4381  0F22                     l1940:	
  4382  0F22  09F0               	comf	___awdiv@divisor,f
  4383  0F23  09F1               	comf	___awdiv@divisor+1,f
  4384  0F24  0AF0               	incf	___awdiv@divisor,f
  4385  0F25  1903               	skipnz
  4386  0F26  0AF1               	incf	___awdiv@divisor+1,f
  4387  0F27                     l1942:	
  4388  0F27  01F6               	clrf	___awdiv@sign
  4389  0F28  0AF6               	incf	___awdiv@sign,f
  4390  0F29                     l1944:	
  4391  0F29  1FF3               	btfss	___awdiv@dividend+1,7
  4392  0F2A  2F2C               	goto	u2141
  4393  0F2B  2F2D               	goto	u2140
  4394  0F2C                     u2141:	
  4395  0F2C  2F36               	goto	l1950
  4396  0F2D                     u2140:	
  4397  0F2D                     l1946:	
  4398  0F2D  09F2               	comf	___awdiv@dividend,f
  4399  0F2E  09F3               	comf	___awdiv@dividend+1,f
  4400  0F2F  0AF2               	incf	___awdiv@dividend,f
  4401  0F30  1903               	skipnz
  4402  0F31  0AF3               	incf	___awdiv@dividend+1,f
  4403  0F32                     l1948:	
  4404  0F32  3001               	movlw	1
  4405  0F33  00F4               	movwf	??___awdiv
  4406  0F34  0874               	movf	??___awdiv,w
  4407  0F35  06F6               	xorwf	___awdiv@sign,f
  4408  0F36                     l1950:	
  4409  0F36  01F7               	clrf	___awdiv@quotient
  4410  0F37  01F8               	clrf	___awdiv@quotient+1
  4411  0F38                     l1952:	
  4412  0F38  0870               	movf	___awdiv@divisor,w
  4413  0F39  0471               	iorwf	___awdiv@divisor+1,w
  4414  0F3A  1903               	btfsc	3,2
  4415  0F3B  2F3D               	goto	u2151
  4416  0F3C  2F3E               	goto	u2150
  4417  0F3D                     u2151:	
  4418  0F3D  2F75               	goto	l1972
  4419  0F3E                     u2150:	
  4420  0F3E                     l1954:	
  4421  0F3E  01F5               	clrf	___awdiv@counter
  4422  0F3F  0AF5               	incf	___awdiv@counter,f
  4423  0F40  2F4C               	goto	l1960
  4424  0F41                     l1956:	
  4425  0F41  3001               	movlw	1
  4426  0F42                     u2165:	
  4427  0F42  1003               	clrc
  4428  0F43  0DF0               	rlf	___awdiv@divisor,f
  4429  0F44  0DF1               	rlf	___awdiv@divisor+1,f
  4430  0F45  3EFF               	addlw	-1
  4431  0F46  1D03               	skipz
  4432  0F47  2F42               	goto	u2165
  4433  0F48                     l1958:	
  4434  0F48  3001               	movlw	1
  4435  0F49  00F4               	movwf	??___awdiv
  4436  0F4A  0874               	movf	??___awdiv,w
  4437  0F4B  07F5               	addwf	___awdiv@counter,f
  4438  0F4C                     l1960:	
  4439  0F4C  1FF1               	btfss	___awdiv@divisor+1,7
  4440  0F4D  2F4F               	goto	u2171
  4441  0F4E  2F50               	goto	u2170
  4442  0F4F                     u2171:	
  4443  0F4F  2F41               	goto	l1956
  4444  0F50                     u2170:	
  4445  0F50                     l1962:	
  4446  0F50  3001               	movlw	1
  4447  0F51                     u2185:	
  4448  0F51  1003               	clrc
  4449  0F52  0DF7               	rlf	___awdiv@quotient,f
  4450  0F53  0DF8               	rlf	___awdiv@quotient+1,f
  4451  0F54  3EFF               	addlw	-1
  4452  0F55  1D03               	skipz
  4453  0F56  2F51               	goto	u2185
  4454  0F57  0871               	movf	___awdiv@divisor+1,w
  4455  0F58  0273               	subwf	___awdiv@dividend+1,w
  4456  0F59  1D03               	skipz
  4457  0F5A  2F5D               	goto	u2195
  4458  0F5B  0870               	movf	___awdiv@divisor,w
  4459  0F5C  0272               	subwf	___awdiv@dividend,w
  4460  0F5D                     u2195:	
  4461  0F5D  1C03               	skipc
  4462  0F5E  2F60               	goto	u2191
  4463  0F5F  2F61               	goto	u2190
  4464  0F60                     u2191:	
  4465  0F60  2F68               	goto	l1968
  4466  0F61                     u2190:	
  4467  0F61                     l1964:	
  4468  0F61  0870               	movf	___awdiv@divisor,w
  4469  0F62  02F2               	subwf	___awdiv@dividend,f
  4470  0F63  0871               	movf	___awdiv@divisor+1,w
  4471  0F64  1C03               	skipc
  4472  0F65  03F3               	decf	___awdiv@dividend+1,f
  4473  0F66  02F3               	subwf	___awdiv@dividend+1,f
  4474  0F67                     l1966:	
  4475  0F67  1477               	bsf	___awdiv@quotient,0
  4476  0F68                     l1968:	
  4477  0F68  3001               	movlw	1
  4478  0F69                     u2205:	
  4479  0F69  1003               	clrc
  4480  0F6A  0CF1               	rrf	___awdiv@divisor+1,f
  4481  0F6B  0CF0               	rrf	___awdiv@divisor,f
  4482  0F6C  3EFF               	addlw	-1
  4483  0F6D  1D03               	skipz
  4484  0F6E  2F69               	goto	u2205
  4485  0F6F                     l1970:	
  4486  0F6F  3001               	movlw	1
  4487  0F70  02F5               	subwf	___awdiv@counter,f
  4488  0F71  1D03               	btfss	3,2
  4489  0F72  2F74               	goto	u2211
  4490  0F73  2F75               	goto	u2210
  4491  0F74                     u2211:	
  4492  0F74  2F50               	goto	l1962
  4493  0F75                     u2210:	
  4494  0F75                     l1972:	
  4495  0F75  0876               	movf	___awdiv@sign,w
  4496  0F76  1903               	btfsc	3,2
  4497  0F77  2F79               	goto	u2221
  4498  0F78  2F7A               	goto	u2220
  4499  0F79                     u2221:	
  4500  0F79  2F7F               	goto	l1976
  4501  0F7A                     u2220:	
  4502  0F7A                     l1974:	
  4503  0F7A  09F7               	comf	___awdiv@quotient,f
  4504  0F7B  09F8               	comf	___awdiv@quotient+1,f
  4505  0F7C  0AF7               	incf	___awdiv@quotient,f
  4506  0F7D  1903               	skipnz
  4507  0F7E  0AF8               	incf	___awdiv@quotient+1,f
  4508  0F7F                     l1976:	
  4509  0F7F  0878               	movf	___awdiv@quotient+1,w
  4510  0F80  00F1               	movwf	?___awdiv+1
  4511  0F81  0877               	movf	___awdiv@quotient,w
  4512  0F82  00F0               	movwf	?___awdiv
  4513  0F83                     l449:	
  4514  0F83  0008               	return
  4515  0F84                     __end_of___awdiv:	
  4516                           
  4517                           	psect	text13
  4518  0DD0                     __ptext13:	
  4519 ;; *************** function _Lcd_Write_String *****************
  4520 ;; Defined at:
  4521 ;;		line 125 in file "LCD.c"
  4522 ;; Parameters:    Size  Location     Type
  4523 ;;  a               2    3[COMMON] PTR unsigned char 
  4524 ;;		 -> main@s3(5), STR_1(6), 
  4525 ;; Auto vars:     Size  Location     Type
  4526 ;;  i               2    8[COMMON] int 
  4527 ;; Return value:  Size  Location     Type
  4528 ;;                  1    wreg      void 
  4529 ;; Registers used:
  4530 ;;		wreg, fsr0l, fsr0h, status,2, status,0, btemp+1, pclath, cstack
  4531 ;; Tracked objects:
  4532 ;;		On entry : 0/0
  4533 ;;		On exit  : 0/0
  4534 ;;		Unchanged: 0/0
  4535 ;; Data sizes:     COMMON   BANK0   BANK1   BANK3   BANK2
  4536 ;;      Params:         2       0       0       0       0
  4537 ;;      Locals:         2       0       0       0       0
  4538 ;;      Temps:          3       0       0       0       0
  4539 ;;      Totals:         7       0       0       0       0
  4540 ;;Total ram usage:        7 bytes
  4541 ;; Hardware stack levels used:    1
  4542 ;; Hardware stack levels required when called:    2
  4543 ;; This function calls:
  4544 ;;		_Lcd_Write_Char
  4545 ;; This function is called by:
  4546 ;;		_main
  4547 ;; This function uses a non-reentrant model
  4548 ;;
  4549                           
  4550                           
  4551                           ;psect for function _Lcd_Write_String
  4552  0DD0                     _Lcd_Write_String:	
  4553  0DD0                     l2248:	
  4554                           ;incstack = 0
  4555                           ; Regs used in _Lcd_Write_String: [wreg-fsr0h+status,2+status,0+btemp+1+pclath+cstack]
  4556                           
  4557                           
  4558                           ;LCD.c: 125: void Lcd_Write_String(char *a);LCD.c: 126: {;LCD.c: 127:  int i;;LCD.c: 128
      +                          :  for(i=0;a[i]!='\0';i++)
  4559  0DD0  01F8               	clrf	Lcd_Write_String@i
  4560  0DD1  01F9               	clrf	Lcd_Write_String@i+1
  4561  0DD2  2DF5               	goto	l2254
  4562  0DD3                     l2250:	
  4563                           
  4564                           ;LCD.c: 129:     Lcd_Write_Char(a[i]);
  4565  0DD3  0878               	movf	Lcd_Write_String@i,w
  4566  0DD4  0773               	addwf	Lcd_Write_String@a,w
  4567  0DD5  00F6               	movwf	??_Lcd_Write_String+1
  4568  0DD6  0874               	movf	Lcd_Write_String@a+1,w
  4569  0DD7  00F5               	movwf	??_Lcd_Write_String
  4570  0DD8  1803               	skipnc
  4571  0DD9  0AF5               	incf	??_Lcd_Write_String,f
  4572  0DDA  1FF8               	btfss	Lcd_Write_String@i,7
  4573  0DDB  2DDD               	goto	u2800
  4574  0DDC  03F5               	decf	??_Lcd_Write_String,f
  4575  0DDD                     u2800:	
  4576  0DDD  0875               	movf	??_Lcd_Write_String,w
  4577  0DDE  00F7               	movwf	??_Lcd_Write_String+2
  4578  0DDF  0877               	movf	??_Lcd_Write_String+2,w
  4579  0DE0  1283               	bcf	3,5	;RP0=0, select bank0
  4580  0DE1  1303               	bcf	3,6	;RP1=0, select bank0
  4581  0DE2  00FF               	movwf	btemp+1
  4582  0DE3  0876               	movf	??_Lcd_Write_String+1,w
  4583  0DE4  0084               	movwf	4
  4584  0DE5  120A  158A  2000  120A  158A  	fcall	stringtab
  4585  0DEA  120A  158A  2455  120A  158A  	fcall	_Lcd_Write_Char
  4586  0DEF                     l2252:	
  4587  0DEF  3001               	movlw	1
  4588  0DF0  07F8               	addwf	Lcd_Write_String@i,f
  4589  0DF1  1803               	skipnc
  4590  0DF2  0AF9               	incf	Lcd_Write_String@i+1,f
  4591  0DF3  3000               	movlw	0
  4592  0DF4  07F9               	addwf	Lcd_Write_String@i+1,f
  4593  0DF5                     l2254:	
  4594  0DF5  0878               	movf	Lcd_Write_String@i,w
  4595  0DF6  0773               	addwf	Lcd_Write_String@a,w
  4596  0DF7  00F6               	movwf	??_Lcd_Write_String+1
  4597  0DF8  0874               	movf	Lcd_Write_String@a+1,w
  4598  0DF9  00F5               	movwf	??_Lcd_Write_String
  4599  0DFA  1803               	skipnc
  4600  0DFB  0AF5               	incf	??_Lcd_Write_String,f
  4601  0DFC  1FF8               	btfss	Lcd_Write_String@i,7
  4602  0DFD  2DFF               	goto	u2810
  4603  0DFE  03F5               	decf	??_Lcd_Write_String,f
  4604  0DFF                     u2810:	
  4605  0DFF  0875               	movf	??_Lcd_Write_String,w
  4606  0E00  00F7               	movwf	??_Lcd_Write_String+2
  4607  0E01  0877               	movf	??_Lcd_Write_String+2,w
  4608  0E02  1283               	bcf	3,5	;RP0=0, select bank0
  4609  0E03  1303               	bcf	3,6	;RP1=0, select bank0
  4610  0E04  00FF               	movwf	btemp+1
  4611  0E05  0876               	movf	??_Lcd_Write_String+1,w
  4612  0E06  0084               	movwf	4
  4613  0E07  120A  158A  2000  120A  158A  	fcall	stringtab
  4614  0E0C  3A00               	xorlw	0
  4615  0E0D  1D03               	skipz
  4616  0E0E  2E10               	goto	u2821
  4617  0E0F  2E11               	goto	u2820
  4618  0E10                     u2821:	
  4619  0E10  2DD3               	goto	l2250
  4620  0E11                     u2820:	
  4621  0E11                     l204:	
  4622  0E11  0008               	return
  4623  0E12                     __end_of_Lcd_Write_String:	
  4624                           
  4625                           	psect	text14
  4626  0C55                     __ptext14:	
  4627 ;; *************** function _Lcd_Write_Char *****************
  4628 ;; Defined at:
  4629 ;;		line 115 in file "LCD.c"
  4630 ;; Parameters:    Size  Location     Type
  4631 ;;  a               1    wreg     unsigned char 
  4632 ;; Auto vars:     Size  Location     Type
  4633 ;;  a               1    2[COMMON] unsigned char 
  4634 ;; Return value:  Size  Location     Type
  4635 ;;                  1    wreg      void 
  4636 ;; Registers used:
  4637 ;;		wreg, status,2, status,0, pclath, cstack
  4638 ;; Tracked objects:
  4639 ;;		On entry : 0/0
  4640 ;;		On exit  : 0/0
  4641 ;;		Unchanged: 0/0
  4642 ;; Data sizes:     COMMON   BANK0   BANK1   BANK3   BANK2
  4643 ;;      Params:         0       0       0       0       0
  4644 ;;      Locals:         1       0       0       0       0
  4645 ;;      Temps:          1       0       0       0       0
  4646 ;;      Totals:         2       0       0       0       0
  4647 ;;Total ram usage:        2 bytes
  4648 ;; Hardware stack levels used:    1
  4649 ;; Hardware stack levels required when called:    1
  4650 ;; This function calls:
  4651 ;;		_Lcd_Port
  4652 ;; This function is called by:
  4653 ;;		_Lcd_Write_String
  4654 ;; This function uses a non-reentrant model
  4655 ;;
  4656                           
  4657                           
  4658                           ;psect for function _Lcd_Write_Char
  4659  0C55                     _Lcd_Write_Char:	
  4660                           
  4661                           ;incstack = 0
  4662                           ; Regs used in _Lcd_Write_Char: [wreg+status,2+status,0+pclath+cstack]
  4663                           ;Lcd_Write_Char@a stored from wreg
  4664  0C55  00F2               	movwf	Lcd_Write_Char@a
  4665  0C56                     l1874:	
  4666                           
  4667                           ;LCD.c: 115: void Lcd_Write_Char(char a);LCD.c: 116: {;LCD.c: 118:    RC1 = 1;
  4668  0C56  1283               	bcf	3,5	;RP0=0, select bank0
  4669  0C57  1303               	bcf	3,6	;RP1=0, select bank0
  4670  0C58  1487               	bsf	7,1	;volatile
  4671  0C59                     l1876:	
  4672                           
  4673                           ;LCD.c: 119:    Lcd_Port(a);
  4674  0C59  0872               	movf	Lcd_Write_Char@a,w
  4675  0C5A  120A  158A  2592  120A  158A  	fcall	_Lcd_Port
  4676  0C5F                     l1878:	
  4677                           
  4678                           ;LCD.c: 120:    RC0 = 1;
  4679  0C5F  1283               	bcf	3,5	;RP0=0, select bank0
  4680  0C60  1303               	bcf	3,6	;RP1=0, select bank0
  4681  0C61  1407               	bsf	7,0	;volatile
  4682  0C62                     l1880:	
  4683                           
  4684                           ;LCD.c: 121:    _delay((unsigned long)((100)*(8000000/4000000.0)));
  4685  0C62  3042               	movlw	66
  4686  0C63  00F1               	movwf	??_Lcd_Write_Char
  4687  0C64                     u2907:	
  4688  0C64  0BF1               	decfsz	??_Lcd_Write_Char,f
  4689  0C65  2C64               	goto	u2907
  4690  0C66  0000               	nop
  4691  0C67                     l1882:	
  4692                           
  4693                           ;LCD.c: 122:    RC0 = 0;
  4694  0C67  1283               	bcf	3,5	;RP0=0, select bank0
  4695  0C68  1303               	bcf	3,6	;RP1=0, select bank0
  4696  0C69  1007               	bcf	7,0	;volatile
  4697  0C6A                     l198:	
  4698  0C6A  0008               	return
  4699  0C6B                     __end_of_Lcd_Write_Char:	
  4700                           
  4701                           	psect	text15
  4702  0C6B                     __ptext15:	
  4703 ;; *************** function _Lcd_Set_Cursor *****************
  4704 ;; Defined at:
  4705 ;;		line 85 in file "LCD.c"
  4706 ;; Parameters:    Size  Location     Type
  4707 ;;  a               1    wreg     unsigned char 
  4708 ;;  b               1    4[COMMON] unsigned char 
  4709 ;; Auto vars:     Size  Location     Type
  4710 ;;  a               1    5[COMMON] unsigned char 
  4711 ;; Return value:  Size  Location     Type
  4712 ;;                  1    wreg      void 
  4713 ;; Registers used:
  4714 ;;		wreg, status,2, status,0, pclath, cstack
  4715 ;; Tracked objects:
  4716 ;;		On entry : 0/0
  4717 ;;		On exit  : 0/0
  4718 ;;		Unchanged: 0/0
  4719 ;; Data sizes:     COMMON   BANK0   BANK1   BANK3   BANK2
  4720 ;;      Params:         1       0       0       0       0
  4721 ;;      Locals:         1       0       0       0       0
  4722 ;;      Temps:          0       0       0       0       0
  4723 ;;      Totals:         2       0       0       0       0
  4724 ;;Total ram usage:        2 bytes
  4725 ;; Hardware stack levels used:    1
  4726 ;; Hardware stack levels required when called:    2
  4727 ;; This function calls:
  4728 ;;		_Lcd_Cmd
  4729 ;; This function is called by:
  4730 ;;		_main
  4731 ;; This function uses a non-reentrant model
  4732 ;;
  4733                           
  4734                           
  4735                           ;psect for function _Lcd_Set_Cursor
  4736  0C6B                     _Lcd_Set_Cursor:	
  4737                           
  4738                           ;incstack = 0
  4739                           ; Regs used in _Lcd_Set_Cursor: [wreg+status,2+status,0+pclath+cstack]
  4740                           ;Lcd_Set_Cursor@a stored from wreg
  4741  0C6B  00F5               	movwf	Lcd_Set_Cursor@a
  4742  0C6C                     l2240:	
  4743                           
  4744                           ;LCD.c: 85: void Lcd_Set_Cursor(char a, char b);LCD.c: 86: {;LCD.c: 87:  if(a == 1)
  4745  0C6C  0375               	decf	Lcd_Set_Cursor@a,w
  4746  0C6D  1D03               	btfss	3,2
  4747  0C6E  2C70               	goto	u2781
  4748  0C6F  2C71               	goto	u2780
  4749  0C70                     u2781:	
  4750  0C70  2C79               	goto	l2244
  4751  0C71                     u2780:	
  4752  0C71                     l2242:	
  4753                           
  4754                           ;LCD.c: 88:  {;LCD.c: 89:   Lcd_Cmd(0x80 + b - 1);
  4755  0C71  0874               	movf	Lcd_Set_Cursor@b,w
  4756  0C72  3E7F               	addlw	127
  4757  0C73  120A  158A  2487  120A  158A  	fcall	_Lcd_Cmd
  4758                           
  4759                           ;LCD.c: 90:  }
  4760  0C78  2C86               	goto	l192
  4761  0C79                     l2244:	
  4762  0C79  3002               	movlw	2
  4763  0C7A  0675               	xorwf	Lcd_Set_Cursor@a,w
  4764  0C7B  1D03               	btfss	3,2
  4765  0C7C  2C7E               	goto	u2791
  4766  0C7D  2C7F               	goto	u2790
  4767  0C7E                     u2791:	
  4768  0C7E  2C86               	goto	l192
  4769  0C7F                     u2790:	
  4770  0C7F                     l2246:	
  4771                           
  4772                           ;LCD.c: 92:  {;LCD.c: 93:   Lcd_Cmd(0xC0 + b - 1);
  4773  0C7F  0874               	movf	Lcd_Set_Cursor@b,w
  4774  0C80  3EBF               	addlw	191
  4775  0C81  120A  158A  2487  120A  158A  	fcall	_Lcd_Cmd
  4776  0C86                     l192:	
  4777  0C86  0008               	return
  4778  0C87                     __end_of_Lcd_Set_Cursor:	
  4779                           
  4780                           	psect	text16
  4781  0E12                     __ptext16:	
  4782 ;; *************** function _Lcd_Init *****************
  4783 ;; Defined at:
  4784 ;;		line 97 in file "LCD.c"
  4785 ;; Parameters:    Size  Location     Type
  4786 ;;		None
  4787 ;; Auto vars:     Size  Location     Type
  4788 ;;		None
  4789 ;; Return value:  Size  Location     Type
  4790 ;;                  1    wreg      void 
  4791 ;; Registers used:
  4792 ;;		wreg, status,2, status,0, pclath, cstack
  4793 ;; Tracked objects:
  4794 ;;		On entry : 0/0
  4795 ;;		On exit  : 0/0
  4796 ;;		Unchanged: 0/0
  4797 ;; Data sizes:     COMMON   BANK0   BANK1   BANK3   BANK2
  4798 ;;      Params:         0       0       0       0       0
  4799 ;;      Locals:         0       0       0       0       0
  4800 ;;      Temps:          2       0       0       0       0
  4801 ;;      Totals:         2       0       0       0       0
  4802 ;;Total ram usage:        2 bytes
  4803 ;; Hardware stack levels used:    1
  4804 ;; Hardware stack levels required when called:    2
  4805 ;; This function calls:
  4806 ;;		_Lcd_Cmd
  4807 ;; This function is called by:
  4808 ;;		_main
  4809 ;; This function uses a non-reentrant model
  4810 ;;
  4811                           
  4812                           
  4813                           ;psect for function _Lcd_Init
  4814  0E12                     _Lcd_Init:	
  4815  0E12                     l2208:	
  4816                           ;incstack = 0
  4817                           ; Regs used in _Lcd_Init: [wreg+status,2+status,0+pclath+cstack]
  4818                           
  4819                           
  4820                           ;LCD.c: 100:    _delay((unsigned long)((15)*(8000000/4000.0)));
  4821  0E12  3027               	movlw	39
  4822  0E13  00F5               	movwf	??_Lcd_Init+1
  4823  0E14  30F5               	movlw	245
  4824  0E15  00F4               	movwf	??_Lcd_Init
  4825  0E16                     u2917:	
  4826  0E16  0BF4               	decfsz	??_Lcd_Init,f
  4827  0E17  2E16               	goto	u2917
  4828  0E18  0BF5               	decfsz	??_Lcd_Init+1,f
  4829  0E19  2E16               	goto	u2917
  4830  0E1A                     l2210:	
  4831                           
  4832                           ;LCD.c: 101:   Lcd_Cmd(0x030);
  4833  0E1A  3030               	movlw	48
  4834  0E1B  120A  158A  2487  120A  158A  	fcall	_Lcd_Cmd
  4835  0E20                     l2212:	
  4836                           
  4837                           ;LCD.c: 102:   _delay((unsigned long)((5)*(8000000/4000.0)));
  4838  0E20  300D               	movlw	13
  4839  0E21  00F5               	movwf	??_Lcd_Init+1
  4840  0E22  30FB               	movlw	251
  4841  0E23  00F4               	movwf	??_Lcd_Init
  4842  0E24                     u2927:	
  4843  0E24  0BF4               	decfsz	??_Lcd_Init,f
  4844  0E25  2E24               	goto	u2927
  4845  0E26  0BF5               	decfsz	??_Lcd_Init+1,f
  4846  0E27  2E24               	goto	u2927
  4847  0E28  2E29               	nop2
  4848                           
  4849                           ;LCD.c: 103:   Lcd_Cmd(0x030);
  4850  0E29  3030               	movlw	48
  4851  0E2A  120A  158A  2487  120A  158A  	fcall	_Lcd_Cmd
  4852  0E2F                     l2214:	
  4853                           
  4854                           ;LCD.c: 104:   _delay((unsigned long)((160)*(8000000/4000000.0)));
  4855  0E2F  306A               	movlw	106
  4856  0E30  00F4               	movwf	??_Lcd_Init
  4857  0E31                     u2937:	
  4858  0E31  0BF4               	decfsz	??_Lcd_Init,f
  4859  0E32  2E31               	goto	u2937
  4860  0E33  0000               	nop
  4861  0E34                     l2216:	
  4862                           
  4863                           ;LCD.c: 105:   Lcd_Cmd(0x030);
  4864  0E34  3030               	movlw	48
  4865  0E35  120A  158A  2487  120A  158A  	fcall	_Lcd_Cmd
  4866  0E3A                     l2218:	
  4867                           
  4868                           ;LCD.c: 107:   Lcd_Cmd(0x38);
  4869  0E3A  3038               	movlw	56
  4870  0E3B  120A  158A  2487  120A  158A  	fcall	_Lcd_Cmd
  4871  0E40                     l2220:	
  4872                           
  4873                           ;LCD.c: 108:   Lcd_Cmd(0x10);
  4874  0E40  3010               	movlw	16
  4875  0E41  120A  158A  2487  120A  158A  	fcall	_Lcd_Cmd
  4876  0E46                     l2222:	
  4877                           
  4878                           ;LCD.c: 109:   Lcd_Cmd(0x01);
  4879  0E46  3001               	movlw	1
  4880  0E47  120A  158A  2487  120A  158A  	fcall	_Lcd_Cmd
  4881  0E4C                     l2224:	
  4882                           
  4883                           ;LCD.c: 110:   Lcd_Cmd(0x06);
  4884  0E4C  3006               	movlw	6
  4885  0E4D  120A  158A  2487  120A  158A  	fcall	_Lcd_Cmd
  4886  0E52                     l2226:	
  4887                           
  4888                           ;LCD.c: 111:   Lcd_Cmd(0x0C);
  4889  0E52  300C               	movlw	12
  4890  0E53  120A  158A  2487  120A  158A  	fcall	_Lcd_Cmd
  4891  0E58                     l195:	
  4892  0E58  0008               	return
  4893  0E59                     __end_of_Lcd_Init:	
  4894                           
  4895                           	psect	text17
  4896  0C87                     __ptext17:	
  4897 ;; *************** function _Lcd_Cmd *****************
  4898 ;; Defined at:
  4899 ;;		line 70 in file "LCD.c"
  4900 ;; Parameters:    Size  Location     Type
  4901 ;;  a               1    wreg     unsigned char 
  4902 ;; Auto vars:     Size  Location     Type
  4903 ;;  a               1    3[COMMON] unsigned char 
  4904 ;; Return value:  Size  Location     Type
  4905 ;;                  1    wreg      void 
  4906 ;; Registers used:
  4907 ;;		wreg, status,2, status,0, pclath, cstack
  4908 ;; Tracked objects:
  4909 ;;		On entry : 0/0
  4910 ;;		On exit  : 0/0
  4911 ;;		Unchanged: 0/0
  4912 ;; Data sizes:     COMMON   BANK0   BANK1   BANK3   BANK2
  4913 ;;      Params:         0       0       0       0       0
  4914 ;;      Locals:         1       0       0       0       0
  4915 ;;      Temps:          2       0       0       0       0
  4916 ;;      Totals:         3       0       0       0       0
  4917 ;;Total ram usage:        3 bytes
  4918 ;; Hardware stack levels used:    1
  4919 ;; Hardware stack levels required when called:    1
  4920 ;; This function calls:
  4921 ;;		_Lcd_Port
  4922 ;; This function is called by:
  4923 ;;		_Lcd_Set_Cursor
  4924 ;;		_Lcd_Init
  4925 ;;		_Lcd_Clear
  4926 ;;		_Lcd_Shift_Right
  4927 ;;		_Lcd_Shift_Left
  4928 ;; This function uses a non-reentrant model
  4929 ;;
  4930                           
  4931                           
  4932                           ;psect for function _Lcd_Cmd
  4933  0C87                     _Lcd_Cmd:	
  4934                           
  4935                           ;incstack = 0
  4936                           ; Regs used in _Lcd_Cmd: [wreg+status,2+status,0+pclath+cstack]
  4937                           ;Lcd_Cmd@a stored from wreg
  4938  0C87  00F3               	movwf	Lcd_Cmd@a
  4939  0C88                     l1862:	
  4940                           
  4941                           ;LCD.c: 70: void Lcd_Cmd(char a);LCD.c: 71: {;LCD.c: 72:  RC1 = 0;
  4942  0C88  1283               	bcf	3,5	;RP0=0, select bank0
  4943  0C89  1303               	bcf	3,6	;RP1=0, select bank0
  4944  0C8A  1087               	bcf	7,1	;volatile
  4945  0C8B                     l1864:	
  4946                           
  4947                           ;LCD.c: 73:  Lcd_Port(a);
  4948  0C8B  0873               	movf	Lcd_Cmd@a,w
  4949  0C8C  120A  158A  2592  120A  158A  	fcall	_Lcd_Port
  4950  0C91                     l1866:	
  4951                           
  4952                           ;LCD.c: 74:  RC0 = 1;
  4953  0C91  1283               	bcf	3,5	;RP0=0, select bank0
  4954  0C92  1303               	bcf	3,6	;RP1=0, select bank0
  4955  0C93  1407               	bsf	7,0	;volatile
  4956  0C94                     l1868:	
  4957                           
  4958                           ;LCD.c: 75:     _delay((unsigned long)((5)*(8000000/4000.0)));
  4959  0C94  300D               	movlw	13
  4960  0C95  00F2               	movwf	??_Lcd_Cmd+1
  4961  0C96  30FB               	movlw	251
  4962  0C97  00F1               	movwf	??_Lcd_Cmd
  4963  0C98                     u2947:	
  4964  0C98  0BF1               	decfsz	??_Lcd_Cmd,f
  4965  0C99  2C98               	goto	u2947
  4966  0C9A  0BF2               	decfsz	??_Lcd_Cmd+1,f
  4967  0C9B  2C98               	goto	u2947
  4968  0C9C  2C9D               	nop2
  4969  0C9D                     l1870:	
  4970                           
  4971                           ;LCD.c: 76:     RC0 = 0;
  4972  0C9D  1283               	bcf	3,5	;RP0=0, select bank0
  4973  0C9E  1303               	bcf	3,6	;RP1=0, select bank0
  4974  0C9F  1007               	bcf	7,0	;volatile
  4975  0CA0                     l1872:	
  4976                           
  4977                           ;LCD.c: 77:     _delay((unsigned long)((1)*(8000000/4000.0)));
  4978  0CA0  3003               	movlw	3
  4979  0CA1  00F2               	movwf	??_Lcd_Cmd+1
  4980  0CA2  3097               	movlw	151
  4981  0CA3  00F1               	movwf	??_Lcd_Cmd
  4982  0CA4                     u2957:	
  4983  0CA4  0BF1               	decfsz	??_Lcd_Cmd,f
  4984  0CA5  2CA4               	goto	u2957
  4985  0CA6  0BF2               	decfsz	??_Lcd_Cmd+1,f
  4986  0CA7  2CA4               	goto	u2957
  4987  0CA8  2CA9               	nop2
  4988  0CA9                     l183:	
  4989  0CA9  0008               	return
  4990  0CAA                     __end_of_Lcd_Cmd:	
  4991                           
  4992                           	psect	text18
  4993  0D92                     __ptext18:	
  4994 ;; *************** function _Lcd_Port *****************
  4995 ;; Defined at:
  4996 ;;		line 27 in file "LCD.c"
  4997 ;; Parameters:    Size  Location     Type
  4998 ;;  a               1    wreg     unsigned char 
  4999 ;; Auto vars:     Size  Location     Type
  5000 ;;  a               1    0[COMMON] unsigned char 
  5001 ;; Return value:  Size  Location     Type
  5002 ;;                  1    wreg      void 
  5003 ;; Registers used:
  5004 ;;		wreg
  5005 ;; Tracked objects:
  5006 ;;		On entry : 0/0
  5007 ;;		On exit  : 0/0
  5008 ;;		Unchanged: 0/0
  5009 ;; Data sizes:     COMMON   BANK0   BANK1   BANK3   BANK2
  5010 ;;      Params:         0       0       0       0       0
  5011 ;;      Locals:         1       0       0       0       0
  5012 ;;      Temps:          0       0       0       0       0
  5013 ;;      Totals:         1       0       0       0       0
  5014 ;;Total ram usage:        1 bytes
  5015 ;; Hardware stack levels used:    1
  5016 ;; This function calls:
  5017 ;;		Nothing
  5018 ;; This function is called by:
  5019 ;;		_Lcd_Cmd
  5020 ;;		_Lcd_Write_Char
  5021 ;; This function uses a non-reentrant model
  5022 ;;
  5023                           
  5024                           
  5025                           ;psect for function _Lcd_Port
  5026  0D92                     _Lcd_Port:	
  5027                           
  5028                           ;incstack = 0
  5029                           ; Regs used in _Lcd_Port: [wreg]
  5030                           ;Lcd_Port@a stored from wreg
  5031  0D92  00F0               	movwf	Lcd_Port@a
  5032  0D93                     l1612:	
  5033                           
  5034                           ;LCD.c: 27: void Lcd_Port(char a);LCD.c: 28: {;LCD.c: 29:     if(a & 1)
  5035  0D93  1C70               	btfss	Lcd_Port@a,0
  5036  0D94  2D96               	goto	u1441
  5037  0D95  2D97               	goto	u1440
  5038  0D96                     u1441:	
  5039  0D96  2D9B               	goto	l164
  5040  0D97                     u1440:	
  5041  0D97                     l1614:	
  5042                           
  5043                           ;LCD.c: 30:   RA0 = 1;
  5044  0D97  1283               	bcf	3,5	;RP0=0, select bank0
  5045  0D98  1303               	bcf	3,6	;RP1=0, select bank0
  5046  0D99  1405               	bsf	5,0	;volatile
  5047  0D9A  2D9E               	goto	l165
  5048  0D9B                     l164:	
  5049                           ;LCD.c: 31:  else
  5050                           
  5051                           
  5052                           ;LCD.c: 32:   RA0 = 0;
  5053  0D9B  1283               	bcf	3,5	;RP0=0, select bank0
  5054  0D9C  1303               	bcf	3,6	;RP1=0, select bank0
  5055  0D9D  1005               	bcf	5,0	;volatile
  5056  0D9E                     l165:	
  5057                           
  5058                           ;LCD.c: 34:  if(a & 2)
  5059  0D9E  1CF0               	btfss	Lcd_Port@a,1
  5060  0D9F  2DA1               	goto	u1451
  5061  0DA0  2DA2               	goto	u1450
  5062  0DA1                     u1451:	
  5063  0DA1  2DA4               	goto	l166
  5064  0DA2                     u1450:	
  5065  0DA2                     l1616:	
  5066                           
  5067                           ;LCD.c: 35:   RA1 = 1;
  5068  0DA2  1485               	bsf	5,1	;volatile
  5069  0DA3  2DA5               	goto	l167
  5070  0DA4                     l166:	
  5071                           ;LCD.c: 36:  else
  5072                           
  5073                           
  5074                           ;LCD.c: 37:   RA1 = 0;
  5075  0DA4  1085               	bcf	5,1	;volatile
  5076  0DA5                     l167:	
  5077                           
  5078                           ;LCD.c: 39:  if(a & 4)
  5079  0DA5  1D70               	btfss	Lcd_Port@a,2
  5080  0DA6  2DA8               	goto	u1461
  5081  0DA7  2DA9               	goto	u1460
  5082  0DA8                     u1461:	
  5083  0DA8  2DAB               	goto	l168
  5084  0DA9                     u1460:	
  5085  0DA9                     l1618:	
  5086                           
  5087                           ;LCD.c: 40:   RA2 = 1;
  5088  0DA9  1505               	bsf	5,2	;volatile
  5089  0DAA  2DAC               	goto	l169
  5090  0DAB                     l168:	
  5091                           ;LCD.c: 41:  else
  5092                           
  5093                           
  5094                           ;LCD.c: 42:   RA2 = 0;
  5095  0DAB  1105               	bcf	5,2	;volatile
  5096  0DAC                     l169:	
  5097                           
  5098                           ;LCD.c: 44:  if(a & 8)
  5099  0DAC  1DF0               	btfss	Lcd_Port@a,3
  5100  0DAD  2DAF               	goto	u1471
  5101  0DAE  2DB0               	goto	u1470
  5102  0DAF                     u1471:	
  5103  0DAF  2DB2               	goto	l170
  5104  0DB0                     u1470:	
  5105  0DB0                     l1620:	
  5106                           
  5107                           ;LCD.c: 45:   RA3 = 1;
  5108  0DB0  1585               	bsf	5,3	;volatile
  5109  0DB1  2DB3               	goto	l171
  5110  0DB2                     l170:	
  5111                           ;LCD.c: 46:  else
  5112                           
  5113                           
  5114                           ;LCD.c: 47:   RA3 = 0;
  5115  0DB2  1185               	bcf	5,3	;volatile
  5116  0DB3                     l171:	
  5117                           
  5118                           ;LCD.c: 49:  if(a & 16)
  5119  0DB3  1E70               	btfss	Lcd_Port@a,4
  5120  0DB4  2DB6               	goto	u1481
  5121  0DB5  2DB7               	goto	u1480
  5122  0DB6                     u1481:	
  5123  0DB6  2DB9               	goto	l172
  5124  0DB7                     u1480:	
  5125  0DB7                     l1622:	
  5126                           
  5127                           ;LCD.c: 50:   RA4 = 1;
  5128  0DB7  1605               	bsf	5,4	;volatile
  5129  0DB8  2DBA               	goto	l173
  5130  0DB9                     l172:	
  5131                           ;LCD.c: 51:  else
  5132                           
  5133                           
  5134                           ;LCD.c: 52:   RA4 = 0;
  5135  0DB9  1205               	bcf	5,4	;volatile
  5136  0DBA                     l173:	
  5137                           
  5138                           ;LCD.c: 54:  if(a & 32)
  5139  0DBA  1EF0               	btfss	Lcd_Port@a,5
  5140  0DBB  2DBD               	goto	u1491
  5141  0DBC  2DBE               	goto	u1490
  5142  0DBD                     u1491:	
  5143  0DBD  2DC0               	goto	l174
  5144  0DBE                     u1490:	
  5145  0DBE                     l1624:	
  5146                           
  5147                           ;LCD.c: 55:   RA5 = 1;
  5148  0DBE  1685               	bsf	5,5	;volatile
  5149  0DBF  2DC1               	goto	l175
  5150  0DC0                     l174:	
  5151                           ;LCD.c: 56:  else
  5152                           
  5153                           
  5154                           ;LCD.c: 57:   RA5 = 0;
  5155  0DC0  1285               	bcf	5,5	;volatile
  5156  0DC1                     l175:	
  5157                           
  5158                           ;LCD.c: 59:  if(a & 64)
  5159  0DC1  1F70               	btfss	Lcd_Port@a,6
  5160  0DC2  2DC4               	goto	u1501
  5161  0DC3  2DC5               	goto	u1500
  5162  0DC4                     u1501:	
  5163  0DC4  2DC7               	goto	l176
  5164  0DC5                     u1500:	
  5165  0DC5                     l1626:	
  5166                           
  5167                           ;LCD.c: 60:   RA6 = 1;
  5168  0DC5  1705               	bsf	5,6	;volatile
  5169  0DC6  2DC8               	goto	l177
  5170  0DC7                     l176:	
  5171                           ;LCD.c: 61:  else
  5172                           
  5173                           
  5174                           ;LCD.c: 62:   RA6 = 0;
  5175  0DC7  1305               	bcf	5,6	;volatile
  5176  0DC8                     l177:	
  5177                           
  5178                           ;LCD.c: 64:  if(a & 128)
  5179  0DC8  1FF0               	btfss	Lcd_Port@a,7
  5180  0DC9  2DCB               	goto	u1511
  5181  0DCA  2DCC               	goto	u1510
  5182  0DCB                     u1511:	
  5183  0DCB  2DCE               	goto	l178
  5184  0DCC                     u1510:	
  5185  0DCC                     l1628:	
  5186                           
  5187                           ;LCD.c: 65:   RA7 = 1;
  5188  0DCC  1785               	bsf	5,7	;volatile
  5189  0DCD  2DCF               	goto	l180
  5190  0DCE                     l178:	
  5191                           ;LCD.c: 66:  else
  5192                           
  5193                           
  5194                           ;LCD.c: 67:   RA7 = 0;
  5195  0DCE  1385               	bcf	5,7	;volatile
  5196  0DCF                     l180:	
  5197  0DCF  0008               	return
  5198  0DD0                     __end_of_Lcd_Port:	
  5199                           
  5200                           	psect	text19
  5201  0C36                     __ptext19:	
  5202 ;; *************** function _I2C_Master_Write *****************
  5203 ;; Defined at:
  5204 ;;		line 65 in file "I2C.c"
  5205 ;; Parameters:    Size  Location     Type
  5206 ;;  d               2    0[COMMON] unsigned int 
  5207 ;; Auto vars:     Size  Location     Type
  5208 ;;		None
  5209 ;; Return value:  Size  Location     Type
  5210 ;;                  1    wreg      void 
  5211 ;; Registers used:
  5212 ;;		wreg, status,2, status,0, pclath, cstack
  5213 ;; Tracked objects:
  5214 ;;		On entry : 0/0
  5215 ;;		On exit  : 0/0
  5216 ;;		Unchanged: 0/0
  5217 ;; Data sizes:     COMMON   BANK0   BANK1   BANK3   BANK2
  5218 ;;      Params:         2       0       0       0       0
  5219 ;;      Locals:         0       0       0       0       0
  5220 ;;      Temps:          0       0       0       0       0
  5221 ;;      Totals:         2       0       0       0       0
  5222 ;;Total ram usage:        2 bytes
  5223 ;; Hardware stack levels used:    1
  5224 ;; Hardware stack levels required when called:    1
  5225 ;; This function calls:
  5226 ;;		_I2C_Master_Wait
  5227 ;; This function is called by:
  5228 ;;		_main
  5229 ;; This function uses a non-reentrant model
  5230 ;;
  5231                           
  5232                           
  5233                           ;psect for function _I2C_Master_Write
  5234  0C36                     _I2C_Master_Write:	
  5235  0C36                     l2260:	
  5236                           ;incstack = 0
  5237                           ; Regs used in _I2C_Master_Write: [wreg+status,2+status,0+pclath+cstack]
  5238                           
  5239                           
  5240                           ;I2C.c: 65: void I2C_Master_Write(unsigned d);I2C.c: 66: {;I2C.c: 67:     I2C_Master_Wai
      +                          t();
  5241  0C36  120A  118A  2003  120A  158A  	fcall	_I2C_Master_Wait
  5242  0C3B                     l2262:	
  5243                           
  5244                           ;I2C.c: 68:     SSPBUF = d;
  5245  0C3B  0870               	movf	I2C_Master_Write@d,w
  5246  0C3C  1283               	bcf	3,5	;RP0=0, select bank0
  5247  0C3D  1303               	bcf	3,6	;RP1=0, select bank0
  5248  0C3E  0093               	movwf	19	;volatile
  5249  0C3F                     l131:	
  5250  0C3F  0008               	return
  5251  0C40                     __end_of_I2C_Master_Write:	
  5252                           
  5253                           	psect	text20
  5254  0C2D                     __ptext20:	
  5255 ;; *************** function _I2C_Master_Stop *****************
  5256 ;; Defined at:
  5257 ;;		line 55 in file "I2C.c"
  5258 ;; Parameters:    Size  Location     Type
  5259 ;;		None
  5260 ;; Auto vars:     Size  Location     Type
  5261 ;;		None
  5262 ;; Return value:  Size  Location     Type
  5263 ;;                  1    wreg      void 
  5264 ;; Registers used:
  5265 ;;		wreg, status,2, status,0, pclath, cstack
  5266 ;; Tracked objects:
  5267 ;;		On entry : 0/0
  5268 ;;		On exit  : 0/0
  5269 ;;		Unchanged: 0/0
  5270 ;; Data sizes:     COMMON   BANK0   BANK1   BANK3   BANK2
  5271 ;;      Params:         0       0       0       0       0
  5272 ;;      Locals:         0       0       0       0       0
  5273 ;;      Temps:          0       0       0       0       0
  5274 ;;      Totals:         0       0       0       0       0
  5275 ;;Total ram usage:        0 bytes
  5276 ;; Hardware stack levels used:    1
  5277 ;; Hardware stack levels required when called:    1
  5278 ;; This function calls:
  5279 ;;		_I2C_Master_Wait
  5280 ;; This function is called by:
  5281 ;;		_main
  5282 ;; This function uses a non-reentrant model
  5283 ;;
  5284                           
  5285                           
  5286                           ;psect for function _I2C_Master_Stop
  5287  0C2D                     _I2C_Master_Stop:	
  5288  0C2D                     l2280:	
  5289                           ;incstack = 0
  5290                           ; Regs used in _I2C_Master_Stop: [wreg+status,2+status,0+pclath+cstack]
  5291                           
  5292                           
  5293                           ;I2C.c: 57:     I2C_Master_Wait();
  5294  0C2D  120A  118A  2003  120A  158A  	fcall	_I2C_Master_Wait
  5295  0C32                     l2282:	
  5296                           
  5297                           ;I2C.c: 58:     SSPCON2bits.PEN = 1;
  5298  0C32  1683               	bsf	3,5	;RP0=1, select bank1
  5299  0C33  1303               	bcf	3,6	;RP1=0, select bank1
  5300  0C34  1511               	bsf	17,2	;volatile
  5301  0C35                     l128:	
  5302  0C35  0008               	return
  5303  0C36                     __end_of_I2C_Master_Stop:	
  5304                           
  5305                           	psect	text21
  5306  0C24                     __ptext21:	
  5307 ;; *************** function _I2C_Master_Start *****************
  5308 ;; Defined at:
  5309 ;;		line 39 in file "I2C.c"
  5310 ;; Parameters:    Size  Location     Type
  5311 ;;		None
  5312 ;; Auto vars:     Size  Location     Type
  5313 ;;		None
  5314 ;; Return value:  Size  Location     Type
  5315 ;;                  1    wreg      void 
  5316 ;; Registers used:
  5317 ;;		wreg, status,2, status,0, pclath, cstack
  5318 ;; Tracked objects:
  5319 ;;		On entry : 0/0
  5320 ;;		On exit  : 0/0
  5321 ;;		Unchanged: 0/0
  5322 ;; Data sizes:     COMMON   BANK0   BANK1   BANK3   BANK2
  5323 ;;      Params:         0       0       0       0       0
  5324 ;;      Locals:         0       0       0       0       0
  5325 ;;      Temps:          0       0       0       0       0
  5326 ;;      Totals:         0       0       0       0       0
  5327 ;;Total ram usage:        0 bytes
  5328 ;; Hardware stack levels used:    1
  5329 ;; Hardware stack levels required when called:    1
  5330 ;; This function calls:
  5331 ;;		_I2C_Master_Wait
  5332 ;; This function is called by:
  5333 ;;		_main
  5334 ;; This function uses a non-reentrant model
  5335 ;;
  5336                           
  5337                           
  5338                           ;psect for function _I2C_Master_Start
  5339  0C24                     _I2C_Master_Start:	
  5340  0C24                     l2256:	
  5341                           ;incstack = 0
  5342                           ; Regs used in _I2C_Master_Start: [wreg+status,2+status,0+pclath+cstack]
  5343                           
  5344                           
  5345                           ;I2C.c: 41:     I2C_Master_Wait();
  5346  0C24  120A  118A  2003  120A  158A  	fcall	_I2C_Master_Wait
  5347  0C29                     l2258:	
  5348                           
  5349                           ;I2C.c: 42:     SSPCON2bits.SEN = 1;
  5350  0C29  1683               	bsf	3,5	;RP0=1, select bank1
  5351  0C2A  1303               	bcf	3,6	;RP1=0, select bank1
  5352  0C2B  1411               	bsf	17,0	;volatile
  5353  0C2C                     l122:	
  5354  0C2C  0008               	return
  5355  0C2D                     __end_of_I2C_Master_Start:	
  5356                           
  5357                           	psect	text22
  5358  0CF3                     __ptext22:	
  5359 ;; *************** function _I2C_Master_Read *****************
  5360 ;; Defined at:
  5361 ;;		line 74 in file "I2C.c"
  5362 ;; Parameters:    Size  Location     Type
  5363 ;;  a               2    0[COMMON] unsigned short 
  5364 ;; Auto vars:     Size  Location     Type
  5365 ;;  temp            2    4[COMMON] unsigned short 
  5366 ;; Return value:  Size  Location     Type
  5367 ;;                  2    0[COMMON] unsigned short 
  5368 ;; Registers used:
  5369 ;;		wreg, status,2, status,0, pclath, cstack
  5370 ;; Tracked objects:
  5371 ;;		On entry : 0/0
  5372 ;;		On exit  : 0/0
  5373 ;;		Unchanged: 0/0
  5374 ;; Data sizes:     COMMON   BANK0   BANK1   BANK3   BANK2
  5375 ;;      Params:         2       0       0       0       0
  5376 ;;      Locals:         2       0       0       0       0
  5377 ;;      Temps:          2       0       0       0       0
  5378 ;;      Totals:         6       0       0       0       0
  5379 ;;Total ram usage:        6 bytes
  5380 ;; Hardware stack levels used:    1
  5381 ;; Hardware stack levels required when called:    1
  5382 ;; This function calls:
  5383 ;;		_I2C_Master_Wait
  5384 ;; This function is called by:
  5385 ;;		_main
  5386 ;; This function uses a non-reentrant model
  5387 ;;
  5388                           
  5389                           
  5390                           ;psect for function _I2C_Master_Read
  5391  0CF3                     _I2C_Master_Read:	
  5392  0CF3                     l2264:	
  5393                           ;incstack = 0
  5394                           ; Regs used in _I2C_Master_Read: [wreg+status,2+status,0+pclath+cstack]
  5395                           
  5396                           
  5397                           ;I2C.c: 74: unsigned short I2C_Master_Read(unsigned short a);I2C.c: 75: {;I2C.c: 76:    
      +                           unsigned short temp;;I2C.c: 77:     I2C_Master_Wait();
  5398  0CF3  120A  118A  2003  120A  158A  	fcall	_I2C_Master_Wait
  5399  0CF8                     l2266:	
  5400                           
  5401                           ;I2C.c: 78:     SSPCON2bits.RCEN = 1;
  5402  0CF8  1683               	bsf	3,5	;RP0=1, select bank1
  5403  0CF9  1303               	bcf	3,6	;RP1=0, select bank1
  5404  0CFA  1591               	bsf	17,3	;volatile
  5405                           
  5406                           ;I2C.c: 79:     I2C_Master_Wait();
  5407  0CFB  120A  118A  2003  120A  158A  	fcall	_I2C_Master_Wait
  5408  0D00                     l2268:	
  5409                           
  5410                           ;I2C.c: 80:     temp = SSPBUF;
  5411  0D00  1283               	bcf	3,5	;RP0=0, select bank0
  5412  0D01  1303               	bcf	3,6	;RP1=0, select bank0
  5413  0D02  0813               	movf	19,w	;volatile
  5414  0D03  00F2               	movwf	??_I2C_Master_Read
  5415  0D04  01F3               	clrf	??_I2C_Master_Read+1
  5416  0D05  0872               	movf	??_I2C_Master_Read,w
  5417  0D06  00F4               	movwf	I2C_Master_Read@temp
  5418  0D07  0873               	movf	??_I2C_Master_Read+1,w
  5419  0D08  00F5               	movwf	I2C_Master_Read@temp+1
  5420  0D09                     l2270:	
  5421                           
  5422                           ;I2C.c: 81:     I2C_Master_Wait();
  5423  0D09  120A  118A  2003  120A  158A  	fcall	_I2C_Master_Wait
  5424  0D0E                     l2272:	
  5425                           
  5426                           ;I2C.c: 82:     if(a == 1){
  5427  0D0E  0370               	decf	I2C_Master_Read@a,w
  5428  0D0F  0471               	iorwf	I2C_Master_Read@a+1,w
  5429  0D10  1D03               	btfss	3,2
  5430  0D11  2D13               	goto	u2831
  5431  0D12  2D14               	goto	u2830
  5432  0D13                     u2831:	
  5433  0D13  2D18               	goto	l134
  5434  0D14                     u2830:	
  5435  0D14                     l2274:	
  5436                           
  5437                           ;I2C.c: 83:         SSPCON2bits.ACKDT = 0;
  5438  0D14  1683               	bsf	3,5	;RP0=1, select bank1
  5439  0D15  1303               	bcf	3,6	;RP1=0, select bank1
  5440  0D16  1291               	bcf	17,5	;volatile
  5441                           
  5442                           ;I2C.c: 84:     }else{
  5443  0D17  2D1B               	goto	l135
  5444  0D18                     l134:	
  5445                           
  5446                           ;I2C.c: 85:         SSPCON2bits.ACKDT = 1;
  5447  0D18  1683               	bsf	3,5	;RP0=1, select bank1
  5448  0D19  1303               	bcf	3,6	;RP1=0, select bank1
  5449  0D1A  1691               	bsf	17,5	;volatile
  5450  0D1B                     l135:	
  5451                           ;I2C.c: 86:     }
  5452                           
  5453                           
  5454                           ;I2C.c: 87:     SSPCON2bits.ACKEN = 1;
  5455  0D1B  1611               	bsf	17,4	;volatile
  5456  0D1C                     l2276:	
  5457                           
  5458                           ;I2C.c: 88:     return temp;
  5459  0D1C  0875               	movf	I2C_Master_Read@temp+1,w
  5460  0D1D  00F1               	movwf	?_I2C_Master_Read+1
  5461  0D1E  0874               	movf	I2C_Master_Read@temp,w
  5462  0D1F  00F0               	movwf	?_I2C_Master_Read
  5463  0D20                     l136:	
  5464  0D20  0008               	return
  5465  0D21                     __end_of_I2C_Master_Read:	
  5466                           
  5467                           	psect	text23
  5468  0003                     __ptext23:	
  5469 ;; *************** function _I2C_Master_Wait *****************
  5470 ;; Defined at:
  5471 ;;		line 32 in file "I2C.c"
  5472 ;; Parameters:    Size  Location     Type
  5473 ;;		None
  5474 ;; Auto vars:     Size  Location     Type
  5475 ;;		None
  5476 ;; Return value:  Size  Location     Type
  5477 ;;                  1    wreg      void 
  5478 ;; Registers used:
  5479 ;;		wreg, status,2
  5480 ;; Tracked objects:
  5481 ;;		On entry : 0/0
  5482 ;;		On exit  : 0/0
  5483 ;;		Unchanged: 0/0
  5484 ;; Data sizes:     COMMON   BANK0   BANK1   BANK3   BANK2
  5485 ;;      Params:         0       0       0       0       0
  5486 ;;      Locals:         0       0       0       0       0
  5487 ;;      Temps:          0       0       0       0       0
  5488 ;;      Totals:         0       0       0       0       0
  5489 ;;Total ram usage:        0 bytes
  5490 ;; Hardware stack levels used:    1
  5491 ;; This function calls:
  5492 ;;		Nothing
  5493 ;; This function is called by:
  5494 ;;		_I2C_Master_Start
  5495 ;;		_I2C_Master_Stop
  5496 ;;		_I2C_Master_Write
  5497 ;;		_I2C_Master_Read
  5498 ;;		_I2C_Master_RepeatedStart
  5499 ;; This function uses a non-reentrant model
  5500 ;;
  5501                           
  5502                           
  5503                           ;psect for function _I2C_Master_Wait
  5504  0003                     _I2C_Master_Wait:	
  5505  0003                     l1858:	
  5506                           ;incstack = 0
  5507                           ; Regs used in _I2C_Master_Wait: [wreg+status,2]
  5508                           
  5509  0003                     l116:	
  5510                           ;I2C.c: 34:     while ((SSPSTAT & 0x04) || (SSPCON2 & 0x1F));
  5511                           
  5512  0003  1683               	bsf	3,5	;RP0=1, select bank1
  5513  0004  1303               	bcf	3,6	;RP1=0, select bank1
  5514  0005  1914               	btfsc	20,2	;volatile
  5515  0006  2808               	goto	u1981
  5516  0007  2809               	goto	u1980
  5517  0008                     u1981:	
  5518  0008  2803               	goto	l116
  5519  0009                     u1980:	
  5520  0009                     l1860:	
  5521  0009  0811               	movf	17,w	;volatile
  5522  000A  391F               	andlw	31
  5523  000B  1D03               	btfss	3,2
  5524  000C  280E               	goto	u1991
  5525  000D  280F               	goto	u1990
  5526  000E                     u1991:	
  5527  000E  2803               	goto	l116
  5528  000F                     u1990:	
  5529  000F                     l119:	
  5530  000F  0008               	return
  5531  0010                     __end_of_I2C_Master_Wait:	
  5532                           
  5533                           	psect	text24
  5534  0D21                     __ptext24:	
  5535 ;; *************** function _I2C_Master_Init *****************
  5536 ;; Defined at:
  5537 ;;		line 16 in file "I2C.c"
  5538 ;; Parameters:    Size  Location     Type
  5539 ;;  c               4    0[BANK0 ] const unsigned long 
  5540 ;; Auto vars:     Size  Location     Type
  5541 ;;		None
  5542 ;; Return value:  Size  Location     Type
  5543 ;;                  1    wreg      void 
  5544 ;; Registers used:
  5545 ;;		wreg, status,2, status,0, pclath, cstack
  5546 ;; Tracked objects:
  5547 ;;		On entry : 0/0
  5548 ;;		On exit  : 0/0
  5549 ;;		Unchanged: 0/0
  5550 ;; Data sizes:     COMMON   BANK0   BANK1   BANK3   BANK2
  5551 ;;      Params:         0       4       0       0       0
  5552 ;;      Locals:         0       0       0       0       0
  5553 ;;      Temps:          0       4       0       0       0
  5554 ;;      Totals:         0       8       0       0       0
  5555 ;;Total ram usage:        8 bytes
  5556 ;; Hardware stack levels used:    1
  5557 ;; Hardware stack levels required when called:    1
  5558 ;; This function calls:
  5559 ;;		___lldiv
  5560 ;; This function is called by:
  5561 ;;		_main
  5562 ;; This function uses a non-reentrant model
  5563 ;;
  5564                           
  5565                           
  5566                           ;psect for function _I2C_Master_Init
  5567  0D21                     _I2C_Master_Init:	
  5568  0D21                     l2228:	
  5569                           ;incstack = 0
  5570                           ; Regs used in _I2C_Master_Init: [wreg+status,2+status,0+pclath+cstack]
  5571                           
  5572                           
  5573                           ;I2C.c: 16: void I2C_Master_Init(const unsigned long c);I2C.c: 17: {;I2C.c: 18:     SSPC
      +                          ON = 0b00101000;
  5574  0D21  3028               	movlw	40
  5575  0D22  1283               	bcf	3,5	;RP0=0, select bank0
  5576  0D23  1303               	bcf	3,6	;RP1=0, select bank0
  5577  0D24  0094               	movwf	20	;volatile
  5578  0D25                     l2230:	
  5579                           
  5580                           ;I2C.c: 19:     SSPCON2 = 0;
  5581  0D25  1683               	bsf	3,5	;RP0=1, select bank1
  5582  0D26  1303               	bcf	3,6	;RP1=0, select bank1
  5583  0D27  0191               	clrf	17	;volatile
  5584  0D28                     l2232:	
  5585                           
  5586                           ;I2C.c: 20:     SSPADD = (8000000/(4*c))-1;
  5587  0D28  1283               	bcf	3,5	;RP0=0, select bank0
  5588  0D29  1303               	bcf	3,6	;RP1=0, select bank0
  5589  0D2A  0820               	movf	I2C_Master_Init@c,w
  5590  0D2B  00A4               	movwf	??_I2C_Master_Init
  5591  0D2C  0821               	movf	I2C_Master_Init@c+1,w
  5592  0D2D  00A5               	movwf	??_I2C_Master_Init+1
  5593  0D2E  0822               	movf	I2C_Master_Init@c+2,w
  5594  0D2F  00A6               	movwf	??_I2C_Master_Init+2
  5595  0D30  0823               	movf	I2C_Master_Init@c+3,w
  5596  0D31  00A7               	movwf	??_I2C_Master_Init+3
  5597  0D32  3002               	movlw	2
  5598  0D33                     u2775:	
  5599  0D33  1003               	clrc
  5600  0D34  0DA4               	rlf	??_I2C_Master_Init,f
  5601  0D35  0DA5               	rlf	??_I2C_Master_Init+1,f
  5602  0D36  0DA6               	rlf	??_I2C_Master_Init+2,f
  5603  0D37  0DA7               	rlf	??_I2C_Master_Init+3,f
  5604  0D38                     u2770:	
  5605  0D38  3EFF               	addlw	-1
  5606  0D39  1D03               	skipz
  5607  0D3A  2D33               	goto	u2775
  5608  0D3B  0827               	movf	??_I2C_Master_Init+3,w
  5609  0D3C  00F3               	movwf	___lldiv@divisor+3
  5610  0D3D  0826               	movf	??_I2C_Master_Init+2,w
  5611  0D3E  00F2               	movwf	___lldiv@divisor+2
  5612  0D3F  0825               	movf	??_I2C_Master_Init+1,w
  5613  0D40  00F1               	movwf	___lldiv@divisor+1
  5614  0D41  0824               	movf	??_I2C_Master_Init,w
  5615  0D42  00F0               	movwf	___lldiv@divisor
  5616  0D43  3000               	movlw	0
  5617  0D44  00F7               	movwf	___lldiv@dividend+3
  5618  0D45  307A               	movlw	122
  5619  0D46  00F6               	movwf	___lldiv@dividend+2
  5620  0D47  3012               	movlw	18
  5621  0D48  00F5               	movwf	___lldiv@dividend+1
  5622  0D49  3000               	movlw	0
  5623  0D4A  00F4               	movwf	___lldiv@dividend
  5624  0D4B  120A  158A  26B7  120A  158A  	fcall	___lldiv
  5625  0D50  0870               	movf	?___lldiv,w
  5626  0D51  3EFF               	addlw	255
  5627  0D52  1683               	bsf	3,5	;RP0=1, select bank1
  5628  0D53  1303               	bcf	3,6	;RP1=0, select bank1
  5629  0D54  0093               	movwf	19	;volatile
  5630  0D55                     l2234:	
  5631                           
  5632                           ;I2C.c: 21:     SSPSTAT = 0;
  5633  0D55  0194               	clrf	20	;volatile
  5634  0D56                     l2236:	
  5635                           
  5636                           ;I2C.c: 22:     TRISCbits.TRISC3 = 1;
  5637  0D56  1587               	bsf	7,3	;volatile
  5638  0D57                     l2238:	
  5639                           
  5640                           ;I2C.c: 23:     TRISCbits.TRISC4 = 1;
  5641  0D57  1607               	bsf	7,4	;volatile
  5642  0D58                     l113:	
  5643  0D58  0008               	return
  5644  0D59                     __end_of_I2C_Master_Init:	
  5645                           
  5646                           	psect	text25
  5647  0EB7                     __ptext25:	
  5648 ;; *************** function ___lldiv *****************
  5649 ;; Defined at:
  5650 ;;		line 5 in file "C:\Program Files (x86)\Microchip\xc8\v2.10\pic\sources\c90\common\__lldiv.c"
  5651 ;; Parameters:    Size  Location     Type
  5652 ;;  divisor         4    0[COMMON] unsigned long 
  5653 ;;  dividend        4    4[COMMON] unsigned long 
  5654 ;; Auto vars:     Size  Location     Type
  5655 ;;  quotient        4    9[COMMON] unsigned long 
  5656 ;;  counter         1   13[COMMON] unsigned char 
  5657 ;; Return value:  Size  Location     Type
  5658 ;;                  4    0[COMMON] unsigned long 
  5659 ;; Registers used:
  5660 ;;		wreg, status,2, status,0
  5661 ;; Tracked objects:
  5662 ;;		On entry : 0/0
  5663 ;;		On exit  : 0/0
  5664 ;;		Unchanged: 0/0
  5665 ;; Data sizes:     COMMON   BANK0   BANK1   BANK3   BANK2
  5666 ;;      Params:         8       0       0       0       0
  5667 ;;      Locals:         5       0       0       0       0
  5668 ;;      Temps:          1       0       0       0       0
  5669 ;;      Totals:        14       0       0       0       0
  5670 ;;Total ram usage:       14 bytes
  5671 ;; Hardware stack levels used:    1
  5672 ;; This function calls:
  5673 ;;		Nothing
  5674 ;; This function is called by:
  5675 ;;		_I2C_Master_Init
  5676 ;; This function uses a non-reentrant model
  5677 ;;
  5678                           
  5679                           
  5680                           ;psect for function ___lldiv
  5681  0EB7                     ___lldiv:	
  5682  0EB7                     l1912:	
  5683                           ;incstack = 0
  5684                           ; Regs used in ___lldiv: [wreg+status,2+status,0]
  5685                           
  5686  0EB7  3000               	movlw	0
  5687  0EB8  00FC               	movwf	___lldiv@quotient+3
  5688  0EB9  3000               	movlw	0
  5689  0EBA  00FB               	movwf	___lldiv@quotient+2
  5690  0EBB  3000               	movlw	0
  5691  0EBC  00FA               	movwf	___lldiv@quotient+1
  5692  0EBD  3000               	movlw	0
  5693  0EBE  00F9               	movwf	___lldiv@quotient
  5694  0EBF  0873               	movf	___lldiv@divisor+3,w
  5695  0EC0  0472               	iorwf	___lldiv@divisor+2,w
  5696  0EC1  0471               	iorwf	___lldiv@divisor+1,w
  5697  0EC2  0470               	iorwf	___lldiv@divisor,w
  5698  0EC3  1903               	skipnz
  5699  0EC4  2EC6               	goto	u2061
  5700  0EC5  2EC7               	goto	u2060
  5701  0EC6                     u2061:	
  5702  0EC6  2F14               	goto	l1932
  5703  0EC7                     u2060:	
  5704  0EC7                     l1914:	
  5705  0EC7  01FD               	clrf	___lldiv@counter
  5706  0EC8  0AFD               	incf	___lldiv@counter,f
  5707  0EC9  2ED7               	goto	l1918
  5708  0ECA                     l1916:	
  5709  0ECA  3001               	movlw	1
  5710  0ECB  00F8               	movwf	??___lldiv
  5711  0ECC                     u2075:	
  5712  0ECC  1003               	clrc
  5713  0ECD  0DF0               	rlf	___lldiv@divisor,f
  5714  0ECE  0DF1               	rlf	___lldiv@divisor+1,f
  5715  0ECF  0DF2               	rlf	___lldiv@divisor+2,f
  5716  0ED0  0DF3               	rlf	___lldiv@divisor+3,f
  5717  0ED1  0BF8               	decfsz	??___lldiv,f
  5718  0ED2  2ECC               	goto	u2075
  5719  0ED3  3001               	movlw	1
  5720  0ED4  00F8               	movwf	??___lldiv
  5721  0ED5  0878               	movf	??___lldiv,w
  5722  0ED6  07FD               	addwf	___lldiv@counter,f
  5723  0ED7                     l1918:	
  5724  0ED7  1FF3               	btfss	___lldiv@divisor+3,7
  5725  0ED8  2EDA               	goto	u2081
  5726  0ED9  2EDB               	goto	u2080
  5727  0EDA                     u2081:	
  5728  0EDA  2ECA               	goto	l1916
  5729  0EDB                     u2080:	
  5730  0EDB                     l1920:	
  5731  0EDB  3001               	movlw	1
  5732  0EDC  00F8               	movwf	??___lldiv
  5733  0EDD                     u2095:	
  5734  0EDD  1003               	clrc
  5735  0EDE  0DF9               	rlf	___lldiv@quotient,f
  5736  0EDF  0DFA               	rlf	___lldiv@quotient+1,f
  5737  0EE0  0DFB               	rlf	___lldiv@quotient+2,f
  5738  0EE1  0DFC               	rlf	___lldiv@quotient+3,f
  5739  0EE2  0BF8               	decfsz	??___lldiv,f
  5740  0EE3  2EDD               	goto	u2095
  5741  0EE4                     l1922:	
  5742  0EE4  0873               	movf	___lldiv@divisor+3,w
  5743  0EE5  0277               	subwf	___lldiv@dividend+3,w
  5744  0EE6  1D03               	skipz
  5745  0EE7  2EF2               	goto	u2105
  5746  0EE8  0872               	movf	___lldiv@divisor+2,w
  5747  0EE9  0276               	subwf	___lldiv@dividend+2,w
  5748  0EEA  1D03               	skipz
  5749  0EEB  2EF2               	goto	u2105
  5750  0EEC  0871               	movf	___lldiv@divisor+1,w
  5751  0EED  0275               	subwf	___lldiv@dividend+1,w
  5752  0EEE  1D03               	skipz
  5753  0EEF  2EF2               	goto	u2105
  5754  0EF0  0870               	movf	___lldiv@divisor,w
  5755  0EF1  0274               	subwf	___lldiv@dividend,w
  5756  0EF2                     u2105:	
  5757  0EF2  1C03               	skipc
  5758  0EF3  2EF5               	goto	u2101
  5759  0EF4  2EF6               	goto	u2100
  5760  0EF5                     u2101:	
  5761  0EF5  2F05               	goto	l1928
  5762  0EF6                     u2100:	
  5763  0EF6                     l1924:	
  5764  0EF6  0870               	movf	___lldiv@divisor,w
  5765  0EF7  02F4               	subwf	___lldiv@dividend,f
  5766  0EF8  0871               	movf	___lldiv@divisor+1,w
  5767  0EF9  1C03               	skipc
  5768  0EFA  0F71               	incfsz	___lldiv@divisor+1,w
  5769  0EFB  02F5               	subwf	___lldiv@dividend+1,f
  5770  0EFC  0872               	movf	___lldiv@divisor+2,w
  5771  0EFD  1C03               	skipc
  5772  0EFE  0F72               	incfsz	___lldiv@divisor+2,w
  5773  0EFF  02F6               	subwf	___lldiv@dividend+2,f
  5774  0F00  0873               	movf	___lldiv@divisor+3,w
  5775  0F01  1C03               	skipc
  5776  0F02  0F73               	incfsz	___lldiv@divisor+3,w
  5777  0F03  02F7               	subwf	___lldiv@dividend+3,f
  5778  0F04                     l1926:	
  5779  0F04  1479               	bsf	___lldiv@quotient,0
  5780  0F05                     l1928:	
  5781  0F05  3001               	movlw	1
  5782  0F06                     u2115:	
  5783  0F06  1003               	clrc
  5784  0F07  0CF3               	rrf	___lldiv@divisor+3,f
  5785  0F08  0CF2               	rrf	___lldiv@divisor+2,f
  5786  0F09  0CF1               	rrf	___lldiv@divisor+1,f
  5787  0F0A  0CF0               	rrf	___lldiv@divisor,f
  5788  0F0B  3EFF               	addlw	-1
  5789  0F0C  1D03               	skipz
  5790  0F0D  2F06               	goto	u2115
  5791  0F0E                     l1930:	
  5792  0F0E  3001               	movlw	1
  5793  0F0F  02FD               	subwf	___lldiv@counter,f
  5794  0F10  1D03               	btfss	3,2
  5795  0F11  2F13               	goto	u2121
  5796  0F12  2F14               	goto	u2120
  5797  0F13                     u2121:	
  5798  0F13  2EDB               	goto	l1920
  5799  0F14                     u2120:	
  5800  0F14                     l1932:	
  5801  0F14  087C               	movf	___lldiv@quotient+3,w
  5802  0F15  00F3               	movwf	?___lldiv+3
  5803  0F16  087B               	movf	___lldiv@quotient+2,w
  5804  0F17  00F2               	movwf	?___lldiv+2
  5805  0F18  087A               	movf	___lldiv@quotient+1,w
  5806  0F19  00F1               	movwf	?___lldiv+1
  5807  0F1A  0879               	movf	___lldiv@quotient,w
  5808  0F1B  00F0               	movwf	?___lldiv
  5809  0F1C                     l332:	
  5810  0F1C  0008               	return
  5811  0F1D                     __end_of___lldiv:	
  5812  007E                     btemp	set	126	;btemp
  5813  007E                     wtemp0	set	126


Data Sizes:
    Strings     6
    Constant    0
    Data        0
    BSS         8
    Persistent  0
    Stack       0

Auto Spaces:
    Space          Size  Autos    Used
    COMMON           14     14      14
    BANK0            80     57      65
    BANK1            80      0       0
    BANK3            96      0       0
    BANK2            96      0       0

Pointer List with Targets:

    Lcd_Write_String@a	PTR unsigned char  size(2) Largest target is 6
		 -> main@s3(BANK0[5]), STR_1(CODE[6]), 


Critical Paths under _main in COMMON

    _main->___xxtofl
    _b2->___xxtofl
    _b1->___xxtofl
    _b0->___xxtofl
    ___xxtofl->___wmul
    ___fltol->___xxtofl
    ___flsub->___xxtofl
    _Lcd_Write_String->_Lcd_Write_Char
    _Lcd_Write_Char->_Lcd_Port
    _Lcd_Set_Cursor->_Lcd_Cmd
    _Lcd_Init->_Lcd_Cmd
    _Lcd_Cmd->_Lcd_Port
    _I2C_Master_Init->___lldiv

Critical Paths under _main in BANK0

    _main->_b0
    _b2->___fltol
    _b1->___fltol
    _b0->___fltol
    ___fltol->___flsub
    ___flsub->___fladd

Critical Paths under _main in BANK1

    None.

Critical Paths under _main in BANK3

    None.

Critical Paths under _main in BANK2

    None.

Call Graph Tables:

 ---------------------------------------------------------------------------------
 (Depth) Function   	        Calls       Base Space   Used Autos Params    Refs
 ---------------------------------------------------------------------------------
 (0) _main                                                18    18      0   18708
                                             39 BANK0     18    18      0
                    _I2C_Master_Init
                    _I2C_Master_Read
                   _I2C_Master_Start
                    _I2C_Master_Stop
                   _I2C_Master_Write
                           _Lcd_Init
                     _Lcd_Set_Cursor
                   _Lcd_Write_String
                           ___xxtofl
                                 _b0
                                 _b1
                                 _b2
 ---------------------------------------------------------------------------------
 (1) _b2                                                  11     7      4    2384
                                             27 BANK0      7     3      4
                            ___fldiv
                            ___fltol
                           ___xxtofl (ARG)
                           _num_case
 ---------------------------------------------------------------------------------
 (1) _b1                                                  11     7      4    6639
                                             27 BANK0     11     7      4
                            ___awdiv
                            ___fldiv
                            ___flsub
                            ___fltol
                             ___wmul
                           ___xxtofl
                           _num_case
 ---------------------------------------------------------------------------------
 (1) _b0                                                  12     8      4    6852
                                             27 BANK0     12     8      4
                            ___awdiv
                             ___bmul
                            ___fldiv
                            ___flsub
                            ___fltol
                             ___wmul
                           ___xxtofl
                           _num_case
 ---------------------------------------------------------------------------------
 (2) _num_case                                             4     4      0      54
                                              0 COMMON     4     4      0
 ---------------------------------------------------------------------------------
 (2) ___xxtofl                                            14    10      4     702
                                              6 COMMON     8     4      4
                                              0 BANK0      6     6      0
                             ___wmul (ARG)
 ---------------------------------------------------------------------------------
 (2) ___wmul                                               6     2      4     396
                                              0 COMMON     6     2      4
 ---------------------------------------------------------------------------------
 (2) ___fltol                                             11     7      4     609
                                             16 BANK0     11     7      4
                            ___fldiv (ARG)
                            ___flsub (ARG)
                             ___wmul (ARG)
                           ___xxtofl (ARG)
 ---------------------------------------------------------------------------------
 (2) ___flsub                                              8     0      8    2485
                                              8 BANK0      8     0      8
                            ___fladd
                             ___wmul (ARG)
                           ___xxtofl (ARG)
 ---------------------------------------------------------------------------------
 (3) ___fladd                                             20    12      8    2136
                                              0 COMMON    12     4      8
                                              0 BANK0      8     8      0
 ---------------------------------------------------------------------------------
 (2) ___fldiv                                             26    18      8    1577
                                              0 COMMON    13     5      8
                                              0 BANK0     13    13      0
 ---------------------------------------------------------------------------------
 (2) ___bmul                                               4     3      1     168
                                              0 COMMON     4     3      1
 ---------------------------------------------------------------------------------
 (2) ___awdiv                                              9     5      4     604
                                              0 COMMON     9     5      4
 ---------------------------------------------------------------------------------
 (1) _Lcd_Write_String                                     7     5      2     440
                                              3 COMMON     7     5      2
                     _Lcd_Write_Char
 ---------------------------------------------------------------------------------
 (2) _Lcd_Write_Char                                       2     2      0     198
                                              1 COMMON     2     2      0
                           _Lcd_Port
 ---------------------------------------------------------------------------------
 (1) _Lcd_Set_Cursor                                       2     1      1     438
                                              4 COMMON     2     1      1
                            _Lcd_Cmd
 ---------------------------------------------------------------------------------
 (1) _Lcd_Init                                             2     2      0     198
                                              4 COMMON     2     2      0
                            _Lcd_Cmd
 ---------------------------------------------------------------------------------
 (2) _Lcd_Cmd                                              3     3      0     198
                                              1 COMMON     3     3      0
                           _Lcd_Port
 ---------------------------------------------------------------------------------
 (3) _Lcd_Port                                             1     1      0     176
                                              0 COMMON     1     1      0
 ---------------------------------------------------------------------------------
 (1) _I2C_Master_Write                                     2     0      2     250
                                              0 COMMON     2     0      2
                    _I2C_Master_Wait
 ---------------------------------------------------------------------------------
 (1) _I2C_Master_Stop                                      0     0      0       0
                    _I2C_Master_Wait
 ---------------------------------------------------------------------------------
 (1) _I2C_Master_Start                                     0     0      0       0
                    _I2C_Master_Wait
 ---------------------------------------------------------------------------------
 (1) _I2C_Master_Read                                      6     4      2     273
                                              0 COMMON     6     4      2
                    _I2C_Master_Wait
 ---------------------------------------------------------------------------------
 (2) _I2C_Master_Wait                                      0     0      0       0
 ---------------------------------------------------------------------------------
 (1) _I2C_Master_Init                                      8     4      4     412
                                              0 BANK0      8     4      4
                            ___lldiv
 ---------------------------------------------------------------------------------
 (2) ___lldiv                                             14     6      8     314
                                              0 COMMON    14     6      8
 ---------------------------------------------------------------------------------
 Estimated maximum stack depth 3
 ---------------------------------------------------------------------------------

 Call Graph Graphs:

 _main (ROOT)
   _I2C_Master_Init
     ___lldiv
   _I2C_Master_Read
     _I2C_Master_Wait
   _I2C_Master_Start
     _I2C_Master_Wait
   _I2C_Master_Stop
     _I2C_Master_Wait
   _I2C_Master_Write
     _I2C_Master_Wait
   _Lcd_Init
     _Lcd_Cmd
       _Lcd_Port
   _Lcd_Set_Cursor
     _Lcd_Cmd
       _Lcd_Port
   _Lcd_Write_String
     _Lcd_Write_Char
       _Lcd_Port
   ___xxtofl
     ___wmul (ARG)
   _b0
     ___awdiv
     ___bmul
     ___fldiv
     ___flsub
       ___fladd
       ___wmul (ARG)
       ___xxtofl (ARG)
         ___wmul (ARG)
     ___fltol
       ___fldiv (ARG)
       ___flsub (ARG)
         ___fladd
         ___wmul (ARG)
         ___xxtofl (ARG)
           ___wmul (ARG)
       ___wmul (ARG)
       ___xxtofl (ARG)
         ___wmul (ARG)
     ___wmul
     ___xxtofl
       ___wmul (ARG)
     _num_case
   _b1
     ___awdiv
     ___fldiv
     ___flsub
       ___fladd
       ___wmul (ARG)
       ___xxtofl (ARG)
         ___wmul (ARG)
     ___fltol
       ___fldiv (ARG)
       ___flsub (ARG)
         ___fladd
         ___wmul (ARG)
         ___xxtofl (ARG)
           ___wmul (ARG)
       ___wmul (ARG)
       ___xxtofl (ARG)
         ___wmul (ARG)
     ___wmul
     ___xxtofl
       ___wmul (ARG)
     _num_case
   _b2
     ___fldiv
     ___fltol
       ___fldiv (ARG)
       ___flsub (ARG)
         ___fladd
         ___wmul (ARG)
         ___xxtofl (ARG)
           ___wmul (ARG)
       ___wmul (ARG)
       ___xxtofl (ARG)
         ___wmul (ARG)
     ___xxtofl (ARG)
       ___wmul (ARG)
     _num_case (ARG)

 Address spaces:
Name               Size   Autos  Total    Cost      Usage
BITCOMMON            E      0       0       0        0.0%
EEDATA             100      0       0       0        0.0%
NULL                 0      0       0       0        0.0%
CODE                 0      0       0       0        0.0%
COMMON               E      E       E       1      100.0%
BITSFR0              0      0       0       1        0.0%
SFR0                 0      0       0       1        0.0%
BITSFR1              0      0       0       2        0.0%
SFR1                 0      0       0       2        0.0%
STACK                0      0       0       2        0.0%
ABS                  0      0      4F       3        0.0%
BITBANK0            50      0       0       4        0.0%
BITSFR3              0      0       0       4        0.0%
SFR3                 0      0       0       4        0.0%
BANK0               50     39      41       5       81.3%
BITSFR2              0      0       0       5        0.0%
SFR2                 0      0       0       5        0.0%
BITBANK1            50      0       0       6        0.0%
BANK1               50      0       0       7        0.0%
BITBANK3            60      0       0       8        0.0%
BANK3               60      0       0       9        0.0%
BITBANK2            60      0       0      10        0.0%
BANK2               60      0       0      11        0.0%
DATA                 0      0      4F      12        0.0%


Microchip Technology PIC Macro Assembler V2.10 build 88905656 
Symbol Table                                                                                   Fri Feb 28 23:32:39 2020

             ___fldiv@aexp 002C               ___fldiv@bexp 002B                          pc 0002  
             ___fldiv@sign 0024             ___bmul@product 0072                __CFG_CP$OFF 0000  
                       l54 036A                         l56 0372                         l81 00A9  
                       l75 0EB6                         l84 0153                         l78 0D91  
                       _b0 00AA                         _b1 0010                         _b2 0D59  
             ___awdiv@sign 0076                         fsr 0004        ___wmul@multiplicand 0072  
                      ?_b0 003B                        ?_b1 003B                        ?_b2 003B  
                      l113 0D58                        l122 0C2C                        l131 0C3F  
                      l116 0003                        l204 0E11                        b0@m 003B  
                      l134 0D18                        l119 000F                        l135 0D1B  
                      l136 0D20                        l128 0C35                        b1@m 003B  
                      l170 0DB2                        l322 0C54                        l171 0DB3  
                      l332 0F1C                        l180 0DCF                        l172 0DB9  
                      l164 0D9B                        l173 0DBA                        l165 0D9E  
                      b2@m 003B                        l174 0DC0                        l166 0DA4  
                      l175 0DC1                        l167 0DA5                        l183 0CA9  
                      l176 0DC7                        l168 0DAB                        l192 0C86  
                      l177 0DC8                        l169 0DAC                        l178 0DCE  
                      l610 0737                        l602 07F1                        l195 0E58  
                      l620 077F                        l198 0C6A                        l614 075D  
                      l631 07E3                        l623 07BF                        l632 07F1  
                      l296 0CDA                        l449 0F83                        l482 0FFF  
                      l298 0CF2                        l635 0CCD                        l723 0178  
                      l492 0FFF                        l661 04CB                        l645 03D3  
                      l725 020F                        l647 0559                        l736 01D9  
                      l593 0666                        l489 0FEA                        l737 01E5  
                      l729 01BD                        l667 053D                        l595 063B  
                      l669 054D                        l589 05BD                        _GIE 005F  
                      _RA0 0028                        _RA1 0029                        _RB0 0030  
                      _RA2 002A                        _RB1 0031                        _RA3 002B  
                      _RA4 002C                        _RC0 0038                        _RA5 002D  
                      _RC1 0039                        _RA6 002E                        _RA7 002F  
             __CFG_CPD$OFF 0000                        fsr0 0004                        indf 0000  
                     ??_b0 003F                       ??_b1 003F                       ??_b2 003F  
             __CFG_LVP$OFF 0000               ___fltol@exp1 003A                       l2010 0FDF  
                     l2002 0FC6                       l2100 0466                       l2012 0FEF  
                     l2004 0FD8                       l2110 048E                       l2102 047A  
                     l2030 0389                       l2022 0377                       l2014 0FF4  
                     l2112 0497                       l2120 04AB                       l2104 047E  
                     l2032 038E                       l2040 039E                       l2024 037E  
                     l2016 0CAA                       l2200 0202                       l2210 0E1A  
                     l2122 04AF                       l2114 049B                       l2106 0484  
                     l2050 03B6                       l2042 03A6                       l2034 0393  
                     l2026 0384                       l2018 0CAE                       l2202 0206  
                     l2220 0E40                       l2212 0E20                       l2140 0500  
                     l2132 04D0                       l2124 04B0                       l2116 049C  
                     l2108 048C                       l2052 03BB                       l2060 03CB  
                     l2044 03AB                       l2036 039B                       l2028 0388  
                     l2204 0207                       l2300 009D                       l2230 0D25  
                     l2222 0E46                       l2214 0E2F                       l2150 0534  
                     l2134 04D5                       l2142 0506                       l2126 04B4  
                     l2118 04A5                       l2062 03DB                       l2070 03F4  
                     l2054 03C0                       l2046 03B1                       l2038 039C  
                     l2302 00A8                       l2310 0D90                       l2232 0D28  
                     l2224 0E4C                       l2216 0E34                       l2208 0E12  
                     l2240 0C6C                       l2152 053C                       l2144 0513  
                     l2136 04E3                       l2128 04C8                       l2080 041C  
                     l2072 03F9                       l2064 03E7                       l2056 03C8  
                     l2048 03B5                       l2320 022E                       b0@p0 0045  
                     l2234 0D55                       l2226 0E52                       l2218 0E3A  
                     l2242 0C71                       l2250 0DD3                       l2154 0543  
                     l2146 0521                       l2138 04E7                       l2090 0445  
                     l2082 0424                       l2066 03EB                       l2058 03C9  
                     l2170 0170                       l2306 0D59                       l2330 0256  
                     l2322 0236                       l2314 0210                       l2236 0D56  
                     l2228 0D21                       l2260 0C36                       l1620 0DB0  
                     l1612 0D93                       l2244 0C79                       l2252 0DEF  
                     l2156 0547                       l2148 0530                       l2092 0449  
                     l2084 042C                       l2076 0402                       l1700 05F7  
                     l2180 019B                       l2172 0180                       l2164 0157  
                     l2308 0D85                       l2340 029A                       l2332 0264  
                     l2324 023F                       l2316 021A                       l2238 0D57  
                     l2270 0D09                       l2262 0C3B                       l1622 0DB7  
                     l1614 0D97                       l2246 0C7F                       l2254 0DF5  
                     l2158 0549                       l2094 044A                       l2086 042E  
                     l2078 0414                       l1710 0608                       l1702 05FB  
                     l1630 055A                       l2190 01CF                       l2182 01A2  
                     l2166 015C                       l2350 030B                       l2342 02AC  
                     l2334 0269                       l2326 0248                       l2318 021F  
                     l2272 0D0E                       l2264 0CF3                       l2256 0C24  
                     l2280 0C2D                       l1624 0DBE                       l1616 0DA2  
                     l2248 0DD0                       l2088 0433                       l2096 0453  
                     l1800 0797                       l1720 0650                       l1712 061F  
                     l1704 05FF                       l1640 0571                       l1632 0561  
                     l2192 01D3                       l2184 01A6                       l2176 0189  
                     l2168 0160                       l2408 0E95                       l2360 0336  
                     l2352 0310                       l2344 02C9                       l2336 0273  
                     l2328 024D                       b1@p1 0045                       l2274 0D14  
                     l2266 0CF8                       l2258 0C29                       l2282 0C32  
                     l1626 0DC5                       l1618 0DA9                       l2098 0465  
                     l1810 07D1                       l1802 079B                       l1730 066F  
                     l1722 0651                       l1714 063F                       l1706 0603  
                     l1650 0589                       l1642 0576                       l1634 0567  
                     l2194 01DD                       l2186 01B4                       l2178 018E  
                     l2290 0147                       l2370 0361                       l2362 033B  
                     l2354 0319                       l2346 02DB                       l2338 027B  
                     l2276 0D1C                       l2268 0D00                       l1628 0DCC  
                     l1900 0C42                       l1820 07EC                       l1812 07D6  
                     l1804 07BB                       l1740 0697                       l1724 065C  
                     l1716 064A                       l1708 0607                       l1660 059F  
                     l1652 058E                       l1644 057E                       l1636 056B  
                     l2196 01E7                       l2188 01C4                       l2292 0152  
                     l2284 00AA                       l2372 0368                       l2364 0344  
                     l2356 0327                       l2348 0302                       l1902 0C46  
                     l1822 07F0                       l1814 07D7                       l1806 07C4  
                     l1750 06B4                       l1742 06A2                       l1734 0678  
                     l1718 064C                       l1726 0660                       l1670 05B3  
                     l1662 05A0                       l1654 0594                       l1646 057F  
                     l1638 056C                       l2198 01FD                       l1830 0E65  
                     l2286 0121                       l2374 036B                       l2366 0352  
                     l2358 032C                       l1920 0EDB                       l1912 0EB7  
                     l1904 0C4A                       l1816 07DB                       l1808 07C9  
                     l1760 071A                       l1744 06A4                       l1736 068F  
                     l1728 066A                       l1752 06B9                       l1680 05CF  
                     l1664 05A5                       l1672 05B5                       l1656 0595  
                     l1648 0581                       l1840 0E7E                       l1832 0E6A  
                     l1824 0E5A                       l2288 0137                       l2296 0010  
                     l2376 0370                       l2368 0357                       l1930 0F0E  
                     l1922 0EE4                       l1914 0EC7                       l1906 0C4C  
                     l1818 07DD                       l1770 074D                       l1754 06CF  
                     l1762 0729                       l1746 06A8                       l1738 0693  
                     l1690 05E3                       l1682 05D3                       l1674 05C3  
                     l1666 05AA                       l1658 059B                       l1842 0E83  
                     l1834 0E6F                       l1850 0EB5                       l1826 0E5B  
                     l2298 0087                       b2@p2 0041                       l1924 0EF6  
                     l1916 0ECA                       l1932 0F14                       l1860 0009  
                     l1940 0F22                       l1908 0C53                       l1780 0766  
                     l1772 0758                       l1764 073F                       l1756 070F  
                     l1748 06A9                       l1692 05E7                       l1684 05D7  
                     l1676 05C7                       l1668 05B2                       l1844 0E88  
                     l1836 0E74                       l1828 0E60                       l1926 0F04  
                     l1918 0ED7                       l1870 0C9D                       l1862 0C88  
                     l1950 0F36                       l1942 0F27                       l1790 0776  
                     l1782 076B                       l1774 075C                       l1766 0744  
                     l1758 0715                       l1694 05EB                       l1686 05DB  
                     l1678 05CB                       l1838 0E79                       l1928 0F05  
                     l1872 0CA0                       l1864 0C8B                       l1880 0C62  
                     l1960 0F4C                       l1952 0F38                       l1944 0F29  
                     l1936 0F1D                       l1792 077C                       l1776 0761  
                     l1784 076D                       l1696 05EF                       l1688 05DF  
                     l1848 0E8D                       l1858 0003                       l1866 0C91  
                     l1882 0C67                       l1874 0C56                       l1970 0F6F  
                     l1962 0F50                       l1954 0F3E                       l1946 0F2D  
                     l1938 0F1E                       l1778 0764                       l1786 0771  
                     l1698 05F3                       l1890 0CE1                       l1868 0C94  
                     l1876 0C59                       l1964 0F61                       l1956 0F41  
                     l1972 0F75                       l1948 0F32                       l1796 0784  
                     l1788 0772                       l1980 0F84                       l1892 0CE8  
                     l1884 0CCE                       l1878 0C5F                       l1974 0F7A  
                     l1966 0F67                       l1958 0F48                       l1798 0789  
                     l1990 0FB0                       l1982 0F91                       l1894 0CEE  
                     l1886 0CD0                       l1976 0F7F                       l1968 0F68  
                     l1992 0FB8                       l1888 0CD4                       l1898 0C41  
                     l1994 0FBA                       l1986 0F9A                       l1996 0FBE  
                     l1988 0FAF                       STR_1 0810                       u2000 0CD4  
                     u2001 0CD3                       u2100 0EF6                       u2101 0EF5  
                     u2030 0CEE                       u2031 0CED                       u2015 0CDB  
                     u2120 0F14                       u2040 0C46                       u2121 0F13  
                     u2105 0EF2                       u2041 0C45                       u2025 0CE2  
                     u2210 0F75                       u2130 0F22                       u2050 0C53  
                     u2115 0F06                       u2211 0F74                       u2131 0F21  
                     u2051 0C52                       u2060 0EC7                       u1500 0DC5  
                     u2220 0F7A                       u2140 0F2D                       u2061 0EC6  
                     u1501 0DC4                       u2221 0F79                       u2205 0F69  
                     u2141 0F2C                       u1510 0DCC                       u2150 0F3E  
                     u2310 0FEF                       u2230 0F91                       u1511 0DCB  
                     u2151 0F3D                       u2311 0FEE                       u2231 0F90  
                     u2080 0EDB                       u1440 0D97                       u2400 03F9  
                     u1600 05C7                       u1520 056B                       u2320 0FF4  
                     u2240 0FA8                       u2081 0EDA                       u1441 0D96  
                     u2401 03F8                       u1601 05C6                       u1521 056A  
                     u2321 0FF3                       u2305 0FE1                       u1450 0DA2  
                     u2170 0F50                       u2410 0433                       u2330 0388  
                     u1610 061F                       u1530 0571                       u2250 0FBE  
                     u2075 0ECC                       u1451 0DA1                       u2171 0F4F  
                     u2411 0432                       u2331 0387                       u1611 061E  
                     u1531 0570                       u2251 0FBD                       u1460 0DA9  
                     u2340 038E                       u1620 0628                       u1540 0576  
                     u2260 0FC5                       u1461 0DA8                       u2165 0F42  
                     u2341 038D                       u1701 0681                       u1621 0626  
                     u1541 0575                       u2261 0FC4                       u2245 0FA3  
                     u1470 0DB0                       u2190 0F61                       u2510 049B  
                     u2350 0393                       u1710 0693                       u1702 0688  
                     u1630 0629                       u1550 0594                       u2095 0EDD  
                     u1471 0DAF                       u2191 0F60                       u2511 049A  
                     u2351 0392                       u1711 0692                       u1703 068F  
                     u1615 061B                       u1551 0593                       u1480 0DB7  
                     u2600 0513                       u2440 0449                       u2360 03B5  
                     u1800 0744                       u1720 0697                       u1640 063F  
                     u1560 059F                       u2280 0FD7                       u1481 0DB6  
                     u2185 0F51                       u2601 0512                       u2505 0490  
                     u2441 0448                       u2425 0435                       u2361 03B4  
                     u1801 0743                       u1721 0696                       u1641 063E  
                     u1561 059E                       u2281 0FD6                       u1490 0DBE  
                     u2610 0530                       u2530 04AF                       u2370 03BB  
                     u1730 06A8                       u1650 0650                       u1570 05A5  
                     u2290 0FDE                       u1491 0DBD                       u2195 0F5D  
                     u2611 052F                       u2531 04AE                       u2435 043E  
                     u2371 03BA                       u1731 06A7                       u1651 064F  
                     u1571 05A4                       u2291 0FDD                       u2275 0FC7  
                     u2620 0547                       u2540 04B4                       u2460 0465  
                     u2380 03C0                       u1900 079B                       u1820 075C  
                     u1580 05AA                       u2621 0546                       u2605 050F  
                     u2541 04B3                       u2525 049E                       u2461 0464  
                     u2381 03BF                       u1901 079A                       u1821 075B  
                     u1581 05A9                       u2550 04C8                       u2470 047A  
                     u2390 03DB                       u1910 07AC                       u1830 0761  
                     u1750 06CF                       u1670 0666                       u1590 05C3  
                     u2710 01D3                       u2630 015C                       u2615 052C  
                     u2551 04C7                       u2455 044C                       u2391 03DA  
                     u1831 0760                       u1815 0751                       u1751 06CE  
                     u1671 0665                       u1591 05C2                       u2711 01D2  
                     u2631 015B                       u2800 0DDD                       u2560 04CF  
                     u2480 0484                       u1920 07BB                       u1840 076B  
                     u1680 066A                       u2720 01D9                       u2640 0160  
                     u2561 04CE                       u2481 0483                       u2465 0461  
                     u1921 07BA                       u1841 076A                       u1761 06E8  
                     u1753 06CB                       u1745 06AD                       u1681 0669  
                     u1665 0655                       u2721 01D8                       u2705 01C8  
                     u2641 015F                       u2810 0DFF                       u2570 04D5  
                     u2490 048C                       u1930 07C4                       u1850 0771  
                     u1770 06FC                       u1762 06E9                       u1690 066F  
                     u2730 01DD                       u2650 0180                       u2571 04D4  
                     u2491 048B                       u2475 046D                       u1931 07C3  
                     u1915 07A7                       u1851 0770                       u1771 06FD  
                     u1763 06EE                       u1691 066E                       u2731 01DC  
                     u2651 017F                       u2820 0E11                       u2580 04E7  
                     u2476 046E                       u1940 07C9                       u1860 0776  
                     u1780 071A                       u1772 0702                       u1764 06EF  
                     u2740 01F2                       u2821 0E10                       u2581 04E6  
                     u2477 0473                       u1941 07C8                       u1861 0775  
                     u1781 0719                       u1773 0703                       u1765 06F4  
                     u2830 0D14                       u2590 04F6                       u2478 0474  
                     u1950 07D6                       u1870 077C                       u1790 073F  
                     u1766 06F5                       u2750 0202                       u2670 01A1  
                     u2831 0D13                       u2479 0479                       u1951 07D5  
                     u1871 077B                       u1791 073E                       u2751 0201  
                     u2671 01A0                       u1960 07DB                       u1880 0783  
                     u2760 0206                       u2840 0243                       u1961 07DA  
                     u1881 0782                       u2761 0205                       u2745 01ED  
                     u2665 0193                       u2770 0D38                       u1970 07F0  
                     u1890 0789                       u2690 01C3                       u2850 0368  
                     u2907 0C64                       u2595 04F1                       u1971 07EF  
                     u1891 0788                       u2691 01C2                       u2851 0367  
                     _PEIE 005E                       u1980 0009                       u2780 0C71  
                     u2860 0370                       u1981 0008                       u2917 0E16  
                     u2781 0C70                       u2685 01B5                       u2861 036F  
                     u1990 000F                       u2790 0C7F                       u2775 0D33  
                     u1991 000E                       u2927 0E24                       u2791 0C7E  
                     u2937 0E31                       u2947 0C98                       u2957 0CA4  
                     u2877 026F                       u2887 0332                       u2897 035D  
                     _HUMO 005E               __CFG_WRT$OFF 0000          ?_Lcd_Write_String 0073  
                     _main 0210                       btemp 007E                       start 0000  
       ??_Lcd_Write_String 0075              __CFG_IESO$OFF 0000            ___fldiv@new_exp 0025  
          __end_of_Lcd_Cmd 0CAA          ___bmul@multiplier 0073           ?_I2C_Master_Init 0020  
         ?_I2C_Master_Read 0070           ?_I2C_Master_Wait 0070           ?_I2C_Master_Stop 0070  
                    b0@bb0 0044                      b0@bb1 0043                      b0@bb2 0042  
                    b1@bb1 0043                      b1@bb2 0042              ___fltol@sign1 0039  
                    b2@bb2 0040            __end_of___fladd 07F2                      ?_main 0070  
          __end_of___fldiv 055A            __end_of___awdiv 0F84              __CFG_WDTE$OFF 0000  
          __end_of___flsub 0CCE            __end_of___fltol 1000                      _ANSEL 0188  
          __end_of___lldiv 0F1D            ___awdiv@divisor 0070            ___awdiv@counter 0075  
                    _SISMO 005F    __size_of_Lcd_Set_Cursor 001C                      _TRISA 0085  
                    _TRISB 0086                      _TRISC 0087                      _TRISD 0088  
                    _SSPIE 0463                      _SSPIF 0063             __CFG_FCMEN$OFF 0000  
           __CFG_BOREN$OFF 0000                      pclath 000A                      status 0003  
                    wtemp0 007E           __end_of_Lcd_Init 0E59           __end_of_Lcd_Port 0DD0  
           __CFG_MCLRE$OFF 0000            __initialization 07F2               __end_of_main 0377  
                   ??_main 0047          ?_I2C_Master_Start 0070          ?_I2C_Master_Write 0070  
       ??_I2C_Master_Start 0070         ??_I2C_Master_Write 0072           ___awdiv@dividend 0072  
                   _ANSELH 0189                  ??_Lcd_Cmd 0071    __size_of_Lcd_Write_Char 0016  
                   _SSPADD 0093                     _TRISC3 043B                     _TRISC4 043C  
                   _SSPCON 0014                     _SSPBUF 0013           __end_of___xxtofl 0210  
           __CFG_PWRTE$OFF 0000                     ___bmul 0C40                  ??___fladd 0020  
                   ___wmul 0CCE                  ??___fldiv 0078                  ??___awdiv 0074  
                ??___flsub 007E                  ??___fltol 0034                  ??___lldiv 0078  
         ___awdiv@quotient 0077                     main@s3 004C           __end_of_num_case 0EB7  
          Lcd_Set_Cursor@a 0075            Lcd_Set_Cursor@b 0074               ___xxtofl@arg 0022  
             ___xxtofl@exp 0021               ___xxtofl@val 0076    __end_of__initialization 07FC  
               ___fltol@f1 0030        ___bmul@multiplicand 0070             __pcstackCOMMON 0070  
               __end_of_b0 0154                 __end_of_b1 00AA                 __end_of_b2 0D92  
           _Lcd_Set_Cursor 0C6B                  ?_Lcd_Init 0070                  ?_Lcd_Port 0070  
               __pbssBANK0 0059                 __pmaintext 0210                    ?___bmul 0070  
                  ?___wmul 0070                    b0@local 0046  __size_of_Lcd_Write_String 0042  
                  b1@local 0044     __end_of_Lcd_Set_Cursor 0C87                  ?___xxtofl 0076  
               ??_Lcd_Init 0074                 ??_Lcd_Port 0070                    _SSPCON2 0091  
                  _SSPSTAT 0094                 __stringtab 0800             _Lcd_Write_Char 0C55  
                  _Lcd_Cmd 0C87                  ?_num_case 0070            __size_of___bmul 0015  
                  ___fladd 055A                    ___fldiv 0377                    ___awdiv 0F1D  
                  ___flsub 0CAA                    ___fltol 0F84                    ___lldiv 0EB7  
          __size_of___wmul 0025            ?_Lcd_Set_Cursor 0074                    __ptext1 0D59  
                  __ptext2 0010                    __ptext3 00AA                    __ptext4 0E59  
                  __ptext5 0154                    __ptext6 0CCE                    __ptext7 0F84  
                  __ptext8 0CAA                    __ptext9 055A                 ??___xxtofl 007A  
 __size_of_I2C_Master_Init 0038   __size_of_I2C_Master_Read 002E   __size_of_I2C_Master_Wait 000D  
 __size_of_I2C_Master_Stop 0009     __end_of_Lcd_Write_Char 0C6B       end_of_initialization 07FC  
              num_case@num 0072  __size_of_I2C_Master_Start 0009  __size_of_I2C_Master_Write 000A  
          ___lldiv@divisor 0070            ___lldiv@counter 007D                 ??_num_case 0070  
         I2C_Master_Init@c 0020           I2C_Master_Read@a 0070                  Lcd_Port@a 0070  
              ___fladd@grs 007B              ___xxtofl@sign 0020                  _TRISCbits 0087  
              ___fldiv@grs 0027                ___fldiv@rem 0020            ?_Lcd_Write_Char 0070  
        Lcd_Write_String@a 0073          Lcd_Write_String@i 0078             __end_of___bmul 0C55  
           __end_of___wmul 0CF3           _Lcd_Write_String 0DD0        start_initialization 07F2  
        __size_of_Lcd_Init 0047          __size_of_Lcd_Port 003E          ??_I2C_Master_Init 0024  
        ??_I2C_Master_Read 0072          ??_I2C_Master_Wait 0070          ??_I2C_Master_Stop 0070  
 __CFG_FOSC$INTRC_NOCLKOUT 0000                   ??___bmul 0071                   ??___wmul 0074  
          Lcd_Write_Char@a 0072                  ___fladd@a 0074                  ___fladd@b 0070  
                ___fldiv@a 0070                  ___fldiv@b 0074                  ___flsub@a 0028  
                ___flsub@b 002C                  ___latbits 0002              __pcstackBANK0 0020  
        __size_of___xxtofl 00BC                   ?_Lcd_Cmd 0070           _I2C_Master_Start 0C24  
         _I2C_Master_Write 0C36           ??_Lcd_Set_Cursor 0075                   ?___fladd 0070  
                 ?___fldiv 0070                   ?___awdiv 0070                   ?___flsub 0028  
                 ?___fltol 0030                   ?___lldiv 0070          __size_of_num_case 005E  
                __pstrings 0800                __size_of_b0 00AA                __size_of_b1 009A  
              __size_of_b2 0039             ___wmul@product 0074                   Lcd_Cmd@a 0073  
                main@F1510 0059                __stringbase 080F          ___wmul@multiplier 0070  
         ??_Lcd_Write_Char 0071                   _Lcd_Init 0E12                   _Lcd_Port 0D92  
      I2C_Master_Read@temp 0074   __end_of_Lcd_Write_String 0E12           __size_of_Lcd_Cmd 0023  
         __size_of___fladd 0298           __size_of___fldiv 01E3           __size_of___awdiv 0067  
         __size_of___flsub 0024           __size_of___fltol 007C           __size_of___lldiv 0066  
       __end_of__stringtab 0810            _I2C_Master_Init 0D21            _I2C_Master_Read 0CF3  
                 ___xxtofl 0154            _I2C_Master_Wait 0003            _I2C_Master_Stop 0C2D  
                 _main$861 0051                   _main$862 0055                   __ptext10 0377  
                 __ptext11 0C40                   __ptext20 0C2D                   __ptext12 0F1D  
                 __ptext21 0C24                   __ptext13 0DD0                   __ptext22 0CF3  
                 __ptext14 0C55                   __ptext23 0003                   __ptext15 0C6B  
                 __ptext24 0D21                   __ptext16 0E12                   __ptext25 0EB7  
                 __ptext17 0C87                   __ptext18 0D92                   __ptext19 0C36  
        __CFG_BOR4V$BOR40V 0000              __size_of_main 0167                  num_case@r 0073  
                 _num_case 0E59                _TEMPERATURA 0060   __end_of_I2C_Master_Start 0C2D  
 __end_of_I2C_Master_Write 0C40           ___lldiv@dividend 0074                  stringcode 080A  
  __end_of_I2C_Master_Init 0D59    __end_of_I2C_Master_Read 0D21    __end_of_I2C_Master_Wait 0010  
  __end_of_I2C_Master_Stop 0C36           ___lldiv@quotient 0079          I2C_Master_Write@d 0070  
                 stringdir 080A                   stringtab 0800                _SSPCON2bits 0091  
            ___fladd@signs 0078               ___fladd@aexp 0079               ___fladd@bexp 007A  
