

Microchip MPLAB XC8 Assembler V2.10 build 88905656 
                                                                                               Wed Feb 26 17:16:01 2020

Microchip MPLAB XC8 C Compiler v2.10 (Free license) build 20190730164152 Og1 
     1                           	processor	16F887
     2                           	opt	pw 120
     3                           	opt	flic
     4                           	psect	strings,global,class=STRING,delta=2
     5                           	psect	cinit,global,class=CODE,merge=1,delta=2
     6                           	psect	bssCOMMON,global,class=COMMON,space=1,delta=1
     7                           	psect	bssBANK1,global,class=BANK1,space=1,delta=1
     8                           	psect	cstackBANK1,global,class=BANK1,space=1,delta=1
     9                           	psect	cstackCOMMON,global,class=COMMON,space=1,delta=1
    10                           	psect	cstackBANK0,global,class=BANK0,space=1,delta=1
    11                           	psect	maintext,global,class=CODE,split=1,delta=2
    12                           	psect	text1,local,class=CODE,merge=1,delta=2
    13                           	psect	text2,local,class=CODE,merge=1,delta=2
    14                           	psect	text3,local,class=CODE,merge=1,delta=2
    15                           	psect	text4,local,class=CODE,merge=1,delta=2
    16                           	psect	text5,local,class=CODE,merge=1,delta=2,group=1
    17                           	psect	text6,local,class=CODE,merge=1,delta=2,group=1
    18                           	psect	text7,local,class=CODE,merge=1,delta=2,group=1
    19                           	psect	text8,local,class=CODE,merge=1,delta=2,group=1
    20                           	psect	text9,local,class=CODE,merge=1,delta=2,group=1
    21                           	psect	text10,local,class=CODE,merge=1,delta=2,group=1
    22                           	psect	text11,local,class=CODE,merge=1,delta=2,group=1
    23                           	psect	text12,local,class=CODE,merge=1,delta=2,group=1
    24                           	psect	text13,local,class=CODE,merge=1,delta=2,group=1
    25                           	psect	text14,local,class=CODE,merge=1,delta=2,group=1
    26                           	psect	text15,local,class=CODE,merge=1,delta=2
    27                           	psect	text16,local,class=CODE,merge=1,delta=2
    28                           	psect	text17,local,class=CODE,merge=1,delta=2
    29                           	psect	text18,local,class=CODE,merge=1,delta=2
    30                           	psect	text19,local,class=CODE,merge=1,delta=2
    31                           	psect	text20,local,class=CODE,merge=1,delta=2
    32                           	psect	text21,local,class=CODE,merge=1,delta=2
    33                           	psect	text22,local,class=CODE,merge=1,delta=2
    34                           	psect	text23,local,class=CODE,merge=1,delta=2
    35                           	psect	intentry,global,class=CODE,delta=2
    36                           	dabs	1,0x7E,2
    37  0000                     
    38                           ; Version 2.10
    39                           ; Generated 31/07/2019 GMT
    40                           ; 
    41                           ; Copyright © 2019, Microchip Technology Inc. and its subsidiaries ("Microchip")
    42                           ; All rights reserved.
    43                           ; 
    44                           ; This software is developed by Microchip Technology Inc. and its subsidiaries ("Microch
      +                          ip").
    45                           ; 
    46                           ; Redistribution and use in source and binary forms, with or without modification, are
    47                           ; permitted provided that the following conditions are met:
    48                           ; 
    49                           ;     1. Redistributions of source code must retain the above copyright notice, this lis
      +                          t of
    50                           ;        conditions and the following disclaimer.
    51                           ; 
    52                           ;     2. Redistributions in binary form must reproduce the above copyright notice, this 
      +                          list
    53                           ;        of conditions and the following disclaimer in the documentation and/or other
    54                           ;        materials provided with the distribution.
    55                           ; 
    56                           ;     3. Microchip's name may not be used to endorse or promote products derived from th
      +                          is
    57                           ;        software without specific prior written permission.
    58                           ; 
    59                           ; THIS SOFTWARE IS PROVIDED BY MICROCHIP "AS IS" AND ANY EXPRESS OR IMPLIED WARRANTIES,
    60                           ; INCLUDING, BUT NOT LIMITED TO, THE IMPLIED WARRANTIES OF MERCHANTABILITY AND FITNESS F
      +                          OR
    61                           ; PURPOSE ARE DISCLAIMED.  IN NO EVENT SHALL MICROCHIP BE LIABLE FOR ANY DIRECT, INDIREC
      +                          T,
    62                           ; INCIDENTAL, SPECIAL, EXEMPLARY, OR CONSEQUENTIAL DAMAGES (INCLUDING BUT NOT LIMITED TO
    63                           ; PROCUREMENT OF SUBSTITUTE GOODS OR SERVICES; LOSS OF USE, DATA OR PROFITS; OR BUSINESS
    64                           ; INTERRUPTION) HOWSOEVER CAUSED AND ON ANY THEORY OF LIABILITY, WHETHER IN CONTRACT, ST
      +                          RICT
    65                           ; LIABILITY, OR TORT (INCLUDING NEGLIGENCE OR OTHERWISE) ARISING IN ANY WAY OUT OF THE U
      +                          SE OF
    66                           ; THIS SOFTWARE, EVEN IF ADVISED OF THE POSSIBILITY OF SUCH DAMAGE.
    67                           ; 
    68                           ; 
    69                           ; Code-generator required, PIC16F887 Definitions
    70                           ; 
    71                           ; SFR Addresses
    72  0000                     	;# 
    73  0001                     	;# 
    74  0002                     	;# 
    75  0003                     	;# 
    76  0004                     	;# 
    77  0005                     	;# 
    78  0006                     	;# 
    79  0007                     	;# 
    80  0008                     	;# 
    81  0009                     	;# 
    82  000A                     	;# 
    83  000B                     	;# 
    84  000C                     	;# 
    85  000D                     	;# 
    86  000E                     	;# 
    87  000E                     	;# 
    88  000F                     	;# 
    89  0010                     	;# 
    90  0011                     	;# 
    91  0012                     	;# 
    92  0013                     	;# 
    93  0014                     	;# 
    94  0015                     	;# 
    95  0015                     	;# 
    96  0016                     	;# 
    97  0017                     	;# 
    98  0018                     	;# 
    99  0019                     	;# 
   100  001A                     	;# 
   101  001B                     	;# 
   102  001B                     	;# 
   103  001C                     	;# 
   104  001D                     	;# 
   105  001E                     	;# 
   106  001F                     	;# 
   107  0081                     	;# 
   108  0085                     	;# 
   109  0086                     	;# 
   110  0087                     	;# 
   111  0088                     	;# 
   112  0089                     	;# 
   113  008C                     	;# 
   114  008D                     	;# 
   115  008E                     	;# 
   116  008F                     	;# 
   117  0090                     	;# 
   118  0091                     	;# 
   119  0092                     	;# 
   120  0093                     	;# 
   121  0093                     	;# 
   122  0093                     	;# 
   123  0094                     	;# 
   124  0095                     	;# 
   125  0096                     	;# 
   126  0097                     	;# 
   127  0098                     	;# 
   128  0099                     	;# 
   129  009A                     	;# 
   130  009B                     	;# 
   131  009C                     	;# 
   132  009D                     	;# 
   133  009E                     	;# 
   134  009F                     	;# 
   135  0105                     	;# 
   136  0107                     	;# 
   137  0108                     	;# 
   138  0109                     	;# 
   139  010C                     	;# 
   140  010C                     	;# 
   141  010D                     	;# 
   142  010E                     	;# 
   143  010F                     	;# 
   144  0185                     	;# 
   145  0187                     	;# 
   146  0188                     	;# 
   147  0189                     	;# 
   148  018C                     	;# 
   149  018D                     	;# 
   150  0000                     	;# 
   151  0001                     	;# 
   152  0002                     	;# 
   153  0003                     	;# 
   154  0004                     	;# 
   155  0005                     	;# 
   156  0006                     	;# 
   157  0007                     	;# 
   158  0008                     	;# 
   159  0009                     	;# 
   160  000A                     	;# 
   161  000B                     	;# 
   162  000C                     	;# 
   163  000D                     	;# 
   164  000E                     	;# 
   165  000E                     	;# 
   166  000F                     	;# 
   167  0010                     	;# 
   168  0011                     	;# 
   169  0012                     	;# 
   170  0013                     	;# 
   171  0014                     	;# 
   172  0015                     	;# 
   173  0015                     	;# 
   174  0016                     	;# 
   175  0017                     	;# 
   176  0018                     	;# 
   177  0019                     	;# 
   178  001A                     	;# 
   179  001B                     	;# 
   180  001B                     	;# 
   181  001C                     	;# 
   182  001D                     	;# 
   183  001E                     	;# 
   184  001F                     	;# 
   185  0081                     	;# 
   186  0085                     	;# 
   187  0086                     	;# 
   188  0087                     	;# 
   189  0088                     	;# 
   190  0089                     	;# 
   191  008C                     	;# 
   192  008D                     	;# 
   193  008E                     	;# 
   194  008F                     	;# 
   195  0090                     	;# 
   196  0091                     	;# 
   197  0092                     	;# 
   198  0093                     	;# 
   199  0093                     	;# 
   200  0093                     	;# 
   201  0094                     	;# 
   202  0095                     	;# 
   203  0096                     	;# 
   204  0097                     	;# 
   205  0098                     	;# 
   206  0099                     	;# 
   207  009A                     	;# 
   208  009B                     	;# 
   209  009C                     	;# 
   210  009D                     	;# 
   211  009E                     	;# 
   212  009F                     	;# 
   213  0105                     	;# 
   214  0107                     	;# 
   215  0108                     	;# 
   216  0109                     	;# 
   217  010C                     	;# 
   218  010C                     	;# 
   219  010D                     	;# 
   220  010E                     	;# 
   221  010F                     	;# 
   222  0185                     	;# 
   223  0187                     	;# 
   224  0188                     	;# 
   225  0189                     	;# 
   226  018C                     	;# 
   227  018D                     	;# 
   228  0000                     	;# 
   229  0001                     	;# 
   230  0002                     	;# 
   231  0003                     	;# 
   232  0004                     	;# 
   233  0005                     	;# 
   234  0006                     	;# 
   235  0007                     	;# 
   236  0008                     	;# 
   237  0009                     	;# 
   238  000A                     	;# 
   239  000B                     	;# 
   240  000C                     	;# 
   241  000D                     	;# 
   242  000E                     	;# 
   243  000E                     	;# 
   244  000F                     	;# 
   245  0010                     	;# 
   246  0011                     	;# 
   247  0012                     	;# 
   248  0013                     	;# 
   249  0014                     	;# 
   250  0015                     	;# 
   251  0015                     	;# 
   252  0016                     	;# 
   253  0017                     	;# 
   254  0018                     	;# 
   255  0019                     	;# 
   256  001A                     	;# 
   257  001B                     	;# 
   258  001B                     	;# 
   259  001C                     	;# 
   260  001D                     	;# 
   261  001E                     	;# 
   262  001F                     	;# 
   263  0081                     	;# 
   264  0085                     	;# 
   265  0086                     	;# 
   266  0087                     	;# 
   267  0088                     	;# 
   268  0089                     	;# 
   269  008C                     	;# 
   270  008D                     	;# 
   271  008E                     	;# 
   272  008F                     	;# 
   273  0090                     	;# 
   274  0091                     	;# 
   275  0092                     	;# 
   276  0093                     	;# 
   277  0093                     	;# 
   278  0093                     	;# 
   279  0094                     	;# 
   280  0095                     	;# 
   281  0096                     	;# 
   282  0097                     	;# 
   283  0098                     	;# 
   284  0099                     	;# 
   285  009A                     	;# 
   286  009B                     	;# 
   287  009C                     	;# 
   288  009D                     	;# 
   289  009E                     	;# 
   290  009F                     	;# 
   291  0105                     	;# 
   292  0107                     	;# 
   293  0108                     	;# 
   294  0109                     	;# 
   295  010C                     	;# 
   296  010C                     	;# 
   297  010D                     	;# 
   298  010E                     	;# 
   299  010F                     	;# 
   300  0185                     	;# 
   301  0187                     	;# 
   302  0188                     	;# 
   303  0189                     	;# 
   304  018C                     	;# 
   305  018D                     	;# 
   306  0000                     	;# 
   307  0001                     	;# 
   308  0002                     	;# 
   309  0003                     	;# 
   310  0004                     	;# 
   311  0005                     	;# 
   312  0006                     	;# 
   313  0007                     	;# 
   314  0008                     	;# 
   315  0009                     	;# 
   316  000A                     	;# 
   317  000B                     	;# 
   318  000C                     	;# 
   319  000D                     	;# 
   320  000E                     	;# 
   321  000E                     	;# 
   322  000F                     	;# 
   323  0010                     	;# 
   324  0011                     	;# 
   325  0012                     	;# 
   326  0013                     	;# 
   327  0014                     	;# 
   328  0015                     	;# 
   329  0015                     	;# 
   330  0016                     	;# 
   331  0017                     	;# 
   332  0018                     	;# 
   333  0019                     	;# 
   334  001A                     	;# 
   335  001B                     	;# 
   336  001B                     	;# 
   337  001C                     	;# 
   338  001D                     	;# 
   339  001E                     	;# 
   340  001F                     	;# 
   341  0081                     	;# 
   342  0085                     	;# 
   343  0086                     	;# 
   344  0087                     	;# 
   345  0088                     	;# 
   346  0089                     	;# 
   347  008C                     	;# 
   348  008D                     	;# 
   349  008E                     	;# 
   350  008F                     	;# 
   351  0090                     	;# 
   352  0091                     	;# 
   353  0092                     	;# 
   354  0093                     	;# 
   355  0093                     	;# 
   356  0093                     	;# 
   357  0094                     	;# 
   358  0095                     	;# 
   359  0096                     	;# 
   360  0097                     	;# 
   361  0098                     	;# 
   362  0099                     	;# 
   363  009A                     	;# 
   364  009B                     	;# 
   365  009C                     	;# 
   366  009D                     	;# 
   367  009E                     	;# 
   368  009F                     	;# 
   369  0105                     	;# 
   370  0107                     	;# 
   371  0108                     	;# 
   372  0109                     	;# 
   373  010C                     	;# 
   374  010C                     	;# 
   375  010D                     	;# 
   376  010E                     	;# 
   377  010F                     	;# 
   378  0185                     	;# 
   379  0187                     	;# 
   380  0188                     	;# 
   381  0189                     	;# 
   382  018C                     	;# 
   383  018D                     	;# 
   384  000B                     _INTCONbits	set	11
   385  0006                     _PORTBbits	set	6
   386  001F                     _ADCON0bits	set	31
   387  001E                     _ADRESH	set	30
   388  000C                     _PIR1bits	set	12
   389  0038                     _RC0	set	56
   390  0039                     _RC1	set	57
   391  002F                     _RA7	set	47
   392  002E                     _RA6	set	46
   393  002D                     _RA5	set	45
   394  002C                     _RA4	set	44
   395  002B                     _RA3	set	43
   396  002A                     _RA2	set	42
   397  0029                     _RA1	set	41
   398  0028                     _RA0	set	40
   399  0043                     _RD3	set	67
   400  0041                     _RD1	set	65
   401  0040                     _RD0	set	64
   402  0066                     _ADIF	set	102
   403  008C                     _PIE1bits	set	140
   404  0086                     _TRISBbits	set	134
   405  0089                     _TRISEbits	set	137
   406  0085                     _TRISAbits	set	133
   407  009F                     _ADCON1bits	set	159
   408  0088                     _TRISD	set	136
   409  0086                     _TRISB	set	134
   410  0087                     _TRISC	set	135
   411  0085                     _TRISA	set	133
   412  0189                     _ANSELHbits	set	393
   413  0188                     _ANSELbits	set	392
   414  0189                     _ANSELH	set	393
   415  0188                     _ANSEL	set	392
   416                           
   417                           	psect	strings
   418  1000                     __pstrings:	
   419  1000                     stringtab:	
   420  1000                     __stringtab:	
   421                           
   422                           ;	String table - string pointers are 1 byte each
   423  1000  1BFF               	btfsc	btemp+1,7
   424  1001  280A               	ljmp	stringcode
   425  1002  1383               	bcf	3,7
   426  1003  187F               	btfsc	btemp+1,0
   427  1004  1783               	bsf	3,7
   428  1005  0800               	movf	0,w
   429  1006  0A84               	incf	4,f
   430  1007  1903               	skipnz
   431  1008  0AFF               	incf	btemp+1,f
   432  1009  0008               	return
   433  100A                     stringcode:	
   434  100A                     stringdir:	
   435  100A  3010               	movlw	high stringdir
   436  100B  008A               	movwf	10
   437  100C  0804               	movf	4,w
   438  100D  0A84               	incf	4,f
   439  100E  0782               	addwf	2,f
   440  100F                     __stringbase:	
   441  100F  3400               	retlw	0
   442  1010                     __end_of__stringtab:	
   443  1010                     STR_1:	
   444  1010  3454               	retlw	84	;'T'
   445  1011  3465               	retlw	101	;'e'
   446  1012  346D               	retlw	109	;'m'
   447  1013  3470               	retlw	112	;'p'
   448  1014  343A               	retlw	58	;':'
   449  1015  3400               	retlw	0
   450  1016                     STR_2:	
   451  1016  3453               	retlw	83	;'S'
   452  1017  3432               	retlw	50	;'2'
   453  1018  343A               	retlw	58	;':'
   454  1019  3400               	retlw	0
   455  101A                     STR_3:	
   456  101A  3453               	retlw	83	;'S'
   457  101B  3433               	retlw	51	;'3'
   458  101C  343A               	retlw	58	;':'
   459  101D  3400               	retlw	0
   460                           
   461                           ; #config settings
   462  0000                     
   463                           	psect	cinit
   464  000F                     start_initialization:	
   465  000F                     __initialization:	
   466                           
   467                           ; Clear objects allocated to COMMON
   468  000F  01F9               	clrf	__pbssCOMMON& (0+127)
   469  0010  01FA               	clrf	(__pbssCOMMON+1)& (0+127)
   470                           
   471                           ; Clear objects allocated to BANK1
   472  0011  1683               	bsf	3,5	;RP0=1, select bank1
   473  0012  1303               	bcf	3,6	;RP1=0, select bank1
   474  0013  01C9               	clrf	__pbssBANK1& (0+127)
   475  0014  01CA               	clrf	(__pbssBANK1+1)& (0+127)
   476  0015  01CB               	clrf	(__pbssBANK1+2)& (0+127)
   477  0016  01CC               	clrf	(__pbssBANK1+3)& (0+127)
   478  0017  01CD               	clrf	(__pbssBANK1+4)& (0+127)
   479  0018  01CE               	clrf	(__pbssBANK1+5)& (0+127)
   480  0019                     end_of_initialization:	
   481                           ;End of C runtime variable initialization code
   482                           
   483  0019                     __end_of__initialization:	
   484  0019  0183               	clrf	3
   485  001A  120A  158A  2DB1   	ljmp	_main	;jump to C main() function
   486                           
   487                           	psect	bssCOMMON
   488  0079                     __pbssCOMMON:	
   489  0079                     _min:	
   490  0079                     	ds	1
   491  007A                     _adc:	
   492  007A                     	ds	1
   493                           
   494                           	psect	bssBANK1
   495  00C9                     __pbssBANK1:	
   496  00C9                     main@F1514:	
   497  00C9                     	ds	5
   498  00CE                     _adc1:	
   499  00CE                     	ds	1
   500                           
   501                           	psect	cstackBANK1
   502  00A0                     __pcstackBANK1:	
   503  00A0                     ?_b0:	
   504  00A0                     ?_b1:	
   505                           ; 1 bytes @ 0x0
   506                           
   507  00A0                     ?_b2:	
   508                           ; 1 bytes @ 0x0
   509                           
   510  00A0                     b2@m:	
   511                           ; 1 bytes @ 0x0
   512                           
   513  00A0                     b1@m:	
   514                           ; 4 bytes @ 0x0
   515                           
   516  00A0                     b0@m:	
   517                           ; 4 bytes @ 0x0
   518                           
   519                           
   520                           ; 4 bytes @ 0x0
   521  00A0                     	ds	4
   522  00A4                     ??_b0:	
   523  00A4                     ??_b1:	
   524                           ; 1 bytes @ 0x4
   525                           
   526  00A4                     b2@bb2:	
   527                           ; 1 bytes @ 0x4
   528                           
   529                           
   530                           ; 1 bytes @ 0x4
   531  00A4                     	ds	1
   532  00A5                     b2@p2:	
   533                           
   534                           ; 1 bytes @ 0x5
   535  00A5                     	ds	2
   536  00A7                     b1@bb2:	
   537  00A7                     b0@bb2:	
   538                           ; 1 bytes @ 0x7
   539                           
   540                           
   541                           ; 1 bytes @ 0x7
   542  00A7                     	ds	1
   543  00A8                     b1@bb1:	
   544  00A8                     b0@bb1:	
   545                           ; 1 bytes @ 0x8
   546                           
   547                           
   548                           ; 1 bytes @ 0x8
   549  00A8                     	ds	1
   550  00A9                     b1@local:	
   551  00A9                     b0@bb0:	
   552                           ; 1 bytes @ 0x9
   553                           
   554                           
   555                           ; 1 bytes @ 0x9
   556  00A9                     	ds	1
   557  00AA                     b1@p1:	
   558  00AA                     b0@p0:	
   559                           ; 1 bytes @ 0xA
   560                           
   561                           
   562                           ; 1 bytes @ 0xA
   563  00AA                     	ds	1
   564  00AB                     b0@local:	
   565                           
   566                           ; 1 bytes @ 0xB
   567  00AB                     	ds	1
   568  00AC                     ??_main:	
   569                           
   570                           ; 1 bytes @ 0xC
   571  00AC                     	ds	7
   572  00B3                     main@s1:	
   573                           
   574                           ; 5 bytes @ 0x13
   575  00B3                     	ds	5
   576  00B8                     _main$1121:	
   577                           
   578                           ; 4 bytes @ 0x18
   579  00B8                     	ds	4
   580  00BC                     _main$1122:	
   581                           
   582                           ; 4 bytes @ 0x1C
   583  00BC                     	ds	4
   584  00C0                     _main$1123:	
   585                           
   586                           ; 4 bytes @ 0x20
   587  00C0                     	ds	4
   588  00C4                     main@TEMPC:	
   589                           
   590                           ; 1 bytes @ 0x24
   591  00C4                     	ds	1
   592  00C5                     main@TEMPD:	
   593                           
   594                           ; 1 bytes @ 0x25
   595  00C5                     	ds	1
   596  00C6                     main@TEMPA:	
   597                           
   598                           ; 1 bytes @ 0x26
   599  00C6                     	ds	1
   600  00C7                     main@TEMPB:	
   601                           
   602                           ; 1 bytes @ 0x27
   603  00C7                     	ds	1
   604  00C8                     main@TEMP:	
   605                           
   606                           ; 1 bytes @ 0x28
   607  00C8                     	ds	1
   608                           
   609                           	psect	cstackCOMMON
   610  0070                     __pcstackCOMMON:	
   611  0070                     ?_ADC_INTERRUPT:	
   612  0070                     ?_Lcd_Init:	
   613                           ; 1 bytes @ 0x0
   614                           
   615  0070                     ?_ISR:	
   616                           ; 1 bytes @ 0x0
   617                           
   618  0070                     ??_ISR:	
   619                           ; 1 bytes @ 0x0
   620                           
   621  0070                     ?_main:	
   622                           ; 1 bytes @ 0x0
   623                           
   624  0070                     ?_num_case:	
   625                           ; 1 bytes @ 0x0
   626                           
   627  0070                     ?_Lcd_Port:	
   628                           ; 1 bytes @ 0x0
   629                           
   630  0070                     ?_Lcd_Cmd:	
   631                           ; 1 bytes @ 0x0
   632                           
   633  0070                     ?_Lcd_Write_Char:	
   634                           ; 1 bytes @ 0x0
   635                           
   636                           
   637                           ; 1 bytes @ 0x0
   638  0070                     	ds	3
   639  0073                     ?_ADC_CONFIG:	
   640  0073                     ??_ADC_INTERRUPT:	
   641                           ; 1 bytes @ 0x3
   642                           
   643  0073                     ??_num_case:	
   644                           ; 1 bytes @ 0x3
   645                           
   646  0073                     ??_Lcd_Port:	
   647                           ; 1 bytes @ 0x3
   648                           
   649  0073                     ?___bmul:	
   650                           ; 1 bytes @ 0x3
   651                           
   652  0073                     ??___fldiv:	
   653                           ; 1 bytes @ 0x3
   654                           
   655  0073                     ?__Umul8_16:	
   656                           ; 1 bytes @ 0x3
   657                           
   658  0073                     ?___wmul:	
   659                           ; 2 bytes @ 0x3
   660                           
   661  0073                     ?___awdiv:	
   662                           ; 2 bytes @ 0x3
   663                           
   664  0073                     ADC_CONFIG@justif:	
   665                           ; 2 bytes @ 0x3
   666                           
   667  0073                     Lcd_Port@a:	
   668                           ; 1 bytes @ 0x3
   669                           
   670  0073                     ___bmul@multiplicand:	
   671                           ; 1 bytes @ 0x3
   672                           
   673  0073                     __Umul8_16@multiplicand:	
   674                           ; 1 bytes @ 0x3
   675                           
   676  0073                     ___wmul@multiplier:	
   677                           ; 1 bytes @ 0x3
   678                           
   679  0073                     ___awdiv@divisor:	
   680                           ; 2 bytes @ 0x3
   681                           
   682                           
   683                           ; 2 bytes @ 0x3
   684  0073                     	ds	1
   685  0074                     ??_ADC_CONFIG:	
   686  0074                     ??_Lcd_Cmd:	
   687                           ; 1 bytes @ 0x4
   688                           
   689  0074                     ??_Lcd_Write_Char:	
   690                           ; 1 bytes @ 0x4
   691                           
   692  0074                     ??___bmul:	
   693                           ; 1 bytes @ 0x4
   694                           
   695                           
   696                           ; 1 bytes @ 0x4
   697  0074                     	ds	1
   698  0075                     ??__Umul8_16:	
   699  0075                     num_case@num:	
   700                           ; 1 bytes @ 0x5
   701                           
   702  0075                     Lcd_Write_Char@a:	
   703                           ; 1 bytes @ 0x5
   704                           
   705  0075                     ___bmul@product:	
   706                           ; 1 bytes @ 0x5
   707                           
   708  0075                     ___wmul@multiplicand:	
   709                           ; 1 bytes @ 0x5
   710                           
   711  0075                     ___awdiv@dividend:	
   712                           ; 2 bytes @ 0x5
   713                           
   714                           
   715                           ; 2 bytes @ 0x5
   716  0075                     	ds	1
   717  0076                     ?_Lcd_Write_String:	
   718  0076                     num_case@r:	
   719                           ; 1 bytes @ 0x6
   720                           
   721  0076                     ADC_CONFIG@canal:	
   722                           ; 1 bytes @ 0x6
   723                           
   724  0076                     Lcd_Cmd@a:	
   725                           ; 1 bytes @ 0x6
   726                           
   727  0076                     ___bmul@multiplier:	
   728                           ; 1 bytes @ 0x6
   729                           
   730  0076                     Lcd_Write_String@a:	
   731                           ; 1 bytes @ 0x6
   732                           
   733                           
   734                           ; 2 bytes @ 0x6
   735  0076                     	ds	1
   736  0077                     ??_Lcd_Init:	
   737  0077                     ?_Lcd_Set_Cursor:	
   738                           ; 1 bytes @ 0x7
   739                           
   740  0077                     ??___wmul:	
   741                           ; 1 bytes @ 0x7
   742                           
   743  0077                     ??___awdiv:	
   744                           ; 1 bytes @ 0x7
   745                           
   746  0077                     Lcd_Set_Cursor@b:	
   747                           ; 1 bytes @ 0x7
   748                           
   749  0077                     ___wmul@product:	
   750                           ; 1 bytes @ 0x7
   751                           
   752                           
   753                           ; 2 bytes @ 0x7
   754  0077                     	ds	1
   755  0078                     ??_Lcd_Set_Cursor:	
   756  0078                     Lcd_Set_Cursor@a:	
   757                           ; 1 bytes @ 0x8
   758                           
   759                           
   760                           ; 1 bytes @ 0x8
   761  0078                     	ds	1
   762  0079                     ??___flsub:	
   763                           
   764                           	psect	cstackBANK0
   765  0020                     __pcstackBANK0:	
   766                           ; 1 bytes @ 0x9
   767                           
   768  0020                     ??_Lcd_Write_String:	
   769  0020                     ?___fldiv:	
   770                           ; 1 bytes @ 0x0
   771                           
   772  0020                     ?___xxtofl:	
   773                           ; 4 bytes @ 0x0
   774                           
   775  0020                     ___awdiv@counter:	
   776                           ; 4 bytes @ 0x0
   777                           
   778  0020                     __Umul8_16@product:	
   779                           ; 1 bytes @ 0x0
   780                           
   781  0020                     ___fldiv@a:	
   782                           ; 2 bytes @ 0x0
   783                           
   784  0020                     ___xxtofl@val:	
   785                           ; 4 bytes @ 0x0
   786                           
   787                           
   788                           ; 4 bytes @ 0x0
   789  0020                     	ds	1
   790  0021                     ___awdiv@sign:	
   791                           
   792                           ; 1 bytes @ 0x1
   793  0021                     	ds	1
   794  0022                     ___awdiv@quotient:	
   795  0022                     __Umul8_16@word_mpld:	
   796                           ; 2 bytes @ 0x2
   797                           
   798                           
   799                           ; 2 bytes @ 0x2
   800  0022                     	ds	1
   801  0023                     Lcd_Write_String@i:	
   802                           
   803                           ; 2 bytes @ 0x3
   804  0023                     	ds	1
   805  0024                     ??___xxtofl:	
   806  0024                     __Umul8_16@multiplier:	
   807                           ; 1 bytes @ 0x4
   808                           
   809  0024                     ___fldiv@b:	
   810                           ; 1 bytes @ 0x4
   811                           
   812                           
   813                           ; 4 bytes @ 0x4
   814  0024                     	ds	4
   815  0028                     ___xxtofl@sign:	
   816  0028                     ___fldiv@rem:	
   817                           ; 1 bytes @ 0x8
   818                           
   819                           
   820                           ; 4 bytes @ 0x8
   821  0028                     	ds	1
   822  0029                     ___xxtofl@exp:	
   823                           
   824                           ; 1 bytes @ 0x9
   825  0029                     	ds	1
   826  002A                     ___xxtofl@arg:	
   827                           
   828                           ; 4 bytes @ 0xA
   829  002A                     	ds	2
   830  002C                     ___fldiv@sign:	
   831                           
   832                           ; 1 bytes @ 0xC
   833  002C                     	ds	1
   834  002D                     ___fldiv@new_exp:	
   835                           
   836                           ; 2 bytes @ 0xD
   837  002D                     	ds	1
   838  002E                     ?___flmul:	
   839  002E                     ___flmul@b:	
   840                           ; 4 bytes @ 0xE
   841                           
   842                           
   843                           ; 4 bytes @ 0xE
   844  002E                     	ds	1
   845  002F                     ___fldiv@grs:	
   846                           
   847                           ; 4 bytes @ 0xF
   848  002F                     	ds	3
   849  0032                     ___flmul@a:	
   850                           
   851                           ; 4 bytes @ 0x12
   852  0032                     	ds	1
   853  0033                     ___fldiv@bexp:	
   854                           
   855                           ; 1 bytes @ 0x13
   856  0033                     	ds	1
   857  0034                     ___fldiv@aexp:	
   858                           
   859                           ; 1 bytes @ 0x14
   860  0034                     	ds	2
   861  0036                     ??___flmul:	
   862                           
   863                           ; 1 bytes @ 0x16
   864  0036                     	ds	5
   865  003B                     ___flmul@sign:	
   866                           
   867                           ; 1 bytes @ 0x1B
   868  003B                     	ds	1
   869  003C                     ___flmul@grs:	
   870                           
   871                           ; 4 bytes @ 0x1C
   872  003C                     	ds	4
   873  0040                     ___flmul@aexp:	
   874                           
   875                           ; 1 bytes @ 0x20
   876  0040                     	ds	1
   877  0041                     ___flmul@bexp:	
   878                           
   879                           ; 1 bytes @ 0x21
   880  0041                     	ds	1
   881  0042                     ___flmul@prod:	
   882                           
   883                           ; 4 bytes @ 0x22
   884  0042                     	ds	4
   885  0046                     ___flmul@temp:	
   886                           
   887                           ; 2 bytes @ 0x26
   888  0046                     	ds	2
   889  0048                     ?___fladd:	
   890  0048                     ___fladd@b:	
   891                           ; 4 bytes @ 0x28
   892                           
   893                           
   894                           ; 4 bytes @ 0x28
   895  0048                     	ds	4
   896  004C                     ___fladd@a:	
   897                           
   898                           ; 4 bytes @ 0x2C
   899  004C                     	ds	4
   900  0050                     ??___fladd:	
   901                           
   902                           ; 1 bytes @ 0x30
   903  0050                     	ds	8
   904  0058                     ___fladd@signs:	
   905                           
   906                           ; 1 bytes @ 0x38
   907  0058                     	ds	1
   908  0059                     ___fladd@aexp:	
   909                           
   910                           ; 1 bytes @ 0x39
   911  0059                     	ds	1
   912  005A                     ___fladd@bexp:	
   913                           
   914                           ; 1 bytes @ 0x3A
   915  005A                     	ds	1
   916  005B                     ___fladd@grs:	
   917                           
   918                           ; 1 bytes @ 0x3B
   919  005B                     	ds	1
   920  005C                     ?___flsub:	
   921  005C                     ___flsub@a:	
   922                           ; 4 bytes @ 0x3C
   923                           
   924                           
   925                           ; 4 bytes @ 0x3C
   926  005C                     	ds	4
   927  0060                     ___flsub@b:	
   928                           
   929                           ; 4 bytes @ 0x40
   930  0060                     	ds	4
   931  0064                     ?___fltol:	
   932  0064                     ___fltol@f1:	
   933                           ; 4 bytes @ 0x44
   934                           
   935                           
   936                           ; 4 bytes @ 0x44
   937  0064                     	ds	4
   938  0068                     ??___fltol:	
   939                           
   940                           ; 1 bytes @ 0x48
   941  0068                     	ds	5
   942  006D                     ___fltol@sign1:	
   943                           
   944                           ; 1 bytes @ 0x4D
   945  006D                     	ds	1
   946  006E                     ___fltol@exp1:	
   947                           
   948                           ; 1 bytes @ 0x4E
   949  006E                     	ds	1
   950  006F                     ??_b2:	
   951                           
   952                           ; 1 bytes @ 0x4F
   953  006F                     	ds	1
   954                           
   955                           	psect	maintext
   956  0DB1                     __pmaintext:	
   957 ;;
   958 ;;Main: autosize = 0, tempsize = 5, incstack = 0, save=0
   959 ;;
   960 ;; *************** function _main *****************
   961 ;; Defined at:
   962 ;;		line 62 in file "parteD.c"
   963 ;; Parameters:    Size  Location     Type
   964 ;;		None
   965 ;; Auto vars:     Size  Location     Type
   966 ;;  s1              5   19[BANK1 ] unsigned char [5]
   967 ;;  adc             4    0        float 
   968 ;;  TEMP            1   40[BANK1 ] unsigned char 
   969 ;;  TEMPB           1   39[BANK1 ] unsigned char 
   970 ;;  TEMPA           1   38[BANK1 ] unsigned char 
   971 ;;  TEMPD           1   37[BANK1 ] unsigned char 
   972 ;;  TEMPC           1   36[BANK1 ] unsigned char 
   973 ;;  HUMO            1    0        unsigned char 
   974 ;;  SISMO           1    0        unsigned char 
   975 ;; Return value:  Size  Location     Type
   976 ;;                  1    wreg      void 
   977 ;; Registers used:
   978 ;;		wreg, fsr0l, fsr0h, status,2, status,0, btemp+1, pclath, cstack
   979 ;; Tracked objects:
   980 ;;		On entry : B00/0
   981 ;;		On exit  : 0/0
   982 ;;		Unchanged: 0/0
   983 ;; Data sizes:     COMMON   BANK0   BANK1   BANK3   BANK2
   984 ;;      Params:         0       0       0       0       0
   985 ;;      Locals:         0       0      24       0       0
   986 ;;      Temps:          0       0       5       0       0
   987 ;;      Totals:         0       0      29       0       0
   988 ;;Total ram usage:       29 bytes
   989 ;; Hardware stack levels required when called:    4
   990 ;; This function calls:
   991 ;;		_ADC_CONFIG
   992 ;;		_ADC_INTERRUPT
   993 ;;		_Lcd_Init
   994 ;;		_Lcd_Set_Cursor
   995 ;;		_Lcd_Write_String
   996 ;;		___awdiv
   997 ;;		___fladd
   998 ;;		___flmul
   999 ;;		___fltol
  1000 ;;		___xxtofl
  1001 ;;		_b0
  1002 ;;		_b1
  1003 ;;		_b2
  1004 ;; This function is called by:
  1005 ;;		Startup code after reset
  1006 ;; This function uses a non-reentrant model
  1007 ;;
  1008                           
  1009                           
  1010                           ;psect for function _main
  1011  0DB1                     _main:	
  1012  0DB1                     l3037:	
  1013                           ;incstack = 0
  1014                           ; Regs used in _main: [wreg-fsr0h+status,2+status,0+btemp+1+pclath+cstack]
  1015                           
  1016                           
  1017                           ;parteD.c: 63:     ANSEL = 0;
  1018  0DB1  1683               	bsf	3,5	;RP0=1, select bank3
  1019  0DB2  1703               	bsf	3,6	;RP1=1, select bank3
  1020  0DB3  0188               	clrf	8	;volatile
  1021                           
  1022                           ;parteD.c: 64:     ANSELH = 0;
  1023  0DB4  0189               	clrf	9	;volatile
  1024                           
  1025                           ;parteD.c: 65:     TRISA = 0;
  1026  0DB5  1683               	bsf	3,5	;RP0=1, select bank1
  1027  0DB6  1303               	bcf	3,6	;RP1=0, select bank1
  1028  0DB7  0185               	clrf	5	;volatile
  1029                           
  1030                           ;parteD.c: 66:     TRISC = 0x00;
  1031  0DB8  0187               	clrf	7	;volatile
  1032  0DB9                     l3039:	
  1033                           
  1034                           ;parteD.c: 67:     TRISB = 0xFF;
  1035  0DB9  30FF               	movlw	255
  1036  0DBA  0086               	movwf	6	;volatile
  1037  0DBB                     l3041:	
  1038                           
  1039                           ;parteD.c: 68:     TRISD = 0x00;
  1040  0DBB  0188               	clrf	8	;volatile
  1041  0DBC                     l3043:	
  1042                           
  1043                           ;parteD.c: 70:     ADC_CONFIG(13,0);
  1044  0DBC  01F3               	clrf	ADC_CONFIG@justif
  1045  0DBD  300D               	movlw	13
  1046  0DBE  120A  158A  24A6  120A  158A  	fcall	_ADC_CONFIG
  1047  0DC3                     l3045:	
  1048                           
  1049                           ;parteD.c: 71:     ADC_INTERRUPT();
  1050  0DC3  160A  118A  2720  120A  158A  	fcall	_ADC_INTERRUPT
  1051  0DC8                     l3047:	
  1052                           
  1053                           ;parteD.c: 72:     ADCON0bits.GO = 1;
  1054  0DC8  1283               	bcf	3,5	;RP0=0, select bank0
  1055  0DC9  1303               	bcf	3,6	;RP1=0, select bank0
  1056  0DCA  149F               	bsf	31,1	;volatile
  1057  0DCB                     l3049:	
  1058                           
  1059                           ;parteD.c: 78:     Lcd_Init();
  1060  0DCB  120A  158A  2089  120A  158A  	fcall	_Lcd_Init
  1061  0DD0                     l3051:	
  1062                           
  1063                           ;parteD.c: 79:     Lcd_Set_Cursor(1,1);
  1064  0DD0  01F7               	clrf	Lcd_Set_Cursor@b
  1065  0DD1  0AF7               	incf	Lcd_Set_Cursor@b,f
  1066  0DD2  3001               	movlw	1
  1067  0DD3  120A  118A  27E3  120A  158A  	fcall	_Lcd_Set_Cursor
  1068  0DD8                     l3053:	
  1069                           
  1070                           ;parteD.c: 80:     Lcd_Write_String("Temp:");
  1071  0DD8  3001               	movlw	(low ((STR_1-__stringbase)| (0+32768)))& (0+255)
  1072  0DD9  00F6               	movwf	Lcd_Write_String@a
  1073  0DDA  3080               	movlw	128
  1074  0DDB  00F7               	movwf	Lcd_Write_String@a+1
  1075  0DDC  120A  158A  2043  120A  158A  	fcall	_Lcd_Write_String
  1076  0DE1                     l3055:	
  1077                           
  1078                           ;parteD.c: 81:     Lcd_Set_Cursor(1,7);
  1079  0DE1  3007               	movlw	7
  1080  0DE2  1683               	bsf	3,5	;RP0=1, select bank1
  1081  0DE3  1303               	bcf	3,6	;RP1=0, select bank1
  1082  0DE4  00AC               	movwf	??_main^(0+128)
  1083  0DE5  082C               	movf	??_main^(0+128),w
  1084  0DE6  00F7               	movwf	Lcd_Set_Cursor@b
  1085  0DE7  3001               	movlw	1
  1086  0DE8  120A  118A  27E3  120A  158A  	fcall	_Lcd_Set_Cursor
  1087  0DED                     l3057:	
  1088                           
  1089                           ;parteD.c: 82:     Lcd_Write_String("S2:");
  1090  0DED  3007               	movlw	(low ((STR_2-__stringbase)| (0+32768)))& (0+255)
  1091  0DEE  00F6               	movwf	Lcd_Write_String@a
  1092  0DEF  3080               	movlw	128
  1093  0DF0  00F7               	movwf	Lcd_Write_String@a+1
  1094  0DF1  120A  158A  2043  120A  158A  	fcall	_Lcd_Write_String
  1095  0DF6                     l3059:	
  1096                           
  1097                           ;parteD.c: 83:     Lcd_Set_Cursor(1,12);
  1098  0DF6  300C               	movlw	12
  1099  0DF7  1683               	bsf	3,5	;RP0=1, select bank1
  1100  0DF8  1303               	bcf	3,6	;RP1=0, select bank1
  1101  0DF9  00AC               	movwf	??_main^(0+128)
  1102  0DFA  082C               	movf	??_main^(0+128),w
  1103  0DFB  00F7               	movwf	Lcd_Set_Cursor@b
  1104  0DFC  3001               	movlw	1
  1105  0DFD  120A  118A  27E3  120A  158A  	fcall	_Lcd_Set_Cursor
  1106  0E02                     l3061:	
  1107                           
  1108                           ;parteD.c: 84:     Lcd_Write_String("S3:");
  1109  0E02  300B               	movlw	(low ((STR_3-__stringbase)| (0+32768)))& (0+255)
  1110  0E03  00F6               	movwf	Lcd_Write_String@a
  1111  0E04  3080               	movlw	128
  1112  0E05  00F7               	movwf	Lcd_Write_String@a+1
  1113  0E06  120A  158A  2043  120A  158A  	fcall	_Lcd_Write_String
  1114  0E0B                     l3063:	
  1115                           
  1116                           ;parteD.c: 86:     uint8_t SISMO;;parteD.c: 87:     uint8_t TEMP;;parteD.c: 88:     uint
      +                          8_t TEMPA = 0;
  1117  0E0B  1683               	bsf	3,5	;RP0=1, select bank1
  1118  0E0C  1303               	bcf	3,6	;RP1=0, select bank1
  1119  0E0D  01C6               	clrf	main@TEMPA^(0+128)
  1120  0E0E                     l3065:	
  1121                           
  1122                           ;parteD.c: 89:     uint8_t TEMPB = 0;
  1123  0E0E  01C7               	clrf	main@TEMPB^(0+128)
  1124  0E0F                     l3067:	
  1125                           
  1126                           ;parteD.c: 90:     uint8_t TEMPC = 0;
  1127  0E0F  01C4               	clrf	main@TEMPC^(0+128)
  1128  0E10                     l3069:	
  1129                           
  1130                           ;parteD.c: 91:     uint8_t TEMPD = 0;
  1131  0E10  01C5               	clrf	main@TEMPD^(0+128)
  1132  0E11                     l3071:	
  1133                           
  1134                           ;parteD.c: 92:     uint8_t HUMO;;parteD.c: 93:     float adc;;parteD.c: 94:     char s1[
      +                          5] = "";
  1135  0E11  30B3               	movlw	main@s1& (0+255)
  1136  0E12  0084               	movwf	4
  1137  0E13  3005               	movlw	5
  1138  0E14  00FF               	movwf	btemp+1
  1139  0E15                     u3810:	
  1140  0E15  1383               	bcf	3,7	;select IRP bank1
  1141  0E16  0180               	clrf	0
  1142  0E17  0A84               	incf	4,f
  1143  0E18  0BFF               	decfsz	btemp+1,f
  1144  0E19  2E15               	goto	u3810
  1145  0E1A                     l3073:	
  1146                           
  1147                           ;parteD.c: 97:         TEMP = -0.3519*adc1+59.185+4;
  1148  0E1A  084E               	movf	_adc1^(0+128),w
  1149  0E1B  00AC               	movwf	??_main^(0+128)
  1150  0E1C  01AD               	clrf	(??_main^(0+128)+1)
  1151  0E1D  01AE               	clrf	(??_main^(0+128)+2)
  1152  0E1E  01AF               	clrf	(??_main^(0+128)+3)
  1153  0E1F  082F               	movf	(??_main+3)^(0+128),w
  1154  0E20  1283               	bcf	3,5	;RP0=0, select bank0
  1155  0E21  1303               	bcf	3,6	;RP1=0, select bank0
  1156  0E22  00A3               	movwf	___xxtofl@val+3
  1157  0E23  1683               	bsf	3,5	;RP0=1, select bank1
  1158  0E24  1303               	bcf	3,6	;RP1=0, select bank1
  1159  0E25  082E               	movf	(??_main+2)^(0+128),w
  1160  0E26  1283               	bcf	3,5	;RP0=0, select bank0
  1161  0E27  1303               	bcf	3,6	;RP1=0, select bank0
  1162  0E28  00A2               	movwf	___xxtofl@val+2
  1163  0E29  1683               	bsf	3,5	;RP0=1, select bank1
  1164  0E2A  1303               	bcf	3,6	;RP1=0, select bank1
  1165  0E2B  082D               	movf	(??_main+1)^(0+128),w
  1166  0E2C  1283               	bcf	3,5	;RP0=0, select bank0
  1167  0E2D  1303               	bcf	3,6	;RP1=0, select bank0
  1168  0E2E  00A1               	movwf	___xxtofl@val+1
  1169  0E2F  1683               	bsf	3,5	;RP0=1, select bank1
  1170  0E30  1303               	bcf	3,6	;RP1=0, select bank1
  1171  0E31  082C               	movf	??_main^(0+128),w
  1172  0E32  1283               	bcf	3,5	;RP0=0, select bank0
  1173  0E33  1303               	bcf	3,6	;RP1=0, select bank0
  1174  0E34  00A0               	movwf	___xxtofl@val
  1175  0E35  3001               	movlw	1
  1176  0E36  120A  158A  225E  120A  158A  	fcall	___xxtofl
  1177  0E3B  1283               	bcf	3,5	;RP0=0, select bank0
  1178  0E3C  1303               	bcf	3,6	;RP1=0, select bank0
  1179  0E3D  0823               	movf	?___xxtofl+3,w
  1180  0E3E  00B5               	movwf	___flmul@a+3
  1181  0E3F  0822               	movf	?___xxtofl+2,w
  1182  0E40  00B4               	movwf	___flmul@a+2
  1183  0E41  0821               	movf	?___xxtofl+1,w
  1184  0E42  00B3               	movwf	___flmul@a+1
  1185  0E43  0820               	movf	?___xxtofl,w
  1186  0E44  00B2               	movwf	___flmul@a
  1187  0E45  30BE               	movlw	190
  1188  0E46  00B1               	movwf	___flmul@b+3
  1189  0E47  30B4               	movlw	180
  1190  0E48  00B0               	movwf	___flmul@b+2
  1191  0E49  302C               	movlw	44
  1192  0E4A  00AF               	movwf	___flmul@b+1
  1193  0E4B  303D               	movlw	61
  1194  0E4C  00AE               	movwf	___flmul@b
  1195  0E4D  120A  118A  201D  120A  158A  	fcall	___flmul
  1196  0E52  1283               	bcf	3,5	;RP0=0, select bank0
  1197  0E53  1303               	bcf	3,6	;RP1=0, select bank0
  1198  0E54  0831               	movf	?___flmul+3,w
  1199  0E55  00CF               	movwf	___fladd@a+3
  1200  0E56  0830               	movf	?___flmul+2,w
  1201  0E57  00CE               	movwf	___fladd@a+2
  1202  0E58  082F               	movf	?___flmul+1,w
  1203  0E59  00CD               	movwf	___fladd@a+1
  1204  0E5A  082E               	movf	?___flmul,w
  1205  0E5B  00CC               	movwf	___fladd@a
  1206  0E5C  3042               	movlw	66
  1207  0E5D  00CB               	movwf	___fladd@b+3
  1208  0E5E  306C               	movlw	108
  1209  0E5F  00CA               	movwf	___fladd@b+2
  1210  0E60  30BD               	movlw	189
  1211  0E61  00C9               	movwf	___fladd@b+1
  1212  0E62  3071               	movlw	113
  1213  0E63  00C8               	movwf	___fladd@b
  1214  0E64  120A  118A  237E  120A  158A  	fcall	___fladd
  1215  0E69  1283               	bcf	3,5	;RP0=0, select bank0
  1216  0E6A  1303               	bcf	3,6	;RP1=0, select bank0
  1217  0E6B  084B               	movf	?___fladd+3,w
  1218  0E6C  1683               	bsf	3,5	;RP0=1, select bank1
  1219  0E6D  1303               	bcf	3,6	;RP1=0, select bank1
  1220  0E6E  00BB               	movwf	(_main$1121+3)^(0+128)
  1221  0E6F  1283               	bcf	3,5	;RP0=0, select bank0
  1222  0E70  1303               	bcf	3,6	;RP1=0, select bank0
  1223  0E71  084A               	movf	?___fladd+2,w
  1224  0E72  1683               	bsf	3,5	;RP0=1, select bank1
  1225  0E73  1303               	bcf	3,6	;RP1=0, select bank1
  1226  0E74  00BA               	movwf	(_main$1121+2)^(0+128)
  1227  0E75  1283               	bcf	3,5	;RP0=0, select bank0
  1228  0E76  1303               	bcf	3,6	;RP1=0, select bank0
  1229  0E77  0849               	movf	?___fladd+1,w
  1230  0E78  1683               	bsf	3,5	;RP0=1, select bank1
  1231  0E79  1303               	bcf	3,6	;RP1=0, select bank1
  1232  0E7A  00B9               	movwf	(_main$1121+1)^(0+128)
  1233  0E7B  1283               	bcf	3,5	;RP0=0, select bank0
  1234  0E7C  1303               	bcf	3,6	;RP1=0, select bank0
  1235  0E7D  0848               	movf	?___fladd,w
  1236  0E7E  1683               	bsf	3,5	;RP0=1, select bank1
  1237  0E7F  1303               	bcf	3,6	;RP1=0, select bank1
  1238  0E80  00B8               	movwf	_main$1121^(0+128)
  1239  0E81                     l3075:	
  1240                           
  1241                           ;parteD.c: 97:         TEMP = -0.3519*adc1+59.185+4;
  1242  0E81  083B               	movf	(_main$1121+3)^(0+128),w
  1243  0E82  1283               	bcf	3,5	;RP0=0, select bank0
  1244  0E83  1303               	bcf	3,6	;RP1=0, select bank0
  1245  0E84  00CF               	movwf	___fladd@a+3
  1246  0E85  1683               	bsf	3,5	;RP0=1, select bank1
  1247  0E86  1303               	bcf	3,6	;RP1=0, select bank1
  1248  0E87  083A               	movf	(_main$1121+2)^(0+128),w
  1249  0E88  1283               	bcf	3,5	;RP0=0, select bank0
  1250  0E89  1303               	bcf	3,6	;RP1=0, select bank0
  1251  0E8A  00CE               	movwf	___fladd@a+2
  1252  0E8B  1683               	bsf	3,5	;RP0=1, select bank1
  1253  0E8C  1303               	bcf	3,6	;RP1=0, select bank1
  1254  0E8D  0839               	movf	(_main$1121+1)^(0+128),w
  1255  0E8E  1283               	bcf	3,5	;RP0=0, select bank0
  1256  0E8F  1303               	bcf	3,6	;RP1=0, select bank0
  1257  0E90  00CD               	movwf	___fladd@a+1
  1258  0E91  1683               	bsf	3,5	;RP0=1, select bank1
  1259  0E92  1303               	bcf	3,6	;RP1=0, select bank1
  1260  0E93  0838               	movf	_main$1121^(0+128),w
  1261  0E94  1283               	bcf	3,5	;RP0=0, select bank0
  1262  0E95  1303               	bcf	3,6	;RP1=0, select bank0
  1263  0E96  00CC               	movwf	___fladd@a
  1264  0E97  3040               	movlw	64
  1265  0E98  00CB               	movwf	___fladd@b+3
  1266  0E99  3080               	movlw	128
  1267  0E9A  00CA               	movwf	___fladd@b+2
  1268  0E9B  3000               	movlw	0
  1269  0E9C  00C9               	movwf	___fladd@b+1
  1270  0E9D  3000               	movlw	0
  1271  0E9E  00C8               	movwf	___fladd@b
  1272  0E9F  120A  118A  237E  120A  158A  	fcall	___fladd
  1273  0EA4  1283               	bcf	3,5	;RP0=0, select bank0
  1274  0EA5  1303               	bcf	3,6	;RP1=0, select bank0
  1275  0EA6  084B               	movf	?___fladd+3,w
  1276  0EA7  00E7               	movwf	___fltol@f1+3
  1277  0EA8  084A               	movf	?___fladd+2,w
  1278  0EA9  00E6               	movwf	___fltol@f1+2
  1279  0EAA  0849               	movf	?___fladd+1,w
  1280  0EAB  00E5               	movwf	___fltol@f1+1
  1281  0EAC  0848               	movf	?___fladd,w
  1282  0EAD  00E4               	movwf	___fltol@f1
  1283  0EAE  120A  158A  21E2  120A  158A  	fcall	___fltol
  1284  0EB3  1283               	bcf	3,5	;RP0=0, select bank0
  1285  0EB4  1303               	bcf	3,6	;RP1=0, select bank0
  1286  0EB5  0864               	movf	?___fltol,w
  1287  0EB6  1683               	bsf	3,5	;RP0=1, select bank1
  1288  0EB7  1303               	bcf	3,6	;RP1=0, select bank1
  1289  0EB8  00AC               	movwf	??_main^(0+128)
  1290  0EB9  082C               	movf	??_main^(0+128),w
  1291  0EBA  00C8               	movwf	main@TEMP^(0+128)
  1292  0EBB                     l3077:	
  1293                           
  1294                           ;parteD.c: 98:         TEMP = (TEMP+TEMPA+TEMPB+TEMPD)/4;
  1295  0EBB  3004               	movlw	4
  1296  0EBC  00F3               	movwf	___awdiv@divisor
  1297  0EBD  3000               	movlw	0
  1298  0EBE  00F4               	movwf	___awdiv@divisor+1
  1299  0EBF  0848               	movf	main@TEMP^(0+128),w
  1300  0EC0  0746               	addwf	main@TEMPA^(0+128),w
  1301  0EC1  00AC               	movwf	??_main^(0+128)
  1302  0EC2  01AD               	clrf	(??_main^(0+128)+1)
  1303  0EC3  0DAD               	rlf	(??_main+1)^(0+128),f
  1304  0EC4  0847               	movf	main@TEMPB^(0+128),w
  1305  0EC5  072C               	addwf	??_main^(0+128),w
  1306  0EC6  00AE               	movwf	(??_main+2)^(0+128)
  1307  0EC7  3000               	movlw	0
  1308  0EC8  1803               	skipnc
  1309  0EC9  3001               	movlw	1
  1310  0ECA  072D               	addwf	(??_main+1)^(0+128),w
  1311  0ECB  00AF               	movwf	(??_main+3)^(0+128)
  1312  0ECC  0845               	movf	main@TEMPD^(0+128),w
  1313  0ECD  072E               	addwf	(??_main+2)^(0+128),w
  1314  0ECE  00F5               	movwf	___awdiv@dividend
  1315  0ECF  3000               	movlw	0
  1316  0ED0  1803               	skipnc
  1317  0ED1  3001               	movlw	1
  1318  0ED2  072F               	addwf	(??_main+3)^(0+128),w
  1319  0ED3  00F6               	movwf	___awdiv@dividend+1
  1320  0ED4  120A  158A  2179  120A  158A  	fcall	___awdiv
  1321  0ED9  0873               	movf	?___awdiv,w
  1322  0EDA  1683               	bsf	3,5	;RP0=1, select bank1
  1323  0EDB  1303               	bcf	3,6	;RP1=0, select bank1
  1324  0EDC  00B0               	movwf	(??_main+4)^(0+128)
  1325  0EDD  0830               	movf	(??_main+4)^(0+128),w
  1326  0EDE  00C8               	movwf	main@TEMP^(0+128)
  1327  0EDF                     l3079:	
  1328                           
  1329                           ;parteD.c: 99:         Lcd_Set_Cursor(2,1);
  1330  0EDF  01F7               	clrf	Lcd_Set_Cursor@b
  1331  0EE0  0AF7               	incf	Lcd_Set_Cursor@b,f
  1332  0EE1  3002               	movlw	2
  1333  0EE2  120A  118A  27E3  120A  158A  	fcall	_Lcd_Set_Cursor
  1334  0EE7                     l3081:	
  1335                           
  1336                           ;parteD.c: 100:         s1[2] = b0(TEMP);
  1337  0EE7  1683               	bsf	3,5	;RP0=1, select bank1
  1338  0EE8  1303               	bcf	3,6	;RP1=0, select bank1
  1339  0EE9  0848               	movf	main@TEMP^(0+128),w
  1340  0EEA  00AC               	movwf	??_main^(0+128)
  1341  0EEB  01AD               	clrf	(??_main^(0+128)+1)
  1342  0EEC  01AE               	clrf	(??_main^(0+128)+2)
  1343  0EED  01AF               	clrf	(??_main^(0+128)+3)
  1344  0EEE  082F               	movf	(??_main+3)^(0+128),w
  1345  0EEF  1283               	bcf	3,5	;RP0=0, select bank0
  1346  0EF0  1303               	bcf	3,6	;RP1=0, select bank0
  1347  0EF1  00A3               	movwf	___xxtofl@val+3
  1348  0EF2  1683               	bsf	3,5	;RP0=1, select bank1
  1349  0EF3  1303               	bcf	3,6	;RP1=0, select bank1
  1350  0EF4  082E               	movf	(??_main+2)^(0+128),w
  1351  0EF5  1283               	bcf	3,5	;RP0=0, select bank0
  1352  0EF6  1303               	bcf	3,6	;RP1=0, select bank0
  1353  0EF7  00A2               	movwf	___xxtofl@val+2
  1354  0EF8  1683               	bsf	3,5	;RP0=1, select bank1
  1355  0EF9  1303               	bcf	3,6	;RP1=0, select bank1
  1356  0EFA  082D               	movf	(??_main+1)^(0+128),w
  1357  0EFB  1283               	bcf	3,5	;RP0=0, select bank0
  1358  0EFC  1303               	bcf	3,6	;RP1=0, select bank0
  1359  0EFD  00A1               	movwf	___xxtofl@val+1
  1360  0EFE  1683               	bsf	3,5	;RP0=1, select bank1
  1361  0EFF  1303               	bcf	3,6	;RP1=0, select bank1
  1362  0F00  082C               	movf	??_main^(0+128),w
  1363  0F01  1283               	bcf	3,5	;RP0=0, select bank0
  1364  0F02  1303               	bcf	3,6	;RP1=0, select bank0
  1365  0F03  00A0               	movwf	___xxtofl@val
  1366  0F04  3000               	movlw	0
  1367  0F05  120A  158A  225E  120A  158A  	fcall	___xxtofl
  1368  0F0A  1283               	bcf	3,5	;RP0=0, select bank0
  1369  0F0B  1303               	bcf	3,6	;RP1=0, select bank0
  1370  0F0C  0823               	movf	?___xxtofl+3,w
  1371  0F0D  1683               	bsf	3,5	;RP0=1, select bank1
  1372  0F0E  1303               	bcf	3,6	;RP1=0, select bank1
  1373  0F0F  00BF               	movwf	(_main$1122+3)^(0+128)
  1374  0F10  1283               	bcf	3,5	;RP0=0, select bank0
  1375  0F11  1303               	bcf	3,6	;RP1=0, select bank0
  1376  0F12  0822               	movf	?___xxtofl+2,w
  1377  0F13  1683               	bsf	3,5	;RP0=1, select bank1
  1378  0F14  1303               	bcf	3,6	;RP1=0, select bank1
  1379  0F15  00BE               	movwf	(_main$1122+2)^(0+128)
  1380  0F16  1283               	bcf	3,5	;RP0=0, select bank0
  1381  0F17  1303               	bcf	3,6	;RP1=0, select bank0
  1382  0F18  0821               	movf	?___xxtofl+1,w
  1383  0F19  1683               	bsf	3,5	;RP0=1, select bank1
  1384  0F1A  1303               	bcf	3,6	;RP1=0, select bank1
  1385  0F1B  00BD               	movwf	(_main$1122+1)^(0+128)
  1386  0F1C  1283               	bcf	3,5	;RP0=0, select bank0
  1387  0F1D  1303               	bcf	3,6	;RP1=0, select bank0
  1388  0F1E  0820               	movf	?___xxtofl,w
  1389  0F1F  1683               	bsf	3,5	;RP0=1, select bank1
  1390  0F20  1303               	bcf	3,6	;RP1=0, select bank1
  1391  0F21  00BC               	movwf	_main$1122^(0+128)
  1392  0F22                     l3083:	
  1393                           
  1394                           ;parteD.c: 100:         s1[2] = b0(TEMP);
  1395  0F22  083F               	movf	(_main$1122+3)^(0+128),w
  1396  0F23  00A3               	movwf	(b0@m+3)^(0+128)
  1397  0F24  083E               	movf	(_main$1122+2)^(0+128),w
  1398  0F25  00A2               	movwf	(b0@m+2)^(0+128)
  1399  0F26  083D               	movf	(_main$1122+1)^(0+128),w
  1400  0F27  00A1               	movwf	(b0@m+1)^(0+128)
  1401  0F28  083C               	movf	_main$1122^(0+128),w
  1402  0F29  00A0               	movwf	b0@m^(0+128)
  1403  0F2A  120A  158A  23D8  120A  158A  	fcall	_b0
  1404  0F2F  1683               	bsf	3,5	;RP0=1, select bank1
  1405  0F30  1303               	bcf	3,6	;RP1=0, select bank1
  1406  0F31  00AC               	movwf	??_main^(0+128)
  1407  0F32  082C               	movf	??_main^(0+128),w
  1408  0F33  00B5               	movwf	(main@s1^(0+128)+2)
  1409  0F34                     l3085:	
  1410                           
  1411                           ;parteD.c: 101:         s1[1] = b1(TEMP);
  1412  0F34  0848               	movf	main@TEMP^(0+128),w
  1413  0F35  00AC               	movwf	??_main^(0+128)
  1414  0F36  01AD               	clrf	(??_main^(0+128)+1)
  1415  0F37  01AE               	clrf	(??_main^(0+128)+2)
  1416  0F38  01AF               	clrf	(??_main^(0+128)+3)
  1417  0F39  082F               	movf	(??_main+3)^(0+128),w
  1418  0F3A  1283               	bcf	3,5	;RP0=0, select bank0
  1419  0F3B  1303               	bcf	3,6	;RP1=0, select bank0
  1420  0F3C  00A3               	movwf	___xxtofl@val+3
  1421  0F3D  1683               	bsf	3,5	;RP0=1, select bank1
  1422  0F3E  1303               	bcf	3,6	;RP1=0, select bank1
  1423  0F3F  082E               	movf	(??_main+2)^(0+128),w
  1424  0F40  1283               	bcf	3,5	;RP0=0, select bank0
  1425  0F41  1303               	bcf	3,6	;RP1=0, select bank0
  1426  0F42  00A2               	movwf	___xxtofl@val+2
  1427  0F43  1683               	bsf	3,5	;RP0=1, select bank1
  1428  0F44  1303               	bcf	3,6	;RP1=0, select bank1
  1429  0F45  082D               	movf	(??_main+1)^(0+128),w
  1430  0F46  1283               	bcf	3,5	;RP0=0, select bank0
  1431  0F47  1303               	bcf	3,6	;RP1=0, select bank0
  1432  0F48  00A1               	movwf	___xxtofl@val+1
  1433  0F49  1683               	bsf	3,5	;RP0=1, select bank1
  1434  0F4A  1303               	bcf	3,6	;RP1=0, select bank1
  1435  0F4B  082C               	movf	??_main^(0+128),w
  1436  0F4C  1283               	bcf	3,5	;RP0=0, select bank0
  1437  0F4D  1303               	bcf	3,6	;RP1=0, select bank0
  1438  0F4E  00A0               	movwf	___xxtofl@val
  1439  0F4F  3000               	movlw	0
  1440  0F50  120A  158A  225E  120A  158A  	fcall	___xxtofl
  1441  0F55  1283               	bcf	3,5	;RP0=0, select bank0
  1442  0F56  1303               	bcf	3,6	;RP1=0, select bank0
  1443  0F57  0823               	movf	?___xxtofl+3,w
  1444  0F58  1683               	bsf	3,5	;RP0=1, select bank1
  1445  0F59  1303               	bcf	3,6	;RP1=0, select bank1
  1446  0F5A  00C3               	movwf	(_main$1123+3)^(0+128)
  1447  0F5B  1283               	bcf	3,5	;RP0=0, select bank0
  1448  0F5C  1303               	bcf	3,6	;RP1=0, select bank0
  1449  0F5D  0822               	movf	?___xxtofl+2,w
  1450  0F5E  1683               	bsf	3,5	;RP0=1, select bank1
  1451  0F5F  1303               	bcf	3,6	;RP1=0, select bank1
  1452  0F60  00C2               	movwf	(_main$1123+2)^(0+128)
  1453  0F61  1283               	bcf	3,5	;RP0=0, select bank0
  1454  0F62  1303               	bcf	3,6	;RP1=0, select bank0
  1455  0F63  0821               	movf	?___xxtofl+1,w
  1456  0F64  1683               	bsf	3,5	;RP0=1, select bank1
  1457  0F65  1303               	bcf	3,6	;RP1=0, select bank1
  1458  0F66  00C1               	movwf	(_main$1123+1)^(0+128)
  1459  0F67  1283               	bcf	3,5	;RP0=0, select bank0
  1460  0F68  1303               	bcf	3,6	;RP1=0, select bank0
  1461  0F69  0820               	movf	?___xxtofl,w
  1462  0F6A  1683               	bsf	3,5	;RP0=1, select bank1
  1463  0F6B  1303               	bcf	3,6	;RP1=0, select bank1
  1464  0F6C  00C0               	movwf	_main$1123^(0+128)
  1465  0F6D                     l3087:	
  1466                           
  1467                           ;parteD.c: 101:         s1[1] = b1(TEMP);
  1468  0F6D  0843               	movf	(_main$1123+3)^(0+128),w
  1469  0F6E  00A3               	movwf	(b1@m+3)^(0+128)
  1470  0F6F  0842               	movf	(_main$1123+2)^(0+128),w
  1471  0F70  00A2               	movwf	(b1@m+2)^(0+128)
  1472  0F71  0841               	movf	(_main$1123+1)^(0+128),w
  1473  0F72  00A1               	movwf	(b1@m+1)^(0+128)
  1474  0F73  0840               	movf	_main$1123^(0+128),w
  1475  0F74  00A0               	movwf	b1@m^(0+128)
  1476  0F75  120A  158A  231A  120A  158A  	fcall	_b1
  1477  0F7A  1683               	bsf	3,5	;RP0=1, select bank1
  1478  0F7B  1303               	bcf	3,6	;RP1=0, select bank1
  1479  0F7C  00AC               	movwf	??_main^(0+128)
  1480  0F7D  082C               	movf	??_main^(0+128),w
  1481  0F7E  00B4               	movwf	(main@s1^(0+128)+1)
  1482  0F7F                     l3089:	
  1483                           
  1484                           ;parteD.c: 102:         s1[0] = b2(TEMP);
  1485  0F7F  0848               	movf	main@TEMP^(0+128),w
  1486  0F80  00AC               	movwf	??_main^(0+128)
  1487  0F81  01AD               	clrf	(??_main^(0+128)+1)
  1488  0F82  01AE               	clrf	(??_main^(0+128)+2)
  1489  0F83  01AF               	clrf	(??_main^(0+128)+3)
  1490  0F84  082F               	movf	(??_main+3)^(0+128),w
  1491  0F85  1283               	bcf	3,5	;RP0=0, select bank0
  1492  0F86  1303               	bcf	3,6	;RP1=0, select bank0
  1493  0F87  00A3               	movwf	___xxtofl@val+3
  1494  0F88  1683               	bsf	3,5	;RP0=1, select bank1
  1495  0F89  1303               	bcf	3,6	;RP1=0, select bank1
  1496  0F8A  082E               	movf	(??_main+2)^(0+128),w
  1497  0F8B  1283               	bcf	3,5	;RP0=0, select bank0
  1498  0F8C  1303               	bcf	3,6	;RP1=0, select bank0
  1499  0F8D  00A2               	movwf	___xxtofl@val+2
  1500  0F8E  1683               	bsf	3,5	;RP0=1, select bank1
  1501  0F8F  1303               	bcf	3,6	;RP1=0, select bank1
  1502  0F90  082D               	movf	(??_main+1)^(0+128),w
  1503  0F91  1283               	bcf	3,5	;RP0=0, select bank0
  1504  0F92  1303               	bcf	3,6	;RP1=0, select bank0
  1505  0F93  00A1               	movwf	___xxtofl@val+1
  1506  0F94  1683               	bsf	3,5	;RP0=1, select bank1
  1507  0F95  1303               	bcf	3,6	;RP1=0, select bank1
  1508  0F96  082C               	movf	??_main^(0+128),w
  1509  0F97  1283               	bcf	3,5	;RP0=0, select bank0
  1510  0F98  1303               	bcf	3,6	;RP1=0, select bank0
  1511  0F99  00A0               	movwf	___xxtofl@val
  1512  0F9A  3000               	movlw	0
  1513  0F9B  120A  158A  225E  120A  158A  	fcall	___xxtofl
  1514  0FA0  1283               	bcf	3,5	;RP0=0, select bank0
  1515  0FA1  1303               	bcf	3,6	;RP1=0, select bank0
  1516  0FA2  0823               	movf	?___xxtofl+3,w
  1517  0FA3  1683               	bsf	3,5	;RP0=1, select bank1
  1518  0FA4  1303               	bcf	3,6	;RP1=0, select bank1
  1519  0FA5  00A3               	movwf	(b2@m+3)^(0+128)
  1520  0FA6  1283               	bcf	3,5	;RP0=0, select bank0
  1521  0FA7  1303               	bcf	3,6	;RP1=0, select bank0
  1522  0FA8  0822               	movf	?___xxtofl+2,w
  1523  0FA9  1683               	bsf	3,5	;RP0=1, select bank1
  1524  0FAA  1303               	bcf	3,6	;RP1=0, select bank1
  1525  0FAB  00A2               	movwf	(b2@m+2)^(0+128)
  1526  0FAC  1283               	bcf	3,5	;RP0=0, select bank0
  1527  0FAD  1303               	bcf	3,6	;RP1=0, select bank0
  1528  0FAE  0821               	movf	?___xxtofl+1,w
  1529  0FAF  1683               	bsf	3,5	;RP0=1, select bank1
  1530  0FB0  1303               	bcf	3,6	;RP1=0, select bank1
  1531  0FB1  00A1               	movwf	(b2@m+1)^(0+128)
  1532  0FB2  1283               	bcf	3,5	;RP0=0, select bank0
  1533  0FB3  1303               	bcf	3,6	;RP1=0, select bank0
  1534  0FB4  0820               	movf	?___xxtofl,w
  1535  0FB5  1683               	bsf	3,5	;RP0=1, select bank1
  1536  0FB6  1303               	bcf	3,6	;RP1=0, select bank1
  1537  0FB7  00A0               	movwf	b2@m^(0+128)
  1538  0FB8  120A  158A  20D0  120A  158A  	fcall	_b2
  1539  0FBD  1683               	bsf	3,5	;RP0=1, select bank1
  1540  0FBE  1303               	bcf	3,6	;RP1=0, select bank1
  1541  0FBF  00B0               	movwf	(??_main+4)^(0+128)
  1542  0FC0  0830               	movf	(??_main+4)^(0+128),w
  1543  0FC1  00B3               	movwf	main@s1^(0+128)
  1544  0FC2                     l3091:	
  1545                           
  1546                           ;parteD.c: 103:         Lcd_Write_String(s1);
  1547  0FC2  30B3               	movlw	(low (main@s1| 0))& (0+255)
  1548  0FC3  00F6               	movwf	Lcd_Write_String@a
  1549  0FC4  3000               	movlw	0
  1550  0FC5  00F7               	movwf	Lcd_Write_String@a+1
  1551  0FC6  120A  158A  2043  120A  158A  	fcall	_Lcd_Write_String
  1552  0FCB                     l3093:	
  1553                           
  1554                           ;parteD.c: 105:         if (PORTBbits.RB1 == 1){
  1555  0FCB  1283               	bcf	3,5	;RP0=0, select bank0
  1556  0FCC  1303               	bcf	3,6	;RP1=0, select bank0
  1557  0FCD  1C86               	btfss	6,1	;volatile
  1558  0FCE  2FD0               	goto	u3821
  1559  0FCF  2FD1               	goto	u3820
  1560  0FD0                     u3821:	
  1561  0FD0  2FD3               	goto	l3097
  1562  0FD1                     u3820:	
  1563  0FD1                     l3095:	
  1564                           
  1565                           ;parteD.c: 107:             RD0 = 1;
  1566  0FD1  1408               	bsf	8,0	;volatile
  1567                           
  1568                           ;parteD.c: 108:         }
  1569  0FD2  2FD4               	goto	l3101
  1570  0FD3                     l3097:	
  1571  0FD3                     l3099:	
  1572                           
  1573                           ;parteD.c: 111:             RD0 = 0;
  1574  0FD3  1008               	bcf	8,0	;volatile
  1575  0FD4                     l3101:	
  1576                           
  1577                           ;parteD.c: 114:         if(TEMP >=29){
  1578  0FD4  301D               	movlw	29
  1579  0FD5  1683               	bsf	3,5	;RP0=1, select bank1
  1580  0FD6  1303               	bcf	3,6	;RP1=0, select bank1
  1581  0FD7  0248               	subwf	main@TEMP^(0+128),w
  1582  0FD8  1C03               	skipc
  1583  0FD9  2FDB               	goto	u3831
  1584  0FDA  2FDC               	goto	u3830
  1585  0FDB                     u3831:	
  1586  0FDB  2FE0               	goto	l66
  1587  0FDC                     u3830:	
  1588  0FDC                     l3103:	
  1589                           
  1590                           ;parteD.c: 115:             RD1 = 1;
  1591  0FDC  1283               	bcf	3,5	;RP0=0, select bank0
  1592  0FDD  1303               	bcf	3,6	;RP1=0, select bank0
  1593  0FDE  1488               	bsf	8,1	;volatile
  1594                           
  1595                           ;parteD.c: 116:         }
  1596  0FDF  2FE3               	goto	l67
  1597  0FE0                     l66:	
  1598                           ;parteD.c: 117:         else{
  1599                           
  1600                           
  1601                           ;parteD.c: 118:             RD1 = 0;
  1602  0FE0  1283               	bcf	3,5	;RP0=0, select bank0
  1603  0FE1  1303               	bcf	3,6	;RP1=0, select bank0
  1604  0FE2  1088               	bcf	8,1	;volatile
  1605  0FE3                     l67:	
  1606                           ;parteD.c: 119:         }
  1607                           
  1608                           
  1609                           ;parteD.c: 121:         if (PORTBbits.RB0 == 0){
  1610  0FE3  1806               	btfsc	6,0	;volatile
  1611  0FE4  2FE6               	goto	u3841
  1612  0FE5  2FE7               	goto	u3840
  1613  0FE6                     u3841:	
  1614  0FE6  2FE9               	goto	l3107
  1615  0FE7                     u3840:	
  1616  0FE7                     l3105:	
  1617                           
  1618                           ;parteD.c: 123:             RD3 = 1;
  1619  0FE7  1588               	bsf	8,3	;volatile
  1620                           
  1621                           ;parteD.c: 124:         }
  1622  0FE8  2FEA               	goto	l3111
  1623  0FE9                     l3107:	
  1624  0FE9                     l3109:	
  1625                           
  1626                           ;parteD.c: 127:             RD3 = 0;
  1627  0FE9  1188               	bcf	8,3	;volatile
  1628  0FEA                     l3111:	
  1629                           
  1630                           ;parteD.c: 130:         TEMPD = TEMPC;
  1631  0FEA  1683               	bsf	3,5	;RP0=1, select bank1
  1632  0FEB  1303               	bcf	3,6	;RP1=0, select bank1
  1633  0FEC  0844               	movf	main@TEMPC^(0+128),w
  1634  0FED  00AC               	movwf	??_main^(0+128)
  1635  0FEE  082C               	movf	??_main^(0+128),w
  1636  0FEF  00C5               	movwf	main@TEMPD^(0+128)
  1637  0FF0                     l3113:	
  1638                           
  1639                           ;parteD.c: 131:         TEMPC = TEMPB;
  1640  0FF0  0847               	movf	main@TEMPB^(0+128),w
  1641  0FF1  00AC               	movwf	??_main^(0+128)
  1642  0FF2  082C               	movf	??_main^(0+128),w
  1643  0FF3  00C4               	movwf	main@TEMPC^(0+128)
  1644  0FF4                     l3115:	
  1645                           
  1646                           ;parteD.c: 132:         TEMPB = TEMPA;
  1647  0FF4  0846               	movf	main@TEMPA^(0+128),w
  1648  0FF5  00AC               	movwf	??_main^(0+128)
  1649  0FF6  082C               	movf	??_main^(0+128),w
  1650  0FF7  00C7               	movwf	main@TEMPB^(0+128)
  1651  0FF8                     l3117:	
  1652                           
  1653                           ;parteD.c: 133:         TEMPA = TEMP;
  1654  0FF8  0848               	movf	main@TEMP^(0+128),w
  1655  0FF9  00AC               	movwf	??_main^(0+128)
  1656  0FFA  082C               	movf	??_main^(0+128),w
  1657  0FFB  00C6               	movwf	main@TEMPA^(0+128)
  1658  0FFC  2E1A               	goto	l3073
  1659  0FFD  120A  118A  280C   	ljmp	start
  1660  1000                     __end_of_main:	
  1661                           
  1662                           	psect	text1
  1663  08D0                     __ptext1:	
  1664 ;; *************** function _b2 *****************
  1665 ;; Defined at:
  1666 ;;		line 185 in file "parteD.c"
  1667 ;; Parameters:    Size  Location     Type
  1668 ;;  m               4    0[BANK1 ] float 
  1669 ;; Auto vars:     Size  Location     Type
  1670 ;;  local           4    0        float 
  1671 ;;  p2              1    5[BANK1 ] unsigned char 
  1672 ;;  bb2             1    4[BANK1 ] unsigned char 
  1673 ;; Return value:  Size  Location     Type
  1674 ;;                  1    wreg      unsigned char 
  1675 ;; Registers used:
  1676 ;;		wreg, fsr0l, fsr0h, status,2, status,0, btemp+1, pclath, cstack
  1677 ;; Tracked objects:
  1678 ;;		On entry : 0/0
  1679 ;;		On exit  : 0/0
  1680 ;;		Unchanged: 0/0
  1681 ;; Data sizes:     COMMON   BANK0   BANK1   BANK3   BANK2
  1682 ;;      Params:         0       0       4       0       0
  1683 ;;      Locals:         0       0       2       0       0
  1684 ;;      Temps:          0       1       0       0       0
  1685 ;;      Totals:         0       1       6       0       0
  1686 ;;Total ram usage:        7 bytes
  1687 ;; Hardware stack levels used:    1
  1688 ;; Hardware stack levels required when called:    2
  1689 ;; This function calls:
  1690 ;;		___fldiv
  1691 ;;		___fltol
  1692 ;;		_num_case
  1693 ;; This function is called by:
  1694 ;;		_main
  1695 ;; This function uses a non-reentrant model
  1696 ;;
  1697                           
  1698                           
  1699                           ;psect for function _b2
  1700  08D0                     _b2:	
  1701  08D0                     l3029:	
  1702                           ;incstack = 0
  1703                           ; Regs used in _b2: [wreg-fsr0h+status,2+status,0+btemp+1+pclath+cstack]
  1704                           
  1705                           
  1706                           ;parteD.c: 186:     uint8_t bb2;;parteD.c: 187:     float local;;parteD.c: 188:     char
      +                           p2;;parteD.c: 190:     bb2 = m/100;
  1707  08D0  1683               	bsf	3,5	;RP0=1, select bank1
  1708  08D1  1303               	bcf	3,6	;RP1=0, select bank1
  1709  08D2  0823               	movf	(b2@m+3)^(0+128),w
  1710  08D3  1283               	bcf	3,5	;RP0=0, select bank0
  1711  08D4  1303               	bcf	3,6	;RP1=0, select bank0
  1712  08D5  00A7               	movwf	___fldiv@b+3
  1713  08D6  1683               	bsf	3,5	;RP0=1, select bank1
  1714  08D7  1303               	bcf	3,6	;RP1=0, select bank1
  1715  08D8  0822               	movf	(b2@m+2)^(0+128),w
  1716  08D9  1283               	bcf	3,5	;RP0=0, select bank0
  1717  08DA  1303               	bcf	3,6	;RP1=0, select bank0
  1718  08DB  00A6               	movwf	___fldiv@b+2
  1719  08DC  1683               	bsf	3,5	;RP0=1, select bank1
  1720  08DD  1303               	bcf	3,6	;RP1=0, select bank1
  1721  08DE  0821               	movf	(b2@m+1)^(0+128),w
  1722  08DF  1283               	bcf	3,5	;RP0=0, select bank0
  1723  08E0  1303               	bcf	3,6	;RP1=0, select bank0
  1724  08E1  00A5               	movwf	___fldiv@b+1
  1725  08E2  1683               	bsf	3,5	;RP0=1, select bank1
  1726  08E3  1303               	bcf	3,6	;RP1=0, select bank1
  1727  08E4  0820               	movf	b2@m^(0+128),w
  1728  08E5  1283               	bcf	3,5	;RP0=0, select bank0
  1729  08E6  1303               	bcf	3,6	;RP1=0, select bank0
  1730  08E7  00A4               	movwf	___fldiv@b
  1731  08E8  3042               	movlw	66
  1732  08E9  00A3               	movwf	___fldiv@a+3
  1733  08EA  30C8               	movlw	200
  1734  08EB  00A2               	movwf	___fldiv@a+2
  1735  08EC  3000               	movlw	0
  1736  08ED  00A1               	movwf	___fldiv@a+1
  1737  08EE  3000               	movlw	0
  1738  08EF  00A0               	movwf	___fldiv@a
  1739  08F0  120A  118A  2606  120A  158A  	fcall	___fldiv
  1740  08F5  1283               	bcf	3,5	;RP0=0, select bank0
  1741  08F6  1303               	bcf	3,6	;RP1=0, select bank0
  1742  08F7  0823               	movf	?___fldiv+3,w
  1743  08F8  00E7               	movwf	___fltol@f1+3
  1744  08F9  0822               	movf	?___fldiv+2,w
  1745  08FA  00E6               	movwf	___fltol@f1+2
  1746  08FB  0821               	movf	?___fldiv+1,w
  1747  08FC  00E5               	movwf	___fltol@f1+1
  1748  08FD  0820               	movf	?___fldiv,w
  1749  08FE  00E4               	movwf	___fltol@f1
  1750  08FF  120A  158A  21E2  120A  158A  	fcall	___fltol
  1751  0904  1283               	bcf	3,5	;RP0=0, select bank0
  1752  0905  1303               	bcf	3,6	;RP1=0, select bank0
  1753  0906  0864               	movf	?___fltol,w
  1754  0907  00EF               	movwf	??_b2
  1755  0908  086F               	movf	??_b2,w
  1756  0909  1683               	bsf	3,5	;RP0=1, select bank1
  1757  090A  1303               	bcf	3,6	;RP1=0, select bank1
  1758  090B  00A4               	movwf	b2@bb2^(0+128)
  1759  090C                     l3031:	
  1760                           
  1761                           ;parteD.c: 191:     p2 = num_case(bb2);
  1762  090C  0824               	movf	b2@bb2^(0+128),w
  1763  090D  120A  158A  211B  120A  158A  	fcall	_num_case
  1764  0912  1283               	bcf	3,5	;RP0=0, select bank0
  1765  0913  1303               	bcf	3,6	;RP1=0, select bank0
  1766  0914  00EF               	movwf	??_b2
  1767  0915  086F               	movf	??_b2,w
  1768  0916  1683               	bsf	3,5	;RP0=1, select bank1
  1769  0917  1303               	bcf	3,6	;RP1=0, select bank1
  1770  0918  00A5               	movwf	b2@p2^(0+128)
  1771  0919                     l3033:	
  1772                           
  1773                           ;parteD.c: 192:     return p2;
  1774  0919  0825               	movf	b2@p2^(0+128),w
  1775  091A                     l90:	
  1776  091A  0008               	return
  1777  091B                     __end_of_b2:	
  1778                           
  1779                           	psect	text2
  1780  0B1A                     __ptext2:	
  1781 ;; *************** function _b1 *****************
  1782 ;; Defined at:
  1783 ;;		line 195 in file "parteD.c"
  1784 ;; Parameters:    Size  Location     Type
  1785 ;;  m               4    0[BANK1 ] float 
  1786 ;; Auto vars:     Size  Location     Type
  1787 ;;  p1              1   10[BANK1 ] unsigned char 
  1788 ;;  local           1    9[BANK1 ] unsigned char 
  1789 ;;  bb1             1    8[BANK1 ] unsigned char 
  1790 ;;  bb2             1    7[BANK1 ] unsigned char 
  1791 ;; Return value:  Size  Location     Type
  1792 ;;                  1    wreg      unsigned char 
  1793 ;; Registers used:
  1794 ;;		wreg, fsr0l, fsr0h, status,2, status,0, btemp+1, pclath, cstack
  1795 ;; Tracked objects:
  1796 ;;		On entry : 0/0
  1797 ;;		On exit  : 0/0
  1798 ;;		Unchanged: 0/0
  1799 ;; Data sizes:     COMMON   BANK0   BANK1   BANK3   BANK2
  1800 ;;      Params:         0       0       4       0       0
  1801 ;;      Locals:         0       0       4       0       0
  1802 ;;      Temps:          0       0       3       0       0
  1803 ;;      Totals:         0       0      11       0       0
  1804 ;;Total ram usage:       11 bytes
  1805 ;; Hardware stack levels used:    1
  1806 ;; Hardware stack levels required when called:    3
  1807 ;; This function calls:
  1808 ;;		___awdiv
  1809 ;;		___fldiv
  1810 ;;		___flsub
  1811 ;;		___fltol
  1812 ;;		___wmul
  1813 ;;		___xxtofl
  1814 ;;		_num_case
  1815 ;; This function is called by:
  1816 ;;		_main
  1817 ;; This function uses a non-reentrant model
  1818 ;;
  1819                           
  1820                           
  1821                           ;psect for function _b1
  1822  0B1A                     _b1:	
  1823  0B1A                     l3019:	
  1824                           ;incstack = 0
  1825                           ; Regs used in _b1: [wreg-fsr0h+status,2+status,0+btemp+1+pclath+cstack]
  1826                           
  1827                           
  1828                           ;parteD.c: 196:     uint8_t bb2;;parteD.c: 197:     uint8_t bb1;;parteD.c: 198:     uint
      +                          8_t local;;parteD.c: 199:     char p1;;parteD.c: 201:     bb2 = m/100;
  1829  0B1A  1683               	bsf	3,5	;RP0=1, select bank1
  1830  0B1B  1303               	bcf	3,6	;RP1=0, select bank1
  1831  0B1C  0823               	movf	(b1@m+3)^(0+128),w
  1832  0B1D  1283               	bcf	3,5	;RP0=0, select bank0
  1833  0B1E  1303               	bcf	3,6	;RP1=0, select bank0
  1834  0B1F  00A7               	movwf	___fldiv@b+3
  1835  0B20  1683               	bsf	3,5	;RP0=1, select bank1
  1836  0B21  1303               	bcf	3,6	;RP1=0, select bank1
  1837  0B22  0822               	movf	(b1@m+2)^(0+128),w
  1838  0B23  1283               	bcf	3,5	;RP0=0, select bank0
  1839  0B24  1303               	bcf	3,6	;RP1=0, select bank0
  1840  0B25  00A6               	movwf	___fldiv@b+2
  1841  0B26  1683               	bsf	3,5	;RP0=1, select bank1
  1842  0B27  1303               	bcf	3,6	;RP1=0, select bank1
  1843  0B28  0821               	movf	(b1@m+1)^(0+128),w
  1844  0B29  1283               	bcf	3,5	;RP0=0, select bank0
  1845  0B2A  1303               	bcf	3,6	;RP1=0, select bank0
  1846  0B2B  00A5               	movwf	___fldiv@b+1
  1847  0B2C  1683               	bsf	3,5	;RP0=1, select bank1
  1848  0B2D  1303               	bcf	3,6	;RP1=0, select bank1
  1849  0B2E  0820               	movf	b1@m^(0+128),w
  1850  0B2F  1283               	bcf	3,5	;RP0=0, select bank0
  1851  0B30  1303               	bcf	3,6	;RP1=0, select bank0
  1852  0B31  00A4               	movwf	___fldiv@b
  1853  0B32  3042               	movlw	66
  1854  0B33  00A3               	movwf	___fldiv@a+3
  1855  0B34  30C8               	movlw	200
  1856  0B35  00A2               	movwf	___fldiv@a+2
  1857  0B36  3000               	movlw	0
  1858  0B37  00A1               	movwf	___fldiv@a+1
  1859  0B38  3000               	movlw	0
  1860  0B39  00A0               	movwf	___fldiv@a
  1861  0B3A  120A  118A  2606  120A  158A  	fcall	___fldiv
  1862  0B3F  1283               	bcf	3,5	;RP0=0, select bank0
  1863  0B40  1303               	bcf	3,6	;RP1=0, select bank0
  1864  0B41  0823               	movf	?___fldiv+3,w
  1865  0B42  00E7               	movwf	___fltol@f1+3
  1866  0B43  0822               	movf	?___fldiv+2,w
  1867  0B44  00E6               	movwf	___fltol@f1+2
  1868  0B45  0821               	movf	?___fldiv+1,w
  1869  0B46  00E5               	movwf	___fltol@f1+1
  1870  0B47  0820               	movf	?___fldiv,w
  1871  0B48  00E4               	movwf	___fltol@f1
  1872  0B49  120A  158A  21E2  120A  158A  	fcall	___fltol
  1873  0B4E  1283               	bcf	3,5	;RP0=0, select bank0
  1874  0B4F  1303               	bcf	3,6	;RP1=0, select bank0
  1875  0B50  0864               	movf	?___fltol,w
  1876  0B51  1683               	bsf	3,5	;RP0=1, select bank1
  1877  0B52  1303               	bcf	3,6	;RP1=0, select bank1
  1878  0B53  00A4               	movwf	??_b1^(0+128)
  1879  0B54  0824               	movf	??_b1^(0+128),w
  1880  0B55  00A7               	movwf	b1@bb2^(0+128)
  1881                           
  1882                           ;parteD.c: 202:     local = m-bb2*100;
  1883  0B56  0823               	movf	(b1@m+3)^(0+128),w
  1884  0B57  1283               	bcf	3,5	;RP0=0, select bank0
  1885  0B58  1303               	bcf	3,6	;RP1=0, select bank0
  1886  0B59  00E3               	movwf	___flsub@b+3
  1887  0B5A  1683               	bsf	3,5	;RP0=1, select bank1
  1888  0B5B  1303               	bcf	3,6	;RP1=0, select bank1
  1889  0B5C  0822               	movf	(b1@m+2)^(0+128),w
  1890  0B5D  1283               	bcf	3,5	;RP0=0, select bank0
  1891  0B5E  1303               	bcf	3,6	;RP1=0, select bank0
  1892  0B5F  00E2               	movwf	___flsub@b+2
  1893  0B60  1683               	bsf	3,5	;RP0=1, select bank1
  1894  0B61  1303               	bcf	3,6	;RP1=0, select bank1
  1895  0B62  0821               	movf	(b1@m+1)^(0+128),w
  1896  0B63  1283               	bcf	3,5	;RP0=0, select bank0
  1897  0B64  1303               	bcf	3,6	;RP1=0, select bank0
  1898  0B65  00E1               	movwf	___flsub@b+1
  1899  0B66  1683               	bsf	3,5	;RP0=1, select bank1
  1900  0B67  1303               	bcf	3,6	;RP1=0, select bank1
  1901  0B68  0820               	movf	b1@m^(0+128),w
  1902  0B69  1283               	bcf	3,5	;RP0=0, select bank0
  1903  0B6A  1303               	bcf	3,6	;RP1=0, select bank0
  1904  0B6B  00E0               	movwf	___flsub@b
  1905  0B6C  3064               	movlw	100
  1906  0B6D  00F5               	movwf	___wmul@multiplicand
  1907  0B6E  3000               	movlw	0
  1908  0B6F  00F6               	movwf	___wmul@multiplicand+1
  1909  0B70  1683               	bsf	3,5	;RP0=1, select bank1
  1910  0B71  1303               	bcf	3,6	;RP1=0, select bank1
  1911  0B72  0827               	movf	b1@bb2^(0+128),w
  1912  0B73  00A4               	movwf	??_b1^(0+128)
  1913  0B74  01A5               	clrf	(??_b1^(0+128)+1)
  1914  0B75  0824               	movf	??_b1^(0+128),w
  1915  0B76  00F3               	movwf	___wmul@multiplier
  1916  0B77  0825               	movf	(??_b1+1)^(0+128),w
  1917  0B78  00F4               	movwf	___wmul@multiplier+1
  1918  0B79  160A  118A  27B2  120A  158A  	fcall	___wmul
  1919  0B7E  0873               	movf	?___wmul,w
  1920  0B7F  1283               	bcf	3,5	;RP0=0, select bank0
  1921  0B80  1303               	bcf	3,6	;RP1=0, select bank0
  1922  0B81  00A0               	movwf	___xxtofl@val
  1923  0B82  0874               	movf	?___wmul+1,w
  1924  0B83  00A1               	movwf	___xxtofl@val+1
  1925  0B84  3000               	movlw	0
  1926  0B85  1BA1               	btfsc	___xxtofl@val+1,7
  1927  0B86  30FF               	movlw	255
  1928  0B87  00A2               	movwf	___xxtofl@val+2
  1929  0B88  00A3               	movwf	___xxtofl@val+3
  1930  0B89  3001               	movlw	1
  1931  0B8A  120A  158A  225E  120A  158A  	fcall	___xxtofl
  1932  0B8F  1283               	bcf	3,5	;RP0=0, select bank0
  1933  0B90  1303               	bcf	3,6	;RP1=0, select bank0
  1934  0B91  0823               	movf	?___xxtofl+3,w
  1935  0B92  00DF               	movwf	___flsub@a+3
  1936  0B93  0822               	movf	?___xxtofl+2,w
  1937  0B94  00DE               	movwf	___flsub@a+2
  1938  0B95  0821               	movf	?___xxtofl+1,w
  1939  0B96  00DD               	movwf	___flsub@a+1
  1940  0B97  0820               	movf	?___xxtofl,w
  1941  0B98  00DC               	movwf	___flsub@a
  1942  0B99  160A  118A  278E  120A  158A  	fcall	___flsub
  1943  0B9E  1283               	bcf	3,5	;RP0=0, select bank0
  1944  0B9F  1303               	bcf	3,6	;RP1=0, select bank0
  1945  0BA0  085F               	movf	?___flsub+3,w
  1946  0BA1  00E7               	movwf	___fltol@f1+3
  1947  0BA2  085E               	movf	?___flsub+2,w
  1948  0BA3  00E6               	movwf	___fltol@f1+2
  1949  0BA4  085D               	movf	?___flsub+1,w
  1950  0BA5  00E5               	movwf	___fltol@f1+1
  1951  0BA6  085C               	movf	?___flsub,w
  1952  0BA7  00E4               	movwf	___fltol@f1
  1953  0BA8  120A  158A  21E2  120A  158A  	fcall	___fltol
  1954  0BAD  1283               	bcf	3,5	;RP0=0, select bank0
  1955  0BAE  1303               	bcf	3,6	;RP1=0, select bank0
  1956  0BAF  0864               	movf	?___fltol,w
  1957  0BB0  1683               	bsf	3,5	;RP0=1, select bank1
  1958  0BB1  1303               	bcf	3,6	;RP1=0, select bank1
  1959  0BB2  00A6               	movwf	(??_b1+2)^(0+128)
  1960  0BB3  0826               	movf	(??_b1+2)^(0+128),w
  1961  0BB4  00A9               	movwf	b1@local^(0+128)
  1962  0BB5                     l3021:	
  1963                           
  1964                           ;parteD.c: 203:     bb1 = local/10;
  1965  0BB5  300A               	movlw	10
  1966  0BB6  00F3               	movwf	___awdiv@divisor
  1967  0BB7  3000               	movlw	0
  1968  0BB8  00F4               	movwf	___awdiv@divisor+1
  1969  0BB9  0829               	movf	b1@local^(0+128),w
  1970  0BBA  00A4               	movwf	??_b1^(0+128)
  1971  0BBB  01A5               	clrf	(??_b1^(0+128)+1)
  1972  0BBC  0824               	movf	??_b1^(0+128),w
  1973  0BBD  00F5               	movwf	___awdiv@dividend
  1974  0BBE  0825               	movf	(??_b1+1)^(0+128),w
  1975  0BBF  00F6               	movwf	___awdiv@dividend+1
  1976  0BC0  120A  158A  2179  120A  158A  	fcall	___awdiv
  1977  0BC5  0873               	movf	?___awdiv,w
  1978  0BC6  1683               	bsf	3,5	;RP0=1, select bank1
  1979  0BC7  1303               	bcf	3,6	;RP1=0, select bank1
  1980  0BC8  00A6               	movwf	(??_b1+2)^(0+128)
  1981  0BC9  0826               	movf	(??_b1+2)^(0+128),w
  1982  0BCA  00A8               	movwf	b1@bb1^(0+128)
  1983  0BCB                     l3023:	
  1984                           
  1985                           ;parteD.c: 204:     p1 = num_case(bb1);
  1986  0BCB  0828               	movf	b1@bb1^(0+128),w
  1987  0BCC  120A  158A  211B  120A  158A  	fcall	_num_case
  1988  0BD1  1683               	bsf	3,5	;RP0=1, select bank1
  1989  0BD2  1303               	bcf	3,6	;RP1=0, select bank1
  1990  0BD3  00A4               	movwf	??_b1^(0+128)
  1991  0BD4  0824               	movf	??_b1^(0+128),w
  1992  0BD5  00AA               	movwf	b1@p1^(0+128)
  1993  0BD6                     l3025:	
  1994                           
  1995                           ;parteD.c: 205:     return p1;
  1996  0BD6  082A               	movf	b1@p1^(0+128),w
  1997  0BD7                     l93:	
  1998  0BD7  0008               	return
  1999  0BD8                     __end_of_b1:	
  2000                           
  2001                           	psect	text3
  2002  0BD8                     __ptext3:	
  2003 ;; *************** function _b0 *****************
  2004 ;; Defined at:
  2005 ;;		line 208 in file "parteD.c"
  2006 ;; Parameters:    Size  Location     Type
  2007 ;;  m               4    0[BANK1 ] float 
  2008 ;; Auto vars:     Size  Location     Type
  2009 ;;  local           1   11[BANK1 ] unsigned char 
  2010 ;;  p0              1   10[BANK1 ] unsigned char 
  2011 ;;  bb0             1    9[BANK1 ] unsigned char 
  2012 ;;  bb1             1    8[BANK1 ] unsigned char 
  2013 ;;  bb2             1    7[BANK1 ] unsigned char 
  2014 ;; Return value:  Size  Location     Type
  2015 ;;                  1    wreg      unsigned char 
  2016 ;; Registers used:
  2017 ;;		wreg, fsr0l, fsr0h, status,2, status,0, btemp+1, pclath, cstack
  2018 ;; Tracked objects:
  2019 ;;		On entry : 0/0
  2020 ;;		On exit  : 0/0
  2021 ;;		Unchanged: 0/0
  2022 ;; Data sizes:     COMMON   BANK0   BANK1   BANK3   BANK2
  2023 ;;      Params:         0       0       4       0       0
  2024 ;;      Locals:         0       0       5       0       0
  2025 ;;      Temps:          0       0       3       0       0
  2026 ;;      Totals:         0       0      12       0       0
  2027 ;;Total ram usage:       12 bytes
  2028 ;; Hardware stack levels used:    1
  2029 ;; Hardware stack levels required when called:    3
  2030 ;; This function calls:
  2031 ;;		___awdiv
  2032 ;;		___bmul
  2033 ;;		___fldiv
  2034 ;;		___flsub
  2035 ;;		___fltol
  2036 ;;		___wmul
  2037 ;;		___xxtofl
  2038 ;;		_num_case
  2039 ;; This function is called by:
  2040 ;;		_main
  2041 ;; This function uses a non-reentrant model
  2042 ;;
  2043                           
  2044                           
  2045                           ;psect for function _b0
  2046  0BD8                     _b0:	
  2047  0BD8                     l3007:	
  2048                           ;incstack = 0
  2049                           ; Regs used in _b0: [wreg-fsr0h+status,2+status,0+btemp+1+pclath+cstack]
  2050                           
  2051                           
  2052                           ;parteD.c: 209:     uint8_t bb2;;parteD.c: 210:     uint8_t bb1;;parteD.c: 211:     uint
      +                          8_t bb0;;parteD.c: 212:     uint8_t local;;parteD.c: 213:     char p0;;parteD.c: 215:   
      +                            bb2 = m/100;
  2053  0BD8  1683               	bsf	3,5	;RP0=1, select bank1
  2054  0BD9  1303               	bcf	3,6	;RP1=0, select bank1
  2055  0BDA  0823               	movf	(b0@m+3)^(0+128),w
  2056  0BDB  1283               	bcf	3,5	;RP0=0, select bank0
  2057  0BDC  1303               	bcf	3,6	;RP1=0, select bank0
  2058  0BDD  00A7               	movwf	___fldiv@b+3
  2059  0BDE  1683               	bsf	3,5	;RP0=1, select bank1
  2060  0BDF  1303               	bcf	3,6	;RP1=0, select bank1
  2061  0BE0  0822               	movf	(b0@m+2)^(0+128),w
  2062  0BE1  1283               	bcf	3,5	;RP0=0, select bank0
  2063  0BE2  1303               	bcf	3,6	;RP1=0, select bank0
  2064  0BE3  00A6               	movwf	___fldiv@b+2
  2065  0BE4  1683               	bsf	3,5	;RP0=1, select bank1
  2066  0BE5  1303               	bcf	3,6	;RP1=0, select bank1
  2067  0BE6  0821               	movf	(b0@m+1)^(0+128),w
  2068  0BE7  1283               	bcf	3,5	;RP0=0, select bank0
  2069  0BE8  1303               	bcf	3,6	;RP1=0, select bank0
  2070  0BE9  00A5               	movwf	___fldiv@b+1
  2071  0BEA  1683               	bsf	3,5	;RP0=1, select bank1
  2072  0BEB  1303               	bcf	3,6	;RP1=0, select bank1
  2073  0BEC  0820               	movf	b0@m^(0+128),w
  2074  0BED  1283               	bcf	3,5	;RP0=0, select bank0
  2075  0BEE  1303               	bcf	3,6	;RP1=0, select bank0
  2076  0BEF  00A4               	movwf	___fldiv@b
  2077  0BF0  3042               	movlw	66
  2078  0BF1  00A3               	movwf	___fldiv@a+3
  2079  0BF2  30C8               	movlw	200
  2080  0BF3  00A2               	movwf	___fldiv@a+2
  2081  0BF4  3000               	movlw	0
  2082  0BF5  00A1               	movwf	___fldiv@a+1
  2083  0BF6  3000               	movlw	0
  2084  0BF7  00A0               	movwf	___fldiv@a
  2085  0BF8  120A  118A  2606  120A  158A  	fcall	___fldiv
  2086  0BFD  1283               	bcf	3,5	;RP0=0, select bank0
  2087  0BFE  1303               	bcf	3,6	;RP1=0, select bank0
  2088  0BFF  0823               	movf	?___fldiv+3,w
  2089  0C00  00E7               	movwf	___fltol@f1+3
  2090  0C01  0822               	movf	?___fldiv+2,w
  2091  0C02  00E6               	movwf	___fltol@f1+2
  2092  0C03  0821               	movf	?___fldiv+1,w
  2093  0C04  00E5               	movwf	___fltol@f1+1
  2094  0C05  0820               	movf	?___fldiv,w
  2095  0C06  00E4               	movwf	___fltol@f1
  2096  0C07  120A  158A  21E2  120A  158A  	fcall	___fltol
  2097  0C0C  1283               	bcf	3,5	;RP0=0, select bank0
  2098  0C0D  1303               	bcf	3,6	;RP1=0, select bank0
  2099  0C0E  0864               	movf	?___fltol,w
  2100  0C0F  1683               	bsf	3,5	;RP0=1, select bank1
  2101  0C10  1303               	bcf	3,6	;RP1=0, select bank1
  2102  0C11  00A4               	movwf	??_b0^(0+128)
  2103  0C12  0824               	movf	??_b0^(0+128),w
  2104  0C13  00A7               	movwf	b0@bb2^(0+128)
  2105                           
  2106                           ;parteD.c: 216:     local = m-bb2*100;
  2107  0C14  0823               	movf	(b0@m+3)^(0+128),w
  2108  0C15  1283               	bcf	3,5	;RP0=0, select bank0
  2109  0C16  1303               	bcf	3,6	;RP1=0, select bank0
  2110  0C17  00E3               	movwf	___flsub@b+3
  2111  0C18  1683               	bsf	3,5	;RP0=1, select bank1
  2112  0C19  1303               	bcf	3,6	;RP1=0, select bank1
  2113  0C1A  0822               	movf	(b0@m+2)^(0+128),w
  2114  0C1B  1283               	bcf	3,5	;RP0=0, select bank0
  2115  0C1C  1303               	bcf	3,6	;RP1=0, select bank0
  2116  0C1D  00E2               	movwf	___flsub@b+2
  2117  0C1E  1683               	bsf	3,5	;RP0=1, select bank1
  2118  0C1F  1303               	bcf	3,6	;RP1=0, select bank1
  2119  0C20  0821               	movf	(b0@m+1)^(0+128),w
  2120  0C21  1283               	bcf	3,5	;RP0=0, select bank0
  2121  0C22  1303               	bcf	3,6	;RP1=0, select bank0
  2122  0C23  00E1               	movwf	___flsub@b+1
  2123  0C24  1683               	bsf	3,5	;RP0=1, select bank1
  2124  0C25  1303               	bcf	3,6	;RP1=0, select bank1
  2125  0C26  0820               	movf	b0@m^(0+128),w
  2126  0C27  1283               	bcf	3,5	;RP0=0, select bank0
  2127  0C28  1303               	bcf	3,6	;RP1=0, select bank0
  2128  0C29  00E0               	movwf	___flsub@b
  2129  0C2A  3064               	movlw	100
  2130  0C2B  00F5               	movwf	___wmul@multiplicand
  2131  0C2C  3000               	movlw	0
  2132  0C2D  00F6               	movwf	___wmul@multiplicand+1
  2133  0C2E  1683               	bsf	3,5	;RP0=1, select bank1
  2134  0C2F  1303               	bcf	3,6	;RP1=0, select bank1
  2135  0C30  0827               	movf	b0@bb2^(0+128),w
  2136  0C31  00A4               	movwf	??_b0^(0+128)
  2137  0C32  01A5               	clrf	(??_b0^(0+128)+1)
  2138  0C33  0824               	movf	??_b0^(0+128),w
  2139  0C34  00F3               	movwf	___wmul@multiplier
  2140  0C35  0825               	movf	(??_b0+1)^(0+128),w
  2141  0C36  00F4               	movwf	___wmul@multiplier+1
  2142  0C37  160A  118A  27B2  120A  158A  	fcall	___wmul
  2143  0C3C  0873               	movf	?___wmul,w
  2144  0C3D  1283               	bcf	3,5	;RP0=0, select bank0
  2145  0C3E  1303               	bcf	3,6	;RP1=0, select bank0
  2146  0C3F  00A0               	movwf	___xxtofl@val
  2147  0C40  0874               	movf	?___wmul+1,w
  2148  0C41  00A1               	movwf	___xxtofl@val+1
  2149  0C42  3000               	movlw	0
  2150  0C43  1BA1               	btfsc	___xxtofl@val+1,7
  2151  0C44  30FF               	movlw	255
  2152  0C45  00A2               	movwf	___xxtofl@val+2
  2153  0C46  00A3               	movwf	___xxtofl@val+3
  2154  0C47  3001               	movlw	1
  2155  0C48  120A  158A  225E  120A  158A  	fcall	___xxtofl
  2156  0C4D  1283               	bcf	3,5	;RP0=0, select bank0
  2157  0C4E  1303               	bcf	3,6	;RP1=0, select bank0
  2158  0C4F  0823               	movf	?___xxtofl+3,w
  2159  0C50  00DF               	movwf	___flsub@a+3
  2160  0C51  0822               	movf	?___xxtofl+2,w
  2161  0C52  00DE               	movwf	___flsub@a+2
  2162  0C53  0821               	movf	?___xxtofl+1,w
  2163  0C54  00DD               	movwf	___flsub@a+1
  2164  0C55  0820               	movf	?___xxtofl,w
  2165  0C56  00DC               	movwf	___flsub@a
  2166  0C57  160A  118A  278E  120A  158A  	fcall	___flsub
  2167  0C5C  1283               	bcf	3,5	;RP0=0, select bank0
  2168  0C5D  1303               	bcf	3,6	;RP1=0, select bank0
  2169  0C5E  085F               	movf	?___flsub+3,w
  2170  0C5F  00E7               	movwf	___fltol@f1+3
  2171  0C60  085E               	movf	?___flsub+2,w
  2172  0C61  00E6               	movwf	___fltol@f1+2
  2173  0C62  085D               	movf	?___flsub+1,w
  2174  0C63  00E5               	movwf	___fltol@f1+1
  2175  0C64  085C               	movf	?___flsub,w
  2176  0C65  00E4               	movwf	___fltol@f1
  2177  0C66  120A  158A  21E2  120A  158A  	fcall	___fltol
  2178  0C6B  1283               	bcf	3,5	;RP0=0, select bank0
  2179  0C6C  1303               	bcf	3,6	;RP1=0, select bank0
  2180  0C6D  0864               	movf	?___fltol,w
  2181  0C6E  1683               	bsf	3,5	;RP0=1, select bank1
  2182  0C6F  1303               	bcf	3,6	;RP1=0, select bank1
  2183  0C70  00A6               	movwf	(??_b0+2)^(0+128)
  2184  0C71  0826               	movf	(??_b0+2)^(0+128),w
  2185  0C72  00AB               	movwf	b0@local^(0+128)
  2186  0C73                     l3009:	
  2187                           
  2188                           ;parteD.c: 217:     bb1 = local/10;
  2189  0C73  300A               	movlw	10
  2190  0C74  00F3               	movwf	___awdiv@divisor
  2191  0C75  3000               	movlw	0
  2192  0C76  00F4               	movwf	___awdiv@divisor+1
  2193  0C77  082B               	movf	b0@local^(0+128),w
  2194  0C78  00A4               	movwf	??_b0^(0+128)
  2195  0C79  01A5               	clrf	(??_b0^(0+128)+1)
  2196  0C7A  0824               	movf	??_b0^(0+128),w
  2197  0C7B  00F5               	movwf	___awdiv@dividend
  2198  0C7C  0825               	movf	(??_b0+1)^(0+128),w
  2199  0C7D  00F6               	movwf	___awdiv@dividend+1
  2200  0C7E  120A  158A  2179  120A  158A  	fcall	___awdiv
  2201  0C83  0873               	movf	?___awdiv,w
  2202  0C84  1683               	bsf	3,5	;RP0=1, select bank1
  2203  0C85  1303               	bcf	3,6	;RP1=0, select bank1
  2204  0C86  00A6               	movwf	(??_b0+2)^(0+128)
  2205  0C87  0826               	movf	(??_b0+2)^(0+128),w
  2206  0C88  00A8               	movwf	b0@bb1^(0+128)
  2207  0C89                     l3011:	
  2208                           
  2209                           ;parteD.c: 218:     bb0 = local-bb1*10;
  2210  0C89  30F6               	movlw	246
  2211  0C8A  00A4               	movwf	??_b0^(0+128)
  2212  0C8B  0824               	movf	??_b0^(0+128),w
  2213  0C8C  00F3               	movwf	___bmul@multiplicand
  2214  0C8D  0828               	movf	b0@bb1^(0+128),w
  2215  0C8E  160A  118A  2729  120A  158A  	fcall	___bmul
  2216  0C93  1683               	bsf	3,5	;RP0=1, select bank1
  2217  0C94  1303               	bcf	3,6	;RP1=0, select bank1
  2218  0C95  072B               	addwf	b0@local^(0+128),w
  2219  0C96  00A5               	movwf	(??_b0+1)^(0+128)
  2220  0C97  0825               	movf	(??_b0+1)^(0+128),w
  2221  0C98  00A9               	movwf	b0@bb0^(0+128)
  2222  0C99                     l3013:	
  2223                           
  2224                           ;parteD.c: 219:     p0 = num_case(bb0);
  2225  0C99  0829               	movf	b0@bb0^(0+128),w
  2226  0C9A  120A  158A  211B  120A  158A  	fcall	_num_case
  2227  0C9F  1683               	bsf	3,5	;RP0=1, select bank1
  2228  0CA0  1303               	bcf	3,6	;RP1=0, select bank1
  2229  0CA1  00A4               	movwf	??_b0^(0+128)
  2230  0CA2  0824               	movf	??_b0^(0+128),w
  2231  0CA3  00AA               	movwf	b0@p0^(0+128)
  2232  0CA4                     l3015:	
  2233                           
  2234                           ;parteD.c: 220:     return p0;
  2235  0CA4  082A               	movf	b0@p0^(0+128),w
  2236  0CA5                     l96:	
  2237  0CA5  0008               	return
  2238  0CA6                     __end_of_b0:	
  2239                           
  2240                           	psect	text4
  2241  091B                     __ptext4:	
  2242 ;; *************** function _num_case *****************
  2243 ;; Defined at:
  2244 ;;		line 138 in file "parteD.c"
  2245 ;; Parameters:    Size  Location     Type
  2246 ;;  num             1    wreg     unsigned char 
  2247 ;; Auto vars:     Size  Location     Type
  2248 ;;  num             1    5[COMMON] unsigned char 
  2249 ;;  r               1    6[COMMON] unsigned char 
  2250 ;; Return value:  Size  Location     Type
  2251 ;;                  1    wreg      unsigned char 
  2252 ;; Registers used:
  2253 ;;		wreg, fsr0l, fsr0h, status,2, status,0
  2254 ;; Tracked objects:
  2255 ;;		On entry : 0/0
  2256 ;;		On exit  : 0/0
  2257 ;;		Unchanged: 0/0
  2258 ;; Data sizes:     COMMON   BANK0   BANK1   BANK3   BANK2
  2259 ;;      Params:         0       0       0       0       0
  2260 ;;      Locals:         2       0       0       0       0
  2261 ;;      Temps:          2       0       0       0       0
  2262 ;;      Totals:         4       0       0       0       0
  2263 ;;Total ram usage:        4 bytes
  2264 ;; Hardware stack levels used:    1
  2265 ;; Hardware stack levels required when called:    1
  2266 ;; This function calls:
  2267 ;;		Nothing
  2268 ;; This function is called by:
  2269 ;;		_b2
  2270 ;;		_b1
  2271 ;;		_b0
  2272 ;; This function uses a non-reentrant model
  2273 ;;
  2274                           
  2275                           
  2276                           ;psect for function _num_case
  2277  091B                     _num_case:	
  2278                           
  2279                           ;incstack = 0
  2280                           ; Regs used in _num_case: [wreg-fsr0h+status,2+status,0]
  2281                           ;num_case@num stored from wreg
  2282  091B  00F5               	movwf	num_case@num
  2283  091C                     l2043:	
  2284                           
  2285                           ;parteD.c: 139:     char r;;parteD.c: 140:     switch(num){
  2286  091C  294F               	goto	l2067
  2287  091D                     l2045:	
  2288                           
  2289                           ;parteD.c: 142:             r = '0';
  2290  091D  3030               	movlw	48
  2291  091E  00F3               	movwf	??_num_case
  2292  091F  0873               	movf	??_num_case,w
  2293  0920  00F6               	movwf	num_case@r
  2294                           
  2295                           ;parteD.c: 143:             break;
  2296  0921  2977               	goto	l2069
  2297  0922                     l2047:	
  2298                           
  2299                           ;parteD.c: 145:             r = '1';
  2300  0922  3031               	movlw	49
  2301  0923  00F3               	movwf	??_num_case
  2302  0924  0873               	movf	??_num_case,w
  2303  0925  00F6               	movwf	num_case@r
  2304                           
  2305                           ;parteD.c: 146:             break;
  2306  0926  2977               	goto	l2069
  2307  0927                     l2049:	
  2308                           
  2309                           ;parteD.c: 148:             r = '2';
  2310  0927  3032               	movlw	50
  2311  0928  00F3               	movwf	??_num_case
  2312  0929  0873               	movf	??_num_case,w
  2313  092A  00F6               	movwf	num_case@r
  2314                           
  2315                           ;parteD.c: 149:             break;
  2316  092B  2977               	goto	l2069
  2317  092C                     l2051:	
  2318                           
  2319                           ;parteD.c: 151:             r = '3';
  2320  092C  3033               	movlw	51
  2321  092D  00F3               	movwf	??_num_case
  2322  092E  0873               	movf	??_num_case,w
  2323  092F  00F6               	movwf	num_case@r
  2324                           
  2325                           ;parteD.c: 152:             break;
  2326  0930  2977               	goto	l2069
  2327  0931                     l2053:	
  2328                           
  2329                           ;parteD.c: 154:             r = '4';
  2330  0931  3034               	movlw	52
  2331  0932  00F3               	movwf	??_num_case
  2332  0933  0873               	movf	??_num_case,w
  2333  0934  00F6               	movwf	num_case@r
  2334                           
  2335                           ;parteD.c: 155:             break;
  2336  0935  2977               	goto	l2069
  2337  0936                     l2055:	
  2338                           
  2339                           ;parteD.c: 157:             r = '5';
  2340  0936  3035               	movlw	53
  2341  0937  00F3               	movwf	??_num_case
  2342  0938  0873               	movf	??_num_case,w
  2343  0939  00F6               	movwf	num_case@r
  2344                           
  2345                           ;parteD.c: 158:             break;
  2346  093A  2977               	goto	l2069
  2347  093B                     l2057:	
  2348                           
  2349                           ;parteD.c: 160:             r = '6';
  2350  093B  3036               	movlw	54
  2351  093C  00F3               	movwf	??_num_case
  2352  093D  0873               	movf	??_num_case,w
  2353  093E  00F6               	movwf	num_case@r
  2354                           
  2355                           ;parteD.c: 161:             break;
  2356  093F  2977               	goto	l2069
  2357  0940                     l2059:	
  2358                           
  2359                           ;parteD.c: 163:             r = '7';
  2360  0940  3037               	movlw	55
  2361  0941  00F3               	movwf	??_num_case
  2362  0942  0873               	movf	??_num_case,w
  2363  0943  00F6               	movwf	num_case@r
  2364                           
  2365                           ;parteD.c: 164:             break;
  2366  0944  2977               	goto	l2069
  2367  0945                     l2061:	
  2368                           
  2369                           ;parteD.c: 166:             r = '8';
  2370  0945  3038               	movlw	56
  2371  0946  00F3               	movwf	??_num_case
  2372  0947  0873               	movf	??_num_case,w
  2373  0948  00F6               	movwf	num_case@r
  2374                           
  2375                           ;parteD.c: 167:             break;
  2376  0949  2977               	goto	l2069
  2377  094A                     l2063:	
  2378                           
  2379                           ;parteD.c: 169:             r = '9';
  2380  094A  3039               	movlw	57
  2381  094B  00F3               	movwf	??_num_case
  2382  094C  0873               	movf	??_num_case,w
  2383  094D  00F6               	movwf	num_case@r
  2384                           
  2385                           ;parteD.c: 170:             break;
  2386  094E  2977               	goto	l2069
  2387  094F                     l2067:	
  2388  094F  0875               	movf	num_case@num,w
  2389  0950  00F3               	movwf	??_num_case
  2390  0951  01F4               	clrf	??_num_case+1
  2391                           
  2392                           ; Switch on 2 bytes has been partitioned into a top level switch of size 1, and 1 sub-sw
      +                          itches
  2393                           ; Switch size 1, requested type "simple"
  2394                           ; Number of cases is 1, Range of values is 0 to 0
  2395                           ; switch strategies available:
  2396                           ; Name         Instructions Cycles
  2397                           ; simple_byte            4     3 (average)
  2398                           ; direct_byte           11     8 (fixed)
  2399                           ; jumptable            260     6 (fixed)
  2400                           ;	Chosen strategy is simple_byte
  2401  0952  0874               	movf	??_num_case+1,w
  2402  0953  3A00               	xorlw	0	; case 0
  2403  0954  1903               	skipnz
  2404  0955  2957               	goto	l3179
  2405  0956  2977               	goto	l2069
  2406  0957                     l3179:	
  2407                           
  2408                           ; Switch size 1, requested type "simple"
  2409                           ; Number of cases is 10, Range of values is 0 to 9
  2410                           ; switch strategies available:
  2411                           ; Name         Instructions Cycles
  2412                           ; simple_byte           31    16 (average)
  2413                           ; direct_byte           38     8 (fixed)
  2414                           ; jumptable            260     6 (fixed)
  2415                           ;	Chosen strategy is simple_byte
  2416  0957  0873               	movf	??_num_case,w
  2417  0958  3A00               	xorlw	0	; case 0
  2418  0959  1903               	skipnz
  2419  095A  291D               	goto	l2045
  2420  095B  3A01               	xorlw	1	; case 1
  2421  095C  1903               	skipnz
  2422  095D  2922               	goto	l2047
  2423  095E  3A03               	xorlw	3	; case 2
  2424  095F  1903               	skipnz
  2425  0960  2927               	goto	l2049
  2426  0961  3A01               	xorlw	1	; case 3
  2427  0962  1903               	skipnz
  2428  0963  292C               	goto	l2051
  2429  0964  3A07               	xorlw	7	; case 4
  2430  0965  1903               	skipnz
  2431  0966  2931               	goto	l2053
  2432  0967  3A01               	xorlw	1	; case 5
  2433  0968  1903               	skipnz
  2434  0969  2936               	goto	l2055
  2435  096A  3A03               	xorlw	3	; case 6
  2436  096B  1903               	skipnz
  2437  096C  293B               	goto	l2057
  2438  096D  3A01               	xorlw	1	; case 7
  2439  096E  1903               	skipnz
  2440  096F  2940               	goto	l2059
  2441  0970  3A0F               	xorlw	15	; case 8
  2442  0971  1903               	skipnz
  2443  0972  2945               	goto	l2061
  2444  0973  3A01               	xorlw	1	; case 9
  2445  0974  1903               	skipnz
  2446  0975  294A               	goto	l2063
  2447  0976  2977               	goto	l2069
  2448  0977                     l2069:	
  2449                           
  2450                           ;parteD.c: 172:     return r;
  2451  0977  0876               	movf	num_case@r,w
  2452  0978                     l87:	
  2453  0978  0008               	return
  2454  0979                     __end_of_num_case:	
  2455                           
  2456                           	psect	text5
  2457  0A5E                     __ptext5:	
  2458 ;; *************** function ___xxtofl *****************
  2459 ;; Defined at:
  2460 ;;		line 10 in file "C:\Program Files (x86)\Microchip\xc8\v2.10\pic\sources\c90\common\xxtofl.c"
  2461 ;; Parameters:    Size  Location     Type
  2462 ;;  sign            1    wreg     unsigned char 
  2463 ;;  val             4    0[BANK0 ] long 
  2464 ;; Auto vars:     Size  Location     Type
  2465 ;;  sign            1    8[BANK0 ] unsigned char 
  2466 ;;  arg             4   10[BANK0 ] unsigned long 
  2467 ;;  exp             1    9[BANK0 ] unsigned char 
  2468 ;; Return value:  Size  Location     Type
  2469 ;;                  4    0[BANK0 ] unsigned char 
  2470 ;; Registers used:
  2471 ;;		wreg, status,2, status,0
  2472 ;; Tracked objects:
  2473 ;;		On entry : 0/0
  2474 ;;		On exit  : 0/0
  2475 ;;		Unchanged: 0/0
  2476 ;; Data sizes:     COMMON   BANK0   BANK1   BANK3   BANK2
  2477 ;;      Params:         0       4       0       0       0
  2478 ;;      Locals:         0       6       0       0       0
  2479 ;;      Temps:          0       4       0       0       0
  2480 ;;      Totals:         0      14       0       0       0
  2481 ;;Total ram usage:       14 bytes
  2482 ;; Hardware stack levels used:    1
  2483 ;; Hardware stack levels required when called:    1
  2484 ;; This function calls:
  2485 ;;		Nothing
  2486 ;; This function is called by:
  2487 ;;		_main
  2488 ;;		_b1
  2489 ;;		_b0
  2490 ;; This function uses a non-reentrant model
  2491 ;;
  2492                           
  2493                           
  2494                           ;psect for function ___xxtofl
  2495  0A5E                     ___xxtofl:	
  2496                           
  2497                           ;incstack = 0
  2498                           ; Regs used in ___xxtofl: [wreg+status,2+status,0]
  2499                           ;___xxtofl@sign stored from wreg
  2500  0A5E  1283               	bcf	3,5	;RP0=0, select bank0
  2501  0A5F  1303               	bcf	3,6	;RP1=0, select bank0
  2502  0A60  00A8               	movwf	___xxtofl@sign
  2503  0A61                     l2369:	
  2504  0A61  0828               	movf	___xxtofl@sign,w
  2505  0A62  1903               	btfsc	3,2
  2506  0A63  2A65               	goto	u2881
  2507  0A64  2A66               	goto	u2880
  2508  0A65                     u2881:	
  2509  0A65  2A7A               	goto	l2375
  2510  0A66                     u2880:	
  2511  0A66                     l2371:	
  2512  0A66  1FA3               	btfss	___xxtofl@val+3,7
  2513  0A67  2A69               	goto	u2891
  2514  0A68  2A6A               	goto	u2890
  2515  0A69                     u2891:	
  2516  0A69  2A7A               	goto	l2375
  2517  0A6A                     u2890:	
  2518  0A6A                     l2373:	
  2519  0A6A  0920               	comf	___xxtofl@val,w
  2520  0A6B  00AA               	movwf	___xxtofl@arg
  2521  0A6C  0921               	comf	___xxtofl@val+1,w
  2522  0A6D  00AB               	movwf	___xxtofl@arg+1
  2523  0A6E  0922               	comf	___xxtofl@val+2,w
  2524  0A6F  00AC               	movwf	___xxtofl@arg+2
  2525  0A70  0923               	comf	___xxtofl@val+3,w
  2526  0A71  00AD               	movwf	___xxtofl@arg+3
  2527  0A72  0AAA               	incf	___xxtofl@arg,f
  2528  0A73  1903               	skipnz
  2529  0A74  0AAB               	incf	___xxtofl@arg+1,f
  2530  0A75  1903               	skipnz
  2531  0A76  0AAC               	incf	___xxtofl@arg+2,f
  2532  0A77  1903               	skipnz
  2533  0A78  0AAD               	incf	___xxtofl@arg+3,f
  2534  0A79  2A82               	goto	l726
  2535  0A7A                     l2375:	
  2536  0A7A  0823               	movf	___xxtofl@val+3,w
  2537  0A7B  00AD               	movwf	___xxtofl@arg+3
  2538  0A7C  0822               	movf	___xxtofl@val+2,w
  2539  0A7D  00AC               	movwf	___xxtofl@arg+2
  2540  0A7E  0821               	movf	___xxtofl@val+1,w
  2541  0A7F  00AB               	movwf	___xxtofl@arg+1
  2542  0A80  0820               	movf	___xxtofl@val,w
  2543  0A81  00AA               	movwf	___xxtofl@arg
  2544  0A82                     l726:	
  2545  0A82  0823               	movf	___xxtofl@val+3,w
  2546  0A83  0422               	iorwf	___xxtofl@val+2,w
  2547  0A84  0421               	iorwf	___xxtofl@val+1,w
  2548  0A85  0420               	iorwf	___xxtofl@val,w
  2549  0A86  1D03               	skipz
  2550  0A87  2A89               	goto	u2901
  2551  0A88  2A8A               	goto	u2900
  2552  0A89                     u2901:	
  2553  0A89  2A93               	goto	l2381
  2554  0A8A                     u2900:	
  2555  0A8A                     l2377:	
  2556  0A8A  3000               	movlw	0
  2557  0A8B  00A3               	movwf	?___xxtofl+3
  2558  0A8C  3000               	movlw	0
  2559  0A8D  00A2               	movwf	?___xxtofl+2
  2560  0A8E  3000               	movlw	0
  2561  0A8F  00A1               	movwf	?___xxtofl+1
  2562  0A90  3000               	movlw	0
  2563  0A91  00A0               	movwf	?___xxtofl
  2564  0A92  2B19               	goto	l728
  2565  0A93                     l2381:	
  2566  0A93  3096               	movlw	150
  2567  0A94  00A4               	movwf	??___xxtofl
  2568  0A95  0824               	movf	??___xxtofl,w
  2569  0A96  00A9               	movwf	___xxtofl@exp
  2570  0A97  2AA5               	goto	l2385
  2571  0A98                     l2383:	
  2572  0A98  3001               	movlw	1
  2573  0A99  00A4               	movwf	??___xxtofl
  2574  0A9A  0824               	movf	??___xxtofl,w
  2575  0A9B  07A9               	addwf	___xxtofl@exp,f
  2576  0A9C  3001               	movlw	1
  2577  0A9D                     u2915:	
  2578  0A9D  1003               	clrc
  2579  0A9E  0CAD               	rrf	___xxtofl@arg+3,f
  2580  0A9F  0CAC               	rrf	___xxtofl@arg+2,f
  2581  0AA0  0CAB               	rrf	___xxtofl@arg+1,f
  2582  0AA1  0CAA               	rrf	___xxtofl@arg,f
  2583  0AA2  3EFF               	addlw	-1
  2584  0AA3  1D03               	skipz
  2585  0AA4  2A9D               	goto	u2915
  2586  0AA5                     l2385:	
  2587  0AA5  30FE               	movlw	254
  2588  0AA6  052D               	andwf	___xxtofl@arg+3,w
  2589  0AA7  1D03               	btfss	3,2
  2590  0AA8  2AAA               	goto	u2921
  2591  0AA9  2AAB               	goto	u2920
  2592  0AAA                     u2921:	
  2593  0AAA  2A98               	goto	l2383
  2594  0AAB                     u2920:	
  2595  0AAB  2AC7               	goto	l732
  2596  0AAC                     l2387:	
  2597  0AAC  3001               	movlw	1
  2598  0AAD  00A4               	movwf	??___xxtofl
  2599  0AAE  0824               	movf	??___xxtofl,w
  2600  0AAF  07A9               	addwf	___xxtofl@exp,f
  2601  0AB0                     l2389:	
  2602  0AB0  3001               	movlw	1
  2603  0AB1  07AA               	addwf	___xxtofl@arg,f
  2604  0AB2  3000               	movlw	0
  2605  0AB3  1803               	skipnc
  2606  0AB4  3001               	movlw	1
  2607  0AB5  07AB               	addwf	___xxtofl@arg+1,f
  2608  0AB6  3000               	movlw	0
  2609  0AB7  1803               	skipnc
  2610  0AB8  3001               	movlw	1
  2611  0AB9  07AC               	addwf	___xxtofl@arg+2,f
  2612  0ABA  3000               	movlw	0
  2613  0ABB  1803               	skipnc
  2614  0ABC  3001               	movlw	1
  2615  0ABD  07AD               	addwf	___xxtofl@arg+3,f
  2616  0ABE                     l2391:	
  2617  0ABE  3001               	movlw	1
  2618  0ABF                     u2935:	
  2619  0ABF  1003               	clrc
  2620  0AC0  0CAD               	rrf	___xxtofl@arg+3,f
  2621  0AC1  0CAC               	rrf	___xxtofl@arg+2,f
  2622  0AC2  0CAB               	rrf	___xxtofl@arg+1,f
  2623  0AC3  0CAA               	rrf	___xxtofl@arg,f
  2624  0AC4  3EFF               	addlw	-1
  2625  0AC5  1D03               	skipz
  2626  0AC6  2ABF               	goto	u2935
  2627  0AC7                     l732:	
  2628  0AC7  30FF               	movlw	255
  2629  0AC8  052D               	andwf	___xxtofl@arg+3,w
  2630  0AC9  1D03               	btfss	3,2
  2631  0ACA  2ACC               	goto	u2941
  2632  0ACB  2ACD               	goto	u2940
  2633  0ACC                     u2941:	
  2634  0ACC  2AAC               	goto	l2387
  2635  0ACD                     u2940:	
  2636  0ACD  2AD9               	goto	l2395
  2637  0ACE                     l2393:	
  2638  0ACE  3001               	movlw	1
  2639  0ACF  02A9               	subwf	___xxtofl@exp,f
  2640  0AD0  3001               	movlw	1
  2641  0AD1  00A4               	movwf	??___xxtofl
  2642  0AD2                     u2955:	
  2643  0AD2  1003               	clrc
  2644  0AD3  0DAA               	rlf	___xxtofl@arg,f
  2645  0AD4  0DAB               	rlf	___xxtofl@arg+1,f
  2646  0AD5  0DAC               	rlf	___xxtofl@arg+2,f
  2647  0AD6  0DAD               	rlf	___xxtofl@arg+3,f
  2648  0AD7  0BA4               	decfsz	??___xxtofl,f
  2649  0AD8  2AD2               	goto	u2955
  2650  0AD9                     l2395:	
  2651  0AD9  1BAC               	btfsc	___xxtofl@arg+2,7
  2652  0ADA  2ADC               	goto	u2961
  2653  0ADB  2ADD               	goto	u2960
  2654  0ADC                     u2961:	
  2655  0ADC  2AE3               	goto	l739
  2656  0ADD                     u2960:	
  2657  0ADD                     l2397:	
  2658  0ADD  3002               	movlw	2
  2659  0ADE  0229               	subwf	___xxtofl@exp,w
  2660  0ADF  1803               	skipnc
  2661  0AE0  2AE2               	goto	u2971
  2662  0AE1  2AE3               	goto	u2970
  2663  0AE2                     u2971:	
  2664  0AE2  2ACE               	goto	l2393
  2665  0AE3                     u2970:	
  2666  0AE3                     l739:	
  2667  0AE3  1829               	btfsc	___xxtofl@exp,0
  2668  0AE4  2AE6               	goto	u2981
  2669  0AE5  2AE7               	goto	u2980
  2670  0AE6                     u2981:	
  2671  0AE6  2AEF               	goto	l740
  2672  0AE7                     u2980:	
  2673  0AE7                     l2399:	
  2674  0AE7  30FF               	movlw	255
  2675  0AE8  05AA               	andwf	___xxtofl@arg,f
  2676  0AE9  30FF               	movlw	255
  2677  0AEA  05AB               	andwf	___xxtofl@arg+1,f
  2678  0AEB  307F               	movlw	127
  2679  0AEC  05AC               	andwf	___xxtofl@arg+2,f
  2680  0AED  30FF               	movlw	255
  2681  0AEE  05AD               	andwf	___xxtofl@arg+3,f
  2682  0AEF                     l740:	
  2683  0AEF  1003               	clrc
  2684  0AF0  0CA9               	rrf	___xxtofl@exp,f
  2685  0AF1                     l2401:	
  2686  0AF1  0829               	movf	___xxtofl@exp,w
  2687  0AF2  00A4               	movwf	??___xxtofl
  2688  0AF3  01A5               	clrf	??___xxtofl+1
  2689  0AF4  01A6               	clrf	??___xxtofl+2
  2690  0AF5  01A7               	clrf	??___xxtofl+3
  2691  0AF6  3018               	movlw	24
  2692  0AF7                     u2995:	
  2693  0AF7  1003               	clrc
  2694  0AF8  0DA4               	rlf	??___xxtofl,f
  2695  0AF9  0DA5               	rlf	??___xxtofl+1,f
  2696  0AFA  0DA6               	rlf	??___xxtofl+2,f
  2697  0AFB  0DA7               	rlf	??___xxtofl+3,f
  2698  0AFC                     u2990:	
  2699  0AFC  3EFF               	addlw	-1
  2700  0AFD  1D03               	skipz
  2701  0AFE  2AF7               	goto	u2995
  2702  0AFF  0824               	movf	??___xxtofl,w
  2703  0B00  04AA               	iorwf	___xxtofl@arg,f
  2704  0B01  0825               	movf	??___xxtofl+1,w
  2705  0B02  04AB               	iorwf	___xxtofl@arg+1,f
  2706  0B03  0826               	movf	??___xxtofl+2,w
  2707  0B04  04AC               	iorwf	___xxtofl@arg+2,f
  2708  0B05  0827               	movf	??___xxtofl+3,w
  2709  0B06  04AD               	iorwf	___xxtofl@arg+3,f
  2710  0B07                     l2403:	
  2711  0B07  0828               	movf	___xxtofl@sign,w
  2712  0B08  1903               	btfsc	3,2
  2713  0B09  2B0B               	goto	u3001
  2714  0B0A  2B0C               	goto	u3000
  2715  0B0B                     u3001:	
  2716  0B0B  2B11               	goto	l2409
  2717  0B0C                     u3000:	
  2718  0B0C                     l2405:	
  2719  0B0C  1FA3               	btfss	___xxtofl@val+3,7
  2720  0B0D  2B0F               	goto	u3011
  2721  0B0E  2B10               	goto	u3010
  2722  0B0F                     u3011:	
  2723  0B0F  2B11               	goto	l2409
  2724  0B10                     u3010:	
  2725  0B10                     l2407:	
  2726  0B10  17AD               	bsf	___xxtofl@arg+3,7
  2727  0B11                     l2409:	
  2728  0B11  082D               	movf	___xxtofl@arg+3,w
  2729  0B12  00A3               	movwf	?___xxtofl+3
  2730  0B13  082C               	movf	___xxtofl@arg+2,w
  2731  0B14  00A2               	movwf	?___xxtofl+2
  2732  0B15  082B               	movf	___xxtofl@arg+1,w
  2733  0B16  00A1               	movwf	?___xxtofl+1
  2734  0B17  082A               	movf	___xxtofl@arg,w
  2735  0B18  00A0               	movwf	?___xxtofl
  2736  0B19                     l728:	
  2737  0B19  0008               	return
  2738  0B1A                     __end_of___xxtofl:	
  2739                           
  2740                           	psect	text6
  2741  17B2                     __ptext6:	
  2742 ;; *************** function ___wmul *****************
  2743 ;; Defined at:
  2744 ;;		line 15 in file "C:\Program Files (x86)\Microchip\xc8\v2.10\pic\sources\c90\common\Umul16.c"
  2745 ;; Parameters:    Size  Location     Type
  2746 ;;  multiplier      2    3[COMMON] unsigned int 
  2747 ;;  multiplicand    2    5[COMMON] unsigned int 
  2748 ;; Auto vars:     Size  Location     Type
  2749 ;;  product         2    7[COMMON] unsigned int 
  2750 ;; Return value:  Size  Location     Type
  2751 ;;                  2    3[COMMON] unsigned int 
  2752 ;; Registers used:
  2753 ;;		wreg, status,2, status,0
  2754 ;; Tracked objects:
  2755 ;;		On entry : 0/0
  2756 ;;		On exit  : 0/0
  2757 ;;		Unchanged: 0/0
  2758 ;; Data sizes:     COMMON   BANK0   BANK1   BANK3   BANK2
  2759 ;;      Params:         4       0       0       0       0
  2760 ;;      Locals:         2       0       0       0       0
  2761 ;;      Temps:          0       0       0       0       0
  2762 ;;      Totals:         6       0       0       0       0
  2763 ;;Total ram usage:        6 bytes
  2764 ;; Hardware stack levels used:    1
  2765 ;; Hardware stack levels required when called:    1
  2766 ;; This function calls:
  2767 ;;		Nothing
  2768 ;; This function is called by:
  2769 ;;		_b1
  2770 ;;		_b0
  2771 ;; This function uses a non-reentrant model
  2772 ;;
  2773                           
  2774                           
  2775                           ;psect for function ___wmul
  2776  17B2                     ___wmul:	
  2777  17B2                     l2099:	
  2778                           ;incstack = 0
  2779                           ; Regs used in ___wmul: [wreg+status,2+status,0]
  2780                           
  2781  17B2  01F7               	clrf	___wmul@product
  2782  17B3  01F8               	clrf	___wmul@product+1
  2783  17B4                     l2101:	
  2784  17B4  1C73               	btfss	___wmul@multiplier,0
  2785  17B5  2FB7               	goto	u2291
  2786  17B6  2FB8               	goto	u2290
  2787  17B7                     u2291:	
  2788  17B7  2FBE               	goto	l299
  2789  17B8                     u2290:	
  2790  17B8                     l2103:	
  2791  17B8  0875               	movf	___wmul@multiplicand,w
  2792  17B9  07F7               	addwf	___wmul@product,f
  2793  17BA  1803               	skipnc
  2794  17BB  0AF8               	incf	___wmul@product+1,f
  2795  17BC  0876               	movf	___wmul@multiplicand+1,w
  2796  17BD  07F8               	addwf	___wmul@product+1,f
  2797  17BE                     l299:	
  2798  17BE  3001               	movlw	1
  2799  17BF                     u2305:	
  2800  17BF  1003               	clrc
  2801  17C0  0DF5               	rlf	___wmul@multiplicand,f
  2802  17C1  0DF6               	rlf	___wmul@multiplicand+1,f
  2803  17C2  3EFF               	addlw	-1
  2804  17C3  1D03               	skipz
  2805  17C4  2FBF               	goto	u2305
  2806  17C5                     l2105:	
  2807  17C5  3001               	movlw	1
  2808  17C6                     u2315:	
  2809  17C6  1003               	clrc
  2810  17C7  0CF4               	rrf	___wmul@multiplier+1,f
  2811  17C8  0CF3               	rrf	___wmul@multiplier,f
  2812  17C9  3EFF               	addlw	-1
  2813  17CA  1D03               	skipz
  2814  17CB  2FC6               	goto	u2315
  2815  17CC                     l2107:	
  2816  17CC  0873               	movf	___wmul@multiplier,w
  2817  17CD  0474               	iorwf	___wmul@multiplier+1,w
  2818  17CE  1D03               	btfss	3,2
  2819  17CF  2FD1               	goto	u2321
  2820  17D0  2FD2               	goto	u2320
  2821  17D1                     u2321:	
  2822  17D1  2FB4               	goto	l2101
  2823  17D2                     u2320:	
  2824  17D2                     l2109:	
  2825  17D2  0878               	movf	___wmul@product+1,w
  2826  17D3  00F4               	movwf	?___wmul+1
  2827  17D4  0877               	movf	___wmul@product,w
  2828  17D5  00F3               	movwf	?___wmul
  2829  17D6                     l301:	
  2830  17D6  0008               	return
  2831  17D7                     __end_of___wmul:	
  2832                           
  2833                           	psect	text7
  2834  09E2                     __ptext7:	
  2835 ;; *************** function ___fltol *****************
  2836 ;; Defined at:
  2837 ;;		line 43 in file "C:\Program Files (x86)\Microchip\xc8\v2.10\pic\sources\c90\common\fltol.c"
  2838 ;; Parameters:    Size  Location     Type
  2839 ;;  f1              4   68[BANK0 ] unsigned int 
  2840 ;; Auto vars:     Size  Location     Type
  2841 ;;  exp1            1   78[BANK0 ] unsigned char 
  2842 ;;  sign1           1   77[BANK0 ] unsigned char 
  2843 ;; Return value:  Size  Location     Type
  2844 ;;                  4   68[BANK0 ] long 
  2845 ;; Registers used:
  2846 ;;		wreg, status,2, status,0
  2847 ;; Tracked objects:
  2848 ;;		On entry : 0/0
  2849 ;;		On exit  : 0/0
  2850 ;;		Unchanged: 0/0
  2851 ;; Data sizes:     COMMON   BANK0   BANK1   BANK3   BANK2
  2852 ;;      Params:         0       4       0       0       0
  2853 ;;      Locals:         0       2       0       0       0
  2854 ;;      Temps:          0       5       0       0       0
  2855 ;;      Totals:         0      11       0       0       0
  2856 ;;Total ram usage:       11 bytes
  2857 ;; Hardware stack levels used:    1
  2858 ;; Hardware stack levels required when called:    1
  2859 ;; This function calls:
  2860 ;;		Nothing
  2861 ;; This function is called by:
  2862 ;;		_main
  2863 ;;		_b2
  2864 ;;		_b1
  2865 ;;		_b0
  2866 ;; This function uses a non-reentrant model
  2867 ;;
  2868                           
  2869                           
  2870                           ;psect for function ___fltol
  2871  09E2                     ___fltol:	
  2872  09E2                     l2171:	
  2873                           ;incstack = 0
  2874                           ; Regs used in ___fltol: [wreg+status,2+status,0]
  2875                           
  2876  09E2  1003               	clrc
  2877  09E3  1283               	bcf	3,5	;RP0=0, select bank0
  2878  09E4  1303               	bcf	3,6	;RP1=0, select bank0
  2879  09E5  0D66               	rlf	___fltol@f1+2,w
  2880  09E6  0D67               	rlf	___fltol@f1+3,w
  2881  09E7  00E8               	movwf	??___fltol
  2882  09E8  0868               	movf	??___fltol,w
  2883  09E9  00EE               	movwf	___fltol@exp1
  2884  09EA  086E               	movf	___fltol@exp1,w
  2885  09EB  1D03               	btfss	3,2
  2886  09EC  29EE               	goto	u2451
  2887  09ED  29EF               	goto	u2450
  2888  09EE                     u2451:	
  2889  09EE  29F8               	goto	l2177
  2890  09EF                     u2450:	
  2891  09EF                     l2173:	
  2892  09EF  3000               	movlw	0
  2893  09F0  00E7               	movwf	?___fltol+3
  2894  09F1  3000               	movlw	0
  2895  09F2  00E6               	movwf	?___fltol+2
  2896  09F3  3000               	movlw	0
  2897  09F4  00E5               	movwf	?___fltol+1
  2898  09F5  3000               	movlw	0
  2899  09F6  00E4               	movwf	?___fltol
  2900  09F7  2A5D               	goto	l485
  2901  09F8                     l2177:	
  2902  09F8  0864               	movf	___fltol@f1,w
  2903  09F9  00E8               	movwf	??___fltol
  2904  09FA  0865               	movf	___fltol@f1+1,w
  2905  09FB  00E9               	movwf	??___fltol+1
  2906  09FC  0866               	movf	___fltol@f1+2,w
  2907  09FD  00EA               	movwf	??___fltol+2
  2908  09FE  0867               	movf	___fltol@f1+3,w
  2909  09FF  00EB               	movwf	??___fltol+3
  2910  0A00  301F               	movlw	31
  2911  0A01                     u2465:	
  2912  0A01  1003               	clrc
  2913  0A02  0CEB               	rrf	??___fltol+3,f
  2914  0A03  0CEA               	rrf	??___fltol+2,f
  2915  0A04  0CE9               	rrf	??___fltol+1,f
  2916  0A05  0CE8               	rrf	??___fltol,f
  2917  0A06                     u2460:	
  2918  0A06  3EFF               	addlw	-1
  2919  0A07  1D03               	skipz
  2920  0A08  2A01               	goto	u2465
  2921  0A09  0868               	movf	??___fltol,w
  2922  0A0A  00EC               	movwf	??___fltol+4
  2923  0A0B  086C               	movf	??___fltol+4,w
  2924  0A0C  00ED               	movwf	___fltol@sign1
  2925  0A0D                     l2179:	
  2926  0A0D  17E6               	bsf	___fltol@f1+2,7
  2927  0A0E                     l2181:	
  2928  0A0E  30FF               	movlw	255
  2929  0A0F  05E4               	andwf	___fltol@f1,f
  2930  0A10  30FF               	movlw	255
  2931  0A11  05E5               	andwf	___fltol@f1+1,f
  2932  0A12  30FF               	movlw	255
  2933  0A13  05E6               	andwf	___fltol@f1+2,f
  2934  0A14  3000               	movlw	0
  2935  0A15  05E7               	andwf	___fltol@f1+3,f
  2936  0A16                     l2183:	
  2937  0A16  3096               	movlw	150
  2938  0A17  02EE               	subwf	___fltol@exp1,f
  2939  0A18                     l2185:	
  2940  0A18  1FEE               	btfss	___fltol@exp1,7
  2941  0A19  2A1B               	goto	u2471
  2942  0A1A  2A1C               	goto	u2470
  2943  0A1B                     u2471:	
  2944  0A1B  2A36               	goto	l2195
  2945  0A1C                     u2470:	
  2946  0A1C                     l2187:	
  2947  0A1C  086E               	movf	___fltol@exp1,w
  2948  0A1D  3A80               	xorlw	128
  2949  0A1E  3E97               	addlw	151
  2950  0A1F  1803               	skipnc
  2951  0A20  2A22               	goto	u2481
  2952  0A21  2A23               	goto	u2480
  2953  0A22                     u2481:	
  2954  0A22  2A24               	goto	l2193
  2955  0A23                     u2480:	
  2956  0A23  29EF               	goto	l2173
  2957  0A24                     l2193:	
  2958  0A24  3001               	movlw	1
  2959  0A25                     u2495:	
  2960  0A25  1003               	clrc
  2961  0A26  0CE7               	rrf	___fltol@f1+3,f
  2962  0A27  0CE6               	rrf	___fltol@f1+2,f
  2963  0A28  0CE5               	rrf	___fltol@f1+1,f
  2964  0A29  0CE4               	rrf	___fltol@f1,f
  2965  0A2A  3EFF               	addlw	-1
  2966  0A2B  1D03               	skipz
  2967  0A2C  2A25               	goto	u2495
  2968  0A2D  3001               	movlw	1
  2969  0A2E  00E8               	movwf	??___fltol
  2970  0A2F  0868               	movf	??___fltol,w
  2971  0A30  07EE               	addwf	___fltol@exp1,f
  2972  0A31  1D03               	btfss	3,2
  2973  0A32  2A34               	goto	u2501
  2974  0A33  2A35               	goto	u2500
  2975  0A34                     u2501:	
  2976  0A34  2A24               	goto	l2193
  2977  0A35                     u2500:	
  2978  0A35  2A4D               	goto	l2203
  2979  0A36                     l2195:	
  2980  0A36  3020               	movlw	32
  2981  0A37  026E               	subwf	___fltol@exp1,w
  2982  0A38  1C03               	skipc
  2983  0A39  2A3B               	goto	u2511
  2984  0A3A  2A3C               	goto	u2510
  2985  0A3B                     u2511:	
  2986  0A3B  2A48               	goto	l492
  2987  0A3C                     u2510:	
  2988  0A3C  29EF               	goto	l2173
  2989  0A3D                     l2201:	
  2990  0A3D  3001               	movlw	1
  2991  0A3E  00E8               	movwf	??___fltol
  2992  0A3F                     u2525:	
  2993  0A3F  1003               	clrc
  2994  0A40  0DE4               	rlf	___fltol@f1,f
  2995  0A41  0DE5               	rlf	___fltol@f1+1,f
  2996  0A42  0DE6               	rlf	___fltol@f1+2,f
  2997  0A43  0DE7               	rlf	___fltol@f1+3,f
  2998  0A44  0BE8               	decfsz	??___fltol,f
  2999  0A45  2A3F               	goto	u2525
  3000  0A46  3001               	movlw	1
  3001  0A47  02EE               	subwf	___fltol@exp1,f
  3002  0A48                     l492:	
  3003  0A48  086E               	movf	___fltol@exp1,w
  3004  0A49  1D03               	btfss	3,2
  3005  0A4A  2A4C               	goto	u2531
  3006  0A4B  2A4D               	goto	u2530
  3007  0A4C                     u2531:	
  3008  0A4C  2A3D               	goto	l2201
  3009  0A4D                     u2530:	
  3010  0A4D                     l2203:	
  3011  0A4D  086D               	movf	___fltol@sign1,w
  3012  0A4E  1903               	btfsc	3,2
  3013  0A4F  2A51               	goto	u2541
  3014  0A50  2A52               	goto	u2540
  3015  0A51                     u2541:	
  3016  0A51  2A5D               	goto	l495
  3017  0A52                     u2540:	
  3018  0A52                     l2205:	
  3019  0A52  09E4               	comf	___fltol@f1,f
  3020  0A53  09E5               	comf	___fltol@f1+1,f
  3021  0A54  09E6               	comf	___fltol@f1+2,f
  3022  0A55  09E7               	comf	___fltol@f1+3,f
  3023  0A56  0AE4               	incf	___fltol@f1,f
  3024  0A57  1903               	skipnz
  3025  0A58  0AE5               	incf	___fltol@f1+1,f
  3026  0A59  1903               	skipnz
  3027  0A5A  0AE6               	incf	___fltol@f1+2,f
  3028  0A5B  1903               	skipnz
  3029  0A5C  0AE7               	incf	___fltol@f1+3,f
  3030  0A5D                     l495:	
  3031  0A5D                     l485:	
  3032  0A5D  0008               	return
  3033  0A5E                     __end_of___fltol:	
  3034                           
  3035                           	psect	text8
  3036  178E                     __ptext8:	
  3037 ;; *************** function ___flsub *****************
  3038 ;; Defined at:
  3039 ;;		line 242 in file "C:\Program Files (x86)\Microchip\xc8\v2.10\pic\sources\c90\common\sprcadd.c"
  3040 ;; Parameters:    Size  Location     Type
  3041 ;;  a               4   60[BANK0 ] long 
  3042 ;;  b               4   64[BANK0 ] long 
  3043 ;; Auto vars:     Size  Location     Type
  3044 ;;		None
  3045 ;; Return value:  Size  Location     Type
  3046 ;;                  4   60[BANK0 ] long 
  3047 ;; Registers used:
  3048 ;;		wreg, status,2, status,0, btemp+1, pclath, cstack
  3049 ;; Tracked objects:
  3050 ;;		On entry : 0/0
  3051 ;;		On exit  : 0/0
  3052 ;;		Unchanged: 0/0
  3053 ;; Data sizes:     COMMON   BANK0   BANK1   BANK3   BANK2
  3054 ;;      Params:         0       8       0       0       0
  3055 ;;      Locals:         0       0       0       0       0
  3056 ;;      Temps:          0       0       0       0       0
  3057 ;;      Totals:         0       8       0       0       0
  3058 ;;Total ram usage:        8 bytes
  3059 ;; Hardware stack levels used:    1
  3060 ;; Hardware stack levels required when called:    2
  3061 ;; This function calls:
  3062 ;;		___fladd
  3063 ;; This function is called by:
  3064 ;;		_b1
  3065 ;;		_b0
  3066 ;; This function uses a non-reentrant model
  3067 ;;
  3068                           
  3069                           
  3070                           ;psect for function ___flsub
  3071  178E                     ___flsub:	
  3072  178E                     l2207:	
  3073                           ;incstack = 0
  3074                           ; Regs used in ___flsub: [wreg+status,2+status,0+btemp+1+pclath+cstack]
  3075                           
  3076  178E  3080               	movlw	128
  3077  178F  1283               	bcf	3,5	;RP0=0, select bank0
  3078  1790  1303               	bcf	3,6	;RP1=0, select bank0
  3079  1791  06DF               	xorwf	___flsub@a+3,f
  3080  1792                     l2209:	
  3081  1792  0863               	movf	___flsub@b+3,w
  3082  1793  00CB               	movwf	___fladd@b+3
  3083  1794  0862               	movf	___flsub@b+2,w
  3084  1795  00CA               	movwf	___fladd@b+2
  3085  1796  0861               	movf	___flsub@b+1,w
  3086  1797  00C9               	movwf	___fladd@b+1
  3087  1798  0860               	movf	___flsub@b,w
  3088  1799  00C8               	movwf	___fladd@b
  3089  179A  085F               	movf	___flsub@a+3,w
  3090  179B  00CF               	movwf	___fladd@a+3
  3091  179C  085E               	movf	___flsub@a+2,w
  3092  179D  00CE               	movwf	___fladd@a+2
  3093  179E  085D               	movf	___flsub@a+1,w
  3094  179F  00CD               	movwf	___fladd@a+1
  3095  17A0  085C               	movf	___flsub@a,w
  3096  17A1  00CC               	movwf	___fladd@a
  3097  17A2  120A  118A  237E  160A  118A  	fcall	___fladd
  3098  17A7  1283               	bcf	3,5	;RP0=0, select bank0
  3099  17A8  1303               	bcf	3,6	;RP1=0, select bank0
  3100  17A9  084B               	movf	?___fladd+3,w
  3101  17AA  00DF               	movwf	?___flsub+3
  3102  17AB  084A               	movf	?___fladd+2,w
  3103  17AC  00DE               	movwf	?___flsub+2
  3104  17AD  0849               	movf	?___fladd+1,w
  3105  17AE  00DD               	movwf	?___flsub+1
  3106  17AF  0848               	movf	?___fladd,w
  3107  17B0  00DC               	movwf	?___flsub
  3108  17B1                     l638:	
  3109  17B1  0008               	return
  3110  17B2                     __end_of___flsub:	
  3111                           
  3112                           	psect	text9
  3113  037E                     __ptext9:	
  3114 ;; *************** function ___fladd *****************
  3115 ;; Defined at:
  3116 ;;		line 10 in file "C:\Program Files (x86)\Microchip\xc8\v2.10\pic\sources\c90\common\sprcadd.c"
  3117 ;; Parameters:    Size  Location     Type
  3118 ;;  b               4   40[BANK0 ] long 
  3119 ;;  a               4   44[BANK0 ] long 
  3120 ;; Auto vars:     Size  Location     Type
  3121 ;;  grs             1   59[BANK0 ] unsigned char 
  3122 ;;  bexp            1   58[BANK0 ] unsigned char 
  3123 ;;  aexp            1   57[BANK0 ] unsigned char 
  3124 ;;  signs           1   56[BANK0 ] unsigned char 
  3125 ;; Return value:  Size  Location     Type
  3126 ;;                  4   40[BANK0 ] unsigned char 
  3127 ;; Registers used:
  3128 ;;		wreg, status,2, status,0, btemp+1
  3129 ;; Tracked objects:
  3130 ;;		On entry : 0/0
  3131 ;;		On exit  : 0/0
  3132 ;;		Unchanged: 0/0
  3133 ;; Data sizes:     COMMON   BANK0   BANK1   BANK3   BANK2
  3134 ;;      Params:         0       8       0       0       0
  3135 ;;      Locals:         0       4       0       0       0
  3136 ;;      Temps:          0       8       0       0       0
  3137 ;;      Totals:         0      20       0       0       0
  3138 ;;Total ram usage:       20 bytes
  3139 ;; Hardware stack levels used:    1
  3140 ;; Hardware stack levels required when called:    1
  3141 ;; This function calls:
  3142 ;;		Nothing
  3143 ;; This function is called by:
  3144 ;;		_main
  3145 ;;		___flsub
  3146 ;; This function uses a non-reentrant model
  3147 ;;
  3148                           
  3149                           
  3150                           ;psect for function ___fladd
  3151  037E                     ___fladd:	
  3152  037E                     l1849:	
  3153                           ;incstack = 0
  3154                           ; Regs used in ___fladd: [wreg+status,2+status,0+btemp+1]
  3155                           
  3156  037E  1283               	bcf	3,5	;RP0=0, select bank0
  3157  037F  1303               	bcf	3,6	;RP1=0, select bank0
  3158  0380  084B               	movf	___fladd@b+3,w
  3159  0381  3980               	andlw	128
  3160  0382  00D0               	movwf	??___fladd
  3161  0383  0850               	movf	??___fladd,w
  3162  0384  00D8               	movwf	___fladd@signs
  3163  0385                     l1851:	
  3164  0385  084B               	movf	___fladd@b+3,w
  3165  0386  00D0               	movwf	??___fladd
  3166  0387  0750               	addwf	??___fladd,w
  3167  0388  00D1               	movwf	??___fladd+1
  3168  0389  0851               	movf	??___fladd+1,w
  3169  038A  00DA               	movwf	___fladd@bexp
  3170  038B                     l1853:	
  3171  038B  1FCA               	btfss	___fladd@b+2,7
  3172  038C  2B8E               	goto	u1831
  3173  038D  2B8F               	goto	u1830
  3174  038E                     u1831:	
  3175  038E  2B90               	goto	l1857
  3176  038F                     u1830:	
  3177  038F                     l1855:	
  3178  038F  145A               	bsf	___fladd@bexp,0
  3179  0390                     l1857:	
  3180  0390  085A               	movf	___fladd@bexp,w
  3181  0391  1903               	btfsc	3,2
  3182  0392  2B94               	goto	u1841
  3183  0393  2B95               	goto	u1840
  3184  0394                     u1841:	
  3185  0394  2BA5               	goto	l1867
  3186  0395                     u1840:	
  3187  0395                     l1859:	
  3188  0395  0A5A               	incf	___fladd@bexp,w
  3189  0396  1D03               	btfss	3,2
  3190  0397  2B99               	goto	u1851
  3191  0398  2B9A               	goto	u1850
  3192  0399                     u1851:	
  3193  0399  2BA2               	goto	l1863
  3194  039A                     u1850:	
  3195  039A                     l1861:	
  3196  039A  3000               	movlw	0
  3197  039B  00CB               	movwf	___fladd@b+3
  3198  039C  3000               	movlw	0
  3199  039D  00CA               	movwf	___fladd@b+2
  3200  039E  3000               	movlw	0
  3201  039F  00C9               	movwf	___fladd@b+1
  3202  03A0  3000               	movlw	0
  3203  03A1  00C8               	movwf	___fladd@b
  3204  03A2                     l1863:	
  3205  03A2  17CA               	bsf	___fladd@b+2,7
  3206  03A3                     l1865:	
  3207  03A3  01CB               	clrf	___fladd@b+3
  3208  03A4  2BAD               	goto	l1869
  3209  03A5                     l1867:	
  3210  03A5  3000               	movlw	0
  3211  03A6  00CB               	movwf	___fladd@b+3
  3212  03A7  3000               	movlw	0
  3213  03A8  00CA               	movwf	___fladd@b+2
  3214  03A9  3000               	movlw	0
  3215  03AA  00C9               	movwf	___fladd@b+1
  3216  03AB  3000               	movlw	0
  3217  03AC  00C8               	movwf	___fladd@b
  3218  03AD                     l1869:	
  3219  03AD  084F               	movf	___fladd@a+3,w
  3220  03AE  3980               	andlw	128
  3221  03AF  00D0               	movwf	??___fladd
  3222  03B0  0850               	movf	??___fladd,w
  3223  03B1  00D9               	movwf	___fladd@aexp
  3224  03B2                     l1871:	
  3225  03B2  0859               	movf	___fladd@aexp,w
  3226  03B3  0658               	xorwf	___fladd@signs,w
  3227  03B4  1903               	skipnz
  3228  03B5  2BB7               	goto	u1861
  3229  03B6  2BB8               	goto	u1860
  3230  03B7                     u1861:	
  3231  03B7  2BB9               	goto	l1875
  3232  03B8                     u1860:	
  3233  03B8                     l1873:	
  3234  03B8  1758               	bsf	___fladd@signs,6
  3235  03B9                     l1875:	
  3236  03B9  084F               	movf	___fladd@a+3,w
  3237  03BA  00D0               	movwf	??___fladd
  3238  03BB  0750               	addwf	??___fladd,w
  3239  03BC  00D1               	movwf	??___fladd+1
  3240  03BD  0851               	movf	??___fladd+1,w
  3241  03BE  00D9               	movwf	___fladd@aexp
  3242  03BF                     l1877:	
  3243  03BF  1FCE               	btfss	___fladd@a+2,7
  3244  03C0  2BC2               	goto	u1871
  3245  03C1  2BC3               	goto	u1870
  3246  03C2                     u1871:	
  3247  03C2  2BC4               	goto	l1881
  3248  03C3                     u1870:	
  3249  03C3                     l1879:	
  3250  03C3  1459               	bsf	___fladd@aexp,0
  3251  03C4                     l1881:	
  3252  03C4  0859               	movf	___fladd@aexp,w
  3253  03C5  1903               	btfsc	3,2
  3254  03C6  2BC8               	goto	u1881
  3255  03C7  2BC9               	goto	u1880
  3256  03C8                     u1881:	
  3257  03C8  2BD9               	goto	l1891
  3258  03C9                     u1880:	
  3259  03C9                     l1883:	
  3260  03C9  0A59               	incf	___fladd@aexp,w
  3261  03CA  1D03               	btfss	3,2
  3262  03CB  2BCD               	goto	u1891
  3263  03CC  2BCE               	goto	u1890
  3264  03CD                     u1891:	
  3265  03CD  2BD6               	goto	l1887
  3266  03CE                     u1890:	
  3267  03CE                     l1885:	
  3268  03CE  3000               	movlw	0
  3269  03CF  00CF               	movwf	___fladd@a+3
  3270  03D0  3000               	movlw	0
  3271  03D1  00CE               	movwf	___fladd@a+2
  3272  03D2  3000               	movlw	0
  3273  03D3  00CD               	movwf	___fladd@a+1
  3274  03D4  3000               	movlw	0
  3275  03D5  00CC               	movwf	___fladd@a
  3276  03D6                     l1887:	
  3277  03D6  17CE               	bsf	___fladd@a+2,7
  3278  03D7                     l1889:	
  3279  03D7  01CF               	clrf	___fladd@a+3
  3280  03D8  2BE1               	goto	l592
  3281  03D9                     l1891:	
  3282  03D9  3000               	movlw	0
  3283  03DA  00CF               	movwf	___fladd@a+3
  3284  03DB  3000               	movlw	0
  3285  03DC  00CE               	movwf	___fladd@a+2
  3286  03DD  3000               	movlw	0
  3287  03DE  00CD               	movwf	___fladd@a+1
  3288  03DF  3000               	movlw	0
  3289  03E0  00CC               	movwf	___fladd@a
  3290  03E1                     l592:	
  3291  03E1  085A               	movf	___fladd@bexp,w
  3292  03E2  0259               	subwf	___fladd@aexp,w
  3293  03E3  1803               	skipnc
  3294  03E4  2BE6               	goto	u1901
  3295  03E5  2BE7               	goto	u1900
  3296  03E6                     u1901:	
  3297  03E6  2C2B               	goto	l1927
  3298  03E7                     u1900:	
  3299  03E7                     l1893:	
  3300  03E7  1F58               	btfss	___fladd@signs,6
  3301  03E8  2BEA               	goto	u1911
  3302  03E9  2BEB               	goto	u1910
  3303  03EA                     u1911:	
  3304  03EA  2BEF               	goto	l1897
  3305  03EB                     u1910:	
  3306  03EB                     l1895:	
  3307  03EB  3080               	movlw	128
  3308  03EC  00D0               	movwf	??___fladd
  3309  03ED  0850               	movf	??___fladd,w
  3310  03EE  06D8               	xorwf	___fladd@signs,f
  3311  03EF                     l1897:	
  3312  03EF  085A               	movf	___fladd@bexp,w
  3313  03F0  00D0               	movwf	??___fladd
  3314  03F1  0850               	movf	??___fladd,w
  3315  03F2  00DB               	movwf	___fladd@grs
  3316  03F3                     l1899:	
  3317  03F3  0859               	movf	___fladd@aexp,w
  3318  03F4  00D0               	movwf	??___fladd
  3319  03F5  0850               	movf	??___fladd,w
  3320  03F6  00DA               	movwf	___fladd@bexp
  3321  03F7                     l1901:	
  3322  03F7  085B               	movf	___fladd@grs,w
  3323  03F8  00D0               	movwf	??___fladd
  3324  03F9  0850               	movf	??___fladd,w
  3325  03FA  00D9               	movwf	___fladd@aexp
  3326  03FB                     l1903:	
  3327  03FB  0848               	movf	___fladd@b,w
  3328  03FC  00D0               	movwf	??___fladd
  3329  03FD  0850               	movf	??___fladd,w
  3330  03FE  00DB               	movwf	___fladd@grs
  3331  03FF                     l1905:	
  3332  03FF  084C               	movf	___fladd@a,w
  3333  0400  00D0               	movwf	??___fladd
  3334  0401  0850               	movf	??___fladd,w
  3335  0402  00C8               	movwf	___fladd@b
  3336  0403                     l1907:	
  3337  0403  085B               	movf	___fladd@grs,w
  3338  0404  00D0               	movwf	??___fladd
  3339  0405  0850               	movf	??___fladd,w
  3340  0406  00CC               	movwf	___fladd@a
  3341  0407                     l1909:	
  3342  0407  0849               	movf	___fladd@b+1,w
  3343  0408  00D0               	movwf	??___fladd
  3344  0409  0850               	movf	??___fladd,w
  3345  040A  00DB               	movwf	___fladd@grs
  3346  040B                     l1911:	
  3347  040B  084D               	movf	___fladd@a+1,w
  3348  040C  00D0               	movwf	??___fladd
  3349  040D  0850               	movf	??___fladd,w
  3350  040E  00C9               	movwf	___fladd@b+1
  3351  040F                     l1913:	
  3352  040F  085B               	movf	___fladd@grs,w
  3353  0410  00D0               	movwf	??___fladd
  3354  0411  0850               	movf	??___fladd,w
  3355  0412  00CD               	movwf	___fladd@a+1
  3356  0413                     l1915:	
  3357  0413  084A               	movf	___fladd@b+2,w
  3358  0414  00D0               	movwf	??___fladd
  3359  0415  0850               	movf	??___fladd,w
  3360  0416  00DB               	movwf	___fladd@grs
  3361  0417                     l1917:	
  3362  0417  084E               	movf	___fladd@a+2,w
  3363  0418  00D0               	movwf	??___fladd
  3364  0419  0850               	movf	??___fladd,w
  3365  041A  00CA               	movwf	___fladd@b+2
  3366  041B                     l1919:	
  3367  041B  085B               	movf	___fladd@grs,w
  3368  041C  00D0               	movwf	??___fladd
  3369  041D  0850               	movf	??___fladd,w
  3370  041E  00CE               	movwf	___fladd@a+2
  3371  041F                     l1921:	
  3372  041F  084B               	movf	___fladd@b+3,w
  3373  0420  00D0               	movwf	??___fladd
  3374  0421  0850               	movf	??___fladd,w
  3375  0422  00DB               	movwf	___fladd@grs
  3376  0423                     l1923:	
  3377  0423  084F               	movf	___fladd@a+3,w
  3378  0424  00D0               	movwf	??___fladd
  3379  0425  0850               	movf	??___fladd,w
  3380  0426  00CB               	movwf	___fladd@b+3
  3381  0427                     l1925:	
  3382  0427  085B               	movf	___fladd@grs,w
  3383  0428  00D0               	movwf	??___fladd
  3384  0429  0850               	movf	??___fladd,w
  3385  042A  00CF               	movwf	___fladd@a+3
  3386  042B                     l1927:	
  3387  042B  01DB               	clrf	___fladd@grs
  3388  042C                     l1929:	
  3389  042C  0859               	movf	___fladd@aexp,w
  3390  042D  00D0               	movwf	??___fladd
  3391  042E  01D1               	clrf	??___fladd+1
  3392  042F  0851               	movf	??___fladd+1,w
  3393  0430  00D3               	movwf	??___fladd+3
  3394  0431  085A               	movf	___fladd@bexp,w
  3395  0432  0250               	subwf	??___fladd,w
  3396  0433  00D2               	movwf	??___fladd+2
  3397  0434  1C03               	skipc
  3398  0435  03D3               	decf	??___fladd+3,f
  3399  0436  0853               	movf	??___fladd+3,w
  3400  0437  3A80               	xorlw	128
  3401  0438  00FF               	movwf	btemp+1
  3402  0439  3080               	movlw	128
  3403  043A  027F               	subwf	btemp+1,w
  3404  043B  1D03               	skipz
  3405  043C  2C3F               	goto	u1925
  3406  043D  301A               	movlw	26
  3407  043E  0252               	subwf	??___fladd+2,w
  3408  043F                     u1925:	
  3409  043F  1C03               	skipc
  3410  0440  2C42               	goto	u1921
  3411  0441  2C43               	goto	u1920
  3412  0442                     u1921:	
  3413  0442  2C80               	goto	l1945
  3414  0443                     u1920:	
  3415  0443                     l1931:	
  3416  0443  1283               	bcf	3,5	;RP0=0, select bank0
  3417  0444  1303               	bcf	3,6	;RP1=0, select bank0
  3418  0445  084B               	movf	___fladd@b+3,w
  3419  0446  044A               	iorwf	___fladd@b+2,w
  3420  0447  0449               	iorwf	___fladd@b+1,w
  3421  0448  0448               	iorwf	___fladd@b,w
  3422  0449  1D03               	skipz
  3423  044A  2C4C               	goto	u1931
  3424  044B  2C4E               	goto	u1930
  3425  044C                     u1931:	
  3426  044C  3001               	movlw	1
  3427  044D  2C4F               	goto	u1940
  3428  044E                     u1930:	
  3429  044E  3000               	movlw	0
  3430  044F                     u1940:	
  3431  044F  00D0               	movwf	??___fladd
  3432  0450  0850               	movf	??___fladd,w
  3433  0451  00DB               	movwf	___fladd@grs
  3434  0452  3000               	movlw	0
  3435  0453  00CB               	movwf	___fladd@b+3
  3436  0454  3000               	movlw	0
  3437  0455  00CA               	movwf	___fladd@b+2
  3438  0456  3000               	movlw	0
  3439  0457  00C9               	movwf	___fladd@b+1
  3440  0458  3000               	movlw	0
  3441  0459  00C8               	movwf	___fladd@b
  3442  045A  0859               	movf	___fladd@aexp,w
  3443  045B  00D0               	movwf	??___fladd
  3444  045C  0850               	movf	??___fladd,w
  3445  045D  00DA               	movwf	___fladd@bexp
  3446  045E  2C88               	goto	l596
  3447  045F                     l598:	
  3448  045F  1C5B               	btfss	___fladd@grs,0
  3449  0460  2C62               	goto	u1951
  3450  0461  2C63               	goto	u1950
  3451  0462                     u1951:	
  3452  0462  2C6C               	goto	l1935
  3453  0463                     u1950:	
  3454  0463                     l1933:	
  3455  0463  085B               	movf	___fladd@grs,w
  3456  0464  00D0               	movwf	??___fladd
  3457  0465  1003               	clrc
  3458  0466  0C50               	rrf	??___fladd,w
  3459  0467  3801               	iorlw	1
  3460  0468  00D1               	movwf	??___fladd+1
  3461  0469  0851               	movf	??___fladd+1,w
  3462  046A  00DB               	movwf	___fladd@grs
  3463  046B  2C6E               	goto	l1937
  3464  046C                     l1935:	
  3465  046C  1003               	clrc
  3466  046D  0CDB               	rrf	___fladd@grs,f
  3467  046E                     l1937:	
  3468  046E  1C48               	btfss	___fladd@b,0
  3469  046F  2C71               	goto	u1961
  3470  0470  2C72               	goto	u1960
  3471  0471                     u1961:	
  3472  0471  2C73               	goto	l1941
  3473  0472                     u1960:	
  3474  0472                     l1939:	
  3475  0472  17DB               	bsf	___fladd@grs,7
  3476  0473                     l1941:	
  3477  0473  3001               	movlw	1
  3478  0474  00D0               	movwf	??___fladd
  3479  0475                     u1975:	
  3480  0475  0D4B               	rlf	___fladd@b+3,w
  3481  0476  0CCB               	rrf	___fladd@b+3,f
  3482  0477  0CCA               	rrf	___fladd@b+2,f
  3483  0478  0CC9               	rrf	___fladd@b+1,f
  3484  0479  0CC8               	rrf	___fladd@b,f
  3485  047A  0BD0               	decfsz	??___fladd& (0+127),f
  3486  047B  2C75               	goto	u1975
  3487  047C                     l1943:	
  3488  047C  3001               	movlw	1
  3489  047D  00D0               	movwf	??___fladd
  3490  047E  0850               	movf	??___fladd,w
  3491  047F  07DA               	addwf	___fladd@bexp,f
  3492  0480                     l1945:	
  3493  0480  1283               	bcf	3,5	;RP0=0, select bank0
  3494  0481  1303               	bcf	3,6	;RP1=0, select bank0
  3495  0482  0859               	movf	___fladd@aexp,w
  3496  0483  025A               	subwf	___fladd@bexp,w
  3497  0484  1C03               	skipc
  3498  0485  2C87               	goto	u1981
  3499  0486  2C88               	goto	u1980
  3500  0487                     u1981:	
  3501  0487  2C5F               	goto	l598
  3502  0488                     u1980:	
  3503  0488                     l596:	
  3504  0488  1B58               	btfsc	___fladd@signs,6
  3505  0489  2C8B               	goto	u1991
  3506  048A  2C8C               	goto	u1990
  3507  048B                     u1991:	
  3508  048B  2CD7               	goto	l1971
  3509  048C                     u1990:	
  3510  048C                     l1947:	
  3511  048C  085A               	movf	___fladd@bexp,w
  3512  048D  1D03               	btfss	3,2
  3513  048E  2C90               	goto	u2001
  3514  048F  2C91               	goto	u2000
  3515  0490                     u2001:	
  3516  0490  2C9A               	goto	l1953
  3517  0491                     u2000:	
  3518  0491                     l1949:	
  3519  0491  3000               	movlw	0
  3520  0492  00CB               	movwf	?___fladd+3
  3521  0493  3000               	movlw	0
  3522  0494  00CA               	movwf	?___fladd+2
  3523  0495  3000               	movlw	0
  3524  0496  00C9               	movwf	?___fladd+1
  3525  0497  3000               	movlw	0
  3526  0498  00C8               	movwf	?___fladd
  3527  0499  2E05               	goto	l605
  3528  049A                     l1953:	
  3529  049A  084C               	movf	___fladd@a,w
  3530  049B  07C8               	addwf	___fladd@b,f
  3531  049C  084D               	movf	___fladd@a+1,w
  3532  049D  1103               	clrz
  3533  049E  1803               	skipnc
  3534  049F  3E01               	addlw	1
  3535  04A0  1903               	skipnz
  3536  04A1  2CA3               	goto	u2011
  3537  04A2  07C9               	addwf	___fladd@b+1,f
  3538  04A3                     u2011:	
  3539  04A3  084E               	movf	___fladd@a+2,w
  3540  04A4  1103               	clrz
  3541  04A5  1803               	skipnc
  3542  04A6  3E01               	addlw	1
  3543  04A7  1903               	skipnz
  3544  04A8  2CAA               	goto	u2012
  3545  04A9  07CA               	addwf	___fladd@b+2,f
  3546  04AA                     u2012:	
  3547  04AA  084F               	movf	___fladd@a+3,w
  3548  04AB  1103               	clrz
  3549  04AC  1803               	skipnc
  3550  04AD  3E01               	addlw	1
  3551  04AE  1903               	skipnz
  3552  04AF  2CB1               	goto	u2013
  3553  04B0  07CB               	addwf	___fladd@b+3,f
  3554  04B1                     u2013:	
  3555  04B1                     l1955:	
  3556  04B1  1C4B               	btfss	___fladd@b+3,0
  3557  04B2  2CB4               	goto	u2021
  3558  04B3  2CB5               	goto	u2020
  3559  04B4                     u2021:	
  3560  04B4  2D8B               	goto	l2005
  3561  04B5                     u2020:	
  3562  04B5                     l1957:	
  3563  04B5  1C5B               	btfss	___fladd@grs,0
  3564  04B6  2CB8               	goto	u2031
  3565  04B7  2CB9               	goto	u2030
  3566  04B8                     u2031:	
  3567  04B8  2CC2               	goto	l1961
  3568  04B9                     u2030:	
  3569  04B9                     l1959:	
  3570  04B9  085B               	movf	___fladd@grs,w
  3571  04BA  00D0               	movwf	??___fladd
  3572  04BB  1003               	clrc
  3573  04BC  0C50               	rrf	??___fladd,w
  3574  04BD  3801               	iorlw	1
  3575  04BE  00D1               	movwf	??___fladd+1
  3576  04BF  0851               	movf	??___fladd+1,w
  3577  04C0  00DB               	movwf	___fladd@grs
  3578  04C1  2CC4               	goto	l1963
  3579  04C2                     l1961:	
  3580  04C2  1003               	clrc
  3581  04C3  0CDB               	rrf	___fladd@grs,f
  3582  04C4                     l1963:	
  3583  04C4  1C48               	btfss	___fladd@b,0
  3584  04C5  2CC7               	goto	u2041
  3585  04C6  2CC8               	goto	u2040
  3586  04C7                     u2041:	
  3587  04C7  2CC9               	goto	l1967
  3588  04C8                     u2040:	
  3589  04C8                     l1965:	
  3590  04C8  17DB               	bsf	___fladd@grs,7
  3591  04C9                     l1967:	
  3592  04C9  3001               	movlw	1
  3593  04CA  00D0               	movwf	??___fladd
  3594  04CB                     u2055:	
  3595  04CB  0D4B               	rlf	___fladd@b+3,w
  3596  04CC  0CCB               	rrf	___fladd@b+3,f
  3597  04CD  0CCA               	rrf	___fladd@b+2,f
  3598  04CE  0CC9               	rrf	___fladd@b+1,f
  3599  04CF  0CC8               	rrf	___fladd@b,f
  3600  04D0  0BD0               	decfsz	??___fladd& (0+127),f
  3601  04D1  2CCB               	goto	u2055
  3602  04D2                     l1969:	
  3603  04D2  3001               	movlw	1
  3604  04D3  00D0               	movwf	??___fladd
  3605  04D4  0850               	movf	??___fladd,w
  3606  04D5  07DA               	addwf	___fladd@bexp,f
  3607  04D6  2D8B               	goto	l2005
  3608  04D7                     l1971:	
  3609  04D7  084B               	movf	___fladd@b+3,w
  3610  04D8  3A80               	xorlw	128
  3611  04D9  00FF               	movwf	btemp+1
  3612  04DA  084F               	movf	___fladd@a+3,w
  3613  04DB  3A80               	xorlw	128
  3614  04DC  027F               	subwf	btemp+1,w
  3615  04DD  1D03               	skipz
  3616  04DE  2CE9               	goto	u2063
  3617  04DF  084E               	movf	___fladd@a+2,w
  3618  04E0  024A               	subwf	___fladd@b+2,w
  3619  04E1  1D03               	skipz
  3620  04E2  2CE9               	goto	u2063
  3621  04E3  084D               	movf	___fladd@a+1,w
  3622  04E4  0249               	subwf	___fladd@b+1,w
  3623  04E5  1D03               	skipz
  3624  04E6  2CE9               	goto	u2063
  3625  04E7  084C               	movf	___fladd@a,w
  3626  04E8  0248               	subwf	___fladd@b,w
  3627  04E9                     u2063:	
  3628  04E9  1803               	skipnc
  3629  04EA  2CEC               	goto	u2061
  3630  04EB  2CED               	goto	u2060
  3631  04EC                     u2061:	
  3632  04EC  2D45               	goto	l1981
  3633  04ED                     u2060:	
  3634  04ED                     l1973:	
  3635  04ED  30FF               	movlw	255
  3636  04EE  00D0               	movwf	??___fladd
  3637  04EF  30FF               	movlw	255
  3638  04F0  00D1               	movwf	??___fladd+1
  3639  04F1  30FF               	movlw	255
  3640  04F2  00D2               	movwf	??___fladd+2
  3641  04F3  30FF               	movlw	255
  3642  04F4  00D3               	movwf	??___fladd+3
  3643  04F5  084C               	movf	___fladd@a,w
  3644  04F6  00D4               	movwf	??___fladd+4
  3645  04F7  084D               	movf	___fladd@a+1,w
  3646  04F8  00D5               	movwf	??___fladd+5
  3647  04F9  084E               	movf	___fladd@a+2,w
  3648  04FA  00D6               	movwf	??___fladd+6
  3649  04FB  084F               	movf	___fladd@a+3,w
  3650  04FC  00D7               	movwf	??___fladd+7
  3651  04FD  0848               	movf	___fladd@b,w
  3652  04FE  02D4               	subwf	??___fladd+4,f
  3653  04FF  0849               	movf	___fladd@b+1,w
  3654  0500  1C03               	skipc
  3655  0501  0F49               	incfsz	___fladd@b+1,w
  3656  0502  2D04               	goto	u2071
  3657  0503  2D05               	goto	u2072
  3658  0504                     u2071:	
  3659  0504  02D5               	subwf	??___fladd+5,f
  3660  0505                     u2072:	
  3661  0505  084A               	movf	___fladd@b+2,w
  3662  0506  1C03               	skipc
  3663  0507  0F4A               	incfsz	___fladd@b+2,w
  3664  0508  2D0A               	goto	u2073
  3665  0509  2D0B               	goto	u2074
  3666  050A                     u2073:	
  3667  050A  02D6               	subwf	??___fladd+6,f
  3668  050B                     u2074:	
  3669  050B  084B               	movf	___fladd@b+3,w
  3670  050C  1C03               	skipc
  3671  050D  0F4B               	incfsz	___fladd@b+3,w
  3672  050E  2D10               	goto	u2075
  3673  050F  2D11               	goto	u2076
  3674  0510                     u2075:	
  3675  0510  02D7               	subwf	??___fladd+7,f
  3676  0511                     u2076:	
  3677  0511  0854               	movf	??___fladd+4,w
  3678  0512  07D0               	addwf	??___fladd,f
  3679  0513  0855               	movf	??___fladd+5,w
  3680  0514  1803               	skipnc
  3681  0515  0F55               	incfsz	??___fladd+5,w
  3682  0516  2D18               	goto	u2080
  3683  0517  2D19               	goto	u2081
  3684  0518                     u2080:	
  3685  0518  07D1               	addwf	??___fladd+1,f
  3686  0519                     u2081:	
  3687  0519  0856               	movf	??___fladd+6,w
  3688  051A  1803               	skipnc
  3689  051B  0F56               	incfsz	??___fladd+6,w
  3690  051C  2D1E               	goto	u2082
  3691  051D  2D1F               	goto	u2083
  3692  051E                     u2082:	
  3693  051E  07D2               	addwf	??___fladd+2,f
  3694  051F                     u2083:	
  3695  051F  0857               	movf	??___fladd+7,w
  3696  0520  1803               	skipnc
  3697  0521  0A57               	incf	??___fladd+7,w
  3698  0522  07D3               	addwf	??___fladd+3,f
  3699  0523  0853               	movf	??___fladd+3,w
  3700  0524  00CB               	movwf	___fladd@b+3
  3701  0525  0852               	movf	??___fladd+2,w
  3702  0526  00CA               	movwf	___fladd@b+2
  3703  0527  0851               	movf	??___fladd+1,w
  3704  0528  00C9               	movwf	___fladd@b+1
  3705  0529  0850               	movf	??___fladd,w
  3706  052A  00C8               	movwf	___fladd@b
  3707  052B                     l1975:	
  3708  052B  3080               	movlw	128
  3709  052C  00D0               	movwf	??___fladd
  3710  052D  0850               	movf	??___fladd,w
  3711  052E  06D8               	xorwf	___fladd@signs,f
  3712  052F  09DB               	comf	___fladd@grs,f
  3713  0530  0ADB               	incf	___fladd@grs,f
  3714  0531                     l1977:	
  3715  0531  085B               	movf	___fladd@grs,w
  3716  0532  1D03               	btfss	3,2
  3717  0533  2D35               	goto	u2091
  3718  0534  2D36               	goto	u2090
  3719  0535                     u2091:	
  3720  0535  2D53               	goto	l613
  3721  0536                     u2090:	
  3722  0536                     l1979:	
  3723  0536  3001               	movlw	1
  3724  0537  07C8               	addwf	___fladd@b,f
  3725  0538  3000               	movlw	0
  3726  0539  1803               	skipnc
  3727  053A  3001               	movlw	1
  3728  053B  07C9               	addwf	___fladd@b+1,f
  3729  053C  3000               	movlw	0
  3730  053D  1803               	skipnc
  3731  053E  3001               	movlw	1
  3732  053F  07CA               	addwf	___fladd@b+2,f
  3733  0540  3000               	movlw	0
  3734  0541  1803               	skipnc
  3735  0542  3001               	movlw	1
  3736  0543  07CB               	addwf	___fladd@b+3,f
  3737  0544  2D53               	goto	l613
  3738  0545                     l1981:	
  3739  0545  084C               	movf	___fladd@a,w
  3740  0546  02C8               	subwf	___fladd@b,f
  3741  0547  084D               	movf	___fladd@a+1,w
  3742  0548  1C03               	skipc
  3743  0549  0F4D               	incfsz	___fladd@a+1,w
  3744  054A  02C9               	subwf	___fladd@b+1,f
  3745  054B  084E               	movf	___fladd@a+2,w
  3746  054C  1C03               	skipc
  3747  054D  0F4E               	incfsz	___fladd@a+2,w
  3748  054E  02CA               	subwf	___fladd@b+2,f
  3749  054F  084F               	movf	___fladd@a+3,w
  3750  0550  1C03               	skipc
  3751  0551  0F4F               	incfsz	___fladd@a+3,w
  3752  0552  02CB               	subwf	___fladd@b+3,f
  3753  0553                     l613:	
  3754  0553  084B               	movf	___fladd@b+3,w
  3755  0554  044A               	iorwf	___fladd@b+2,w
  3756  0555  0449               	iorwf	___fladd@b+1,w
  3757  0556  0448               	iorwf	___fladd@b,w
  3758  0557  1D03               	skipz
  3759  0558  2D5A               	goto	u2101
  3760  0559  2D5B               	goto	u2100
  3761  055A                     u2101:	
  3762  055A  2D87               	goto	l2003
  3763  055B                     u2100:	
  3764  055B                     l1983:	
  3765  055B  085B               	movf	___fladd@grs,w
  3766  055C  1D03               	btfss	3,2
  3767  055D  2D5F               	goto	u2111
  3768  055E  2D60               	goto	u2110
  3769  055F                     u2111:	
  3770  055F  2D87               	goto	l2003
  3771  0560                     u2110:	
  3772  0560                     l1985:	
  3773  0560  3000               	movlw	0
  3774  0561  00CB               	movwf	?___fladd+3
  3775  0562  3000               	movlw	0
  3776  0563  00CA               	movwf	?___fladd+2
  3777  0564  3000               	movlw	0
  3778  0565  00C9               	movwf	?___fladd+1
  3779  0566  3000               	movlw	0
  3780  0567  00C8               	movwf	?___fladd
  3781  0568  2E05               	goto	l605
  3782  0569                     l1989:	
  3783  0569  3001               	movlw	1
  3784  056A  00D0               	movwf	??___fladd
  3785  056B                     u2125:	
  3786  056B  1003               	clrc
  3787  056C  0DC8               	rlf	___fladd@b,f
  3788  056D  0DC9               	rlf	___fladd@b+1,f
  3789  056E  0DCA               	rlf	___fladd@b+2,f
  3790  056F  0DCB               	rlf	___fladd@b+3,f
  3791  0570  0BD0               	decfsz	??___fladd,f
  3792  0571  2D6B               	goto	u2125
  3793  0572                     l1991:	
  3794  0572  1FDB               	btfss	___fladd@grs,7
  3795  0573  2D75               	goto	u2131
  3796  0574  2D76               	goto	u2130
  3797  0575                     u2131:	
  3798  0575  2D77               	goto	l617
  3799  0576                     u2130:	
  3800  0576                     l1993:	
  3801  0576  1448               	bsf	___fladd@b,0
  3802  0577                     l617:	
  3803  0577  1C5B               	btfss	___fladd@grs,0
  3804  0578  2D7A               	goto	u2141
  3805  0579  2D7B               	goto	u2140
  3806  057A                     u2141:	
  3807  057A  2D7E               	goto	l1997
  3808  057B                     u2140:	
  3809  057B                     l1995:	
  3810  057B  1403               	setc
  3811  057C  0DDB               	rlf	___fladd@grs,f
  3812  057D  2D80               	goto	l1999
  3813  057E                     l1997:	
  3814  057E  1003               	clrc
  3815  057F  0DDB               	rlf	___fladd@grs,f
  3816  0580                     l1999:	
  3817  0580  085A               	movf	___fladd@bexp,w
  3818  0581  1903               	btfsc	3,2
  3819  0582  2D84               	goto	u2151
  3820  0583  2D85               	goto	u2150
  3821  0584                     u2151:	
  3822  0584  2D87               	goto	l2003
  3823  0585                     u2150:	
  3824  0585                     l2001:	
  3825  0585  3001               	movlw	1
  3826  0586  02DA               	subwf	___fladd@bexp,f
  3827  0587                     l2003:	
  3828  0587  1FCA               	btfss	___fladd@b+2,7
  3829  0588  2D8A               	goto	u2161
  3830  0589  2D8B               	goto	u2160
  3831  058A                     u2161:	
  3832  058A  2D69               	goto	l1989
  3833  058B                     u2160:	
  3834  058B                     l2005:	
  3835  058B  01D9               	clrf	___fladd@aexp
  3836  058C                     l2007:	
  3837  058C  1FDB               	btfss	___fladd@grs,7
  3838  058D  2D8F               	goto	u2171
  3839  058E  2D90               	goto	u2170
  3840  058F                     u2171:	
  3841  058F  2D9E               	goto	l2015
  3842  0590                     u2170:	
  3843  0590                     l2009:	
  3844  0590  085B               	movf	___fladd@grs,w
  3845  0591  397F               	andlw	127
  3846  0592  1903               	btfsc	3,2
  3847  0593  2D95               	goto	u2181
  3848  0594  2D96               	goto	u2180
  3849  0595                     u2181:	
  3850  0595  2D99               	goto	l623
  3851  0596                     u2180:	
  3852  0596                     l2011:	
  3853  0596  01D9               	clrf	___fladd@aexp
  3854  0597  0AD9               	incf	___fladd@aexp,f
  3855  0598  2D9E               	goto	l2015
  3856  0599                     l623:	
  3857  0599  1C48               	btfss	___fladd@b,0
  3858  059A  2D9C               	goto	u2191
  3859  059B  2D9D               	goto	u2190
  3860  059C                     u2191:	
  3861  059C  2D9E               	goto	l2015
  3862  059D                     u2190:	
  3863  059D  2D96               	goto	l2011
  3864  059E                     l2015:	
  3865  059E  0859               	movf	___fladd@aexp,w
  3866  059F  1903               	btfsc	3,2
  3867  05A0  2DA2               	goto	u2201
  3868  05A1  2DA3               	goto	u2200
  3869  05A2                     u2201:	
  3870  05A2  2DD7               	goto	l626
  3871  05A3                     u2200:	
  3872  05A3                     l2017:	
  3873  05A3  3001               	movlw	1
  3874  05A4  07C8               	addwf	___fladd@b,f
  3875  05A5  3000               	movlw	0
  3876  05A6  1803               	skipnc
  3877  05A7  3001               	movlw	1
  3878  05A8  07C9               	addwf	___fladd@b+1,f
  3879  05A9  3000               	movlw	0
  3880  05AA  1803               	skipnc
  3881  05AB  3001               	movlw	1
  3882  05AC  07CA               	addwf	___fladd@b+2,f
  3883  05AD  3000               	movlw	0
  3884  05AE  1803               	skipnc
  3885  05AF  3001               	movlw	1
  3886  05B0  07CB               	addwf	___fladd@b+3,f
  3887  05B1                     l2019:	
  3888  05B1  1C4B               	btfss	___fladd@b+3,0
  3889  05B2  2DB4               	goto	u2211
  3890  05B3  2DB5               	goto	u2210
  3891  05B4                     u2211:	
  3892  05B4  2DD7               	goto	l626
  3893  05B5                     u2210:	
  3894  05B5                     l2021:	
  3895  05B5  0848               	movf	___fladd@b,w
  3896  05B6  00D0               	movwf	??___fladd
  3897  05B7  0849               	movf	___fladd@b+1,w
  3898  05B8  00D1               	movwf	??___fladd+1
  3899  05B9  084A               	movf	___fladd@b+2,w
  3900  05BA  00D2               	movwf	??___fladd+2
  3901  05BB  084B               	movf	___fladd@b+3,w
  3902  05BC  00D3               	movwf	??___fladd+3
  3903  05BD  3001               	movlw	1
  3904  05BE  00D4               	movwf	??___fladd+4
  3905  05BF                     u2225:	
  3906  05BF  0D53               	rlf	??___fladd+3,w
  3907  05C0  0CD3               	rrf	??___fladd+3,f
  3908  05C1  0CD2               	rrf	??___fladd+2,f
  3909  05C2  0CD1               	rrf	??___fladd+1,f
  3910  05C3  0CD0               	rrf	??___fladd,f
  3911  05C4                     u2220:	
  3912  05C4  0BD4               	decfsz	??___fladd+4,f
  3913  05C5  2DBF               	goto	u2225
  3914  05C6  0853               	movf	??___fladd+3,w
  3915  05C7  00CB               	movwf	___fladd@b+3
  3916  05C8  0852               	movf	??___fladd+2,w
  3917  05C9  00CA               	movwf	___fladd@b+2
  3918  05CA  0851               	movf	??___fladd+1,w
  3919  05CB  00C9               	movwf	___fladd@b+1
  3920  05CC  0850               	movf	??___fladd,w
  3921  05CD  00C8               	movwf	___fladd@b
  3922  05CE  0A5A               	incf	___fladd@bexp,w
  3923  05CF  1903               	btfsc	3,2
  3924  05D0  2DD2               	goto	u2231
  3925  05D1  2DD3               	goto	u2230
  3926  05D2                     u2231:	
  3927  05D2  2DD7               	goto	l626
  3928  05D3                     u2230:	
  3929  05D3                     l2023:	
  3930  05D3  3001               	movlw	1
  3931  05D4  00D0               	movwf	??___fladd
  3932  05D5  0850               	movf	??___fladd,w
  3933  05D6  07DA               	addwf	___fladd@bexp,f
  3934  05D7                     l626:	
  3935  05D7  0A5A               	incf	___fladd@bexp,w
  3936  05D8  1903               	btfsc	3,2
  3937  05D9  2DDB               	goto	u2241
  3938  05DA  2DDC               	goto	u2240
  3939  05DB                     u2241:	
  3940  05DB  2DE1               	goto	l2027
  3941  05DC                     u2240:	
  3942  05DC                     l2025:	
  3943  05DC  085A               	movf	___fladd@bexp,w
  3944  05DD  1D03               	btfss	3,2
  3945  05DE  2DE0               	goto	u2251
  3946  05DF  2DE1               	goto	u2250
  3947  05E0                     u2251:	
  3948  05E0  2DEF               	goto	l2033
  3949  05E1                     u2250:	
  3950  05E1                     l2027:	
  3951  05E1  3000               	movlw	0
  3952  05E2  00CB               	movwf	___fladd@b+3
  3953  05E3  3000               	movlw	0
  3954  05E4  00CA               	movwf	___fladd@b+2
  3955  05E5  3000               	movlw	0
  3956  05E6  00C9               	movwf	___fladd@b+1
  3957  05E7  3000               	movlw	0
  3958  05E8  00C8               	movwf	___fladd@b
  3959  05E9                     l2029:	
  3960  05E9  085A               	movf	___fladd@bexp,w
  3961  05EA  1D03               	btfss	3,2
  3962  05EB  2DED               	goto	u2261
  3963  05EC  2DEE               	goto	u2260
  3964  05ED                     u2261:	
  3965  05ED  2DEF               	goto	l2033
  3966  05EE                     u2260:	
  3967  05EE                     l2031:	
  3968  05EE  01D8               	clrf	___fladd@signs
  3969  05EF                     l2033:	
  3970  05EF  1C5A               	btfss	___fladd@bexp,0
  3971  05F0  2DF2               	goto	u2271
  3972  05F1  2DF3               	goto	u2270
  3973  05F2                     u2271:	
  3974  05F2  2DF5               	goto	l2037
  3975  05F3                     u2270:	
  3976  05F3                     l2035:	
  3977  05F3  17CA               	bsf	___fladd@b+2,7
  3978  05F4  2DF9               	goto	l634
  3979  05F5                     l2037:	
  3980  05F5  307F               	movlw	127
  3981  05F6  00D0               	movwf	??___fladd
  3982  05F7  0850               	movf	??___fladd,w
  3983  05F8  05CA               	andwf	___fladd@b+2,f
  3984  05F9                     l634:	
  3985  05F9  085A               	movf	___fladd@bexp,w
  3986  05FA  00D0               	movwf	??___fladd
  3987  05FB  1003               	clrc
  3988  05FC  0C50               	rrf	??___fladd,w
  3989  05FD  00D1               	movwf	??___fladd+1
  3990  05FE  0851               	movf	??___fladd+1,w
  3991  05FF  00CB               	movwf	___fladd@b+3
  3992  0600                     l2039:	
  3993  0600  1FD8               	btfss	___fladd@signs,7
  3994  0601  2E03               	goto	u2281
  3995  0602  2E04               	goto	u2280
  3996  0603                     u2281:	
  3997  0603  2E05               	goto	l635
  3998  0604                     u2280:	
  3999  0604                     l2041:	
  4000  0604  17CB               	bsf	___fladd@b+3,7
  4001  0605                     l635:	
  4002  0605                     l605:	
  4003  0605  0008               	return
  4004  0606                     __end_of___fladd:	
  4005                           
  4006                           	psect	text10
  4007  0606                     __ptext10:	
  4008 ;; *************** function ___fldiv *****************
  4009 ;; Defined at:
  4010 ;;		line 8 in file "C:\Program Files (x86)\Microchip\xc8\v2.10\pic\sources\c90\common\sprcdiv.c"
  4011 ;; Parameters:    Size  Location     Type
  4012 ;;  a               4    0[BANK0 ] unsigned char 
  4013 ;;  b               4    4[BANK0 ] unsigned char 
  4014 ;; Auto vars:     Size  Location     Type
  4015 ;;  grs             4   15[BANK0 ] unsigned long 
  4016 ;;  rem             4    8[BANK0 ] unsigned long 
  4017 ;;  new_exp         2   13[BANK0 ] int 
  4018 ;;  aexp            1   20[BANK0 ] unsigned char 
  4019 ;;  bexp            1   19[BANK0 ] unsigned char 
  4020 ;;  sign            1   12[BANK0 ] unsigned char 
  4021 ;; Return value:  Size  Location     Type
  4022 ;;                  4    0[BANK0 ] unsigned char 
  4023 ;; Registers used:
  4024 ;;		wreg, status,2, status,0, btemp+1
  4025 ;; Tracked objects:
  4026 ;;		On entry : 0/0
  4027 ;;		On exit  : 0/0
  4028 ;;		Unchanged: 0/0
  4029 ;; Data sizes:     COMMON   BANK0   BANK1   BANK3   BANK2
  4030 ;;      Params:         0       8       0       0       0
  4031 ;;      Locals:         0      13       0       0       0
  4032 ;;      Temps:          5       0       0       0       0
  4033 ;;      Totals:         5      21       0       0       0
  4034 ;;Total ram usage:       26 bytes
  4035 ;; Hardware stack levels used:    1
  4036 ;; Hardware stack levels required when called:    1
  4037 ;; This function calls:
  4038 ;;		Nothing
  4039 ;; This function is called by:
  4040 ;;		_b2
  4041 ;;		_b1
  4042 ;;		_b0
  4043 ;; This function uses a non-reentrant model
  4044 ;;
  4045                           
  4046                           
  4047                           ;psect for function ___fldiv
  4048  0606                     ___fldiv:	
  4049  0606                     l2857:	
  4050                           ;incstack = 0
  4051                           ; Regs used in ___fldiv: [wreg+status,2+status,0+btemp+1]
  4052                           
  4053  0606  1283               	bcf	3,5	;RP0=0, select bank0
  4054  0607  1303               	bcf	3,6	;RP1=0, select bank0
  4055  0608  0827               	movf	___fldiv@b+3,w
  4056  0609  3980               	andlw	128
  4057  060A  00F3               	movwf	??___fldiv
  4058  060B  0873               	movf	??___fldiv,w
  4059  060C  00AC               	movwf	___fldiv@sign
  4060  060D                     l2859:	
  4061  060D  0827               	movf	___fldiv@b+3,w
  4062  060E  00F3               	movwf	??___fldiv
  4063  060F  0773               	addwf	??___fldiv,w
  4064  0610  00F4               	movwf	??___fldiv+1
  4065  0611  0874               	movf	??___fldiv+1,w
  4066  0612  00B3               	movwf	___fldiv@bexp
  4067  0613                     l2861:	
  4068  0613  1FA6               	btfss	___fldiv@b+2,7
  4069  0614  2E16               	goto	u3491
  4070  0615  2E17               	goto	u3490
  4071  0616                     u3491:	
  4072  0616  2E18               	goto	l2865
  4073  0617                     u3490:	
  4074  0617                     l2863:	
  4075  0617  1433               	bsf	___fldiv@bexp,0
  4076  0618                     l2865:	
  4077  0618  0833               	movf	___fldiv@bexp,w
  4078  0619  1903               	btfsc	3,2
  4079  061A  2E1C               	goto	u3501
  4080  061B  2E1D               	goto	u3500
  4081  061C                     u3501:	
  4082  061C  2E2D               	goto	l2875
  4083  061D                     u3500:	
  4084  061D                     l2867:	
  4085  061D  0A33               	incf	___fldiv@bexp,w
  4086  061E  1D03               	btfss	3,2
  4087  061F  2E21               	goto	u3511
  4088  0620  2E22               	goto	u3510
  4089  0621                     u3511:	
  4090  0621  2E2A               	goto	l2871
  4091  0622                     u3510:	
  4092  0622                     l2869:	
  4093  0622  3000               	movlw	0
  4094  0623  00A7               	movwf	___fldiv@b+3
  4095  0624  3000               	movlw	0
  4096  0625  00A6               	movwf	___fldiv@b+2
  4097  0626  3000               	movlw	0
  4098  0627  00A5               	movwf	___fldiv@b+1
  4099  0628  3000               	movlw	0
  4100  0629  00A4               	movwf	___fldiv@b
  4101  062A                     l2871:	
  4102  062A  17A6               	bsf	___fldiv@b+2,7
  4103  062B                     l2873:	
  4104  062B  01A7               	clrf	___fldiv@b+3
  4105  062C  2E35               	goto	l2877
  4106  062D                     l2875:	
  4107  062D  3000               	movlw	0
  4108  062E  00A7               	movwf	___fldiv@b+3
  4109  062F  3000               	movlw	0
  4110  0630  00A6               	movwf	___fldiv@b+2
  4111  0631  3000               	movlw	0
  4112  0632  00A5               	movwf	___fldiv@b+1
  4113  0633  3000               	movlw	0
  4114  0634  00A4               	movwf	___fldiv@b
  4115  0635                     l2877:	
  4116  0635  0823               	movf	___fldiv@a+3,w
  4117  0636  3980               	andlw	128
  4118  0637  00F3               	movwf	??___fldiv
  4119  0638  0873               	movf	??___fldiv,w
  4120  0639  06AC               	xorwf	___fldiv@sign,f
  4121  063A                     l2879:	
  4122  063A  0823               	movf	___fldiv@a+3,w
  4123  063B  00F3               	movwf	??___fldiv
  4124  063C  0773               	addwf	??___fldiv,w
  4125  063D  00F4               	movwf	??___fldiv+1
  4126  063E  0874               	movf	??___fldiv+1,w
  4127  063F  00B4               	movwf	___fldiv@aexp
  4128  0640                     l2881:	
  4129  0640  1FA2               	btfss	___fldiv@a+2,7
  4130  0641  2E43               	goto	u3521
  4131  0642  2E44               	goto	u3520
  4132  0643                     u3521:	
  4133  0643  2E45               	goto	l2885
  4134  0644                     u3520:	
  4135  0644                     l2883:	
  4136  0644  1434               	bsf	___fldiv@aexp,0
  4137  0645                     l2885:	
  4138  0645  0834               	movf	___fldiv@aexp,w
  4139  0646  1903               	btfsc	3,2
  4140  0647  2E49               	goto	u3531
  4141  0648  2E4A               	goto	u3530
  4142  0649                     u3531:	
  4143  0649  2E5A               	goto	l2895
  4144  064A                     u3530:	
  4145  064A                     l2887:	
  4146  064A  0A34               	incf	___fldiv@aexp,w
  4147  064B  1D03               	btfss	3,2
  4148  064C  2E4E               	goto	u3541
  4149  064D  2E4F               	goto	u3540
  4150  064E                     u3541:	
  4151  064E  2E57               	goto	l2891
  4152  064F                     u3540:	
  4153  064F                     l2889:	
  4154  064F  3000               	movlw	0
  4155  0650  00A3               	movwf	___fldiv@a+3
  4156  0651  3000               	movlw	0
  4157  0652  00A2               	movwf	___fldiv@a+2
  4158  0653  3000               	movlw	0
  4159  0654  00A1               	movwf	___fldiv@a+1
  4160  0655  3000               	movlw	0
  4161  0656  00A0               	movwf	___fldiv@a
  4162  0657                     l2891:	
  4163  0657  17A2               	bsf	___fldiv@a+2,7
  4164  0658                     l2893:	
  4165  0658  01A3               	clrf	___fldiv@a+3
  4166  0659  2E62               	goto	l648
  4167  065A                     l2895:	
  4168  065A  3000               	movlw	0
  4169  065B  00A3               	movwf	___fldiv@a+3
  4170  065C  3000               	movlw	0
  4171  065D  00A2               	movwf	___fldiv@a+2
  4172  065E  3000               	movlw	0
  4173  065F  00A1               	movwf	___fldiv@a+1
  4174  0660  3000               	movlw	0
  4175  0661  00A0               	movwf	___fldiv@a
  4176  0662                     l648:	
  4177  0662  0823               	movf	___fldiv@a+3,w
  4178  0663  0422               	iorwf	___fldiv@a+2,w
  4179  0664  0421               	iorwf	___fldiv@a+1,w
  4180  0665  0420               	iorwf	___fldiv@a,w
  4181  0666  1D03               	skipz
  4182  0667  2E69               	goto	u3551
  4183  0668  2E6A               	goto	u3550
  4184  0669                     u3551:	
  4185  0669  2E83               	goto	l2905
  4186  066A                     u3550:	
  4187  066A                     l2897:	
  4188  066A  3000               	movlw	0
  4189  066B  00A7               	movwf	___fldiv@b+3
  4190  066C  3000               	movlw	0
  4191  066D  00A6               	movwf	___fldiv@b+2
  4192  066E  3000               	movlw	0
  4193  066F  00A5               	movwf	___fldiv@b+1
  4194  0670  3000               	movlw	0
  4195  0671  00A4               	movwf	___fldiv@b
  4196  0672  3080               	movlw	128
  4197  0673  04A6               	iorwf	___fldiv@b+2,f
  4198  0674  307F               	movlw	127
  4199  0675  04A7               	iorwf	___fldiv@b+3,f
  4200  0676                     l2899:	
  4201  0676  082C               	movf	___fldiv@sign,w
  4202  0677  00F3               	movwf	??___fldiv
  4203  0678  0873               	movf	??___fldiv,w
  4204  0679  04A7               	iorwf	___fldiv@b+3,f
  4205  067A                     l2901:	
  4206  067A  0827               	movf	___fldiv@b+3,w
  4207  067B  00A3               	movwf	?___fldiv+3
  4208  067C  0826               	movf	___fldiv@b+2,w
  4209  067D  00A2               	movwf	?___fldiv+2
  4210  067E  0825               	movf	___fldiv@b+1,w
  4211  067F  00A1               	movwf	?___fldiv+1
  4212  0680  0824               	movf	___fldiv@b,w
  4213  0681  00A0               	movwf	?___fldiv
  4214  0682  2FE2               	goto	l650
  4215  0683                     l2905:	
  4216  0683  0833               	movf	___fldiv@bexp,w
  4217  0684  1D03               	btfss	3,2
  4218  0685  2E87               	goto	u3561
  4219  0686  2E88               	goto	u3560
  4220  0687                     u3561:	
  4221  0687  2E91               	goto	l2911
  4222  0688                     u3560:	
  4223  0688                     l2907:	
  4224  0688  3000               	movlw	0
  4225  0689  00A3               	movwf	?___fldiv+3
  4226  068A  3000               	movlw	0
  4227  068B  00A2               	movwf	?___fldiv+2
  4228  068C  3000               	movlw	0
  4229  068D  00A1               	movwf	?___fldiv+1
  4230  068E  3000               	movlw	0
  4231  068F  00A0               	movwf	?___fldiv
  4232  0690  2FE2               	goto	l650
  4233  0691                     l2911:	
  4234  0691  0833               	movf	___fldiv@bexp,w
  4235  0692  00F3               	movwf	??___fldiv
  4236  0693  01F4               	clrf	??___fldiv+1
  4237  0694  0874               	movf	??___fldiv+1,w
  4238  0695  00F6               	movwf	??___fldiv+3
  4239  0696  0834               	movf	___fldiv@aexp,w
  4240  0697  0273               	subwf	??___fldiv,w
  4241  0698  00F5               	movwf	??___fldiv+2
  4242  0699  1C03               	skipc
  4243  069A  03F6               	decf	??___fldiv+3,f
  4244  069B  0875               	movf	??___fldiv+2,w
  4245  069C  3E7F               	addlw	127
  4246  069D  00AD               	movwf	___fldiv@new_exp
  4247  069E  0876               	movf	??___fldiv+3,w
  4248  069F  1803               	skipnc
  4249  06A0  3E01               	addlw	1
  4250  06A1  3E00               	addlw	0
  4251  06A2  00AE               	movwf	___fldiv@new_exp+1
  4252  06A3                     l2913:	
  4253  06A3  0827               	movf	___fldiv@b+3,w
  4254  06A4  00AB               	movwf	___fldiv@rem+3
  4255  06A5  0826               	movf	___fldiv@b+2,w
  4256  06A6  00AA               	movwf	___fldiv@rem+2
  4257  06A7  0825               	movf	___fldiv@b+1,w
  4258  06A8  00A9               	movwf	___fldiv@rem+1
  4259  06A9  0824               	movf	___fldiv@b,w
  4260  06AA  00A8               	movwf	___fldiv@rem
  4261  06AB                     l2915:	
  4262  06AB  3000               	movlw	0
  4263  06AC  00A7               	movwf	___fldiv@b+3
  4264  06AD  3000               	movlw	0
  4265  06AE  00A6               	movwf	___fldiv@b+2
  4266  06AF  3000               	movlw	0
  4267  06B0  00A5               	movwf	___fldiv@b+1
  4268  06B1  3000               	movlw	0
  4269  06B2  00A4               	movwf	___fldiv@b
  4270  06B3                     l2917:	
  4271  06B3  3000               	movlw	0
  4272  06B4  00B2               	movwf	___fldiv@grs+3
  4273  06B5  3000               	movlw	0
  4274  06B6  00B1               	movwf	___fldiv@grs+2
  4275  06B7  3000               	movlw	0
  4276  06B8  00B0               	movwf	___fldiv@grs+1
  4277  06B9  3000               	movlw	0
  4278  06BA  00AF               	movwf	___fldiv@grs
  4279  06BB                     l2919:	
  4280  06BB  01B4               	clrf	___fldiv@aexp
  4281  06BC  2F07               	goto	l2939
  4282  06BD                     l2921:	
  4283  06BD  0834               	movf	___fldiv@aexp,w
  4284  06BE  1903               	btfsc	3,2
  4285  06BF  2EC1               	goto	u3571
  4286  06C0  2EC2               	goto	u3570
  4287  06C1                     u3571:	
  4288  06C1  2EE2               	goto	l2931
  4289  06C2                     u3570:	
  4290  06C2                     l2923:	
  4291  06C2  3001               	movlw	1
  4292  06C3  00F3               	movwf	??___fldiv
  4293  06C4                     u3585:	
  4294  06C4  1003               	clrc
  4295  06C5  0DA8               	rlf	___fldiv@rem,f
  4296  06C6  0DA9               	rlf	___fldiv@rem+1,f
  4297  06C7  0DAA               	rlf	___fldiv@rem+2,f
  4298  06C8  0DAB               	rlf	___fldiv@rem+3,f
  4299  06C9  0BF3               	decfsz	??___fldiv,f
  4300  06CA  2EC4               	goto	u3585
  4301  06CB  3001               	movlw	1
  4302  06CC  00F3               	movwf	??___fldiv
  4303  06CD                     u3595:	
  4304  06CD  1003               	clrc
  4305  06CE  0DA4               	rlf	___fldiv@b,f
  4306  06CF  0DA5               	rlf	___fldiv@b+1,f
  4307  06D0  0DA6               	rlf	___fldiv@b+2,f
  4308  06D1  0DA7               	rlf	___fldiv@b+3,f
  4309  06D2  0BF3               	decfsz	??___fldiv,f
  4310  06D3  2ECD               	goto	u3595
  4311  06D4                     l2925:	
  4312  06D4  1FB2               	btfss	___fldiv@grs+3,7
  4313  06D5  2ED7               	goto	u3601
  4314  06D6  2ED8               	goto	u3600
  4315  06D7                     u3601:	
  4316  06D7  2ED9               	goto	l2929
  4317  06D8                     u3600:	
  4318  06D8                     l2927:	
  4319  06D8  1424               	bsf	___fldiv@b,0
  4320  06D9                     l2929:	
  4321  06D9  3001               	movlw	1
  4322  06DA  00F3               	movwf	??___fldiv
  4323  06DB                     u3615:	
  4324  06DB  1003               	clrc
  4325  06DC  0DAF               	rlf	___fldiv@grs,f
  4326  06DD  0DB0               	rlf	___fldiv@grs+1,f
  4327  06DE  0DB1               	rlf	___fldiv@grs+2,f
  4328  06DF  0DB2               	rlf	___fldiv@grs+3,f
  4329  06E0  0BF3               	decfsz	??___fldiv,f
  4330  06E1  2EDB               	goto	u3615
  4331  06E2                     l2931:	
  4332  06E2  0823               	movf	___fldiv@a+3,w
  4333  06E3  022B               	subwf	___fldiv@rem+3,w
  4334  06E4  1D03               	skipz
  4335  06E5  2EF0               	goto	u3625
  4336  06E6  0822               	movf	___fldiv@a+2,w
  4337  06E7  022A               	subwf	___fldiv@rem+2,w
  4338  06E8  1D03               	skipz
  4339  06E9  2EF0               	goto	u3625
  4340  06EA  0821               	movf	___fldiv@a+1,w
  4341  06EB  0229               	subwf	___fldiv@rem+1,w
  4342  06EC  1D03               	skipz
  4343  06ED  2EF0               	goto	u3625
  4344  06EE  0820               	movf	___fldiv@a,w
  4345  06EF  0228               	subwf	___fldiv@rem,w
  4346  06F0                     u3625:	
  4347  06F0  1C03               	skipc
  4348  06F1  2EF3               	goto	u3621
  4349  06F2  2EF4               	goto	u3620
  4350  06F3                     u3621:	
  4351  06F3  2F03               	goto	l2937
  4352  06F4                     u3620:	
  4353  06F4                     l2933:	
  4354  06F4  1732               	bsf	___fldiv@grs+3,6
  4355  06F5                     l2935:	
  4356  06F5  0820               	movf	___fldiv@a,w
  4357  06F6  02A8               	subwf	___fldiv@rem,f
  4358  06F7  0821               	movf	___fldiv@a+1,w
  4359  06F8  1C03               	skipc
  4360  06F9  0F21               	incfsz	___fldiv@a+1,w
  4361  06FA  02A9               	subwf	___fldiv@rem+1,f
  4362  06FB  0822               	movf	___fldiv@a+2,w
  4363  06FC  1C03               	skipc
  4364  06FD  0F22               	incfsz	___fldiv@a+2,w
  4365  06FE  02AA               	subwf	___fldiv@rem+2,f
  4366  06FF  0823               	movf	___fldiv@a+3,w
  4367  0700  1C03               	skipc
  4368  0701  0F23               	incfsz	___fldiv@a+3,w
  4369  0702  02AB               	subwf	___fldiv@rem+3,f
  4370  0703                     l2937:	
  4371  0703  3001               	movlw	1
  4372  0704  00F3               	movwf	??___fldiv
  4373  0705  0873               	movf	??___fldiv,w
  4374  0706  07B4               	addwf	___fldiv@aexp,f
  4375  0707                     l2939:	
  4376  0707  301A               	movlw	26
  4377  0708  0234               	subwf	___fldiv@aexp,w
  4378  0709  1C03               	skipc
  4379  070A  2F0C               	goto	u3631
  4380  070B  2F0D               	goto	u3630
  4381  070C                     u3631:	
  4382  070C  2EBD               	goto	l2921
  4383  070D                     u3630:	
  4384  070D                     l2941:	
  4385  070D  082B               	movf	___fldiv@rem+3,w
  4386  070E  042A               	iorwf	___fldiv@rem+2,w
  4387  070F  0429               	iorwf	___fldiv@rem+1,w
  4388  0710  0428               	iorwf	___fldiv@rem,w
  4389  0711  1903               	skipnz
  4390  0712  2F14               	goto	u3641
  4391  0713  2F15               	goto	u3640
  4392  0714                     u3641:	
  4393  0714  2F34               	goto	l2955
  4394  0715                     u3640:	
  4395  0715                     l2943:	
  4396  0715  142F               	bsf	___fldiv@grs,0
  4397  0716  2F34               	goto	l2955
  4398  0717                     l2945:	
  4399  0717  3001               	movlw	1
  4400  0718  00F3               	movwf	??___fldiv
  4401  0719                     u3655:	
  4402  0719  1003               	clrc
  4403  071A  0DA4               	rlf	___fldiv@b,f
  4404  071B  0DA5               	rlf	___fldiv@b+1,f
  4405  071C  0DA6               	rlf	___fldiv@b+2,f
  4406  071D  0DA7               	rlf	___fldiv@b+3,f
  4407  071E  0BF3               	decfsz	??___fldiv,f
  4408  071F  2F19               	goto	u3655
  4409  0720                     l2947:	
  4410  0720  1FB2               	btfss	___fldiv@grs+3,7
  4411  0721  2F23               	goto	u3661
  4412  0722  2F24               	goto	u3660
  4413  0723                     u3661:	
  4414  0723  2F25               	goto	l2951
  4415  0724                     u3660:	
  4416  0724                     l2949:	
  4417  0724  1424               	bsf	___fldiv@b,0
  4418  0725                     l2951:	
  4419  0725  3001               	movlw	1
  4420  0726  00F3               	movwf	??___fldiv
  4421  0727                     u3675:	
  4422  0727  1003               	clrc
  4423  0728  0DAF               	rlf	___fldiv@grs,f
  4424  0729  0DB0               	rlf	___fldiv@grs+1,f
  4425  072A  0DB1               	rlf	___fldiv@grs+2,f
  4426  072B  0DB2               	rlf	___fldiv@grs+3,f
  4427  072C  0BF3               	decfsz	??___fldiv,f
  4428  072D  2F27               	goto	u3675
  4429  072E                     l2953:	
  4430  072E  30FF               	movlw	255
  4431  072F  07AD               	addwf	___fldiv@new_exp,f
  4432  0730  1803               	skipnc
  4433  0731  0AAE               	incf	___fldiv@new_exp+1,f
  4434  0732  30FF               	movlw	255
  4435  0733  07AE               	addwf	___fldiv@new_exp+1,f
  4436  0734                     l2955:	
  4437  0734  1FA6               	btfss	___fldiv@b+2,7
  4438  0735  2F37               	goto	u3681
  4439  0736  2F38               	goto	u3680
  4440  0737                     u3681:	
  4441  0737  2F17               	goto	l2945
  4442  0738                     u3680:	
  4443  0738                     l2957:	
  4444  0738  01B4               	clrf	___fldiv@aexp
  4445  0739                     l2959:	
  4446  0739  1FB2               	btfss	___fldiv@grs+3,7
  4447  073A  2F3C               	goto	u3691
  4448  073B  2F3D               	goto	u3690
  4449  073C                     u3691:	
  4450  073C  2F59               	goto	l2967
  4451  073D                     u3690:	
  4452  073D                     l2961:	
  4453  073D  30FF               	movlw	255
  4454  073E  052F               	andwf	___fldiv@grs,w
  4455  073F  00F3               	movwf	??___fldiv
  4456  0740  30FF               	movlw	255
  4457  0741  0530               	andwf	___fldiv@grs+1,w
  4458  0742  00F4               	movwf	??___fldiv+1
  4459  0743  30FF               	movlw	255
  4460  0744  0531               	andwf	___fldiv@grs+2,w
  4461  0745  00F5               	movwf	??___fldiv+2
  4462  0746  307F               	movlw	127
  4463  0747  0532               	andwf	___fldiv@grs+3,w
  4464  0748  00F6               	movwf	??___fldiv+3
  4465  0749  0876               	movf	??___fldiv+3,w
  4466  074A  0475               	iorwf	??___fldiv+2,w
  4467  074B  0474               	iorwf	??___fldiv+1,w
  4468  074C  0473               	iorwf	??___fldiv,w
  4469  074D  1903               	skipnz
  4470  074E  2F50               	goto	u3701
  4471  074F  2F51               	goto	u3700
  4472  0750                     u3701:	
  4473  0750  2F54               	goto	l664
  4474  0751                     u3700:	
  4475  0751                     l2963:	
  4476  0751  01B4               	clrf	___fldiv@aexp
  4477  0752  0AB4               	incf	___fldiv@aexp,f
  4478  0753  2F59               	goto	l2967
  4479  0754                     l664:	
  4480  0754  1C24               	btfss	___fldiv@b,0
  4481  0755  2F57               	goto	u3711
  4482  0756  2F58               	goto	u3710
  4483  0757                     u3711:	
  4484  0757  2F59               	goto	l2967
  4485  0758                     u3710:	
  4486  0758  2F51               	goto	l2963
  4487  0759                     l2967:	
  4488  0759  0834               	movf	___fldiv@aexp,w
  4489  075A  1903               	btfsc	3,2
  4490  075B  2F5D               	goto	u3721
  4491  075C  2F5E               	goto	u3720
  4492  075D                     u3721:	
  4493  075D  2F8F               	goto	l2977
  4494  075E                     u3720:	
  4495  075E                     l2969:	
  4496  075E  3001               	movlw	1
  4497  075F  07A4               	addwf	___fldiv@b,f
  4498  0760  3000               	movlw	0
  4499  0761  1803               	skipnc
  4500  0762  3001               	movlw	1
  4501  0763  07A5               	addwf	___fldiv@b+1,f
  4502  0764  3000               	movlw	0
  4503  0765  1803               	skipnc
  4504  0766  3001               	movlw	1
  4505  0767  07A6               	addwf	___fldiv@b+2,f
  4506  0768  3000               	movlw	0
  4507  0769  1803               	skipnc
  4508  076A  3001               	movlw	1
  4509  076B  07A7               	addwf	___fldiv@b+3,f
  4510  076C                     l2971:	
  4511  076C  1C27               	btfss	___fldiv@b+3,0
  4512  076D  2F6F               	goto	u3731
  4513  076E  2F70               	goto	u3730
  4514  076F                     u3731:	
  4515  076F  2F8F               	goto	l2977
  4516  0770                     u3730:	
  4517  0770                     l2973:	
  4518  0770  0824               	movf	___fldiv@b,w
  4519  0771  00F3               	movwf	??___fldiv
  4520  0772  0825               	movf	___fldiv@b+1,w
  4521  0773  00F4               	movwf	??___fldiv+1
  4522  0774  0826               	movf	___fldiv@b+2,w
  4523  0775  00F5               	movwf	??___fldiv+2
  4524  0776  0827               	movf	___fldiv@b+3,w
  4525  0777  00F6               	movwf	??___fldiv+3
  4526  0778  3001               	movlw	1
  4527  0779  00F7               	movwf	??___fldiv+4
  4528  077A                     u3745:	
  4529  077A  0D76               	rlf	??___fldiv+3,w
  4530  077B  0CF6               	rrf	??___fldiv+3,f
  4531  077C  0CF5               	rrf	??___fldiv+2,f
  4532  077D  0CF4               	rrf	??___fldiv+1,f
  4533  077E  0CF3               	rrf	??___fldiv,f
  4534  077F                     u3740:	
  4535  077F  0BF7               	decfsz	??___fldiv+4,f
  4536  0780  2F7A               	goto	u3745
  4537  0781  0876               	movf	??___fldiv+3,w
  4538  0782  00A7               	movwf	___fldiv@b+3
  4539  0783  0875               	movf	??___fldiv+2,w
  4540  0784  00A6               	movwf	___fldiv@b+2
  4541  0785  0874               	movf	??___fldiv+1,w
  4542  0786  00A5               	movwf	___fldiv@b+1
  4543  0787  0873               	movf	??___fldiv,w
  4544  0788  00A4               	movwf	___fldiv@b
  4545  0789                     l2975:	
  4546  0789  3001               	movlw	1
  4547  078A  07AD               	addwf	___fldiv@new_exp,f
  4548  078B  1803               	skipnc
  4549  078C  0AAE               	incf	___fldiv@new_exp+1,f
  4550  078D  3000               	movlw	0
  4551  078E  07AE               	addwf	___fldiv@new_exp+1,f
  4552  078F                     l2977:	
  4553  078F  082E               	movf	___fldiv@new_exp+1,w
  4554  0790  3A80               	xorlw	128
  4555  0791  00FF               	movwf	btemp+1
  4556  0792  3080               	movlw	128
  4557  0793  027F               	subwf	btemp+1,w
  4558  0794  1D03               	skipz
  4559  0795  2F98               	goto	u3755
  4560  0796  30FF               	movlw	255
  4561  0797  022D               	subwf	___fldiv@new_exp,w
  4562  0798                     u3755:	
  4563  0798  1C03               	skipc
  4564  0799  2F9B               	goto	u3751
  4565  079A  2F9C               	goto	u3750
  4566  079B                     u3751:	
  4567  079B  2FAA               	goto	l2981
  4568  079C                     u3750:	
  4569  079C                     l2979:	
  4570  079C  30FF               	movlw	255
  4571  079D  1283               	bcf	3,5	;RP0=0, select bank0
  4572  079E  1303               	bcf	3,6	;RP1=0, select bank0
  4573  079F  00AD               	movwf	___fldiv@new_exp
  4574  07A0  3000               	movlw	0
  4575  07A1  00AE               	movwf	___fldiv@new_exp+1
  4576  07A2  3000               	movlw	0
  4577  07A3  00A7               	movwf	___fldiv@b+3
  4578  07A4  3000               	movlw	0
  4579  07A5  00A6               	movwf	___fldiv@b+2
  4580  07A6  3000               	movlw	0
  4581  07A7  00A5               	movwf	___fldiv@b+1
  4582  07A8  3000               	movlw	0
  4583  07A9  00A4               	movwf	___fldiv@b
  4584  07AA                     l2981:	
  4585  07AA  1283               	bcf	3,5	;RP0=0, select bank0
  4586  07AB  1303               	bcf	3,6	;RP1=0, select bank0
  4587  07AC  082E               	movf	___fldiv@new_exp+1,w
  4588  07AD  3A80               	xorlw	128
  4589  07AE  00FF               	movwf	btemp+1
  4590  07AF  3080               	movlw	128
  4591  07B0  027F               	subwf	btemp+1,w
  4592  07B1  1D03               	skipz
  4593  07B2  2FB5               	goto	u3765
  4594  07B3  3001               	movlw	1
  4595  07B4  022D               	subwf	___fldiv@new_exp,w
  4596  07B5                     u3765:	
  4597  07B5  1803               	skipnc
  4598  07B6  2FB8               	goto	u3761
  4599  07B7  2FB9               	goto	u3760
  4600  07B8                     u3761:	
  4601  07B8  2FC6               	goto	l670
  4602  07B9                     u3760:	
  4603  07B9                     l2983:	
  4604  07B9  1283               	bcf	3,5	;RP0=0, select bank0
  4605  07BA  1303               	bcf	3,6	;RP1=0, select bank0
  4606  07BB  01AD               	clrf	___fldiv@new_exp
  4607  07BC  01AE               	clrf	___fldiv@new_exp+1
  4608  07BD                     l2985:	
  4609  07BD  3000               	movlw	0
  4610  07BE  00A7               	movwf	___fldiv@b+3
  4611  07BF  3000               	movlw	0
  4612  07C0  00A6               	movwf	___fldiv@b+2
  4613  07C1  3000               	movlw	0
  4614  07C2  00A5               	movwf	___fldiv@b+1
  4615  07C3  3000               	movlw	0
  4616  07C4  00A4               	movwf	___fldiv@b
  4617  07C5                     l2987:	
  4618  07C5  01AC               	clrf	___fldiv@sign
  4619  07C6                     l670:	
  4620  07C6  1283               	bcf	3,5	;RP0=0, select bank0
  4621  07C7  1303               	bcf	3,6	;RP1=0, select bank0
  4622  07C8  082D               	movf	___fldiv@new_exp,w
  4623  07C9  00F3               	movwf	??___fldiv
  4624  07CA  0873               	movf	??___fldiv,w
  4625  07CB  00B3               	movwf	___fldiv@bexp
  4626  07CC                     l2989:	
  4627  07CC  1C33               	btfss	___fldiv@bexp,0
  4628  07CD  2FCF               	goto	u3771
  4629  07CE  2FD0               	goto	u3770
  4630  07CF                     u3771:	
  4631  07CF  2FD2               	goto	l2993
  4632  07D0                     u3770:	
  4633  07D0                     l2991:	
  4634  07D0  17A6               	bsf	___fldiv@b+2,7
  4635  07D1  2FD6               	goto	l672
  4636  07D2                     l2993:	
  4637  07D2  307F               	movlw	127
  4638  07D3  00F3               	movwf	??___fldiv
  4639  07D4  0873               	movf	??___fldiv,w
  4640  07D5  05A6               	andwf	___fldiv@b+2,f
  4641  07D6                     l672:	
  4642  07D6  0833               	movf	___fldiv@bexp,w
  4643  07D7  00F3               	movwf	??___fldiv
  4644  07D8  1003               	clrc
  4645  07D9  0C73               	rrf	??___fldiv,w
  4646  07DA  00F4               	movwf	??___fldiv+1
  4647  07DB  0874               	movf	??___fldiv+1,w
  4648  07DC  00A7               	movwf	___fldiv@b+3
  4649  07DD  082C               	movf	___fldiv@sign,w
  4650  07DE  00F3               	movwf	??___fldiv
  4651  07DF  0873               	movf	??___fldiv,w
  4652  07E0  04A7               	iorwf	___fldiv@b+3,f
  4653  07E1  2E7A               	goto	l2901
  4654  07E2                     l650:	
  4655  07E2  0008               	return
  4656  07E3                     __end_of___fldiv:	
  4657                           
  4658                           	psect	text11
  4659  1729                     __ptext11:	
  4660 ;; *************** function ___bmul *****************
  4661 ;; Defined at:
  4662 ;;		line 4 in file "C:\Program Files (x86)\Microchip\xc8\v2.10\pic\sources\c90\common\Umul8.c"
  4663 ;; Parameters:    Size  Location     Type
  4664 ;;  multiplier      1    wreg     unsigned char 
  4665 ;;  multiplicand    1    3[COMMON] unsigned char 
  4666 ;; Auto vars:     Size  Location     Type
  4667 ;;  multiplier      1    6[COMMON] unsigned char 
  4668 ;;  product         1    5[COMMON] unsigned char 
  4669 ;; Return value:  Size  Location     Type
  4670 ;;                  1    wreg      unsigned char 
  4671 ;; Registers used:
  4672 ;;		wreg, status,2, status,0
  4673 ;; Tracked objects:
  4674 ;;		On entry : 0/0
  4675 ;;		On exit  : 0/0
  4676 ;;		Unchanged: 0/0
  4677 ;; Data sizes:     COMMON   BANK0   BANK1   BANK3   BANK2
  4678 ;;      Params:         1       0       0       0       0
  4679 ;;      Locals:         2       0       0       0       0
  4680 ;;      Temps:          1       0       0       0       0
  4681 ;;      Totals:         4       0       0       0       0
  4682 ;;Total ram usage:        4 bytes
  4683 ;; Hardware stack levels used:    1
  4684 ;; Hardware stack levels required when called:    1
  4685 ;; This function calls:
  4686 ;;		Nothing
  4687 ;; This function is called by:
  4688 ;;		_b0
  4689 ;; This function uses a non-reentrant model
  4690 ;;
  4691                           
  4692                           
  4693                           ;psect for function ___bmul
  4694  1729                     ___bmul:	
  4695                           
  4696                           ;incstack = 0
  4697                           ; Regs used in ___bmul: [wreg+status,2+status,0]
  4698                           ;___bmul@multiplier stored from wreg
  4699  1729  00F6               	movwf	___bmul@multiplier
  4700  172A                     l2113:	
  4701  172A  01F5               	clrf	___bmul@product
  4702  172B                     l2115:	
  4703  172B  1C76               	btfss	___bmul@multiplier,0
  4704  172C  2F2E               	goto	u2331
  4705  172D  2F2F               	goto	u2330
  4706  172E                     u2331:	
  4707  172E  2F33               	goto	l2119
  4708  172F                     u2330:	
  4709  172F                     l2117:	
  4710  172F  0873               	movf	___bmul@multiplicand,w
  4711  1730  00F4               	movwf	??___bmul
  4712  1731  0874               	movf	??___bmul,w
  4713  1732  07F5               	addwf	___bmul@product,f
  4714  1733                     l2119:	
  4715  1733  1003               	clrc
  4716  1734  0DF3               	rlf	___bmul@multiplicand,f
  4717  1735                     l2121:	
  4718  1735  1003               	clrc
  4719  1736  0CF6               	rrf	___bmul@multiplier,f
  4720  1737  0876               	movf	___bmul@multiplier,w
  4721  1738  1D03               	btfss	3,2
  4722  1739  2F3B               	goto	u2341
  4723  173A  2F3C               	goto	u2340
  4724  173B                     u2341:	
  4725  173B  2F2B               	goto	l2115
  4726  173C                     u2340:	
  4727  173C                     l2123:	
  4728  173C  0875               	movf	___bmul@product,w
  4729  173D                     l325:	
  4730  173D  0008               	return
  4731  173E                     __end_of___bmul:	
  4732                           
  4733                           	psect	text12
  4734  0979                     __ptext12:	
  4735 ;; *************** function ___awdiv *****************
  4736 ;; Defined at:
  4737 ;;		line 5 in file "C:\Program Files (x86)\Microchip\xc8\v2.10\pic\sources\c90\common\awdiv.c"
  4738 ;; Parameters:    Size  Location     Type
  4739 ;;  divisor         2    3[COMMON] int 
  4740 ;;  dividend        2    5[COMMON] int 
  4741 ;; Auto vars:     Size  Location     Type
  4742 ;;  quotient        2    2[BANK0 ] int 
  4743 ;;  sign            1    1[BANK0 ] unsigned char 
  4744 ;;  counter         1    0[BANK0 ] unsigned char 
  4745 ;; Return value:  Size  Location     Type
  4746 ;;                  2    3[COMMON] int 
  4747 ;; Registers used:
  4748 ;;		wreg, status,2, status,0
  4749 ;; Tracked objects:
  4750 ;;		On entry : 0/0
  4751 ;;		On exit  : 0/0
  4752 ;;		Unchanged: 0/0
  4753 ;; Data sizes:     COMMON   BANK0   BANK1   BANK3   BANK2
  4754 ;;      Params:         4       0       0       0       0
  4755 ;;      Locals:         0       4       0       0       0
  4756 ;;      Temps:          1       0       0       0       0
  4757 ;;      Totals:         5       4       0       0       0
  4758 ;;Total ram usage:        9 bytes
  4759 ;; Hardware stack levels used:    1
  4760 ;; Hardware stack levels required when called:    1
  4761 ;; This function calls:
  4762 ;;		Nothing
  4763 ;; This function is called by:
  4764 ;;		_main
  4765 ;;		_b1
  4766 ;;		_b0
  4767 ;; This function uses a non-reentrant model
  4768 ;;
  4769                           
  4770                           
  4771                           ;psect for function ___awdiv
  4772  0979                     ___awdiv:	
  4773  0979                     l2127:	
  4774                           ;incstack = 0
  4775                           ; Regs used in ___awdiv: [wreg+status,2+status,0]
  4776                           
  4777  0979  1283               	bcf	3,5	;RP0=0, select bank0
  4778  097A  1303               	bcf	3,6	;RP1=0, select bank0
  4779  097B  01A1               	clrf	___awdiv@sign
  4780  097C                     l2129:	
  4781  097C  1FF4               	btfss	___awdiv@divisor+1,7
  4782  097D  297F               	goto	u2351
  4783  097E  2980               	goto	u2350
  4784  097F                     u2351:	
  4785  097F  2987               	goto	l2135
  4786  0980                     u2350:	
  4787  0980                     l2131:	
  4788  0980  09F3               	comf	___awdiv@divisor,f
  4789  0981  09F4               	comf	___awdiv@divisor+1,f
  4790  0982  0AF3               	incf	___awdiv@divisor,f
  4791  0983  1903               	skipnz
  4792  0984  0AF4               	incf	___awdiv@divisor+1,f
  4793  0985                     l2133:	
  4794  0985  01A1               	clrf	___awdiv@sign
  4795  0986  0AA1               	incf	___awdiv@sign,f
  4796  0987                     l2135:	
  4797  0987  1FF6               	btfss	___awdiv@dividend+1,7
  4798  0988  298A               	goto	u2361
  4799  0989  298B               	goto	u2360
  4800  098A                     u2361:	
  4801  098A  2994               	goto	l2141
  4802  098B                     u2360:	
  4803  098B                     l2137:	
  4804  098B  09F5               	comf	___awdiv@dividend,f
  4805  098C  09F6               	comf	___awdiv@dividend+1,f
  4806  098D  0AF5               	incf	___awdiv@dividend,f
  4807  098E  1903               	skipnz
  4808  098F  0AF6               	incf	___awdiv@dividend+1,f
  4809  0990                     l2139:	
  4810  0990  3001               	movlw	1
  4811  0991  00F7               	movwf	??___awdiv
  4812  0992  0877               	movf	??___awdiv,w
  4813  0993  06A1               	xorwf	___awdiv@sign,f
  4814  0994                     l2141:	
  4815  0994  01A2               	clrf	___awdiv@quotient
  4816  0995  01A3               	clrf	___awdiv@quotient+1
  4817  0996                     l2143:	
  4818  0996  0873               	movf	___awdiv@divisor,w
  4819  0997  0474               	iorwf	___awdiv@divisor+1,w
  4820  0998  1903               	btfsc	3,2
  4821  0999  299B               	goto	u2371
  4822  099A  299C               	goto	u2370
  4823  099B                     u2371:	
  4824  099B  29D3               	goto	l2163
  4825  099C                     u2370:	
  4826  099C                     l2145:	
  4827  099C  01A0               	clrf	___awdiv@counter
  4828  099D  0AA0               	incf	___awdiv@counter,f
  4829  099E  29AA               	goto	l2151
  4830  099F                     l2147:	
  4831  099F  3001               	movlw	1
  4832  09A0                     u2385:	
  4833  09A0  1003               	clrc
  4834  09A1  0DF3               	rlf	___awdiv@divisor,f
  4835  09A2  0DF4               	rlf	___awdiv@divisor+1,f
  4836  09A3  3EFF               	addlw	-1
  4837  09A4  1D03               	skipz
  4838  09A5  29A0               	goto	u2385
  4839  09A6                     l2149:	
  4840  09A6  3001               	movlw	1
  4841  09A7  00F7               	movwf	??___awdiv
  4842  09A8  0877               	movf	??___awdiv,w
  4843  09A9  07A0               	addwf	___awdiv@counter,f
  4844  09AA                     l2151:	
  4845  09AA  1FF4               	btfss	___awdiv@divisor+1,7
  4846  09AB  29AD               	goto	u2391
  4847  09AC  29AE               	goto	u2390
  4848  09AD                     u2391:	
  4849  09AD  299F               	goto	l2147
  4850  09AE                     u2390:	
  4851  09AE                     l2153:	
  4852  09AE  3001               	movlw	1
  4853  09AF                     u2405:	
  4854  09AF  1003               	clrc
  4855  09B0  0DA2               	rlf	___awdiv@quotient,f
  4856  09B1  0DA3               	rlf	___awdiv@quotient+1,f
  4857  09B2  3EFF               	addlw	-1
  4858  09B3  1D03               	skipz
  4859  09B4  29AF               	goto	u2405
  4860  09B5  0874               	movf	___awdiv@divisor+1,w
  4861  09B6  0276               	subwf	___awdiv@dividend+1,w
  4862  09B7  1D03               	skipz
  4863  09B8  29BB               	goto	u2415
  4864  09B9  0873               	movf	___awdiv@divisor,w
  4865  09BA  0275               	subwf	___awdiv@dividend,w
  4866  09BB                     u2415:	
  4867  09BB  1C03               	skipc
  4868  09BC  29BE               	goto	u2411
  4869  09BD  29BF               	goto	u2410
  4870  09BE                     u2411:	
  4871  09BE  29C6               	goto	l2159
  4872  09BF                     u2410:	
  4873  09BF                     l2155:	
  4874  09BF  0873               	movf	___awdiv@divisor,w
  4875  09C0  02F5               	subwf	___awdiv@dividend,f
  4876  09C1  0874               	movf	___awdiv@divisor+1,w
  4877  09C2  1C03               	skipc
  4878  09C3  03F6               	decf	___awdiv@dividend+1,f
  4879  09C4  02F6               	subwf	___awdiv@dividend+1,f
  4880  09C5                     l2157:	
  4881  09C5  1422               	bsf	___awdiv@quotient,0
  4882  09C6                     l2159:	
  4883  09C6  3001               	movlw	1
  4884  09C7                     u2425:	
  4885  09C7  1003               	clrc
  4886  09C8  0CF4               	rrf	___awdiv@divisor+1,f
  4887  09C9  0CF3               	rrf	___awdiv@divisor,f
  4888  09CA  3EFF               	addlw	-1
  4889  09CB  1D03               	skipz
  4890  09CC  29C7               	goto	u2425
  4891  09CD                     l2161:	
  4892  09CD  3001               	movlw	1
  4893  09CE  02A0               	subwf	___awdiv@counter,f
  4894  09CF  1D03               	btfss	3,2
  4895  09D0  29D2               	goto	u2431
  4896  09D1  29D3               	goto	u2430
  4897  09D2                     u2431:	
  4898  09D2  29AE               	goto	l2153
  4899  09D3                     u2430:	
  4900  09D3                     l2163:	
  4901  09D3  0821               	movf	___awdiv@sign,w
  4902  09D4  1903               	btfsc	3,2
  4903  09D5  29D7               	goto	u2441
  4904  09D6  29D8               	goto	u2440
  4905  09D7                     u2441:	
  4906  09D7  29DD               	goto	l2167
  4907  09D8                     u2440:	
  4908  09D8                     l2165:	
  4909  09D8  09A2               	comf	___awdiv@quotient,f
  4910  09D9  09A3               	comf	___awdiv@quotient+1,f
  4911  09DA  0AA2               	incf	___awdiv@quotient,f
  4912  09DB  1903               	skipnz
  4913  09DC  0AA3               	incf	___awdiv@quotient+1,f
  4914  09DD                     l2167:	
  4915  09DD  0823               	movf	___awdiv@quotient+1,w
  4916  09DE  00F4               	movwf	?___awdiv+1
  4917  09DF  0822               	movf	___awdiv@quotient,w
  4918  09E0  00F3               	movwf	?___awdiv
  4919  09E1                     l452:	
  4920  09E1  0008               	return
  4921  09E2                     __end_of___awdiv:	
  4922                           
  4923                           	psect	text13
  4924  001D                     __ptext13:	
  4925 ;; *************** function ___flmul *****************
  4926 ;; Defined at:
  4927 ;;		line 8 in file "C:\Program Files (x86)\Microchip\xc8\v2.10\pic\sources\c90\common\sprcmul.c"
  4928 ;; Parameters:    Size  Location     Type
  4929 ;;  b               4   14[BANK0 ] int 
  4930 ;;  a               4   18[BANK0 ] int 
  4931 ;; Auto vars:     Size  Location     Type
  4932 ;;  prod            4   34[BANK0 ] struct .
  4933 ;;  grs             4   28[BANK0 ] unsigned long 
  4934 ;;  temp            2   38[BANK0 ] struct .
  4935 ;;  bexp            1   33[BANK0 ] unsigned char 
  4936 ;;  aexp            1   32[BANK0 ] unsigned char 
  4937 ;;  sign            1   27[BANK0 ] unsigned char 
  4938 ;; Return value:  Size  Location     Type
  4939 ;;                  4   14[BANK0 ] unsigned char 
  4940 ;; Registers used:
  4941 ;;		wreg, status,2, status,0, btemp+1, pclath, cstack
  4942 ;; Tracked objects:
  4943 ;;		On entry : 0/0
  4944 ;;		On exit  : 0/0
  4945 ;;		Unchanged: 0/0
  4946 ;; Data sizes:     COMMON   BANK0   BANK1   BANK3   BANK2
  4947 ;;      Params:         0       8       0       0       0
  4948 ;;      Locals:         0      13       0       0       0
  4949 ;;      Temps:          0       5       0       0       0
  4950 ;;      Totals:         0      26       0       0       0
  4951 ;;Total ram usage:       26 bytes
  4952 ;; Hardware stack levels used:    1
  4953 ;; Hardware stack levels required when called:    2
  4954 ;; This function calls:
  4955 ;;		__Umul8_16
  4956 ;; This function is called by:
  4957 ;;		_main
  4958 ;; This function uses a non-reentrant model
  4959 ;;
  4960                           
  4961                           
  4962                           ;psect for function ___flmul
  4963  001D                     ___flmul:	
  4964  001D                     l2561:	
  4965                           ;incstack = 0
  4966                           ; Regs used in ___flmul: [wreg+status,2+status,0+btemp+1+pclath+cstack]
  4967                           
  4968  001D  1283               	bcf	3,5	;RP0=0, select bank0
  4969  001E  1303               	bcf	3,6	;RP1=0, select bank0
  4970  001F  0831               	movf	___flmul@b+3,w
  4971  0020  3980               	andlw	128
  4972  0021  00B6               	movwf	??___flmul
  4973  0022  0836               	movf	??___flmul,w
  4974  0023  00BB               	movwf	___flmul@sign
  4975  0024                     l2563:	
  4976  0024  0831               	movf	___flmul@b+3,w
  4977  0025  00B6               	movwf	??___flmul
  4978  0026  0736               	addwf	??___flmul,w
  4979  0027  00B7               	movwf	??___flmul+1
  4980  0028  0837               	movf	??___flmul+1,w
  4981  0029  00C1               	movwf	___flmul@bexp
  4982  002A                     l2565:	
  4983  002A  1FB0               	btfss	___flmul@b+2,7
  4984  002B  282D               	goto	u3071
  4985  002C  282E               	goto	u3070
  4986  002D                     u3071:	
  4987  002D  282F               	goto	l2569
  4988  002E                     u3070:	
  4989  002E                     l2567:	
  4990  002E  1441               	bsf	___flmul@bexp,0
  4991  002F                     l2569:	
  4992  002F  0841               	movf	___flmul@bexp,w
  4993  0030  1903               	btfsc	3,2
  4994  0031  2833               	goto	u3081
  4995  0032  2834               	goto	u3080
  4996  0033                     u3081:	
  4997  0033  2843               	goto	l2577
  4998  0034                     u3080:	
  4999  0034                     l2571:	
  5000  0034  0A41               	incf	___flmul@bexp,w
  5001  0035  1D03               	btfss	3,2
  5002  0036  2838               	goto	u3091
  5003  0037  2839               	goto	u3090
  5004  0038                     u3091:	
  5005  0038  2841               	goto	l2575
  5006  0039                     u3090:	
  5007  0039                     l2573:	
  5008  0039  3000               	movlw	0
  5009  003A  00B1               	movwf	___flmul@b+3
  5010  003B  3000               	movlw	0
  5011  003C  00B0               	movwf	___flmul@b+2
  5012  003D  3000               	movlw	0
  5013  003E  00AF               	movwf	___flmul@b+1
  5014  003F  3000               	movlw	0
  5015  0040  00AE               	movwf	___flmul@b
  5016  0041                     l2575:	
  5017  0041  17B0               	bsf	___flmul@b+2,7
  5018  0042  284B               	goto	l2579
  5019  0043                     l2577:	
  5020  0043  3000               	movlw	0
  5021  0044  00B1               	movwf	___flmul@b+3
  5022  0045  3000               	movlw	0
  5023  0046  00B0               	movwf	___flmul@b+2
  5024  0047  3000               	movlw	0
  5025  0048  00AF               	movwf	___flmul@b+1
  5026  0049  3000               	movlw	0
  5027  004A  00AE               	movwf	___flmul@b
  5028  004B                     l2579:	
  5029  004B  0835               	movf	___flmul@a+3,w
  5030  004C  3980               	andlw	128
  5031  004D  00B6               	movwf	??___flmul
  5032  004E  0836               	movf	??___flmul,w
  5033  004F  06BB               	xorwf	___flmul@sign,f
  5034  0050                     l2581:	
  5035  0050  0835               	movf	___flmul@a+3,w
  5036  0051  00B6               	movwf	??___flmul
  5037  0052  0736               	addwf	??___flmul,w
  5038  0053  00B7               	movwf	??___flmul+1
  5039  0054  0837               	movf	??___flmul+1,w
  5040  0055  00C0               	movwf	___flmul@aexp
  5041  0056                     l2583:	
  5042  0056  1FB4               	btfss	___flmul@a+2,7
  5043  0057  2859               	goto	u3101
  5044  0058  285A               	goto	u3100
  5045  0059                     u3101:	
  5046  0059  285B               	goto	l2587
  5047  005A                     u3100:	
  5048  005A                     l2585:	
  5049  005A  1440               	bsf	___flmul@aexp,0
  5050  005B                     l2587:	
  5051  005B  0840               	movf	___flmul@aexp,w
  5052  005C  1903               	btfsc	3,2
  5053  005D  285F               	goto	u3111
  5054  005E  2860               	goto	u3110
  5055  005F                     u3111:	
  5056  005F  286F               	goto	l2595
  5057  0060                     u3110:	
  5058  0060                     l2589:	
  5059  0060  0A40               	incf	___flmul@aexp,w
  5060  0061  1D03               	btfss	3,2
  5061  0062  2864               	goto	u3121
  5062  0063  2865               	goto	u3120
  5063  0064                     u3121:	
  5064  0064  286D               	goto	l2593
  5065  0065                     u3120:	
  5066  0065                     l2591:	
  5067  0065  3000               	movlw	0
  5068  0066  00B5               	movwf	___flmul@a+3
  5069  0067  3000               	movlw	0
  5070  0068  00B4               	movwf	___flmul@a+2
  5071  0069  3000               	movlw	0
  5072  006A  00B3               	movwf	___flmul@a+1
  5073  006B  3000               	movlw	0
  5074  006C  00B2               	movwf	___flmul@a
  5075  006D                     l2593:	
  5076  006D  17B4               	bsf	___flmul@a+2,7
  5077  006E  2877               	goto	l2597
  5078  006F                     l2595:	
  5079  006F  3000               	movlw	0
  5080  0070  00B5               	movwf	___flmul@a+3
  5081  0071  3000               	movlw	0
  5082  0072  00B4               	movwf	___flmul@a+2
  5083  0073  3000               	movlw	0
  5084  0074  00B3               	movwf	___flmul@a+1
  5085  0075  3000               	movlw	0
  5086  0076  00B2               	movwf	___flmul@a
  5087  0077                     l2597:	
  5088  0077  0840               	movf	___flmul@aexp,w
  5089  0078  1903               	btfsc	3,2
  5090  0079  287B               	goto	u3131
  5091  007A  287C               	goto	u3130
  5092  007B                     u3131:	
  5093  007B  2881               	goto	l2601
  5094  007C                     u3130:	
  5095  007C                     l2599:	
  5096  007C  0841               	movf	___flmul@bexp,w
  5097  007D  1D03               	btfss	3,2
  5098  007E  2880               	goto	u3141
  5099  007F  2881               	goto	u3140
  5100  0080                     u3141:	
  5101  0080  288A               	goto	l2605
  5102  0081                     u3140:	
  5103  0081                     l2601:	
  5104  0081  3000               	movlw	0
  5105  0082  00B1               	movwf	?___flmul+3
  5106  0083  3000               	movlw	0
  5107  0084  00B0               	movwf	?___flmul+2
  5108  0085  3000               	movlw	0
  5109  0086  00AF               	movwf	?___flmul+1
  5110  0087  3000               	movlw	0
  5111  0088  00AE               	movwf	?___flmul
  5112  0089  2B7D               	goto	l688
  5113  008A                     l2605:	
  5114  008A  082E               	movf	___flmul@b,w
  5115  008B  00B6               	movwf	??___flmul
  5116  008C  0836               	movf	??___flmul,w
  5117  008D  00F3               	movwf	__Umul8_16@multiplicand
  5118  008E  0834               	movf	___flmul@a+2,w
  5119  008F  160A  118A  27D7  120A  118A  	fcall	__Umul8_16
  5120  0094  0874               	movf	?__Umul8_16+1,w
  5121  0095  1283               	bcf	3,5	;RP0=0, select bank0
  5122  0096  1303               	bcf	3,6	;RP1=0, select bank0
  5123  0097  00C7               	movwf	___flmul@temp+1
  5124  0098  0873               	movf	?__Umul8_16,w
  5125  0099  00C6               	movwf	___flmul@temp
  5126  009A                     l2607:	
  5127  009A  0846               	movf	___flmul@temp,w
  5128  009B  00B6               	movwf	??___flmul
  5129  009C  01B7               	clrf	??___flmul+1
  5130  009D  01B8               	clrf	??___flmul+2
  5131  009E  01B9               	clrf	??___flmul+3
  5132  009F  0839               	movf	??___flmul+3,w
  5133  00A0  00BF               	movwf	___flmul@grs+3
  5134  00A1  0838               	movf	??___flmul+2,w
  5135  00A2  00BE               	movwf	___flmul@grs+2
  5136  00A3  0837               	movf	??___flmul+1,w
  5137  00A4  00BD               	movwf	___flmul@grs+1
  5138  00A5  0836               	movf	??___flmul,w
  5139  00A6  00BC               	movwf	___flmul@grs
  5140  00A7                     l2609:	
  5141  00A7  0847               	movf	___flmul@temp+1,w
  5142  00A8  00B6               	movwf	??___flmul
  5143  00A9  01B7               	clrf	??___flmul+1
  5144  00AA  01B8               	clrf	??___flmul+2
  5145  00AB  01B9               	clrf	??___flmul+3
  5146  00AC  0839               	movf	??___flmul+3,w
  5147  00AD  00C5               	movwf	___flmul@prod+3
  5148  00AE  0838               	movf	??___flmul+2,w
  5149  00AF  00C4               	movwf	___flmul@prod+2
  5150  00B0  0837               	movf	??___flmul+1,w
  5151  00B1  00C3               	movwf	___flmul@prod+1
  5152  00B2  0836               	movf	??___flmul,w
  5153  00B3  00C2               	movwf	___flmul@prod
  5154  00B4  082F               	movf	___flmul@b+1,w
  5155  00B5  00B6               	movwf	??___flmul
  5156  00B6  0836               	movf	??___flmul,w
  5157  00B7  00F3               	movwf	__Umul8_16@multiplicand
  5158  00B8  0833               	movf	___flmul@a+1,w
  5159  00B9  160A  118A  27D7  120A  118A  	fcall	__Umul8_16
  5160  00BE  0874               	movf	?__Umul8_16+1,w
  5161  00BF  1283               	bcf	3,5	;RP0=0, select bank0
  5162  00C0  1303               	bcf	3,6	;RP1=0, select bank0
  5163  00C1  00C7               	movwf	___flmul@temp+1
  5164  00C2  0873               	movf	?__Umul8_16,w
  5165  00C3  00C6               	movwf	___flmul@temp
  5166  00C4                     l2611:	
  5167  00C4  0846               	movf	___flmul@temp,w
  5168  00C5  00B6               	movwf	??___flmul
  5169  00C6  01B7               	clrf	??___flmul+1
  5170  00C7  01B8               	clrf	??___flmul+2
  5171  00C8  01B9               	clrf	??___flmul+3
  5172  00C9  0836               	movf	??___flmul,w
  5173  00CA  07BC               	addwf	___flmul@grs,f
  5174  00CB  0837               	movf	??___flmul+1,w
  5175  00CC  1103               	clrz
  5176  00CD  1803               	skipnc
  5177  00CE  3E01               	addlw	1
  5178  00CF  1903               	skipnz
  5179  00D0  28D2               	goto	u3151
  5180  00D1  07BD               	addwf	___flmul@grs+1,f
  5181  00D2                     u3151:	
  5182  00D2  0838               	movf	??___flmul+2,w
  5183  00D3  1103               	clrz
  5184  00D4  1803               	skipnc
  5185  00D5  3E01               	addlw	1
  5186  00D6  1903               	skipnz
  5187  00D7  28D9               	goto	u3152
  5188  00D8  07BE               	addwf	___flmul@grs+2,f
  5189  00D9                     u3152:	
  5190  00D9  0839               	movf	??___flmul+3,w
  5191  00DA  1103               	clrz
  5192  00DB  1803               	skipnc
  5193  00DC  3E01               	addlw	1
  5194  00DD  1903               	skipnz
  5195  00DE  28E0               	goto	u3153
  5196  00DF  07BF               	addwf	___flmul@grs+3,f
  5197  00E0                     u3153:	
  5198  00E0                     l2613:	
  5199  00E0  0847               	movf	___flmul@temp+1,w
  5200  00E1  00B6               	movwf	??___flmul
  5201  00E2  01B7               	clrf	??___flmul+1
  5202  00E3  01B8               	clrf	??___flmul+2
  5203  00E4  01B9               	clrf	??___flmul+3
  5204  00E5  0836               	movf	??___flmul,w
  5205  00E6  07C2               	addwf	___flmul@prod,f
  5206  00E7  0837               	movf	??___flmul+1,w
  5207  00E8  1103               	clrz
  5208  00E9  1803               	skipnc
  5209  00EA  3E01               	addlw	1
  5210  00EB  1903               	skipnz
  5211  00EC  28EE               	goto	u3161
  5212  00ED  07C3               	addwf	___flmul@prod+1,f
  5213  00EE                     u3161:	
  5214  00EE  0838               	movf	??___flmul+2,w
  5215  00EF  1103               	clrz
  5216  00F0  1803               	skipnc
  5217  00F1  3E01               	addlw	1
  5218  00F2  1903               	skipnz
  5219  00F3  28F5               	goto	u3162
  5220  00F4  07C4               	addwf	___flmul@prod+2,f
  5221  00F5                     u3162:	
  5222  00F5  0839               	movf	??___flmul+3,w
  5223  00F6  1103               	clrz
  5224  00F7  1803               	skipnc
  5225  00F8  3E01               	addlw	1
  5226  00F9  1903               	skipnz
  5227  00FA  28FC               	goto	u3163
  5228  00FB  07C5               	addwf	___flmul@prod+3,f
  5229  00FC                     u3163:	
  5230  00FC  0830               	movf	___flmul@b+2,w
  5231  00FD  00B6               	movwf	??___flmul
  5232  00FE  0836               	movf	??___flmul,w
  5233  00FF  00F3               	movwf	__Umul8_16@multiplicand
  5234  0100  0832               	movf	___flmul@a,w
  5235  0101  160A  118A  27D7  120A  118A  	fcall	__Umul8_16
  5236  0106  0874               	movf	?__Umul8_16+1,w
  5237  0107  1283               	bcf	3,5	;RP0=0, select bank0
  5238  0108  1303               	bcf	3,6	;RP1=0, select bank0
  5239  0109  00C7               	movwf	___flmul@temp+1
  5240  010A  0873               	movf	?__Umul8_16,w
  5241  010B  00C6               	movwf	___flmul@temp
  5242  010C                     l2615:	
  5243  010C  0846               	movf	___flmul@temp,w
  5244  010D  00B6               	movwf	??___flmul
  5245  010E  01B7               	clrf	??___flmul+1
  5246  010F  01B8               	clrf	??___flmul+2
  5247  0110  01B9               	clrf	??___flmul+3
  5248  0111  0836               	movf	??___flmul,w
  5249  0112  07BC               	addwf	___flmul@grs,f
  5250  0113  0837               	movf	??___flmul+1,w
  5251  0114  1103               	clrz
  5252  0115  1803               	skipnc
  5253  0116  3E01               	addlw	1
  5254  0117  1903               	skipnz
  5255  0118  291A               	goto	u3171
  5256  0119  07BD               	addwf	___flmul@grs+1,f
  5257  011A                     u3171:	
  5258  011A  0838               	movf	??___flmul+2,w
  5259  011B  1103               	clrz
  5260  011C  1803               	skipnc
  5261  011D  3E01               	addlw	1
  5262  011E  1903               	skipnz
  5263  011F  2921               	goto	u3172
  5264  0120  07BE               	addwf	___flmul@grs+2,f
  5265  0121                     u3172:	
  5266  0121  0839               	movf	??___flmul+3,w
  5267  0122  1103               	clrz
  5268  0123  1803               	skipnc
  5269  0124  3E01               	addlw	1
  5270  0125  1903               	skipnz
  5271  0126  2928               	goto	u3173
  5272  0127  07BF               	addwf	___flmul@grs+3,f
  5273  0128                     u3173:	
  5274  0128                     l2617:	
  5275  0128  0847               	movf	___flmul@temp+1,w
  5276  0129  00B6               	movwf	??___flmul
  5277  012A  01B7               	clrf	??___flmul+1
  5278  012B  01B8               	clrf	??___flmul+2
  5279  012C  01B9               	clrf	??___flmul+3
  5280  012D  0836               	movf	??___flmul,w
  5281  012E  07C2               	addwf	___flmul@prod,f
  5282  012F  0837               	movf	??___flmul+1,w
  5283  0130  1103               	clrz
  5284  0131  1803               	skipnc
  5285  0132  3E01               	addlw	1
  5286  0133  1903               	skipnz
  5287  0134  2936               	goto	u3181
  5288  0135  07C3               	addwf	___flmul@prod+1,f
  5289  0136                     u3181:	
  5290  0136  0838               	movf	??___flmul+2,w
  5291  0137  1103               	clrz
  5292  0138  1803               	skipnc
  5293  0139  3E01               	addlw	1
  5294  013A  1903               	skipnz
  5295  013B  293D               	goto	u3182
  5296  013C  07C4               	addwf	___flmul@prod+2,f
  5297  013D                     u3182:	
  5298  013D  0839               	movf	??___flmul+3,w
  5299  013E  1103               	clrz
  5300  013F  1803               	skipnc
  5301  0140  3E01               	addlw	1
  5302  0141  1903               	skipnz
  5303  0142  2944               	goto	u3183
  5304  0143  07C5               	addwf	___flmul@prod+3,f
  5305  0144                     u3183:	
  5306  0144                     l2619:	
  5307  0144  3008               	movlw	8
  5308  0145  00B6               	movwf	??___flmul
  5309  0146                     u3195:	
  5310  0146  1003               	clrc
  5311  0147  0DBC               	rlf	___flmul@grs,f
  5312  0148  0DBD               	rlf	___flmul@grs+1,f
  5313  0149  0DBE               	rlf	___flmul@grs+2,f
  5314  014A  0DBF               	rlf	___flmul@grs+3,f
  5315  014B  0BB6               	decfsz	??___flmul,f
  5316  014C  2946               	goto	u3195
  5317  014D                     l2621:	
  5318  014D  082F               	movf	___flmul@b+1,w
  5319  014E  00B6               	movwf	??___flmul
  5320  014F  0836               	movf	??___flmul,w
  5321  0150  00F3               	movwf	__Umul8_16@multiplicand
  5322  0151  0832               	movf	___flmul@a,w
  5323  0152  160A  118A  27D7  120A  118A  	fcall	__Umul8_16
  5324  0157  0874               	movf	?__Umul8_16+1,w
  5325  0158  1283               	bcf	3,5	;RP0=0, select bank0
  5326  0159  1303               	bcf	3,6	;RP1=0, select bank0
  5327  015A  00C7               	movwf	___flmul@temp+1
  5328  015B  0873               	movf	?__Umul8_16,w
  5329  015C  00C6               	movwf	___flmul@temp
  5330  015D                     l2623:	
  5331  015D  0846               	movf	___flmul@temp,w
  5332  015E  00B6               	movwf	??___flmul
  5333  015F  0847               	movf	___flmul@temp+1,w
  5334  0160  00B7               	movwf	??___flmul+1
  5335  0161  01B8               	clrf	??___flmul+2
  5336  0162  01B9               	clrf	??___flmul+3
  5337  0163  0836               	movf	??___flmul,w
  5338  0164  07BC               	addwf	___flmul@grs,f
  5339  0165  0837               	movf	??___flmul+1,w
  5340  0166  1103               	clrz
  5341  0167  1803               	skipnc
  5342  0168  3E01               	addlw	1
  5343  0169  1903               	skipnz
  5344  016A  296C               	goto	u3201
  5345  016B  07BD               	addwf	___flmul@grs+1,f
  5346  016C                     u3201:	
  5347  016C  0838               	movf	??___flmul+2,w
  5348  016D  1103               	clrz
  5349  016E  1803               	skipnc
  5350  016F  3E01               	addlw	1
  5351  0170  1903               	skipnz
  5352  0171  2973               	goto	u3202
  5353  0172  07BE               	addwf	___flmul@grs+2,f
  5354  0173                     u3202:	
  5355  0173  0839               	movf	??___flmul+3,w
  5356  0174  1103               	clrz
  5357  0175  1803               	skipnc
  5358  0176  3E01               	addlw	1
  5359  0177  1903               	skipnz
  5360  0178  297A               	goto	u3203
  5361  0179  07BF               	addwf	___flmul@grs+3,f
  5362  017A                     u3203:	
  5363  017A                     l2625:	
  5364  017A  082E               	movf	___flmul@b,w
  5365  017B  00B6               	movwf	??___flmul
  5366  017C  0836               	movf	??___flmul,w
  5367  017D  00F3               	movwf	__Umul8_16@multiplicand
  5368  017E  0833               	movf	___flmul@a+1,w
  5369  017F  160A  118A  27D7  120A  118A  	fcall	__Umul8_16
  5370  0184  0874               	movf	?__Umul8_16+1,w
  5371  0185  1283               	bcf	3,5	;RP0=0, select bank0
  5372  0186  1303               	bcf	3,6	;RP1=0, select bank0
  5373  0187  00C7               	movwf	___flmul@temp+1
  5374  0188  0873               	movf	?__Umul8_16,w
  5375  0189  00C6               	movwf	___flmul@temp
  5376  018A                     l2627:	
  5377  018A  0846               	movf	___flmul@temp,w
  5378  018B  00B6               	movwf	??___flmul
  5379  018C  0847               	movf	___flmul@temp+1,w
  5380  018D  00B7               	movwf	??___flmul+1
  5381  018E  01B8               	clrf	??___flmul+2
  5382  018F  01B9               	clrf	??___flmul+3
  5383  0190  0836               	movf	??___flmul,w
  5384  0191  07BC               	addwf	___flmul@grs,f
  5385  0192  0837               	movf	??___flmul+1,w
  5386  0193  1103               	clrz
  5387  0194  1803               	skipnc
  5388  0195  3E01               	addlw	1
  5389  0196  1903               	skipnz
  5390  0197  2999               	goto	u3211
  5391  0198  07BD               	addwf	___flmul@grs+1,f
  5392  0199                     u3211:	
  5393  0199  0838               	movf	??___flmul+2,w
  5394  019A  1103               	clrz
  5395  019B  1803               	skipnc
  5396  019C  3E01               	addlw	1
  5397  019D  1903               	skipnz
  5398  019E  29A0               	goto	u3212
  5399  019F  07BE               	addwf	___flmul@grs+2,f
  5400  01A0                     u3212:	
  5401  01A0  0839               	movf	??___flmul+3,w
  5402  01A1  1103               	clrz
  5403  01A2  1803               	skipnc
  5404  01A3  3E01               	addlw	1
  5405  01A4  1903               	skipnz
  5406  01A5  29A7               	goto	u3213
  5407  01A6  07BF               	addwf	___flmul@grs+3,f
  5408  01A7                     u3213:	
  5409  01A7                     l2629:	
  5410  01A7  3008               	movlw	8
  5411  01A8  00B6               	movwf	??___flmul
  5412  01A9                     u3225:	
  5413  01A9  1003               	clrc
  5414  01AA  0DBC               	rlf	___flmul@grs,f
  5415  01AB  0DBD               	rlf	___flmul@grs+1,f
  5416  01AC  0DBE               	rlf	___flmul@grs+2,f
  5417  01AD  0DBF               	rlf	___flmul@grs+3,f
  5418  01AE  0BB6               	decfsz	??___flmul,f
  5419  01AF  29A9               	goto	u3225
  5420  01B0  082E               	movf	___flmul@b,w
  5421  01B1  00B6               	movwf	??___flmul
  5422  01B2  0836               	movf	??___flmul,w
  5423  01B3  00F3               	movwf	__Umul8_16@multiplicand
  5424  01B4  0832               	movf	___flmul@a,w
  5425  01B5  160A  118A  27D7  120A  118A  	fcall	__Umul8_16
  5426  01BA  0874               	movf	?__Umul8_16+1,w
  5427  01BB  1283               	bcf	3,5	;RP0=0, select bank0
  5428  01BC  1303               	bcf	3,6	;RP1=0, select bank0
  5429  01BD  00C7               	movwf	___flmul@temp+1
  5430  01BE  0873               	movf	?__Umul8_16,w
  5431  01BF  00C6               	movwf	___flmul@temp
  5432  01C0                     l2631:	
  5433  01C0  0846               	movf	___flmul@temp,w
  5434  01C1  00B6               	movwf	??___flmul
  5435  01C2  0847               	movf	___flmul@temp+1,w
  5436  01C3  00B7               	movwf	??___flmul+1
  5437  01C4  01B8               	clrf	??___flmul+2
  5438  01C5  01B9               	clrf	??___flmul+3
  5439  01C6  0836               	movf	??___flmul,w
  5440  01C7  07BC               	addwf	___flmul@grs,f
  5441  01C8  0837               	movf	??___flmul+1,w
  5442  01C9  1103               	clrz
  5443  01CA  1803               	skipnc
  5444  01CB  3E01               	addlw	1
  5445  01CC  1903               	skipnz
  5446  01CD  29CF               	goto	u3231
  5447  01CE  07BD               	addwf	___flmul@grs+1,f
  5448  01CF                     u3231:	
  5449  01CF  0838               	movf	??___flmul+2,w
  5450  01D0  1103               	clrz
  5451  01D1  1803               	skipnc
  5452  01D2  3E01               	addlw	1
  5453  01D3  1903               	skipnz
  5454  01D4  29D6               	goto	u3232
  5455  01D5  07BE               	addwf	___flmul@grs+2,f
  5456  01D6                     u3232:	
  5457  01D6  0839               	movf	??___flmul+3,w
  5458  01D7  1103               	clrz
  5459  01D8  1803               	skipnc
  5460  01D9  3E01               	addlw	1
  5461  01DA  1903               	skipnz
  5462  01DB  29DD               	goto	u3233
  5463  01DC  07BF               	addwf	___flmul@grs+3,f
  5464  01DD                     u3233:	
  5465  01DD                     l2633:	
  5466  01DD  082F               	movf	___flmul@b+1,w
  5467  01DE  00B6               	movwf	??___flmul
  5468  01DF  0836               	movf	??___flmul,w
  5469  01E0  00F3               	movwf	__Umul8_16@multiplicand
  5470  01E1  0834               	movf	___flmul@a+2,w
  5471  01E2  160A  118A  27D7  120A  118A  	fcall	__Umul8_16
  5472  01E7  0874               	movf	?__Umul8_16+1,w
  5473  01E8  1283               	bcf	3,5	;RP0=0, select bank0
  5474  01E9  1303               	bcf	3,6	;RP1=0, select bank0
  5475  01EA  00C7               	movwf	___flmul@temp+1
  5476  01EB  0873               	movf	?__Umul8_16,w
  5477  01EC  00C6               	movwf	___flmul@temp
  5478  01ED  0846               	movf	___flmul@temp,w
  5479  01EE  00B6               	movwf	??___flmul
  5480  01EF  0847               	movf	___flmul@temp+1,w
  5481  01F0  00B7               	movwf	??___flmul+1
  5482  01F1  01B8               	clrf	??___flmul+2
  5483  01F2  01B9               	clrf	??___flmul+3
  5484  01F3  0836               	movf	??___flmul,w
  5485  01F4  07C2               	addwf	___flmul@prod,f
  5486  01F5  0837               	movf	??___flmul+1,w
  5487  01F6  1103               	clrz
  5488  01F7  1803               	skipnc
  5489  01F8  3E01               	addlw	1
  5490  01F9  1903               	skipnz
  5491  01FA  29FC               	goto	u3241
  5492  01FB  07C3               	addwf	___flmul@prod+1,f
  5493  01FC                     u3241:	
  5494  01FC  0838               	movf	??___flmul+2,w
  5495  01FD  1103               	clrz
  5496  01FE  1803               	skipnc
  5497  01FF  3E01               	addlw	1
  5498  0200  1903               	skipnz
  5499  0201  2A03               	goto	u3242
  5500  0202  07C4               	addwf	___flmul@prod+2,f
  5501  0203                     u3242:	
  5502  0203  0839               	movf	??___flmul+3,w
  5503  0204  1103               	clrz
  5504  0205  1803               	skipnc
  5505  0206  3E01               	addlw	1
  5506  0207  1903               	skipnz
  5507  0208  2A0A               	goto	u3243
  5508  0209  07C5               	addwf	___flmul@prod+3,f
  5509  020A                     u3243:	
  5510  020A                     l2635:	
  5511  020A  0830               	movf	___flmul@b+2,w
  5512  020B  00B6               	movwf	??___flmul
  5513  020C  0836               	movf	??___flmul,w
  5514  020D  00F3               	movwf	__Umul8_16@multiplicand
  5515  020E  0833               	movf	___flmul@a+1,w
  5516  020F  160A  118A  27D7  120A  118A  	fcall	__Umul8_16
  5517  0214  0874               	movf	?__Umul8_16+1,w
  5518  0215  1283               	bcf	3,5	;RP0=0, select bank0
  5519  0216  1303               	bcf	3,6	;RP1=0, select bank0
  5520  0217  00C7               	movwf	___flmul@temp+1
  5521  0218  0873               	movf	?__Umul8_16,w
  5522  0219  00C6               	movwf	___flmul@temp
  5523  021A                     l2637:	
  5524  021A  0846               	movf	___flmul@temp,w
  5525  021B  00B6               	movwf	??___flmul
  5526  021C  0847               	movf	___flmul@temp+1,w
  5527  021D  00B7               	movwf	??___flmul+1
  5528  021E  01B8               	clrf	??___flmul+2
  5529  021F  01B9               	clrf	??___flmul+3
  5530  0220  0836               	movf	??___flmul,w
  5531  0221  07C2               	addwf	___flmul@prod,f
  5532  0222  0837               	movf	??___flmul+1,w
  5533  0223  1103               	clrz
  5534  0224  1803               	skipnc
  5535  0225  3E01               	addlw	1
  5536  0226  1903               	skipnz
  5537  0227  2A29               	goto	u3251
  5538  0228  07C3               	addwf	___flmul@prod+1,f
  5539  0229                     u3251:	
  5540  0229  0838               	movf	??___flmul+2,w
  5541  022A  1103               	clrz
  5542  022B  1803               	skipnc
  5543  022C  3E01               	addlw	1
  5544  022D  1903               	skipnz
  5545  022E  2A30               	goto	u3252
  5546  022F  07C4               	addwf	___flmul@prod+2,f
  5547  0230                     u3252:	
  5548  0230  0839               	movf	??___flmul+3,w
  5549  0231  1103               	clrz
  5550  0232  1803               	skipnc
  5551  0233  3E01               	addlw	1
  5552  0234  1903               	skipnz
  5553  0235  2A37               	goto	u3253
  5554  0236  07C5               	addwf	___flmul@prod+3,f
  5555  0237                     u3253:	
  5556  0237  0830               	movf	___flmul@b+2,w
  5557  0238  00B6               	movwf	??___flmul
  5558  0239  0836               	movf	??___flmul,w
  5559  023A  00F3               	movwf	__Umul8_16@multiplicand
  5560  023B  0834               	movf	___flmul@a+2,w
  5561  023C  160A  118A  27D7  120A  118A  	fcall	__Umul8_16
  5562  0241  0874               	movf	?__Umul8_16+1,w
  5563  0242  1283               	bcf	3,5	;RP0=0, select bank0
  5564  0243  1303               	bcf	3,6	;RP1=0, select bank0
  5565  0244  00C7               	movwf	___flmul@temp+1
  5566  0245  0873               	movf	?__Umul8_16,w
  5567  0246  00C6               	movwf	___flmul@temp
  5568  0247                     l2639:	
  5569  0247  0846               	movf	___flmul@temp,w
  5570  0248  00B6               	movwf	??___flmul
  5571  0249  0847               	movf	___flmul@temp+1,w
  5572  024A  00B7               	movwf	??___flmul+1
  5573  024B  01B8               	clrf	??___flmul+2
  5574  024C  01B9               	clrf	??___flmul+3
  5575  024D  3008               	movlw	8
  5576  024E                     u3265:	
  5577  024E  1003               	clrc
  5578  024F  0DB6               	rlf	??___flmul,f
  5579  0250  0DB7               	rlf	??___flmul+1,f
  5580  0251  0DB8               	rlf	??___flmul+2,f
  5581  0252  0DB9               	rlf	??___flmul+3,f
  5582  0253                     u3260:	
  5583  0253  3EFF               	addlw	-1
  5584  0254  1D03               	skipz
  5585  0255  2A4E               	goto	u3265
  5586  0256  0836               	movf	??___flmul,w
  5587  0257  07C2               	addwf	___flmul@prod,f
  5588  0258  0837               	movf	??___flmul+1,w
  5589  0259  1103               	clrz
  5590  025A  1803               	skipnc
  5591  025B  3E01               	addlw	1
  5592  025C  1903               	skipnz
  5593  025D  2A5F               	goto	u3271
  5594  025E  07C3               	addwf	___flmul@prod+1,f
  5595  025F                     u3271:	
  5596  025F  0838               	movf	??___flmul+2,w
  5597  0260  1103               	clrz
  5598  0261  1803               	skipnc
  5599  0262  3E01               	addlw	1
  5600  0263  1903               	skipnz
  5601  0264  2A66               	goto	u3272
  5602  0265  07C4               	addwf	___flmul@prod+2,f
  5603  0266                     u3272:	
  5604  0266  0839               	movf	??___flmul+3,w
  5605  0267  1103               	clrz
  5606  0268  1803               	skipnc
  5607  0269  3E01               	addlw	1
  5608  026A  1903               	skipnz
  5609  026B  2A6D               	goto	u3273
  5610  026C  07C5               	addwf	___flmul@prod+3,f
  5611  026D                     u3273:	
  5612  026D                     l2641:	
  5613  026D  083C               	movf	___flmul@grs,w
  5614  026E  00B6               	movwf	??___flmul
  5615  026F  083D               	movf	___flmul@grs+1,w
  5616  0270  00B7               	movwf	??___flmul+1
  5617  0271  083E               	movf	___flmul@grs+2,w
  5618  0272  00B8               	movwf	??___flmul+2
  5619  0273  083F               	movf	___flmul@grs+3,w
  5620  0274  00B9               	movwf	??___flmul+3
  5621  0275  3018               	movlw	24
  5622  0276                     u3285:	
  5623  0276  1003               	clrc
  5624  0277  0CB9               	rrf	??___flmul+3,f
  5625  0278  0CB8               	rrf	??___flmul+2,f
  5626  0279  0CB7               	rrf	??___flmul+1,f
  5627  027A  0CB6               	rrf	??___flmul,f
  5628  027B                     u3280:	
  5629  027B  3EFF               	addlw	-1
  5630  027C  1D03               	skipz
  5631  027D  2A76               	goto	u3285
  5632  027E  0836               	movf	??___flmul,w
  5633  027F  07C2               	addwf	___flmul@prod,f
  5634  0280  0837               	movf	??___flmul+1,w
  5635  0281  1103               	clrz
  5636  0282  1803               	skipnc
  5637  0283  3E01               	addlw	1
  5638  0284  1903               	skipnz
  5639  0285  2A87               	goto	u3291
  5640  0286  07C3               	addwf	___flmul@prod+1,f
  5641  0287                     u3291:	
  5642  0287  0838               	movf	??___flmul+2,w
  5643  0288  1103               	clrz
  5644  0289  1803               	skipnc
  5645  028A  3E01               	addlw	1
  5646  028B  1903               	skipnz
  5647  028C  2A8E               	goto	u3292
  5648  028D  07C4               	addwf	___flmul@prod+2,f
  5649  028E                     u3292:	
  5650  028E  0839               	movf	??___flmul+3,w
  5651  028F  1103               	clrz
  5652  0290  1803               	skipnc
  5653  0291  3E01               	addlw	1
  5654  0292  1903               	skipnz
  5655  0293  2A95               	goto	u3293
  5656  0294  07C5               	addwf	___flmul@prod+3,f
  5657  0295                     u3293:	
  5658  0295                     l2643:	
  5659  0295  3008               	movlw	8
  5660  0296  00B6               	movwf	??___flmul
  5661  0297                     u3305:	
  5662  0297  1003               	clrc
  5663  0298  0DBC               	rlf	___flmul@grs,f
  5664  0299  0DBD               	rlf	___flmul@grs+1,f
  5665  029A  0DBE               	rlf	___flmul@grs+2,f
  5666  029B  0DBF               	rlf	___flmul@grs+3,f
  5667  029C  0BB6               	decfsz	??___flmul,f
  5668  029D  2A97               	goto	u3305
  5669  029E                     l2645:	
  5670  029E  0841               	movf	___flmul@bexp,w
  5671  029F  0740               	addwf	___flmul@aexp,w
  5672  02A0  00B6               	movwf	??___flmul
  5673  02A1  01B7               	clrf	??___flmul+1
  5674  02A2  0DB7               	rlf	??___flmul+1,f
  5675  02A3  0836               	movf	??___flmul,w
  5676  02A4  3E82               	addlw	130
  5677  02A5  00C6               	movwf	___flmul@temp
  5678  02A6  0837               	movf	??___flmul+1,w
  5679  02A7  1803               	skipnc
  5680  02A8  3E01               	addlw	1
  5681  02A9  3EFF               	addlw	255
  5682  02AA  00C7               	movwf	___flmul@temp+1
  5683  02AB  2AC9               	goto	l2657
  5684  02AC                     l2647:	
  5685  02AC  3001               	movlw	1
  5686  02AD  00B6               	movwf	??___flmul
  5687  02AE                     u3315:	
  5688  02AE  1003               	clrc
  5689  02AF  0DC2               	rlf	___flmul@prod,f
  5690  02B0  0DC3               	rlf	___flmul@prod+1,f
  5691  02B1  0DC4               	rlf	___flmul@prod+2,f
  5692  02B2  0DC5               	rlf	___flmul@prod+3,f
  5693  02B3  0BB6               	decfsz	??___flmul,f
  5694  02B4  2AAE               	goto	u3315
  5695  02B5                     l2649:	
  5696  02B5  1FBF               	btfss	___flmul@grs+3,7
  5697  02B6  2AB8               	goto	u3321
  5698  02B7  2AB9               	goto	u3320
  5699  02B8                     u3321:	
  5700  02B8  2ABA               	goto	l2653
  5701  02B9                     u3320:	
  5702  02B9                     l2651:	
  5703  02B9  1442               	bsf	___flmul@prod,0
  5704  02BA                     l2653:	
  5705  02BA  3001               	movlw	1
  5706  02BB  00B6               	movwf	??___flmul
  5707  02BC                     u3335:	
  5708  02BC  1003               	clrc
  5709  02BD  0DBC               	rlf	___flmul@grs,f
  5710  02BE  0DBD               	rlf	___flmul@grs+1,f
  5711  02BF  0DBE               	rlf	___flmul@grs+2,f
  5712  02C0  0DBF               	rlf	___flmul@grs+3,f
  5713  02C1  0BB6               	decfsz	??___flmul,f
  5714  02C2  2ABC               	goto	u3335
  5715  02C3                     l2655:	
  5716  02C3  30FF               	movlw	255
  5717  02C4  07C6               	addwf	___flmul@temp,f
  5718  02C5  1803               	skipnc
  5719  02C6  0AC7               	incf	___flmul@temp+1,f
  5720  02C7  30FF               	movlw	255
  5721  02C8  07C7               	addwf	___flmul@temp+1,f
  5722  02C9                     l2657:	
  5723  02C9  1FC4               	btfss	___flmul@prod+2,7
  5724  02CA  2ACC               	goto	u3341
  5725  02CB  2ACD               	goto	u3340
  5726  02CC                     u3341:	
  5727  02CC  2AAC               	goto	l2647
  5728  02CD                     u3340:	
  5729  02CD                     l2659:	
  5730  02CD  01C0               	clrf	___flmul@aexp
  5731  02CE                     l2661:	
  5732  02CE  1FBF               	btfss	___flmul@grs+3,7
  5733  02CF  2AD1               	goto	u3351
  5734  02D0  2AD2               	goto	u3350
  5735  02D1                     u3351:	
  5736  02D1  2AEE               	goto	l2669
  5737  02D2                     u3350:	
  5738  02D2                     l2663:	
  5739  02D2  30FF               	movlw	255
  5740  02D3  053C               	andwf	___flmul@grs,w
  5741  02D4  00B6               	movwf	??___flmul
  5742  02D5  30FF               	movlw	255
  5743  02D6  053D               	andwf	___flmul@grs+1,w
  5744  02D7  00B7               	movwf	??___flmul+1
  5745  02D8  30FF               	movlw	255
  5746  02D9  053E               	andwf	___flmul@grs+2,w
  5747  02DA  00B8               	movwf	??___flmul+2
  5748  02DB  307F               	movlw	127
  5749  02DC  053F               	andwf	___flmul@grs+3,w
  5750  02DD  00B9               	movwf	??___flmul+3
  5751  02DE  0839               	movf	??___flmul+3,w
  5752  02DF  0438               	iorwf	??___flmul+2,w
  5753  02E0  0437               	iorwf	??___flmul+1,w
  5754  02E1  0436               	iorwf	??___flmul,w
  5755  02E2  1903               	skipnz
  5756  02E3  2AE5               	goto	u3361
  5757  02E4  2AE6               	goto	u3360
  5758  02E5                     u3361:	
  5759  02E5  2AE9               	goto	l694
  5760  02E6                     u3360:	
  5761  02E6                     l2665:	
  5762  02E6  01C0               	clrf	___flmul@aexp
  5763  02E7  0AC0               	incf	___flmul@aexp,f
  5764  02E8  2AEE               	goto	l2669
  5765  02E9                     l694:	
  5766  02E9  1C42               	btfss	___flmul@prod,0
  5767  02EA  2AEC               	goto	u3371
  5768  02EB  2AED               	goto	u3370
  5769  02EC                     u3371:	
  5770  02EC  2AEE               	goto	l2669
  5771  02ED                     u3370:	
  5772  02ED  2AE6               	goto	l2665
  5773  02EE                     l2669:	
  5774  02EE  0840               	movf	___flmul@aexp,w
  5775  02EF  1903               	btfsc	3,2
  5776  02F0  2AF2               	goto	u3381
  5777  02F1  2AF3               	goto	u3380
  5778  02F2                     u3381:	
  5779  02F2  2B24               	goto	l2679
  5780  02F3                     u3380:	
  5781  02F3                     l2671:	
  5782  02F3  3001               	movlw	1
  5783  02F4  07C2               	addwf	___flmul@prod,f
  5784  02F5  3000               	movlw	0
  5785  02F6  1803               	skipnc
  5786  02F7  3001               	movlw	1
  5787  02F8  07C3               	addwf	___flmul@prod+1,f
  5788  02F9  3000               	movlw	0
  5789  02FA  1803               	skipnc
  5790  02FB  3001               	movlw	1
  5791  02FC  07C4               	addwf	___flmul@prod+2,f
  5792  02FD  3000               	movlw	0
  5793  02FE  1803               	skipnc
  5794  02FF  3001               	movlw	1
  5795  0300  07C5               	addwf	___flmul@prod+3,f
  5796  0301                     l2673:	
  5797  0301  1C45               	btfss	___flmul@prod+3,0
  5798  0302  2B04               	goto	u3391
  5799  0303  2B05               	goto	u3390
  5800  0304                     u3391:	
  5801  0304  2B24               	goto	l2679
  5802  0305                     u3390:	
  5803  0305                     l2675:	
  5804  0305  0842               	movf	___flmul@prod,w
  5805  0306  00B6               	movwf	??___flmul
  5806  0307  0843               	movf	___flmul@prod+1,w
  5807  0308  00B7               	movwf	??___flmul+1
  5808  0309  0844               	movf	___flmul@prod+2,w
  5809  030A  00B8               	movwf	??___flmul+2
  5810  030B  0845               	movf	___flmul@prod+3,w
  5811  030C  00B9               	movwf	??___flmul+3
  5812  030D  3001               	movlw	1
  5813  030E  00BA               	movwf	??___flmul+4
  5814  030F                     u3405:	
  5815  030F  0D39               	rlf	??___flmul+3,w
  5816  0310  0CB9               	rrf	??___flmul+3,f
  5817  0311  0CB8               	rrf	??___flmul+2,f
  5818  0312  0CB7               	rrf	??___flmul+1,f
  5819  0313  0CB6               	rrf	??___flmul,f
  5820  0314                     u3400:	
  5821  0314  0BBA               	decfsz	??___flmul+4,f
  5822  0315  2B0F               	goto	u3405
  5823  0316  0839               	movf	??___flmul+3,w
  5824  0317  00C5               	movwf	___flmul@prod+3
  5825  0318  0838               	movf	??___flmul+2,w
  5826  0319  00C4               	movwf	___flmul@prod+2
  5827  031A  0837               	movf	??___flmul+1,w
  5828  031B  00C3               	movwf	___flmul@prod+1
  5829  031C  0836               	movf	??___flmul,w
  5830  031D  00C2               	movwf	___flmul@prod
  5831  031E                     l2677:	
  5832  031E  3001               	movlw	1
  5833  031F  07C6               	addwf	___flmul@temp,f
  5834  0320  1803               	skipnc
  5835  0321  0AC7               	incf	___flmul@temp+1,f
  5836  0322  3000               	movlw	0
  5837  0323  07C7               	addwf	___flmul@temp+1,f
  5838  0324                     l2679:	
  5839  0324  0847               	movf	___flmul@temp+1,w
  5840  0325  3A80               	xorlw	128
  5841  0326  00FF               	movwf	btemp+1
  5842  0327  3080               	movlw	128
  5843  0328  027F               	subwf	btemp+1,w
  5844  0329  1D03               	skipz
  5845  032A  2B2D               	goto	u3415
  5846  032B  30FF               	movlw	255
  5847  032C  0246               	subwf	___flmul@temp,w
  5848  032D                     u3415:	
  5849  032D  1C03               	skipc
  5850  032E  2B30               	goto	u3411
  5851  032F  2B31               	goto	u3410
  5852  0330                     u3411:	
  5853  0330  2B3C               	goto	l2683
  5854  0331                     u3410:	
  5855  0331                     l2681:	
  5856  0331  307F               	movlw	127
  5857  0332  1283               	bcf	3,5	;RP0=0, select bank0
  5858  0333  1303               	bcf	3,6	;RP1=0, select bank0
  5859  0334  00C5               	movwf	___flmul@prod+3
  5860  0335  3080               	movlw	128
  5861  0336  00C4               	movwf	___flmul@prod+2
  5862  0337  3000               	movlw	0
  5863  0338  00C3               	movwf	___flmul@prod+1
  5864  0339  3000               	movlw	0
  5865  033A  00C2               	movwf	___flmul@prod
  5866  033B  2B71               	goto	l700
  5867  033C                     l2683:	
  5868  033C  1283               	bcf	3,5	;RP0=0, select bank0
  5869  033D  1303               	bcf	3,6	;RP1=0, select bank0
  5870  033E  0847               	movf	___flmul@temp+1,w
  5871  033F  3A80               	xorlw	128
  5872  0340  00FF               	movwf	btemp+1
  5873  0341  3080               	movlw	128
  5874  0342  027F               	subwf	btemp+1,w
  5875  0343  1D03               	skipz
  5876  0344  2B47               	goto	u3425
  5877  0345  3001               	movlw	1
  5878  0346  0246               	subwf	___flmul@temp,w
  5879  0347                     u3425:	
  5880  0347  1803               	skipnc
  5881  0348  2B4A               	goto	u3421
  5882  0349  2B4B               	goto	u3420
  5883  034A                     u3421:	
  5884  034A  2B57               	goto	l2689
  5885  034B                     u3420:	
  5886  034B                     l2685:	
  5887  034B  3000               	movlw	0
  5888  034C  1283               	bcf	3,5	;RP0=0, select bank0
  5889  034D  1303               	bcf	3,6	;RP1=0, select bank0
  5890  034E  00C5               	movwf	___flmul@prod+3
  5891  034F  3000               	movlw	0
  5892  0350  00C4               	movwf	___flmul@prod+2
  5893  0351  3000               	movlw	0
  5894  0352  00C3               	movwf	___flmul@prod+1
  5895  0353  3000               	movlw	0
  5896  0354  00C2               	movwf	___flmul@prod
  5897  0355                     l2687:	
  5898  0355  01BB               	clrf	___flmul@sign
  5899  0356  2B71               	goto	l700
  5900  0357                     l2689:	
  5901  0357  1283               	bcf	3,5	;RP0=0, select bank0
  5902  0358  1303               	bcf	3,6	;RP1=0, select bank0
  5903  0359  0846               	movf	___flmul@temp,w
  5904  035A  00B6               	movwf	??___flmul
  5905  035B  0836               	movf	??___flmul,w
  5906  035C  00C1               	movwf	___flmul@bexp
  5907  035D  30FF               	movlw	255
  5908  035E  05C2               	andwf	___flmul@prod,f
  5909  035F  30FF               	movlw	255
  5910  0360  05C3               	andwf	___flmul@prod+1,f
  5911  0361  307F               	movlw	127
  5912  0362  05C4               	andwf	___flmul@prod+2,f
  5913  0363  3000               	movlw	0
  5914  0364  05C5               	andwf	___flmul@prod+3,f
  5915  0365                     l2691:	
  5916  0365  1C41               	btfss	___flmul@bexp,0
  5917  0366  2B68               	goto	u3431
  5918  0367  2B69               	goto	u3430
  5919  0368                     u3431:	
  5920  0368  2B6A               	goto	l2695
  5921  0369                     u3430:	
  5922  0369                     l2693:	
  5923  0369  17C4               	bsf	___flmul@prod+2,7
  5924  036A                     l2695:	
  5925  036A  0841               	movf	___flmul@bexp,w
  5926  036B  00B6               	movwf	??___flmul
  5927  036C  1003               	clrc
  5928  036D  0C36               	rrf	??___flmul,w
  5929  036E  00B7               	movwf	??___flmul+1
  5930  036F  0837               	movf	??___flmul+1,w
  5931  0370  00C5               	movwf	___flmul@prod+3
  5932  0371                     l700:	
  5933  0371  083B               	movf	___flmul@sign,w
  5934  0372  00B6               	movwf	??___flmul
  5935  0373  0836               	movf	??___flmul,w
  5936  0374  04C5               	iorwf	___flmul@prod+3,f
  5937  0375                     l2697:	
  5938  0375  0845               	movf	___flmul@prod+3,w
  5939  0376  00B1               	movwf	?___flmul+3
  5940  0377  0844               	movf	___flmul@prod+2,w
  5941  0378  00B0               	movwf	?___flmul+2
  5942  0379  0843               	movf	___flmul@prod+1,w
  5943  037A  00AF               	movwf	?___flmul+1
  5944  037B  0842               	movf	___flmul@prod,w
  5945  037C  00AE               	movwf	?___flmul
  5946  037D                     l688:	
  5947  037D  0008               	return
  5948  037E                     __end_of___flmul:	
  5949                           
  5950                           	psect	text14
  5951  17D7                     __ptext14:	
  5952 ;; *************** function __Umul8_16 *****************
  5953 ;; Defined at:
  5954 ;;		line 4 in file "C:\Program Files (x86)\Microchip\xc8\v2.10\pic\sources\c90\common\Umul8_16.c"
  5955 ;; Parameters:    Size  Location     Type
  5956 ;;  multiplier      1    wreg     unsigned char 
  5957 ;;  multiplicand    1    3[COMMON] unsigned char 
  5958 ;; Auto vars:     Size  Location     Type
  5959 ;;  multiplier      1    4[BANK0 ] unsigned char 
  5960 ;;  word_mpld       2    2[BANK0 ] unsigned int 
  5961 ;;  product         2    0[BANK0 ] unsigned int 
  5962 ;; Return value:  Size  Location     Type
  5963 ;;                  2    3[COMMON] unsigned int 
  5964 ;; Registers used:
  5965 ;;		wreg, status,2, status,0
  5966 ;; Tracked objects:
  5967 ;;		On entry : 0/0
  5968 ;;		On exit  : 0/0
  5969 ;;		Unchanged: 0/0
  5970 ;; Data sizes:     COMMON   BANK0   BANK1   BANK3   BANK2
  5971 ;;      Params:         2       0       0       0       0
  5972 ;;      Locals:         0       5       0       0       0
  5973 ;;      Temps:          2       0       0       0       0
  5974 ;;      Totals:         4       5       0       0       0
  5975 ;;Total ram usage:        9 bytes
  5976 ;; Hardware stack levels used:    1
  5977 ;; Hardware stack levels required when called:    1
  5978 ;; This function calls:
  5979 ;;		Nothing
  5980 ;; This function is called by:
  5981 ;;		___flmul
  5982 ;; This function uses a non-reentrant model
  5983 ;;
  5984                           
  5985                           
  5986                           ;psect for function __Umul8_16
  5987  17D7                     __Umul8_16:	
  5988                           
  5989                           ;incstack = 0
  5990                           ; Regs used in __Umul8_16: [wreg+status,2+status,0]
  5991                           ;__Umul8_16@multiplier stored from wreg
  5992  17D7  1283               	bcf	3,5	;RP0=0, select bank0
  5993  17D8  1303               	bcf	3,6	;RP1=0, select bank0
  5994  17D9  00A4               	movwf	__Umul8_16@multiplier
  5995  17DA                     l2355:	
  5996  17DA  01A0               	clrf	__Umul8_16@product
  5997  17DB  01A1               	clrf	__Umul8_16@product+1
  5998  17DC                     l2357:	
  5999  17DC  0873               	movf	__Umul8_16@multiplicand,w
  6000  17DD  00F5               	movwf	??__Umul8_16
  6001  17DE  01F6               	clrf	??__Umul8_16+1
  6002  17DF  0875               	movf	??__Umul8_16,w
  6003  17E0  00A2               	movwf	__Umul8_16@word_mpld
  6004  17E1  0876               	movf	??__Umul8_16+1,w
  6005  17E2  00A3               	movwf	__Umul8_16@word_mpld+1
  6006  17E3                     l2359:	
  6007  17E3  1C24               	btfss	__Umul8_16@multiplier,0
  6008  17E4  2FE6               	goto	u2851
  6009  17E5  2FE7               	goto	u2850
  6010  17E6                     u2851:	
  6011  17E6  2FED               	goto	l745
  6012  17E7                     u2850:	
  6013  17E7                     l2361:	
  6014  17E7  0822               	movf	__Umul8_16@word_mpld,w
  6015  17E8  07A0               	addwf	__Umul8_16@product,f
  6016  17E9  1803               	skipnc
  6017  17EA  0AA1               	incf	__Umul8_16@product+1,f
  6018  17EB  0823               	movf	__Umul8_16@word_mpld+1,w
  6019  17EC  07A1               	addwf	__Umul8_16@product+1,f
  6020  17ED                     l745:	
  6021  17ED  3001               	movlw	1
  6022  17EE                     u2865:	
  6023  17EE  1003               	clrc
  6024  17EF  0DA2               	rlf	__Umul8_16@word_mpld,f
  6025  17F0  0DA3               	rlf	__Umul8_16@word_mpld+1,f
  6026  17F1  3EFF               	addlw	-1
  6027  17F2  1D03               	skipz
  6028  17F3  2FEE               	goto	u2865
  6029  17F4  1003               	clrc
  6030  17F5  0CA4               	rrf	__Umul8_16@multiplier,f
  6031  17F6                     l2363:	
  6032  17F6  0824               	movf	__Umul8_16@multiplier,w
  6033  17F7  1D03               	btfss	3,2
  6034  17F8  2FFA               	goto	u2871
  6035  17F9  2FFB               	goto	u2870
  6036  17FA                     u2871:	
  6037  17FA  2FE3               	goto	l2359
  6038  17FB                     u2870:	
  6039  17FB                     l2365:	
  6040  17FB  0821               	movf	__Umul8_16@product+1,w
  6041  17FC  00F4               	movwf	?__Umul8_16+1
  6042  17FD  0820               	movf	__Umul8_16@product,w
  6043  17FE  00F3               	movwf	?__Umul8_16
  6044  17FF                     l747:	
  6045  17FF  0008               	return
  6046  1800                     __end_of__Umul8_16:	
  6047                           
  6048                           	psect	text15
  6049  0843                     __ptext15:	
  6050 ;; *************** function _Lcd_Write_String *****************
  6051 ;; Defined at:
  6052 ;;		line 125 in file "LCD.c"
  6053 ;; Parameters:    Size  Location     Type
  6054 ;;  a               2    6[COMMON] PTR unsigned char 
  6055 ;;		 -> main@s1(5), STR_3(4), STR_2(4), STR_1(6), 
  6056 ;; Auto vars:     Size  Location     Type
  6057 ;;  i               2    3[BANK0 ] int 
  6058 ;; Return value:  Size  Location     Type
  6059 ;;                  1    wreg      void 
  6060 ;; Registers used:
  6061 ;;		wreg, fsr0l, fsr0h, status,2, status,0, btemp+1, pclath, cstack
  6062 ;; Tracked objects:
  6063 ;;		On entry : 0/0
  6064 ;;		On exit  : 0/0
  6065 ;;		Unchanged: 0/0
  6066 ;; Data sizes:     COMMON   BANK0   BANK1   BANK3   BANK2
  6067 ;;      Params:         2       0       0       0       0
  6068 ;;      Locals:         0       2       0       0       0
  6069 ;;      Temps:          0       3       0       0       0
  6070 ;;      Totals:         2       5       0       0       0
  6071 ;;Total ram usage:        7 bytes
  6072 ;; Hardware stack levels used:    1
  6073 ;; Hardware stack levels required when called:    3
  6074 ;; This function calls:
  6075 ;;		_Lcd_Write_Char
  6076 ;; This function is called by:
  6077 ;;		_main
  6078 ;; This function uses a non-reentrant model
  6079 ;;
  6080                           
  6081                           
  6082                           ;psect for function _Lcd_Write_String
  6083  0843                     _Lcd_Write_String:	
  6084  0843                     l2999:	
  6085                           ;incstack = 0
  6086                           ; Regs used in _Lcd_Write_String: [wreg-fsr0h+status,2+status,0+btemp+1+pclath+cstack]
  6087                           
  6088                           
  6089                           ;LCD.c: 125: void Lcd_Write_String(char *a);LCD.c: 126: {;LCD.c: 127:  int i;;LCD.c: 128
      +                          :  for(i=0;a[i]!='\0';i++)
  6090  0843  1283               	bcf	3,5	;RP0=0, select bank0
  6091  0844  1303               	bcf	3,6	;RP1=0, select bank0
  6092  0845  01A3               	clrf	Lcd_Write_String@i
  6093  0846  01A4               	clrf	Lcd_Write_String@i+1
  6094  0847  286C               	goto	l3005
  6095  0848                     l3001:	
  6096                           
  6097                           ;LCD.c: 129:     Lcd_Write_Char(a[i]);
  6098  0848  0823               	movf	Lcd_Write_String@i,w
  6099  0849  0776               	addwf	Lcd_Write_String@a,w
  6100  084A  00A1               	movwf	??_Lcd_Write_String+1
  6101  084B  0877               	movf	Lcd_Write_String@a+1,w
  6102  084C  00A0               	movwf	??_Lcd_Write_String
  6103  084D  1803               	skipnc
  6104  084E  0AA0               	incf	??_Lcd_Write_String,f
  6105  084F  1FA3               	btfss	Lcd_Write_String@i,7
  6106  0850  2852               	goto	u3780
  6107  0851  03A0               	decf	??_Lcd_Write_String,f
  6108  0852                     u3780:	
  6109  0852  1283               	bcf	3,5	;RP0=0, select bank0
  6110  0853  1303               	bcf	3,6	;RP1=0, select bank0
  6111  0854  0820               	movf	??_Lcd_Write_String,w
  6112  0855  00A2               	movwf	??_Lcd_Write_String+2
  6113  0856  0822               	movf	??_Lcd_Write_String+2,w
  6114  0857  00FF               	movwf	btemp+1
  6115  0858  0821               	movf	??_Lcd_Write_String+1,w
  6116  0859  0084               	movwf	4
  6117  085A  160A  118A  2000  120A  158A  	fcall	stringtab
  6118  085F  160A  118A  273E  120A  158A  	fcall	_Lcd_Write_Char
  6119  0864                     l3003:	
  6120  0864  3001               	movlw	1
  6121  0865  1283               	bcf	3,5	;RP0=0, select bank0
  6122  0866  1303               	bcf	3,6	;RP1=0, select bank0
  6123  0867  07A3               	addwf	Lcd_Write_String@i,f
  6124  0868  1803               	skipnc
  6125  0869  0AA4               	incf	Lcd_Write_String@i+1,f
  6126  086A  3000               	movlw	0
  6127  086B  07A4               	addwf	Lcd_Write_String@i+1,f
  6128  086C                     l3005:	
  6129  086C  0823               	movf	Lcd_Write_String@i,w
  6130  086D  0776               	addwf	Lcd_Write_String@a,w
  6131  086E  00A1               	movwf	??_Lcd_Write_String+1
  6132  086F  0877               	movf	Lcd_Write_String@a+1,w
  6133  0870  00A0               	movwf	??_Lcd_Write_String
  6134  0871  1803               	skipnc
  6135  0872  0AA0               	incf	??_Lcd_Write_String,f
  6136  0873  1FA3               	btfss	Lcd_Write_String@i,7
  6137  0874  2876               	goto	u3790
  6138  0875  03A0               	decf	??_Lcd_Write_String,f
  6139  0876                     u3790:	
  6140  0876  1283               	bcf	3,5	;RP0=0, select bank0
  6141  0877  1303               	bcf	3,6	;RP1=0, select bank0
  6142  0878  0820               	movf	??_Lcd_Write_String,w
  6143  0879  00A2               	movwf	??_Lcd_Write_String+2
  6144  087A  0822               	movf	??_Lcd_Write_String+2,w
  6145  087B  00FF               	movwf	btemp+1
  6146  087C  0821               	movf	??_Lcd_Write_String+1,w
  6147  087D  0084               	movwf	4
  6148  087E  160A  118A  2000  120A  158A  	fcall	stringtab
  6149  0883  3A00               	xorlw	0
  6150  0884  1D03               	skipz
  6151  0885  2887               	goto	u3801
  6152  0886  2888               	goto	u3800
  6153  0887                     u3801:	
  6154  0887  2848               	goto	l3001
  6155  0888                     u3800:	
  6156  0888                     l207:	
  6157  0888  0008               	return
  6158  0889                     __end_of_Lcd_Write_String:	
  6159                           
  6160                           	psect	text16
  6161  173E                     __ptext16:	
  6162 ;; *************** function _Lcd_Write_Char *****************
  6163 ;; Defined at:
  6164 ;;		line 115 in file "LCD.c"
  6165 ;; Parameters:    Size  Location     Type
  6166 ;;  a               1    wreg     unsigned char 
  6167 ;; Auto vars:     Size  Location     Type
  6168 ;;  a               1    5[COMMON] unsigned char 
  6169 ;; Return value:  Size  Location     Type
  6170 ;;                  1    wreg      void 
  6171 ;; Registers used:
  6172 ;;		wreg, status,2, status,0, pclath, cstack
  6173 ;; Tracked objects:
  6174 ;;		On entry : 0/0
  6175 ;;		On exit  : 0/0
  6176 ;;		Unchanged: 0/0
  6177 ;; Data sizes:     COMMON   BANK0   BANK1   BANK3   BANK2
  6178 ;;      Params:         0       0       0       0       0
  6179 ;;      Locals:         1       0       0       0       0
  6180 ;;      Temps:          1       0       0       0       0
  6181 ;;      Totals:         2       0       0       0       0
  6182 ;;Total ram usage:        2 bytes
  6183 ;; Hardware stack levels used:    1
  6184 ;; Hardware stack levels required when called:    2
  6185 ;; This function calls:
  6186 ;;		_Lcd_Port
  6187 ;; This function is called by:
  6188 ;;		_Lcd_Write_String
  6189 ;; This function uses a non-reentrant model
  6190 ;;
  6191                           
  6192                           
  6193                           ;psect for function _Lcd_Write_Char
  6194  173E                     _Lcd_Write_Char:	
  6195                           
  6196                           ;incstack = 0
  6197                           ; Regs used in _Lcd_Write_Char: [wreg+status,2+status,0+pclath+cstack]
  6198                           ;Lcd_Write_Char@a stored from wreg
  6199  173E  00F5               	movwf	Lcd_Write_Char@a
  6200  173F                     l2089:	
  6201                           
  6202                           ;LCD.c: 115: void Lcd_Write_Char(char a);LCD.c: 116: {;LCD.c: 118:    RC1 = 1;
  6203  173F  1283               	bcf	3,5	;RP0=0, select bank0
  6204  1740  1303               	bcf	3,6	;RP1=0, select bank0
  6205  1741  1487               	bsf	7,1	;volatile
  6206  1742                     l2091:	
  6207                           
  6208                           ;LCD.c: 119:    Lcd_Port(a);
  6209  1742  0875               	movf	Lcd_Write_Char@a,w
  6210  1743  120A  158A  2005  160A  118A  	fcall	_Lcd_Port
  6211  1748                     l2093:	
  6212                           
  6213                           ;LCD.c: 120:    RC0 = 1;
  6214  1748  1283               	bcf	3,5	;RP0=0, select bank0
  6215  1749  1303               	bcf	3,6	;RP1=0, select bank0
  6216  174A  1407               	bsf	7,0	;volatile
  6217  174B                     l2095:	
  6218                           
  6219                           ;LCD.c: 121:    _delay((unsigned long)((100)*(8000000/4000000.0)));
  6220  174B  3042               	movlw	66
  6221  174C  00F4               	movwf	??_Lcd_Write_Char
  6222  174D                     u3857:	
  6223  174D  0BF4               	decfsz	??_Lcd_Write_Char,f
  6224  174E  2F4D               	goto	u3857
  6225  174F  0000               	nop
  6226  1750                     l2097:	
  6227                           
  6228                           ;LCD.c: 122:    RC0 = 0;
  6229  1750  1283               	bcf	3,5	;RP0=0, select bank0
  6230  1751  1303               	bcf	3,6	;RP1=0, select bank0
  6231  1752  1007               	bcf	7,0	;volatile
  6232  1753                     l201:	
  6233  1753  0008               	return
  6234  1754                     __end_of_Lcd_Write_Char:	
  6235                           
  6236                           	psect	text17
  6237  07E3                     __ptext17:	
  6238 ;; *************** function _Lcd_Set_Cursor *****************
  6239 ;; Defined at:
  6240 ;;		line 85 in file "LCD.c"
  6241 ;; Parameters:    Size  Location     Type
  6242 ;;  a               1    wreg     unsigned char 
  6243 ;;  b               1    7[COMMON] unsigned char 
  6244 ;; Auto vars:     Size  Location     Type
  6245 ;;  a               1    8[COMMON] unsigned char 
  6246 ;; Return value:  Size  Location     Type
  6247 ;;                  1    wreg      void 
  6248 ;; Registers used:
  6249 ;;		wreg, status,2, status,0, pclath, cstack
  6250 ;; Tracked objects:
  6251 ;;		On entry : 0/0
  6252 ;;		On exit  : 0/0
  6253 ;;		Unchanged: 0/0
  6254 ;; Data sizes:     COMMON   BANK0   BANK1   BANK3   BANK2
  6255 ;;      Params:         1       0       0       0       0
  6256 ;;      Locals:         1       0       0       0       0
  6257 ;;      Temps:          0       0       0       0       0
  6258 ;;      Totals:         2       0       0       0       0
  6259 ;;Total ram usage:        2 bytes
  6260 ;; Hardware stack levels used:    1
  6261 ;; Hardware stack levels required when called:    3
  6262 ;; This function calls:
  6263 ;;		_Lcd_Cmd
  6264 ;; This function is called by:
  6265 ;;		_main
  6266 ;; This function uses a non-reentrant model
  6267 ;;
  6268                           
  6269                           
  6270                           ;psect for function _Lcd_Set_Cursor
  6271  07E3                     _Lcd_Set_Cursor:	
  6272                           
  6273                           ;incstack = 0
  6274                           ; Regs used in _Lcd_Set_Cursor: [wreg+status,2+status,0+pclath+cstack]
  6275                           ;Lcd_Set_Cursor@a stored from wreg
  6276  07E3  00F8               	movwf	Lcd_Set_Cursor@a
  6277  07E4                     l2515:	
  6278                           
  6279                           ;LCD.c: 85: void Lcd_Set_Cursor(char a, char b);LCD.c: 86: {;LCD.c: 87:  if(a == 1)
  6280  07E4  0378               	decf	Lcd_Set_Cursor@a,w
  6281  07E5  1D03               	btfss	3,2
  6282  07E6  2FE8               	goto	u3021
  6283  07E7  2FE9               	goto	u3020
  6284  07E8                     u3021:	
  6285  07E8  2FF1               	goto	l2519
  6286  07E9                     u3020:	
  6287  07E9                     l2517:	
  6288                           
  6289                           ;LCD.c: 88:  {;LCD.c: 89:   Lcd_Cmd(0x80 + b - 1);
  6290  07E9  0877               	movf	Lcd_Set_Cursor@b,w
  6291  07EA  3E7F               	addlw	127
  6292  07EB  160A  118A  276B  120A  118A  	fcall	_Lcd_Cmd
  6293                           
  6294                           ;LCD.c: 90:  }
  6295  07F0  2FFE               	goto	l195
  6296  07F1                     l2519:	
  6297  07F1  3002               	movlw	2
  6298  07F2  0678               	xorwf	Lcd_Set_Cursor@a,w
  6299  07F3  1D03               	btfss	3,2
  6300  07F4  2FF6               	goto	u3031
  6301  07F5  2FF7               	goto	u3030
  6302  07F6                     u3031:	
  6303  07F6  2FFE               	goto	l195
  6304  07F7                     u3030:	
  6305  07F7                     l2521:	
  6306                           
  6307                           ;LCD.c: 92:  {;LCD.c: 93:   Lcd_Cmd(0xC0 + b - 1);
  6308  07F7  0877               	movf	Lcd_Set_Cursor@b,w
  6309  07F8  3EBF               	addlw	191
  6310  07F9  160A  118A  276B  120A  118A  	fcall	_Lcd_Cmd
  6311  07FE                     l195:	
  6312  07FE  0008               	return
  6313  07FF                     __end_of_Lcd_Set_Cursor:	
  6314                           
  6315                           	psect	text18
  6316  0889                     __ptext18:	
  6317 ;; *************** function _Lcd_Init *****************
  6318 ;; Defined at:
  6319 ;;		line 97 in file "LCD.c"
  6320 ;; Parameters:    Size  Location     Type
  6321 ;;		None
  6322 ;; Auto vars:     Size  Location     Type
  6323 ;;		None
  6324 ;; Return value:  Size  Location     Type
  6325 ;;                  1    wreg      void 
  6326 ;; Registers used:
  6327 ;;		wreg, status,2, status,0, pclath, cstack
  6328 ;; Tracked objects:
  6329 ;;		On entry : 0/0
  6330 ;;		On exit  : 0/0
  6331 ;;		Unchanged: 0/0
  6332 ;; Data sizes:     COMMON   BANK0   BANK1   BANK3   BANK2
  6333 ;;      Params:         0       0       0       0       0
  6334 ;;      Locals:         0       0       0       0       0
  6335 ;;      Temps:          2       0       0       0       0
  6336 ;;      Totals:         2       0       0       0       0
  6337 ;;Total ram usage:        2 bytes
  6338 ;; Hardware stack levels used:    1
  6339 ;; Hardware stack levels required when called:    3
  6340 ;; This function calls:
  6341 ;;		_Lcd_Cmd
  6342 ;; This function is called by:
  6343 ;;		_main
  6344 ;; This function uses a non-reentrant model
  6345 ;;
  6346                           
  6347                           
  6348                           ;psect for function _Lcd_Init
  6349  0889                     _Lcd_Init:	
  6350  0889                     l2495:	
  6351                           ;incstack = 0
  6352                           ; Regs used in _Lcd_Init: [wreg+status,2+status,0+pclath+cstack]
  6353                           
  6354                           
  6355                           ;LCD.c: 100:    _delay((unsigned long)((15)*(8000000/4000.0)));
  6356  0889  3027               	movlw	39
  6357  088A  00F8               	movwf	??_Lcd_Init+1
  6358  088B  30F5               	movlw	245
  6359  088C  00F7               	movwf	??_Lcd_Init
  6360  088D                     u3867:	
  6361  088D  0BF7               	decfsz	??_Lcd_Init,f
  6362  088E  288D               	goto	u3867
  6363  088F  0BF8               	decfsz	??_Lcd_Init+1,f
  6364  0890  288D               	goto	u3867
  6365  0891                     l2497:	
  6366                           
  6367                           ;LCD.c: 101:   Lcd_Cmd(0x030);
  6368  0891  3030               	movlw	48
  6369  0892  160A  118A  276B  120A  158A  	fcall	_Lcd_Cmd
  6370  0897                     l2499:	
  6371                           
  6372                           ;LCD.c: 102:   _delay((unsigned long)((5)*(8000000/4000.0)));
  6373  0897  300D               	movlw	13
  6374  0898  00F8               	movwf	??_Lcd_Init+1
  6375  0899  30FB               	movlw	251
  6376  089A  00F7               	movwf	??_Lcd_Init
  6377  089B                     u3877:	
  6378  089B  0BF7               	decfsz	??_Lcd_Init,f
  6379  089C  289B               	goto	u3877
  6380  089D  0BF8               	decfsz	??_Lcd_Init+1,f
  6381  089E  289B               	goto	u3877
  6382  089F  28A0               	nop2
  6383                           
  6384                           ;LCD.c: 103:   Lcd_Cmd(0x030);
  6385  08A0  3030               	movlw	48
  6386  08A1  160A  118A  276B  120A  158A  	fcall	_Lcd_Cmd
  6387  08A6                     l2501:	
  6388                           
  6389                           ;LCD.c: 104:   _delay((unsigned long)((160)*(8000000/4000000.0)));
  6390  08A6  306A               	movlw	106
  6391  08A7  00F7               	movwf	??_Lcd_Init
  6392  08A8                     u3887:	
  6393  08A8  0BF7               	decfsz	??_Lcd_Init,f
  6394  08A9  28A8               	goto	u3887
  6395  08AA  0000               	nop
  6396  08AB                     l2503:	
  6397                           
  6398                           ;LCD.c: 105:   Lcd_Cmd(0x030);
  6399  08AB  3030               	movlw	48
  6400  08AC  160A  118A  276B  120A  158A  	fcall	_Lcd_Cmd
  6401  08B1                     l2505:	
  6402                           
  6403                           ;LCD.c: 107:   Lcd_Cmd(0x38);
  6404  08B1  3038               	movlw	56
  6405  08B2  160A  118A  276B  120A  158A  	fcall	_Lcd_Cmd
  6406  08B7                     l2507:	
  6407                           
  6408                           ;LCD.c: 108:   Lcd_Cmd(0x10);
  6409  08B7  3010               	movlw	16
  6410  08B8  160A  118A  276B  120A  158A  	fcall	_Lcd_Cmd
  6411  08BD                     l2509:	
  6412                           
  6413                           ;LCD.c: 109:   Lcd_Cmd(0x01);
  6414  08BD  3001               	movlw	1
  6415  08BE  160A  118A  276B  120A  158A  	fcall	_Lcd_Cmd
  6416  08C3                     l2511:	
  6417                           
  6418                           ;LCD.c: 110:   Lcd_Cmd(0x06);
  6419  08C3  3006               	movlw	6
  6420  08C4  160A  118A  276B  120A  158A  	fcall	_Lcd_Cmd
  6421  08C9                     l2513:	
  6422                           
  6423                           ;LCD.c: 111:   Lcd_Cmd(0x0C);
  6424  08C9  300C               	movlw	12
  6425  08CA  160A  118A  276B  120A  158A  	fcall	_Lcd_Cmd
  6426  08CF                     l198:	
  6427  08CF  0008               	return
  6428  08D0                     __end_of_Lcd_Init:	
  6429                           
  6430                           	psect	text19
  6431  176B                     __ptext19:	
  6432 ;; *************** function _Lcd_Cmd *****************
  6433 ;; Defined at:
  6434 ;;		line 70 in file "LCD.c"
  6435 ;; Parameters:    Size  Location     Type
  6436 ;;  a               1    wreg     unsigned char 
  6437 ;; Auto vars:     Size  Location     Type
  6438 ;;  a               1    6[COMMON] unsigned char 
  6439 ;; Return value:  Size  Location     Type
  6440 ;;                  1    wreg      void 
  6441 ;; Registers used:
  6442 ;;		wreg, status,2, status,0, pclath, cstack
  6443 ;; Tracked objects:
  6444 ;;		On entry : 0/0
  6445 ;;		On exit  : 0/0
  6446 ;;		Unchanged: 0/0
  6447 ;; Data sizes:     COMMON   BANK0   BANK1   BANK3   BANK2
  6448 ;;      Params:         0       0       0       0       0
  6449 ;;      Locals:         1       0       0       0       0
  6450 ;;      Temps:          2       0       0       0       0
  6451 ;;      Totals:         3       0       0       0       0
  6452 ;;Total ram usage:        3 bytes
  6453 ;; Hardware stack levels used:    1
  6454 ;; Hardware stack levels required when called:    2
  6455 ;; This function calls:
  6456 ;;		_Lcd_Port
  6457 ;; This function is called by:
  6458 ;;		_Lcd_Set_Cursor
  6459 ;;		_Lcd_Init
  6460 ;;		_Lcd_Clear
  6461 ;;		_Lcd_Shift_Right
  6462 ;;		_Lcd_Shift_Left
  6463 ;; This function uses a non-reentrant model
  6464 ;;
  6465                           
  6466                           
  6467                           ;psect for function _Lcd_Cmd
  6468  176B                     _Lcd_Cmd:	
  6469                           
  6470                           ;incstack = 0
  6471                           ; Regs used in _Lcd_Cmd: [wreg+status,2+status,0+pclath+cstack]
  6472                           ;Lcd_Cmd@a stored from wreg
  6473  176B  00F6               	movwf	Lcd_Cmd@a
  6474  176C                     l2077:	
  6475                           
  6476                           ;LCD.c: 70: void Lcd_Cmd(char a);LCD.c: 71: {;LCD.c: 72:  RC1 = 0;
  6477  176C  1283               	bcf	3,5	;RP0=0, select bank0
  6478  176D  1303               	bcf	3,6	;RP1=0, select bank0
  6479  176E  1087               	bcf	7,1	;volatile
  6480  176F                     l2079:	
  6481                           
  6482                           ;LCD.c: 73:  Lcd_Port(a);
  6483  176F  0876               	movf	Lcd_Cmd@a,w
  6484  1770  120A  158A  2005  160A  118A  	fcall	_Lcd_Port
  6485  1775                     l2081:	
  6486                           
  6487                           ;LCD.c: 74:  RC0 = 1;
  6488  1775  1283               	bcf	3,5	;RP0=0, select bank0
  6489  1776  1303               	bcf	3,6	;RP1=0, select bank0
  6490  1777  1407               	bsf	7,0	;volatile
  6491  1778                     l2083:	
  6492                           
  6493                           ;LCD.c: 75:     _delay((unsigned long)((5)*(8000000/4000.0)));
  6494  1778  300D               	movlw	13
  6495  1779  00F5               	movwf	??_Lcd_Cmd+1
  6496  177A  30FB               	movlw	251
  6497  177B  00F4               	movwf	??_Lcd_Cmd
  6498  177C                     u3897:	
  6499  177C  0BF4               	decfsz	??_Lcd_Cmd,f
  6500  177D  2F7C               	goto	u3897
  6501  177E  0BF5               	decfsz	??_Lcd_Cmd+1,f
  6502  177F  2F7C               	goto	u3897
  6503  1780  2F81               	nop2
  6504  1781                     l2085:	
  6505                           
  6506                           ;LCD.c: 76:     RC0 = 0;
  6507  1781  1283               	bcf	3,5	;RP0=0, select bank0
  6508  1782  1303               	bcf	3,6	;RP1=0, select bank0
  6509  1783  1007               	bcf	7,0	;volatile
  6510  1784                     l2087:	
  6511                           
  6512                           ;LCD.c: 77:     _delay((unsigned long)((1)*(8000000/4000.0)));
  6513  1784  3003               	movlw	3
  6514  1785  00F5               	movwf	??_Lcd_Cmd+1
  6515  1786  3097               	movlw	151
  6516  1787  00F4               	movwf	??_Lcd_Cmd
  6517  1788                     u3907:	
  6518  1788  0BF4               	decfsz	??_Lcd_Cmd,f
  6519  1789  2F88               	goto	u3907
  6520  178A  0BF5               	decfsz	??_Lcd_Cmd+1,f
  6521  178B  2F88               	goto	u3907
  6522  178C  2F8D               	nop2
  6523  178D                     l186:	
  6524  178D  0008               	return
  6525  178E                     __end_of_Lcd_Cmd:	
  6526                           
  6527                           	psect	text20
  6528  0805                     __ptext20:	
  6529 ;; *************** function _Lcd_Port *****************
  6530 ;; Defined at:
  6531 ;;		line 27 in file "LCD.c"
  6532 ;; Parameters:    Size  Location     Type
  6533 ;;  a               1    wreg     unsigned char 
  6534 ;; Auto vars:     Size  Location     Type
  6535 ;;  a               1    3[COMMON] unsigned char 
  6536 ;; Return value:  Size  Location     Type
  6537 ;;                  1    wreg      void 
  6538 ;; Registers used:
  6539 ;;		wreg
  6540 ;; Tracked objects:
  6541 ;;		On entry : 0/0
  6542 ;;		On exit  : 0/0
  6543 ;;		Unchanged: 0/0
  6544 ;; Data sizes:     COMMON   BANK0   BANK1   BANK3   BANK2
  6545 ;;      Params:         0       0       0       0       0
  6546 ;;      Locals:         1       0       0       0       0
  6547 ;;      Temps:          0       0       0       0       0
  6548 ;;      Totals:         1       0       0       0       0
  6549 ;;Total ram usage:        1 bytes
  6550 ;; Hardware stack levels used:    1
  6551 ;; Hardware stack levels required when called:    1
  6552 ;; This function calls:
  6553 ;;		Nothing
  6554 ;; This function is called by:
  6555 ;;		_Lcd_Cmd
  6556 ;;		_Lcd_Write_Char
  6557 ;; This function uses a non-reentrant model
  6558 ;;
  6559                           
  6560                           
  6561                           ;psect for function _Lcd_Port
  6562  0805                     _Lcd_Port:	
  6563                           
  6564                           ;incstack = 0
  6565                           ; Regs used in _Lcd_Port: [wreg]
  6566                           ;Lcd_Port@a stored from wreg
  6567  0805  00F3               	movwf	Lcd_Port@a
  6568  0806                     l1831:	
  6569                           
  6570                           ;LCD.c: 27: void Lcd_Port(char a);LCD.c: 28: {;LCD.c: 29:     if(a & 1)
  6571  0806  1C73               	btfss	Lcd_Port@a,0
  6572  0807  2809               	goto	u1751
  6573  0808  280A               	goto	u1750
  6574  0809                     u1751:	
  6575  0809  280E               	goto	l167
  6576  080A                     u1750:	
  6577  080A                     l1833:	
  6578                           
  6579                           ;LCD.c: 30:   RA0 = 1;
  6580  080A  1283               	bcf	3,5	;RP0=0, select bank0
  6581  080B  1303               	bcf	3,6	;RP1=0, select bank0
  6582  080C  1405               	bsf	5,0	;volatile
  6583  080D  2811               	goto	l168
  6584  080E                     l167:	
  6585                           ;LCD.c: 31:  else
  6586                           
  6587                           
  6588                           ;LCD.c: 32:   RA0 = 0;
  6589  080E  1283               	bcf	3,5	;RP0=0, select bank0
  6590  080F  1303               	bcf	3,6	;RP1=0, select bank0
  6591  0810  1005               	bcf	5,0	;volatile
  6592  0811                     l168:	
  6593                           
  6594                           ;LCD.c: 34:  if(a & 2)
  6595  0811  1CF3               	btfss	Lcd_Port@a,1
  6596  0812  2814               	goto	u1761
  6597  0813  2815               	goto	u1760
  6598  0814                     u1761:	
  6599  0814  2817               	goto	l169
  6600  0815                     u1760:	
  6601  0815                     l1835:	
  6602                           
  6603                           ;LCD.c: 35:   RA1 = 1;
  6604  0815  1485               	bsf	5,1	;volatile
  6605  0816  2818               	goto	l170
  6606  0817                     l169:	
  6607                           ;LCD.c: 36:  else
  6608                           
  6609                           
  6610                           ;LCD.c: 37:   RA1 = 0;
  6611  0817  1085               	bcf	5,1	;volatile
  6612  0818                     l170:	
  6613                           
  6614                           ;LCD.c: 39:  if(a & 4)
  6615  0818  1D73               	btfss	Lcd_Port@a,2
  6616  0819  281B               	goto	u1771
  6617  081A  281C               	goto	u1770
  6618  081B                     u1771:	
  6619  081B  281E               	goto	l171
  6620  081C                     u1770:	
  6621  081C                     l1837:	
  6622                           
  6623                           ;LCD.c: 40:   RA2 = 1;
  6624  081C  1505               	bsf	5,2	;volatile
  6625  081D  281F               	goto	l172
  6626  081E                     l171:	
  6627                           ;LCD.c: 41:  else
  6628                           
  6629                           
  6630                           ;LCD.c: 42:   RA2 = 0;
  6631  081E  1105               	bcf	5,2	;volatile
  6632  081F                     l172:	
  6633                           
  6634                           ;LCD.c: 44:  if(a & 8)
  6635  081F  1DF3               	btfss	Lcd_Port@a,3
  6636  0820  2822               	goto	u1781
  6637  0821  2823               	goto	u1780
  6638  0822                     u1781:	
  6639  0822  2825               	goto	l173
  6640  0823                     u1780:	
  6641  0823                     l1839:	
  6642                           
  6643                           ;LCD.c: 45:   RA3 = 1;
  6644  0823  1585               	bsf	5,3	;volatile
  6645  0824  2826               	goto	l174
  6646  0825                     l173:	
  6647                           ;LCD.c: 46:  else
  6648                           
  6649                           
  6650                           ;LCD.c: 47:   RA3 = 0;
  6651  0825  1185               	bcf	5,3	;volatile
  6652  0826                     l174:	
  6653                           
  6654                           ;LCD.c: 49:  if(a & 16)
  6655  0826  1E73               	btfss	Lcd_Port@a,4
  6656  0827  2829               	goto	u1791
  6657  0828  282A               	goto	u1790
  6658  0829                     u1791:	
  6659  0829  282C               	goto	l175
  6660  082A                     u1790:	
  6661  082A                     l1841:	
  6662                           
  6663                           ;LCD.c: 50:   RA4 = 1;
  6664  082A  1605               	bsf	5,4	;volatile
  6665  082B  282D               	goto	l176
  6666  082C                     l175:	
  6667                           ;LCD.c: 51:  else
  6668                           
  6669                           
  6670                           ;LCD.c: 52:   RA4 = 0;
  6671  082C  1205               	bcf	5,4	;volatile
  6672  082D                     l176:	
  6673                           
  6674                           ;LCD.c: 54:  if(a & 32)
  6675  082D  1EF3               	btfss	Lcd_Port@a,5
  6676  082E  2830               	goto	u1801
  6677  082F  2831               	goto	u1800
  6678  0830                     u1801:	
  6679  0830  2833               	goto	l177
  6680  0831                     u1800:	
  6681  0831                     l1843:	
  6682                           
  6683                           ;LCD.c: 55:   RA5 = 1;
  6684  0831  1685               	bsf	5,5	;volatile
  6685  0832  2834               	goto	l178
  6686  0833                     l177:	
  6687                           ;LCD.c: 56:  else
  6688                           
  6689                           
  6690                           ;LCD.c: 57:   RA5 = 0;
  6691  0833  1285               	bcf	5,5	;volatile
  6692  0834                     l178:	
  6693                           
  6694                           ;LCD.c: 59:  if(a & 64)
  6695  0834  1F73               	btfss	Lcd_Port@a,6
  6696  0835  2837               	goto	u1811
  6697  0836  2838               	goto	u1810
  6698  0837                     u1811:	
  6699  0837  283A               	goto	l179
  6700  0838                     u1810:	
  6701  0838                     l1845:	
  6702                           
  6703                           ;LCD.c: 60:   RA6 = 1;
  6704  0838  1705               	bsf	5,6	;volatile
  6705  0839  283B               	goto	l180
  6706  083A                     l179:	
  6707                           ;LCD.c: 61:  else
  6708                           
  6709                           
  6710                           ;LCD.c: 62:   RA6 = 0;
  6711  083A  1305               	bcf	5,6	;volatile
  6712  083B                     l180:	
  6713                           
  6714                           ;LCD.c: 64:  if(a & 128)
  6715  083B  1FF3               	btfss	Lcd_Port@a,7
  6716  083C  283E               	goto	u1821
  6717  083D  283F               	goto	u1820
  6718  083E                     u1821:	
  6719  083E  2841               	goto	l181
  6720  083F                     u1820:	
  6721  083F                     l1847:	
  6722                           
  6723                           ;LCD.c: 65:   RA7 = 1;
  6724  083F  1785               	bsf	5,7	;volatile
  6725  0840  2842               	goto	l183
  6726  0841                     l181:	
  6727                           ;LCD.c: 66:  else
  6728                           
  6729                           
  6730                           ;LCD.c: 67:   RA7 = 0;
  6731  0841  1385               	bcf	5,7	;volatile
  6732  0842                     l183:	
  6733  0842  0008               	return
  6734  0843                     __end_of_Lcd_Port:	
  6735                           
  6736                           	psect	text21
  6737  1720                     __ptext21:	
  6738 ;; *************** function _ADC_INTERRUPT *****************
  6739 ;; Defined at:
  6740 ;;		line 114 in file "ADC.c"
  6741 ;; Parameters:    Size  Location     Type
  6742 ;;		None
  6743 ;; Auto vars:     Size  Location     Type
  6744 ;;		None
  6745 ;; Return value:  Size  Location     Type
  6746 ;;                  1    wreg      void 
  6747 ;; Registers used:
  6748 ;;		None
  6749 ;; Tracked objects:
  6750 ;;		On entry : 0/0
  6751 ;;		On exit  : 0/0
  6752 ;;		Unchanged: 0/0
  6753 ;; Data sizes:     COMMON   BANK0   BANK1   BANK3   BANK2
  6754 ;;      Params:         0       0       0       0       0
  6755 ;;      Locals:         0       0       0       0       0
  6756 ;;      Temps:          0       0       0       0       0
  6757 ;;      Totals:         0       0       0       0       0
  6758 ;;Total ram usage:        0 bytes
  6759 ;; Hardware stack levels used:    1
  6760 ;; Hardware stack levels required when called:    1
  6761 ;; This function calls:
  6762 ;;		Nothing
  6763 ;; This function is called by:
  6764 ;;		_main
  6765 ;; This function uses a non-reentrant model
  6766 ;;
  6767                           
  6768                           
  6769                           ;psect for function _ADC_INTERRUPT
  6770  1720                     _ADC_INTERRUPT:	
  6771  1720                     l2493:	
  6772                           ;incstack = 0
  6773                           ; Regs used in _ADC_INTERRUPT: []
  6774                           
  6775                           
  6776                           ;ADC.c: 115:     PIR1bits.ADIF = 0;
  6777  1720  1283               	bcf	3,5	;RP0=0, select bank0
  6778  1721  1303               	bcf	3,6	;RP1=0, select bank0
  6779  1722  130C               	bcf	12,6	;volatile
  6780                           
  6781                           ;ADC.c: 116:     PIE1bits.ADIE = 1;
  6782  1723  1683               	bsf	3,5	;RP0=1, select bank1
  6783  1724  1303               	bcf	3,6	;RP1=0, select bank1
  6784  1725  170C               	bsf	12,6	;volatile
  6785                           
  6786                           ;ADC.c: 117:     INTCONbits.GIE = 1;
  6787  1726  178B               	bsf	11,7	;volatile
  6788                           
  6789                           ;ADC.c: 118:     INTCONbits.PEIE = 1;
  6790  1727  170B               	bsf	11,6	;volatile
  6791  1728                     l142:	
  6792  1728  0008               	return
  6793  1729                     __end_of_ADC_INTERRUPT:	
  6794                           
  6795                           	psect	text22
  6796  0CA6                     __ptext22:	
  6797 ;; *************** function _ADC_CONFIG *****************
  6798 ;; Defined at:
  6799 ;;		line 12 in file "ADC.c"
  6800 ;; Parameters:    Size  Location     Type
  6801 ;;  canal           1    wreg     unsigned char 
  6802 ;;  justif          1    3[COMMON] unsigned char 
  6803 ;; Auto vars:     Size  Location     Type
  6804 ;;  canal           1    6[COMMON] unsigned char 
  6805 ;; Return value:  Size  Location     Type
  6806 ;;                  1    wreg      void 
  6807 ;; Registers used:
  6808 ;;		wreg, fsr0l, fsr0h, status,2, status,0
  6809 ;; Tracked objects:
  6810 ;;		On entry : 0/0
  6811 ;;		On exit  : 0/0
  6812 ;;		Unchanged: 0/0
  6813 ;; Data sizes:     COMMON   BANK0   BANK1   BANK3   BANK2
  6814 ;;      Params:         1       0       0       0       0
  6815 ;;      Locals:         1       0       0       0       0
  6816 ;;      Temps:          2       0       0       0       0
  6817 ;;      Totals:         4       0       0       0       0
  6818 ;;Total ram usage:        4 bytes
  6819 ;; Hardware stack levels used:    1
  6820 ;; Hardware stack levels required when called:    1
  6821 ;; This function calls:
  6822 ;;		Nothing
  6823 ;; This function is called by:
  6824 ;;		_main
  6825 ;; This function uses a non-reentrant model
  6826 ;;
  6827                           
  6828                           
  6829                           ;psect for function _ADC_CONFIG
  6830  0CA6                     _ADC_CONFIG:	
  6831                           
  6832                           ;incstack = 0
  6833                           ; Regs used in _ADC_CONFIG: [wreg-fsr0h+status,2+status,0]
  6834                           ;ADC_CONFIG@canal stored from wreg
  6835  0CA6  00F6               	movwf	ADC_CONFIG@canal
  6836  0CA7                     l2413:	
  6837                           
  6838                           ;ADC.c: 13:     ADCON0bits.ADON = 1;
  6839  0CA7  1283               	bcf	3,5	;RP0=0, select bank0
  6840  0CA8  1303               	bcf	3,6	;RP1=0, select bank0
  6841  0CA9  141F               	bsf	31,0	;volatile
  6842                           
  6843                           ;ADC.c: 14:     ADCON0bits.GO = 1;
  6844  0CAA  149F               	bsf	31,1	;volatile
  6845  0CAB                     l2415:	
  6846                           
  6847                           ;ADC.c: 15:     ADCON0bits.ADCS = 1;
  6848  0CAB  081F               	movf	31,w	;volatile
  6849  0CAC  393F               	andlw	-193
  6850  0CAD  3840               	iorlw	64
  6851  0CAE  009F               	movwf	31	;volatile
  6852  0CAF                     l2417:	
  6853                           
  6854                           ;ADC.c: 16:     ADCON1bits.VCFG0 = 0;
  6855  0CAF  1683               	bsf	3,5	;RP0=1, select bank1
  6856  0CB0  1303               	bcf	3,6	;RP1=0, select bank1
  6857  0CB1  121F               	bcf	31,4	;volatile
  6858  0CB2                     l2419:	
  6859                           
  6860                           ;ADC.c: 17:     ADCON1bits.VCFG1 = 0;
  6861  0CB2  129F               	bcf	31,5	;volatile
  6862                           
  6863                           ;ADC.c: 19:     switch(canal){
  6864  0CB3  2D68               	goto	l2479
  6865  0CB4                     l120:	
  6866                           ;ADC.c: 20:         case 0:
  6867                           
  6868                           
  6869                           ;ADC.c: 21:             ANSELbits.ANS0 = 1;
  6870  0CB4  1683               	bsf	3,5	;RP0=1, select bank3
  6871  0CB5  1703               	bsf	3,6	;RP1=1, select bank3
  6872  0CB6  1408               	bsf	8,0	;volatile
  6873  0CB7                     l2421:	
  6874                           
  6875                           ;ADC.c: 22:             ADCON0bits.CHS = 0;
  6876  0CB7  30C3               	movlw	-61
  6877  0CB8  1283               	bcf	3,5	;RP0=0, select bank0
  6878  0CB9  1303               	bcf	3,6	;RP1=0, select bank0
  6879  0CBA  059F               	andwf	31,f	;volatile
  6880  0CBB                     l2423:	
  6881                           
  6882                           ;ADC.c: 23:             TRISAbits.TRISA0 = 1;
  6883  0CBB  1683               	bsf	3,5	;RP0=1, select bank1
  6884  0CBC  1303               	bcf	3,6	;RP1=0, select bank1
  6885  0CBD  1405               	bsf	5,0	;volatile
  6886                           
  6887                           ;ADC.c: 24:             break;
  6888  0CBE  2DA0               	goto	l2483
  6889  0CBF                     l122:	
  6890                           ;ADC.c: 26:         case 1:
  6891                           
  6892                           
  6893                           ;ADC.c: 27:             ANSELbits.ANS1 = 1;
  6894  0CBF  1683               	bsf	3,5	;RP0=1, select bank3
  6895  0CC0  1703               	bsf	3,6	;RP1=1, select bank3
  6896  0CC1  1488               	bsf	8,1	;volatile
  6897  0CC2                     l2425:	
  6898                           
  6899                           ;ADC.c: 28:             ADCON0bits.CHS = 1;
  6900  0CC2  1283               	bcf	3,5	;RP0=0, select bank0
  6901  0CC3  1303               	bcf	3,6	;RP1=0, select bank0
  6902  0CC4  081F               	movf	31,w	;volatile
  6903  0CC5  39C3               	andlw	-61
  6904  0CC6  3804               	iorlw	4
  6905  0CC7  009F               	movwf	31	;volatile
  6906  0CC8                     l2427:	
  6907                           
  6908                           ;ADC.c: 29:             TRISAbits.TRISA1 = 1;
  6909  0CC8  1683               	bsf	3,5	;RP0=1, select bank1
  6910  0CC9  1303               	bcf	3,6	;RP1=0, select bank1
  6911  0CCA  1485               	bsf	5,1	;volatile
  6912                           
  6913                           ;ADC.c: 30:             break;
  6914  0CCB  2DA0               	goto	l2483
  6915  0CCC                     l123:	
  6916                           ;ADC.c: 32:         case 2:
  6917                           
  6918                           
  6919                           ;ADC.c: 33:             ANSELbits.ANS2 = 1;
  6920  0CCC  1683               	bsf	3,5	;RP0=1, select bank3
  6921  0CCD  1703               	bsf	3,6	;RP1=1, select bank3
  6922  0CCE  1508               	bsf	8,2	;volatile
  6923  0CCF                     l2429:	
  6924                           
  6925                           ;ADC.c: 34:             ADCON0bits.CHS = 2;
  6926  0CCF  1283               	bcf	3,5	;RP0=0, select bank0
  6927  0CD0  1303               	bcf	3,6	;RP1=0, select bank0
  6928  0CD1  081F               	movf	31,w	;volatile
  6929  0CD2  39C3               	andlw	-61
  6930  0CD3  3808               	iorlw	8
  6931  0CD4  009F               	movwf	31	;volatile
  6932  0CD5                     l2431:	
  6933                           
  6934                           ;ADC.c: 35:             TRISAbits.TRISA2 = 1;
  6935  0CD5  1683               	bsf	3,5	;RP0=1, select bank1
  6936  0CD6  1303               	bcf	3,6	;RP1=0, select bank1
  6937  0CD7  1505               	bsf	5,2	;volatile
  6938                           
  6939                           ;ADC.c: 36:             break;
  6940  0CD8  2DA0               	goto	l2483
  6941  0CD9                     l124:	
  6942                           ;ADC.c: 38:         case 3:
  6943                           
  6944                           
  6945                           ;ADC.c: 39:             ANSELbits.ANS3 = 1;
  6946  0CD9  1683               	bsf	3,5	;RP0=1, select bank3
  6947  0CDA  1703               	bsf	3,6	;RP1=1, select bank3
  6948  0CDB  1588               	bsf	8,3	;volatile
  6949  0CDC                     l2433:	
  6950                           
  6951                           ;ADC.c: 40:             ADCON0bits.CHS = 3;
  6952  0CDC  1283               	bcf	3,5	;RP0=0, select bank0
  6953  0CDD  1303               	bcf	3,6	;RP1=0, select bank0
  6954  0CDE  081F               	movf	31,w	;volatile
  6955  0CDF  39C3               	andlw	-61
  6956  0CE0  380C               	iorlw	12
  6957  0CE1  009F               	movwf	31	;volatile
  6958  0CE2                     l2435:	
  6959                           
  6960                           ;ADC.c: 41:             TRISAbits.TRISA3 = 1;
  6961  0CE2  1683               	bsf	3,5	;RP0=1, select bank1
  6962  0CE3  1303               	bcf	3,6	;RP1=0, select bank1
  6963  0CE4  1585               	bsf	5,3	;volatile
  6964                           
  6965                           ;ADC.c: 42:             break;
  6966  0CE5  2DA0               	goto	l2483
  6967  0CE6                     l125:	
  6968                           ;ADC.c: 44:         case 4:
  6969                           
  6970                           
  6971                           ;ADC.c: 45:             ANSELbits.ANS4 = 1;
  6972  0CE6  1683               	bsf	3,5	;RP0=1, select bank3
  6973  0CE7  1703               	bsf	3,6	;RP1=1, select bank3
  6974  0CE8  1608               	bsf	8,4	;volatile
  6975  0CE9                     l2437:	
  6976                           
  6977                           ;ADC.c: 46:             ADCON0bits.CHS = 4;
  6978  0CE9  1283               	bcf	3,5	;RP0=0, select bank0
  6979  0CEA  1303               	bcf	3,6	;RP1=0, select bank0
  6980  0CEB  081F               	movf	31,w	;volatile
  6981  0CEC  39C3               	andlw	-61
  6982  0CED  3810               	iorlw	16
  6983  0CEE  009F               	movwf	31	;volatile
  6984  0CEF                     l2439:	
  6985                           
  6986                           ;ADC.c: 47:             TRISAbits.TRISA5 = 1;
  6987  0CEF  1683               	bsf	3,5	;RP0=1, select bank1
  6988  0CF0  1303               	bcf	3,6	;RP1=0, select bank1
  6989  0CF1  1685               	bsf	5,5	;volatile
  6990                           
  6991                           ;ADC.c: 48:             break;
  6992  0CF2  2DA0               	goto	l2483
  6993  0CF3                     l126:	
  6994                           ;ADC.c: 50:         case 5:
  6995                           
  6996                           
  6997                           ;ADC.c: 51:             ANSELbits.ANS5 = 1;
  6998  0CF3  1683               	bsf	3,5	;RP0=1, select bank3
  6999  0CF4  1703               	bsf	3,6	;RP1=1, select bank3
  7000  0CF5  1688               	bsf	8,5	;volatile
  7001  0CF6                     l2441:	
  7002                           
  7003                           ;ADC.c: 52:             ADCON0bits.CHS = 5;
  7004  0CF6  1283               	bcf	3,5	;RP0=0, select bank0
  7005  0CF7  1303               	bcf	3,6	;RP1=0, select bank0
  7006  0CF8  081F               	movf	31,w	;volatile
  7007  0CF9  39C3               	andlw	-61
  7008  0CFA  3814               	iorlw	20
  7009  0CFB  009F               	movwf	31	;volatile
  7010  0CFC                     l2443:	
  7011                           
  7012                           ;ADC.c: 53:             TRISEbits.TRISE0 = 1;
  7013  0CFC  1683               	bsf	3,5	;RP0=1, select bank1
  7014  0CFD  1303               	bcf	3,6	;RP1=0, select bank1
  7015  0CFE  1409               	bsf	9,0	;volatile
  7016                           
  7017                           ;ADC.c: 54:             break;
  7018  0CFF  2DA0               	goto	l2483
  7019  0D00                     l127:	
  7020                           ;ADC.c: 56:         case 6:
  7021                           
  7022                           
  7023                           ;ADC.c: 57:             ANSELbits.ANS6 = 1;
  7024  0D00  1683               	bsf	3,5	;RP0=1, select bank3
  7025  0D01  1703               	bsf	3,6	;RP1=1, select bank3
  7026  0D02  1708               	bsf	8,6	;volatile
  7027  0D03                     l2445:	
  7028                           
  7029                           ;ADC.c: 58:             ADCON0bits.CHS = 6;
  7030  0D03  1283               	bcf	3,5	;RP0=0, select bank0
  7031  0D04  1303               	bcf	3,6	;RP1=0, select bank0
  7032  0D05  081F               	movf	31,w	;volatile
  7033  0D06  39C3               	andlw	-61
  7034  0D07  3818               	iorlw	24
  7035  0D08  009F               	movwf	31	;volatile
  7036  0D09                     l2447:	
  7037                           
  7038                           ;ADC.c: 59:             TRISEbits.TRISE1 = 1;
  7039  0D09  1683               	bsf	3,5	;RP0=1, select bank1
  7040  0D0A  1303               	bcf	3,6	;RP1=0, select bank1
  7041  0D0B  1489               	bsf	9,1	;volatile
  7042                           
  7043                           ;ADC.c: 60:             break;
  7044  0D0C  2DA0               	goto	l2483
  7045  0D0D                     l128:	
  7046                           ;ADC.c: 62:         case 7:
  7047                           
  7048                           
  7049                           ;ADC.c: 63:             ANSELbits.ANS7 = 1;
  7050  0D0D  1683               	bsf	3,5	;RP0=1, select bank3
  7051  0D0E  1703               	bsf	3,6	;RP1=1, select bank3
  7052  0D0F  1788               	bsf	8,7	;volatile
  7053  0D10                     l2449:	
  7054                           
  7055                           ;ADC.c: 64:             ADCON0bits.CHS = 7;
  7056  0D10  1283               	bcf	3,5	;RP0=0, select bank0
  7057  0D11  1303               	bcf	3,6	;RP1=0, select bank0
  7058  0D12  081F               	movf	31,w	;volatile
  7059  0D13  39C3               	andlw	-61
  7060  0D14  381C               	iorlw	28
  7061  0D15  009F               	movwf	31	;volatile
  7062  0D16                     l2451:	
  7063                           
  7064                           ;ADC.c: 65:             TRISEbits.TRISE2 = 1;
  7065  0D16  1683               	bsf	3,5	;RP0=1, select bank1
  7066  0D17  1303               	bcf	3,6	;RP1=0, select bank1
  7067  0D18  1509               	bsf	9,2	;volatile
  7068                           
  7069                           ;ADC.c: 66:             break;
  7070  0D19  2DA0               	goto	l2483
  7071  0D1A                     l129:	
  7072                           ;ADC.c: 68:         case 8:
  7073                           
  7074                           
  7075                           ;ADC.c: 69:             ANSELHbits.ANS8 = 1;
  7076  0D1A  1683               	bsf	3,5	;RP0=1, select bank3
  7077  0D1B  1703               	bsf	3,6	;RP1=1, select bank3
  7078  0D1C  1409               	bsf	9,0	;volatile
  7079  0D1D                     l2453:	
  7080                           
  7081                           ;ADC.c: 70:             ADCON0bits.CHS = 8;
  7082  0D1D  1283               	bcf	3,5	;RP0=0, select bank0
  7083  0D1E  1303               	bcf	3,6	;RP1=0, select bank0
  7084  0D1F  081F               	movf	31,w	;volatile
  7085  0D20  39C3               	andlw	-61
  7086  0D21  3820               	iorlw	32
  7087  0D22  009F               	movwf	31	;volatile
  7088  0D23                     l2455:	
  7089                           
  7090                           ;ADC.c: 71:             TRISBbits.TRISB2 = 1;
  7091  0D23  1683               	bsf	3,5	;RP0=1, select bank1
  7092  0D24  1303               	bcf	3,6	;RP1=0, select bank1
  7093  0D25  1506               	bsf	6,2	;volatile
  7094                           
  7095                           ;ADC.c: 72:             break;
  7096  0D26  2DA0               	goto	l2483
  7097  0D27                     l130:	
  7098                           ;ADC.c: 74:         case 9:
  7099                           
  7100                           
  7101                           ;ADC.c: 75:             ANSELHbits.ANS9 = 1;
  7102  0D27  1683               	bsf	3,5	;RP0=1, select bank3
  7103  0D28  1703               	bsf	3,6	;RP1=1, select bank3
  7104  0D29  1489               	bsf	9,1	;volatile
  7105  0D2A                     l2457:	
  7106                           
  7107                           ;ADC.c: 76:             ADCON0bits.CHS = 9;
  7108  0D2A  1283               	bcf	3,5	;RP0=0, select bank0
  7109  0D2B  1303               	bcf	3,6	;RP1=0, select bank0
  7110  0D2C  081F               	movf	31,w	;volatile
  7111  0D2D  39C3               	andlw	-61
  7112  0D2E  3824               	iorlw	36
  7113  0D2F  009F               	movwf	31	;volatile
  7114  0D30                     l2459:	
  7115                           
  7116                           ;ADC.c: 77:             TRISBbits.TRISB3 = 1;
  7117  0D30  1683               	bsf	3,5	;RP0=1, select bank1
  7118  0D31  1303               	bcf	3,6	;RP1=0, select bank1
  7119  0D32  1586               	bsf	6,3	;volatile
  7120                           
  7121                           ;ADC.c: 78:             break;
  7122  0D33  2DA0               	goto	l2483
  7123  0D34                     l131:	
  7124                           ;ADC.c: 80:         case 10:
  7125                           
  7126                           
  7127                           ;ADC.c: 81:             ANSELHbits.ANS10 = 1;
  7128  0D34  1683               	bsf	3,5	;RP0=1, select bank3
  7129  0D35  1703               	bsf	3,6	;RP1=1, select bank3
  7130  0D36  1509               	bsf	9,2	;volatile
  7131  0D37                     l2461:	
  7132                           
  7133                           ;ADC.c: 82:             ADCON0bits.CHS = 10;
  7134  0D37  1283               	bcf	3,5	;RP0=0, select bank0
  7135  0D38  1303               	bcf	3,6	;RP1=0, select bank0
  7136  0D39  081F               	movf	31,w	;volatile
  7137  0D3A  39C3               	andlw	-61
  7138  0D3B  3828               	iorlw	40
  7139  0D3C  009F               	movwf	31	;volatile
  7140  0D3D                     l2463:	
  7141                           
  7142                           ;ADC.c: 83:             TRISBbits.TRISB1 = 1;
  7143  0D3D  1683               	bsf	3,5	;RP0=1, select bank1
  7144  0D3E  1303               	bcf	3,6	;RP1=0, select bank1
  7145  0D3F  1486               	bsf	6,1	;volatile
  7146                           
  7147                           ;ADC.c: 84:             break;
  7148  0D40  2DA0               	goto	l2483
  7149  0D41                     l132:	
  7150                           ;ADC.c: 86:         case 11:
  7151                           
  7152                           
  7153                           ;ADC.c: 87:             ANSELHbits.ANS11 = 1;
  7154  0D41  1683               	bsf	3,5	;RP0=1, select bank3
  7155  0D42  1703               	bsf	3,6	;RP1=1, select bank3
  7156  0D43  1589               	bsf	9,3	;volatile
  7157  0D44                     l2465:	
  7158                           
  7159                           ;ADC.c: 88:             ADCON0bits.CHS = 11;
  7160  0D44  1283               	bcf	3,5	;RP0=0, select bank0
  7161  0D45  1303               	bcf	3,6	;RP1=0, select bank0
  7162  0D46  081F               	movf	31,w	;volatile
  7163  0D47  39C3               	andlw	-61
  7164  0D48  382C               	iorlw	44
  7165  0D49  009F               	movwf	31	;volatile
  7166  0D4A                     l2467:	
  7167                           
  7168                           ;ADC.c: 89:             TRISBbits.TRISB4 = 1;
  7169  0D4A  1683               	bsf	3,5	;RP0=1, select bank1
  7170  0D4B  1303               	bcf	3,6	;RP1=0, select bank1
  7171  0D4C  1606               	bsf	6,4	;volatile
  7172                           
  7173                           ;ADC.c: 90:             break;
  7174  0D4D  2DA0               	goto	l2483
  7175  0D4E                     l133:	
  7176                           ;ADC.c: 92:         case 12:
  7177                           
  7178                           
  7179                           ;ADC.c: 93:             ANSELHbits.ANS12 = 1;
  7180  0D4E  1683               	bsf	3,5	;RP0=1, select bank3
  7181  0D4F  1703               	bsf	3,6	;RP1=1, select bank3
  7182  0D50  1609               	bsf	9,4	;volatile
  7183  0D51                     l2469:	
  7184                           
  7185                           ;ADC.c: 94:             ADCON0bits.CHS = 12;
  7186  0D51  1283               	bcf	3,5	;RP0=0, select bank0
  7187  0D52  1303               	bcf	3,6	;RP1=0, select bank0
  7188  0D53  081F               	movf	31,w	;volatile
  7189  0D54  39C3               	andlw	-61
  7190  0D55  3830               	iorlw	48
  7191  0D56  009F               	movwf	31	;volatile
  7192  0D57                     l2471:	
  7193                           
  7194                           ;ADC.c: 95:             TRISBbits.TRISB0 = 1;
  7195  0D57  1683               	bsf	3,5	;RP0=1, select bank1
  7196  0D58  1303               	bcf	3,6	;RP1=0, select bank1
  7197  0D59  1406               	bsf	6,0	;volatile
  7198                           
  7199                           ;ADC.c: 96:             break;
  7200  0D5A  2DA0               	goto	l2483
  7201  0D5B                     l134:	
  7202                           ;ADC.c: 98:         case 13:
  7203                           
  7204                           
  7205                           ;ADC.c: 99:             ANSELHbits.ANS13 = 1;
  7206  0D5B  1683               	bsf	3,5	;RP0=1, select bank3
  7207  0D5C  1703               	bsf	3,6	;RP1=1, select bank3
  7208  0D5D  1689               	bsf	9,5	;volatile
  7209  0D5E                     l2473:	
  7210                           
  7211                           ;ADC.c: 100:             ADCON0bits.CHS = 13;
  7212  0D5E  1283               	bcf	3,5	;RP0=0, select bank0
  7213  0D5F  1303               	bcf	3,6	;RP1=0, select bank0
  7214  0D60  081F               	movf	31,w	;volatile
  7215  0D61  39C3               	andlw	-61
  7216  0D62  3834               	iorlw	52
  7217  0D63  009F               	movwf	31	;volatile
  7218  0D64                     l2475:	
  7219                           
  7220                           ;ADC.c: 101:             TRISBbits.TRISB5 = 1;
  7221  0D64  1683               	bsf	3,5	;RP0=1, select bank1
  7222  0D65  1303               	bcf	3,6	;RP1=0, select bank1
  7223  0D66  1686               	bsf	6,5	;volatile
  7224                           
  7225                           ;ADC.c: 102:             break;
  7226  0D67  2DA0               	goto	l2483
  7227  0D68                     l2479:	
  7228  0D68  0876               	movf	ADC_CONFIG@canal,w
  7229  0D69  00F4               	movwf	??_ADC_CONFIG
  7230  0D6A  01F5               	clrf	??_ADC_CONFIG+1
  7231                           
  7232                           ; Switch on 2 bytes has been partitioned into a top level switch of size 1, and 1 sub-sw
      +                          itches
  7233                           ; Switch size 1, requested type "simple"
  7234                           ; Number of cases is 1, Range of values is 0 to 0
  7235                           ; switch strategies available:
  7236                           ; Name         Instructions Cycles
  7237                           ; simple_byte            4     3 (average)
  7238                           ; direct_byte           11     8 (fixed)
  7239                           ; jumptable            260     6 (fixed)
  7240                           ;	Chosen strategy is simple_byte
  7241  0D6B  0875               	movf	??_ADC_CONFIG+1,w
  7242  0D6C  3A00               	xorlw	0	; case 0
  7243  0D6D  1903               	skipnz
  7244  0D6E  2D70               	goto	l3181
  7245  0D6F  2DA0               	goto	l2483
  7246  0D70                     l3181:	
  7247                           
  7248                           ; Switch size 1, requested type "simple"
  7249                           ; Number of cases is 14, Range of values is 0 to 13
  7250                           ; switch strategies available:
  7251                           ; Name         Instructions Cycles
  7252                           ; simple_byte           43    22 (average)
  7253                           ; direct_byte           50     8 (fixed)
  7254                           ; jumptable            260     6 (fixed)
  7255                           ;	Chosen strategy is simple_byte
  7256  0D70  0874               	movf	??_ADC_CONFIG,w
  7257  0D71  3A00               	xorlw	0	; case 0
  7258  0D72  1903               	skipnz
  7259  0D73  2CB4               	goto	l120
  7260  0D74  3A01               	xorlw	1	; case 1
  7261  0D75  1903               	skipnz
  7262  0D76  2CBF               	goto	l122
  7263  0D77  3A03               	xorlw	3	; case 2
  7264  0D78  1903               	skipnz
  7265  0D79  2CCC               	goto	l123
  7266  0D7A  3A01               	xorlw	1	; case 3
  7267  0D7B  1903               	skipnz
  7268  0D7C  2CD9               	goto	l124
  7269  0D7D  3A07               	xorlw	7	; case 4
  7270  0D7E  1903               	skipnz
  7271  0D7F  2CE6               	goto	l125
  7272  0D80  3A01               	xorlw	1	; case 5
  7273  0D81  1903               	skipnz
  7274  0D82  2CF3               	goto	l126
  7275  0D83  3A03               	xorlw	3	; case 6
  7276  0D84  1903               	skipnz
  7277  0D85  2D00               	goto	l127
  7278  0D86  3A01               	xorlw	1	; case 7
  7279  0D87  1903               	skipnz
  7280  0D88  2D0D               	goto	l128
  7281  0D89  3A0F               	xorlw	15	; case 8
  7282  0D8A  1903               	skipnz
  7283  0D8B  2D1A               	goto	l129
  7284  0D8C  3A01               	xorlw	1	; case 9
  7285  0D8D  1903               	skipnz
  7286  0D8E  2D27               	goto	l130
  7287  0D8F  3A03               	xorlw	3	; case 10
  7288  0D90  1903               	skipnz
  7289  0D91  2D34               	goto	l131
  7290  0D92  3A01               	xorlw	1	; case 11
  7291  0D93  1903               	skipnz
  7292  0D94  2D41               	goto	l132
  7293  0D95  3A07               	xorlw	7	; case 12
  7294  0D96  1903               	skipnz
  7295  0D97  2D4E               	goto	l133
  7296  0D98  3A01               	xorlw	1	; case 13
  7297  0D99  1903               	skipnz
  7298  0D9A  2D5B               	goto	l134
  7299  0D9B  2DA0               	goto	l2483
  7300  0D9C                     l136:	
  7301                           ;ADC.c: 105:         case 0:
  7302                           
  7303                           
  7304                           ;ADC.c: 106:             ADCON1bits.ADFM = 0;
  7305  0D9C  139F               	bcf	31,7	;volatile
  7306                           
  7307                           ;ADC.c: 107:             break;
  7308  0D9D  2DB0               	goto	l139
  7309  0D9E                     l138:	
  7310                           ;ADC.c: 108:         case 1:
  7311                           
  7312                           
  7313                           ;ADC.c: 109:             ADCON1bits.ADFM = 1;
  7314  0D9E  179F               	bsf	31,7	;volatile
  7315                           
  7316                           ;ADC.c: 110:             break;
  7317  0D9F  2DB0               	goto	l139
  7318  0DA0                     l2483:	
  7319  0DA0  0873               	movf	ADC_CONFIG@justif,w
  7320  0DA1  00F4               	movwf	??_ADC_CONFIG
  7321  0DA2  01F5               	clrf	??_ADC_CONFIG+1
  7322                           
  7323                           ; Switch on 2 bytes has been partitioned into a top level switch of size 1, and 1 sub-sw
      +                          itches
  7324                           ; Switch size 1, requested type "simple"
  7325                           ; Number of cases is 1, Range of values is 0 to 0
  7326                           ; switch strategies available:
  7327                           ; Name         Instructions Cycles
  7328                           ; simple_byte            4     3 (average)
  7329                           ; direct_byte           11     8 (fixed)
  7330                           ; jumptable            260     6 (fixed)
  7331                           ;	Chosen strategy is simple_byte
  7332  0DA3  0875               	movf	??_ADC_CONFIG+1,w
  7333  0DA4  3A00               	xorlw	0	; case 0
  7334  0DA5  1903               	skipnz
  7335  0DA6  2DA8               	goto	l3183
  7336  0DA7  2DB0               	goto	l139
  7337  0DA8                     l3183:	
  7338                           
  7339                           ; Switch size 1, requested type "simple"
  7340                           ; Number of cases is 2, Range of values is 0 to 1
  7341                           ; switch strategies available:
  7342                           ; Name         Instructions Cycles
  7343                           ; simple_byte            7     4 (average)
  7344                           ; direct_byte           14     8 (fixed)
  7345                           ; jumptable            260     6 (fixed)
  7346                           ;	Chosen strategy is simple_byte
  7347  0DA8  0874               	movf	??_ADC_CONFIG,w
  7348  0DA9  3A00               	xorlw	0	; case 0
  7349  0DAA  1903               	skipnz
  7350  0DAB  2D9C               	goto	l136
  7351  0DAC  3A01               	xorlw	1	; case 1
  7352  0DAD  1903               	skipnz
  7353  0DAE  2D9E               	goto	l138
  7354  0DAF  2DB0               	goto	l139
  7355  0DB0                     l139:	
  7356  0DB0  0008               	return
  7357  0DB1                     __end_of_ADC_CONFIG:	
  7358                           
  7359                           	psect	text23
  7360  1754                     __ptext23:	
  7361 ;; *************** function _ISR *****************
  7362 ;; Defined at:
  7363 ;;		line 54 in file "parteD.c"
  7364 ;; Parameters:    Size  Location     Type
  7365 ;;		None
  7366 ;; Auto vars:     Size  Location     Type
  7367 ;;		None
  7368 ;; Return value:  Size  Location     Type
  7369 ;;                  1    wreg      void 
  7370 ;; Registers used:
  7371 ;;		wreg
  7372 ;; Tracked objects:
  7373 ;;		On entry : 0/0
  7374 ;;		On exit  : 0/0
  7375 ;;		Unchanged: 0/0
  7376 ;; Data sizes:     COMMON   BANK0   BANK1   BANK3   BANK2
  7377 ;;      Params:         0       0       0       0       0
  7378 ;;      Locals:         0       0       0       0       0
  7379 ;;      Temps:          3       0       0       0       0
  7380 ;;      Totals:         3       0       0       0       0
  7381 ;;Total ram usage:        3 bytes
  7382 ;; Hardware stack levels used:    1
  7383 ;; This function calls:
  7384 ;;		Nothing
  7385 ;; This function is called by:
  7386 ;;		Interrupt level 1
  7387 ;; This function uses a non-reentrant model
  7388 ;;
  7389                           
  7390                           
  7391                           ;psect for function _ISR
  7392  1754                     _ISR:	
  7393  1754                     i1l2701:	
  7394                           
  7395                           ;parteD.c: 55:     if(PIR1bits.ADIF == 1){
  7396  1754  1283               	bcf	3,5	;RP0=0, select bank0
  7397  1755  1303               	bcf	3,6	;RP1=0, select bank0
  7398  1756  1F0C               	btfss	12,6	;volatile
  7399  1757  2F59               	goto	u344_21
  7400  1758  2F5A               	goto	u344_20
  7401  1759                     u344_21:	
  7402  1759  2F64               	goto	i1l56
  7403  175A                     u344_20:	
  7404  175A                     i1l2703:	
  7405                           
  7406                           ;parteD.c: 56:         adc1 = ADRESH;
  7407  175A  081E               	movf	30,w	;volatile
  7408  175B  00F0               	movwf	??_ISR
  7409  175C  0870               	movf	??_ISR,w
  7410  175D  1683               	bsf	3,5	;RP0=1, select bank1
  7411  175E  1303               	bcf	3,6	;RP1=0, select bank1
  7412  175F  00CE               	movwf	_adc1^(0+128)
  7413  1760                     i1l2705:	
  7414                           
  7415                           ;parteD.c: 57:         ADIF = 0;
  7416  1760  1283               	bcf	3,5	;RP0=0, select bank0
  7417  1761  1303               	bcf	3,6	;RP1=0, select bank0
  7418  1762  130C               	bcf	12,6	;volatile
  7419  1763                     i1l2707:	
  7420                           
  7421                           ;parteD.c: 58:         ADCON0bits.GO = 1;
  7422  1763  149F               	bsf	31,1	;volatile
  7423  1764                     i1l56:	
  7424  1764  0872               	movf	??_ISR+2,w
  7425  1765  008A               	movwf	10
  7426  1766  0E71               	swapf	(??_ISR+1)^(0+4294967168),w
  7427  1767  0083               	movwf	3
  7428  1768  0EFE               	swapf	btemp,f
  7429  1769  0E7E               	swapf	btemp,w
  7430  176A  0009               	retfie
  7431  176B                     __end_of_ISR:	
  7432  007E                     btemp	set	126	;btemp
  7433  007E                     wtemp0	set	126
  7434                           
  7435                           	psect	intentry
  7436  0004                     __pintentry:	
  7437                           ;incstack = 0
  7438                           ; Regs used in _ISR: [wreg]
  7439                           
  7440  0004                     interrupt_function:	
  7441  007E                     saved_w	set	btemp
  7442  0004  00FE               	movwf	btemp
  7443  0005  0E03               	swapf	3,w
  7444  0006  00F1               	movwf	??_ISR+1
  7445  0007  080A               	movf	10,w
  7446  0008  00F2               	movwf	??_ISR+2
  7447  0009  160A  118A  2F54   	ljmp	_ISR


Data Sizes:
    Strings     14
    Constant    0
    Data        0
    BSS         8
    Persistent  0
    Stack       0

Auto Spaces:
    Space          Size  Autos    Used
    COMMON           14      9      11
    BANK0            80     80      80
    BANK1            80     41      47
    BANK3            96      0       0
    BANK2            96      0       0

Pointer List with Targets:

    Lcd_Write_String@a	PTR unsigned char  size(2) Largest target is 6
		 -> main@s1(BANK1[5]), STR_3(CODE[4]), STR_2(CODE[4]), STR_1(CODE[6]), 


Critical Paths under _main in COMMON

    _main->_Lcd_Init
    _main->_Lcd_Set_Cursor
    _b1->___wmul
    _b0->___wmul
    ___xxtofl->___wmul
    ___fltol->___wmul
    ___flsub->___wmul
    _Lcd_Write_String->_Lcd_Write_Char
    _Lcd_Write_Char->_Lcd_Port
    _Lcd_Set_Cursor->_Lcd_Cmd
    _Lcd_Init->_Lcd_Cmd
    _Lcd_Cmd->_Lcd_Port

Critical Paths under _ISR in COMMON

    None.

Critical Paths under _main in BANK0

    _main->_b2
    _b2->___fltol
    _b1->___fltol
    _b0->___fltol
    ___fltol->___flsub
    ___flsub->___fladd
    ___fladd->___flmul
    ___flmul->___xxtofl

Critical Paths under _ISR in BANK0

    None.

Critical Paths under _main in BANK1

    _main->_b0

Critical Paths under _ISR in BANK1

    None.

Critical Paths under _main in BANK3

    None.

Critical Paths under _ISR in BANK3

    None.

Critical Paths under _main in BANK2

    None.

Critical Paths under _ISR in BANK2

    None.

Call Graph Tables:

 ---------------------------------------------------------------------------------
 (Depth) Function   	        Calls       Base Space   Used Autos Params    Refs
 ---------------------------------------------------------------------------------
 (0) _main                                                33    33      0   28627
                                             12 BANK1     29    29      0
                         _ADC_CONFIG
                      _ADC_INTERRUPT
                           _Lcd_Init
                     _Lcd_Set_Cursor
                   _Lcd_Write_String
                            ___awdiv
                            ___fladd
                            ___flmul
                            ___fltol
                           ___xxtofl
                                 _b0
                                 _b1
                                 _b2
 ---------------------------------------------------------------------------------
 (1) _b2                                                  11     7      4    3151
                                             79 BANK0      1     1      0
                                              0 BANK1      6     2      4
                            ___fldiv
                            ___fltol
                           ___xxtofl (ARG)
                           _num_case
 ---------------------------------------------------------------------------------
 (1) _b1                                                  11     7      4    7969
                                              0 BANK1     11     7      4
                            ___awdiv
                            ___fldiv
                            ___flsub
                            ___fltol
                             ___wmul
                           ___xxtofl
                           _num_case
 ---------------------------------------------------------------------------------
 (1) _b0                                                  12     8      4    8202
                                              0 BANK1     12     8      4
                            ___awdiv
                             ___bmul
                            ___fldiv
                            ___flsub
                            ___fltol
                             ___wmul
                           ___xxtofl
                           _num_case
 ---------------------------------------------------------------------------------
 (2) _num_case                                             4     4      0      54
                                              3 COMMON     4     4      0
 ---------------------------------------------------------------------------------
 (2) ___xxtofl                                            14    10      4     778
                                              0 BANK0     14    10      4
                             ___wmul (ARG)
 ---------------------------------------------------------------------------------
 (2) ___wmul                                               6     2      4     396
                                              3 COMMON     6     2      4
 ---------------------------------------------------------------------------------
 (2) ___fltol                                             11     7      4     685
                                             68 BANK0     11     7      4
                            ___fladd (ARG)
                            ___fldiv (ARG)
                            ___flmul (ARG)
                            ___flsub (ARG)
                             ___wmul (ARG)
                           ___xxtofl (ARG)
 ---------------------------------------------------------------------------------
 (2) ___flsub                                              8     0      8    2789
                                             60 BANK0      8     0      8
                            ___fladd
                             ___wmul (ARG)
                           ___xxtofl (ARG)
 ---------------------------------------------------------------------------------
 (3) ___fladd                                             20    12      8    2440
                                             40 BANK0     20    12      8
                            ___flmul (ARG)
                           ___xxtofl (ARG)
 ---------------------------------------------------------------------------------
 (2) ___fldiv                                             26    18      8    2223
                                              3 COMMON     5     5      0
                                              0 BANK0     21    13      8
 ---------------------------------------------------------------------------------
 (2) ___bmul                                               4     3      1     168
                                              3 COMMON     4     3      1
 ---------------------------------------------------------------------------------
 (2) ___awdiv                                              9     5      4     756
                                              3 COMMON     5     1      4
                                              0 BANK0      4     4      0
 ---------------------------------------------------------------------------------
 (1) ___flmul                                             26    18      8    2417
                                             14 BANK0     26    18      8
                          __Umul8_16
                           ___xxtofl (ARG)
 ---------------------------------------------------------------------------------
 (2) __Umul8_16                                            9     7      2     799
                                              3 COMMON     4     2      2
                                              0 BANK0      5     5      0
 ---------------------------------------------------------------------------------
 (1) _Lcd_Write_String                                     7     5      2     688
                                              6 COMMON     2     0      2
                                              0 BANK0      5     5      0
                     _Lcd_Write_Char
 ---------------------------------------------------------------------------------
 (2) _Lcd_Write_Char                                       2     2      0     198
                                              4 COMMON     2     2      0
                           _Lcd_Port
 ---------------------------------------------------------------------------------
 (1) _Lcd_Set_Cursor                                       2     1      1     590
                                              7 COMMON     2     1      1
                            _Lcd_Cmd
 ---------------------------------------------------------------------------------
 (1) _Lcd_Init                                             2     2      0     198
                                              7 COMMON     2     2      0
                            _Lcd_Cmd
 ---------------------------------------------------------------------------------
 (2) _Lcd_Cmd                                              3     3      0     198
                                              4 COMMON     3     3      0
                           _Lcd_Port
 ---------------------------------------------------------------------------------
 (3) _Lcd_Port                                             1     1      0     176
                                              3 COMMON     1     1      0
 ---------------------------------------------------------------------------------
 (1) _ADC_INTERRUPT                                        0     0      0       0
 ---------------------------------------------------------------------------------
 (1) _ADC_CONFIG                                           4     3      1     120
                                              3 COMMON     4     3      1
 ---------------------------------------------------------------------------------
 Estimated maximum stack depth 3
 ---------------------------------------------------------------------------------
 (Depth) Function   	        Calls       Base Space   Used Autos Params    Refs
 ---------------------------------------------------------------------------------
 (4) _ISR                                                  3     3      0       0
                                              0 COMMON     3     3      0
 ---------------------------------------------------------------------------------
 Estimated maximum stack depth 4
 ---------------------------------------------------------------------------------

 Call Graph Graphs:

 _main (ROOT)
   _ADC_CONFIG
   _ADC_INTERRUPT
   _Lcd_Init
     _Lcd_Cmd
       _Lcd_Port
   _Lcd_Set_Cursor
     _Lcd_Cmd
       _Lcd_Port
   _Lcd_Write_String
     _Lcd_Write_Char
       _Lcd_Port
   ___awdiv
   ___fladd
     ___flmul (ARG)
       __Umul8_16
       ___xxtofl (ARG)
         ___wmul (ARG)
     ___xxtofl (ARG)
       ___wmul (ARG)
   ___flmul
     __Umul8_16
     ___xxtofl (ARG)
       ___wmul (ARG)
   ___fltol
     ___fladd (ARG)
       ___flmul (ARG)
         __Umul8_16
         ___xxtofl (ARG)
           ___wmul (ARG)
       ___xxtofl (ARG)
         ___wmul (ARG)
     ___fldiv (ARG)
     ___flmul (ARG)
       __Umul8_16
       ___xxtofl (ARG)
         ___wmul (ARG)
     ___flsub (ARG)
       ___fladd
         ___flmul (ARG)
           __Umul8_16
           ___xxtofl (ARG)
             ___wmul (ARG)
         ___xxtofl (ARG)
           ___wmul (ARG)
       ___wmul (ARG)
       ___xxtofl (ARG)
         ___wmul (ARG)
     ___wmul (ARG)
     ___xxtofl (ARG)
       ___wmul (ARG)
   ___xxtofl
     ___wmul (ARG)
   _b0
     ___awdiv
     ___bmul
     ___fldiv
     ___flsub
       ___fladd
         ___flmul (ARG)
           __Umul8_16
           ___xxtofl (ARG)
             ___wmul (ARG)
         ___xxtofl (ARG)
           ___wmul (ARG)
       ___wmul (ARG)
       ___xxtofl (ARG)
         ___wmul (ARG)
     ___fltol
       ___fladd (ARG)
         ___flmul (ARG)
           __Umul8_16
           ___xxtofl (ARG)
             ___wmul (ARG)
         ___xxtofl (ARG)
           ___wmul (ARG)
       ___fldiv (ARG)
       ___flmul (ARG)
         __Umul8_16
         ___xxtofl (ARG)
           ___wmul (ARG)
       ___flsub (ARG)
         ___fladd
           ___flmul (ARG)
             __Umul8_16
             ___xxtofl (ARG)
               ___wmul (ARG)
           ___xxtofl (ARG)
             ___wmul (ARG)
         ___wmul (ARG)
         ___xxtofl (ARG)
           ___wmul (ARG)
       ___wmul (ARG)
       ___xxtofl (ARG)
         ___wmul (ARG)
     ___wmul
     ___xxtofl
       ___wmul (ARG)
     _num_case
   _b1
     ___awdiv
     ___fldiv
     ___flsub
       ___fladd
         ___flmul (ARG)
           __Umul8_16
           ___xxtofl (ARG)
             ___wmul (ARG)
         ___xxtofl (ARG)
           ___wmul (ARG)
       ___wmul (ARG)
       ___xxtofl (ARG)
         ___wmul (ARG)
     ___fltol
       ___fladd (ARG)
         ___flmul (ARG)
           __Umul8_16
           ___xxtofl (ARG)
             ___wmul (ARG)
         ___xxtofl (ARG)
           ___wmul (ARG)
       ___fldiv (ARG)
       ___flmul (ARG)
         __Umul8_16
         ___xxtofl (ARG)
           ___wmul (ARG)
       ___flsub (ARG)
         ___fladd
           ___flmul (ARG)
             __Umul8_16
             ___xxtofl (ARG)
               ___wmul (ARG)
           ___xxtofl (ARG)
             ___wmul (ARG)
         ___wmul (ARG)
         ___xxtofl (ARG)
           ___wmul (ARG)
       ___wmul (ARG)
       ___xxtofl (ARG)
         ___wmul (ARG)
     ___wmul
     ___xxtofl
       ___wmul (ARG)
     _num_case
   _b2
     ___fldiv
     ___fltol
       ___fladd (ARG)
         ___flmul (ARG)
           __Umul8_16
           ___xxtofl (ARG)
             ___wmul (ARG)
         ___xxtofl (ARG)
           ___wmul (ARG)
       ___fldiv (ARG)
       ___flmul (ARG)
         __Umul8_16
         ___xxtofl (ARG)
           ___wmul (ARG)
       ___flsub (ARG)
         ___fladd
           ___flmul (ARG)
             __Umul8_16
             ___xxtofl (ARG)
               ___wmul (ARG)
           ___xxtofl (ARG)
             ___wmul (ARG)
         ___wmul (ARG)
         ___xxtofl (ARG)
           ___wmul (ARG)
       ___wmul (ARG)
       ___xxtofl (ARG)
         ___wmul (ARG)
     ___xxtofl (ARG)
       ___wmul (ARG)
     _num_case (ARG)

 _ISR (ROOT)

 Address spaces:
Name               Size   Autos  Total    Cost      Usage
BITCOMMON            E      0       0       0        0.0%
EEDATA             100      0       0       0        0.0%
NULL                 0      0       0       0        0.0%
CODE                 0      0       0       0        0.0%
COMMON               E      9       B       1       78.6%
BITSFR0              0      0       0       1        0.0%
SFR0                 0      0       0       1        0.0%
BITSFR1              0      0       0       2        0.0%
SFR1                 0      0       0       2        0.0%
STACK                0      0       0       2        0.0%
ABS                  0      0      8A       3        0.0%
BITBANK0            50      0       0       4        0.0%
BITSFR3              0      0       0       4        0.0%
SFR3                 0      0       0       4        0.0%
BANK0               50     50      50       5      100.0%
BITSFR2              0      0       0       5        0.0%
SFR2                 0      0       0       5        0.0%
BITBANK1            50      0       0       6        0.0%
BANK1               50     29      2F       7       58.8%
BITBANK3            60      0       0       8        0.0%
BANK3               60      0       0       9        0.0%
BITBANK2            60      0       0      10        0.0%
BANK2               60      0       0      11        0.0%
DATA                 0      0      8A      12        0.0%


Microchip Technology PIC Macro Assembler V2.10 build 88905656 
Symbol Table                                                                                   Wed Feb 26 17:16:01 2020

      __size_of_ADC_CONFIG 010B               ___fldiv@aexp 0034               ___fldiv@bexp 0033  
                        pc 0002               ___fldiv@sign 002C             ___bmul@product 0075  
              __CFG_CP$OFF 0000            ADC_CONFIG@canal 0076                         l90 091A  
                       l66 0FE0                         l67 0FE3                         l93 0BD7  
                       l87 0978                         l96 0CA5                         _b0 0BD8  
                       _b1 0B1A                         _b2 08D0               ___awdiv@sign 0021  
                       fsr 0004        ___wmul@multiplicand 0075        __Umul8_16@word_mpld 0022  
                      ?_b0 00A0                        ?_b1 00A0                        ?_b2 00A0  
                      l120 0CB4                        l201 1753                        l130 0D27  
                      l122 0CBF                        l131 0D34                        l123 0CCC  
                      l132 0D41                        l124 0CD9                        l133 0D4E  
                      l125 0CE6                        l301 17D6                        b0@m 00A0  
                      l134 0D5B                        l126 0CF3                        l142 1728  
                      l127 0D00                        l207 0888                        l136 0D9C  
                      l128 0D0D                        l129 0D1A                        b1@m 00A0  
                      l138 0D9E                        l170 0818                        l139 0DB0  
                      l171 081E                        l180 083B                        l172 081F  
                      l181 0841                        l173 0825                        l325 173D  
                      b2@m 00A0                        l174 0826                        l183 0842  
                      l175 082C                        l167 080E                        l176 082D  
                      l168 0811                        l177 0833                        l169 0817  
                      l178 0834                        l186 178D                        l179 083A  
                      l195 07FE                        l700 0371                        l452 09E1  
                      l613 0553                        l605 0605                        l198 08CF  
                      l623 0599                        l617 0577                        l650 07E2  
                      l634 05F9                        l626 05D7                        l635 0605  
                      l299 17BE                        l492 0A48                        l740 0AEF  
                      l732 0AC7                        l485 0A5D                        l670 07C6  
                      l638 17B1                        l726 0A82                        l495 0A5D  
                      l672 07D6                        l664 0754                        l648 0662  
                      l592 03E1                        l728 0B19                        l745 17ED  
                      l747 17FF                        l739 0AE3                        l596 0488  
                      l694 02E9                        l598 045F                        l688 037D  
                      _RA0 0028                        _RA1 0029                        _RA2 002A  
                      _RA3 002B                        _RA4 002C                        _RC0 0038  
                      _RA5 002D                        _RC1 0039                        _RD0 0040  
                      _RA6 002E                        _RD1 0041                        _RA7 002F  
                      _RD3 0043               __CFG_CPD$OFF 0000                        _ISR 1754  
                      _adc 007A                        _min 0079                        fsr0 0004  
                      indf 0000           ADC_CONFIG@justif 0073               ___flmul@aexp 0040  
             ___flmul@bexp 0041               ___flmul@sign 003B               ___flmul@temp 0046  
             ___flmul@prod 0042                       ??_b0 00A4                       ??_b1 00A4  
                     ??_b2 006F               __CFG_LVP$OFF 0000                       ?_ISR 0070  
             ___fltol@exp1 006E                       l2001 0585                       l2011 0596  
                     l2003 0587                       l2021 05B5                       l2005 058B  
                     l2101 17B4                       l2031 05EE                       l2023 05D3  
                     l2015 059E                       l2007 058C                       l2103 17B8  
                     l3001 0848                       l2121 1735                       l2113 172A  
                     l2041 0604                       l2033 05EF                       l2025 05DC  
                     l2017 05A3                       l2009 0590                       l2201 0A3D  
                     l2105 17C5                       l3003 0864                       l2131 0980  
                     l2123 173C                       l2115 172B                       l2035 05F3  
                     l2027 05E1                       l2019 05B1                       l2203 0A4D  
                     l2107 17CC                       l2051 092C                       l2043 091C  
                     l3011 0C89                       l3005 086C                       l2141 0994  
                     l2133 0985                       l2117 172F                       l2037 05F5  
                     l2029 05E9                       l2205 0A52                       l2109 17D2  
                     l2061 0945                       l2053 0931                       l2045 091D  
                     l3013 0C99                       l3021 0BB5                       l3101 0FD4  
                     l2151 09AA                       l2143 0996                       l2135 0987  
                     l2127 0979                       l2119 1733                       l2039 0600  
                     l2207 178E                       l2063 094A                       l2055 0936  
                     l2047 0922                       l3015 0CA4                       l3007 0BD8  
                     l3023 0BCB                       l3031 090C                       l3111 0FEA  
                     l3103 0FDC                       b0@p0 00AA                       l2081 1775  
                     l2161 09CD                       l2153 09AE                       l2145 099C  
                     l2137 098B                       l2129 097C                       l2209 1792  
                     l2401 0AF1                       l2057 093B                       l2049 0927  
                     l3009 0C73                       l3025 0BD6                       l3033 0919  
                     l3113 0FF0                       l3105 0FE7                       l3041 0DBB  
                     l2083 1778                       l2091 1742                       l2155 09BF  
                     l2147 099F                       l2163 09D3                       l2139 0990  
                     l2171 09E2                       l2403 0B07                       l2059 0940  
                     l2067 094F                       l3019 0B1A                       l3115 0FF4  
                     l3107 0FE9                       l3051 0DD0                       l3043 0DBC  
                     l2421 0CB7                       l2413 0CA7                       l2085 1781  
                     l2077 176C                       l2501 08A6                       l2093 1748  
                     l2165 09D8                       l2157 09C5                       l2149 09A6  
                     l2181 0A0E                       l2173 09EF                       l2405 0B0C  
                     l2069 0977                       l3029 08D0                       l3117 0FF8  
                     l3109 0FE9                       l3061 0E02                       l3053 0DD8  
                     l3045 0DC3                       l3037 0DB1                       l2431 0CD5  
                     l2423 0CBB                       l2415 0CAB                       l2087 1784  
                     l2079 176F                       l2511 08C3                       l2503 08AB  
                     l2095 174B                       l2167 09DD                       l2159 09C6  
                     l2183 0A16                       l2407 0B10                       l3071 0E11  
                     l3063 0E0B                       l3055 0DE1                       l3047 0DC8  
                     l3039 0DB9                       l2441 0CF6                       l2433 0CDC  
                     l2425 0CC2                       l2417 0CAF                       l2513 08C9  
                     l2505 08B1                       l2521 07F7                       l2097 1750  
                     l2089 173F                       l2361 17E7                       l2601 0081  
                     l2193 0A24                       l2185 0A18                       l2177 09F8  
                     l2409 0B11                       l3081 0EE7                       l3073 0E1A  
                     l3065 0E0E                       l3057 0DED                       l3049 0DCB  
                     b1@p1 00AA                       l2451 0D16                       l2443 0CFC  
                     l2435 0CE2                       l2427 0CC8                       l2419 0CB2  
                     l2507 08B7                       l2515 07E4                       l2363 17F6  
                     l2355 17DA                       l2611 00C4                       l2187 0A1C  
                     l2195 0A36                       l2179 0A0D                       l2099 17B2  
                     l2371 0A66                       l3091 0FC2                       l3083 0F22  
                     l3075 0E81                       l3067 0E0F                       l3059 0DF6  
                     l3181 0D70                       l2461 0D37                       l2453 0D1D  
                     l2445 0D03                       l2437 0CE9                       l2429 0CCF  
                     l2509 08BD                       l2517 07E9                       l2365 17FB  
                     l2357 17DC                       l2621 014D                       l2613 00E0  
                     l2605 008A                       l1901 03F7                       l2381 0A93  
                     l2373 0A6A                       l3093 0FCB                       l3085 0F34  
                     l3077 0EBB                       l3069 0E10                       l3183 0DA8  
                     l2471 0D57                       l2463 0D3D                       l2455 0D23  
                     l2447 0D09                       l2439 0CEF                       l1831 0806  
                     l2519 07F1                       l2359 17E3                       l2631 01C0  
                     l2623 015D                       l2615 010C                       l2607 009A  
                     l1911 040B                       l1903 03FB                       l2391 0ABE  
                     l2383 0A98                       l2375 0A7A                       l3095 0FD1  
                     l3087 0F6D                       l3079 0EDF                       l2473 0D5E  
                     l2465 0D44                       l2457 0D2A                       l2449 0D10  
                     l1841 082A                       l1833 080A                       l2641 026D  
                     l2633 01DD                       l2625 017A                       l2617 0128  
                     l2609 00A7                       l2561 001D                       l1921 041F  
                     l1913 040F                       l1905 03FF                       l2393 0ACE  
                     l2385 0AA5                       l2377 0A8A                       l2369 0A61  
                     l3097 0FD3                       l3089 0F7F                       b2@p2 00A5  
                     l2475 0D64                       l2467 0D4A                       l2459 0D30  
                     l2483 0DA0                       l1843 0831                       l1835 0815  
                     l2651 02B9                       l2643 0295                       l2635 020A  
                     l2627 018A                       l2619 0144                       l2571 0034  
                     l2563 0024                       l1931 0443                       l1923 0423  
                     l1915 0413                       l1907 0403                       l1851 0385  
                     l2395 0AD9                       l2387 0AAC                       l3179 0957  
                     l3099 0FD3                       l2469 0D51                       l2493 1720  
                     l1845 0838                       l1837 081C                       l2661 02CE  
                     l2653 02BA                       l2645 029E                       l2637 021A  
                     l2629 01A7                       l2581 0050                       l2573 0039  
                     l2565 002A                       l2901 067A                       l1941 0473  
                     l1933 0463                       l1925 0427                       l1917 0417  
                     l1909 0407                       l1861 039A                       l1853 038B  
                     l2397 0ADD                       l2389 0AB0                       l2479 0D68  
                     l1847 083F                       l1839 0823                       l2495 0889  
                     l2671 02F3                       l2663 02D2                       l2655 02C3  
                     l2647 02AC                       l2639 0247                       l2591 0065  
                     l2583 0056                       l2575 0041                       l2567 002E  
                     l2911 0691                       l1943 047C                       l1935 046C  
                     l1919 041B                       l1927 042B                       l1871 03B2  
                     l1863 03A2                       l1855 038F                       l2399 0AE7  
                     l2497 0891                       l2681 0331                       l2673 0301  
                     l2665 02E6                       l2649 02B5                       l2657 02C9  
                     l2593 006D                       l2585 005A                       l2577 0043  
                     l2569 002F                       l2921 06BD                       l2913 06A3  
                     l2905 0683                       l1961 04C2                       l1953 049A  
                     l1937 046E                       l1945 0480                       l1929 042C  
                     l1881 03C4                       l1873 03B8                       l1865 03A3  
                     l1857 0390                       l1849 037E                       l2499 0897  
                     l2691 0365                       l2683 033C                       l2675 0305  
                     l2659 02CD                       l2595 006F                       l2587 005B  
                     l2579 004B                       l2923 06C2                       l2931 06E2  
                     l2915 06AB                       l2907 0688                       l1963 04C4  
                     l1955 04B1                       l1947 048C                       l1971 04D7  
                     l1939 0472                       l1883 03C9                       l1891 03D9  
                     l1875 03B9                       l1859 0395                       l1867 03A5  
                     l2693 0369                       l2685 034B                       l2677 031E  
                     l2669 02EE                       l2597 0077                       l2589 0060  
                     l2941 070D                       l2933 06F4                       l2925 06D4  
                     l2917 06B3                       l2861 0613                       l1973 04ED  
                     l1981 0545                       l1965 04C8                       l1957 04B5  
                     l1949 0491                       l1893 03E7                       l1885 03CE  
                     l1877 03BF                       l1869 03AD                       l2695 036A  
                     l2687 0355                       l2679 0324                       l2599 007C  
                     l2951 0725                       l2943 0715                       l2935 06F5  
                     l2927 06D8                       l2919 06BB                       l2871 062A  
                     l2863 0617                       l1991 0572                       l1983 055B  
                     l1975 052B                       l1967 04C9                       l1959 04B9  
                     l1895 03EB                       l1887 03D6                       l1879 03C3  
                     l2697 0375                       l2689 0357                       l2961 073D  
                     l2953 072E                       l2945 0717                       l2937 0703  
                     l2929 06D9                       l2881 0640                       l2873 062B  
                     l2865 0618                       l2857 0606                       l1993 0576  
                     l1985 0560                       l1977 0531                       l1969 04D2  
                     l1897 03EF                       l1889 03D7                       l2971 076C  
                     l2963 0751                       l2947 0720                       l2955 0734  
                     l2939 0707                       l2891 0657                       l2883 0644  
                     l2867 061D                       l2875 062D                       l2859 060D  
                     l1995 057B                       l1979 0536                       l1899 03F3  
                     l2981 07AA                       l2973 0770                       l2957 0738  
                     l2949 0724                       l2893 0658                       l2885 0645  
                     l2877 0635                       l2869 0622                       l1997 057E  
                     l1989 0569                       l2991 07D0                       l2983 07B9  
                     l2975 0789                       l2967 0759                       l2959 0739  
                     l2887 064A                       l2895 065A                       l2879 063A  
                     l1999 0580                       l2993 07D2                       l2985 07BD  
                     l2969 075E                       l2977 078F                       l2897 066A  
                     l2889 064F                       l2987 07C5                       l2979 079C  
                     l2899 0676                       l2989 07CC                       l2999 0843  
                     _ADIF 0066                       STR_1 1010                       STR_2 1016  
                     STR_3 101A                       u2000 0491                       u2001 0490  
                     u2011 04A3                       u2100 055B                       u2020 04B5  
                     u2012 04AA                       u2101 055A                       u2021 04B4  
                     u2013 04B1                       u2110 0560                       u2030 04B9  
                     u2111 055F                       u2031 04B8                       u2200 05A3  
                     u2040 04C8                       u3000 0B0C                       u2201 05A2  
                     u2041 04C7                       u3001 0B0B                       u2210 05B5  
                     u2130 0576                       u3010 0B10                       u2211 05B4  
                     u2131 0575                       u3011 0B0F                       u3020 07E9  
                     u3100 005A                       u2220 05C4                       u2140 057B  
                     u2060 04ED                       u3021 07E8                       u3101 0059  
                     u2141 057A                       u2125 056B                       u2061 04EC  
                     u3030 07F7                       u3110 0060                       u2230 05D3  
                     u2150 0585                       u3031 07F6                       u3111 005F  
                     u2231 05D2                       u2151 0584                       u2071 0504  
                     u2063 04E9                       u2055 04CB                       u3120 0065  
                     u2240 05DC                       u2160 058B                       u2080 0518  
                     u2072 0505                       u2320 17D2                       u3201 016C  
                     u3121 0064                       u2241 05DB                       u2225 05BF  
                     u2161 058A                       u2081 0519                       u2073 050A  
                     u2321 17D1                       u2305 17BF                       u3202 0173  
                     u3130 007C                       u2410 09BF                       u2330 172F  
                     u2250 05E1                       u2170 0590                       u2090 0536  
                     u2082 051E                       u2074 050B                       u3211 0199  
                     u3203 017A                       u3131 007B                       u2411 09BE  
                     u2331 172E                       u2251 05E0                       u2171 058F  
                     u2091 0535                       u2083 051F                       u2075 0510  
                     u2315 17C6                       u3212 01A0                       u3140 0081  
                     u2340 173C                       u2260 05EE                       u2180 0596  
                     u2076 0511                       u2500 0A35                       u3213 01A7  
                     u3141 0080                       u2405 09AF                       u2341 173B  
                     u2261 05ED                       u2181 0595                       u2501 0A34  
                     u3070 002E                       u2430 09D3                       u2350 0980  
                     u2270 05F3                       u2190 059D                       u2510 0A3C  
                     u3231 01CF                       u3151 00D2                       u3071 002D  
                     u2431 09D2                       u2415 09BB                       u2351 097F  
                     u2271 05F2                       u2191 059C                       u2511 0A3B  
                     u1800 0831                       u3400 0314                       u3320 02B9  
                     u3232 01D6                       u3152 00D9                       u3080 0034  
                     u2440 09D8                       u2360 098B                       u2280 0604  
                     u1801 0830                       u3321 02B8                       u3305 0297  
                     u3241 01FC                       u3233 01DD                       u3225 01A9  
                     u3161 00EE                       u3153 00E0                       u3081 0033  
                     u2441 09D7                       u2425 09C7                       u2361 098A  
                     u2281 0603                       u1810 0838                       u3410 0331  
                     u3242 0203                       u3162 00F5                       u3090 0039  
                     u2370 099C                       u2530 0A4D                       u2450 09EF  
                     u2290 17B8                       u1811 0837                       u3411 0330  
                     u3315 02AE                       u3251 0229                       u3243 020A  
                     u3171 011A                       u3163 00FC                       u3091 0038  
                     u2371 099B                       u2531 0A4C                       u2451 09EE  
                     u2291 17B7                       u1820 083F                       u3420 034B  
                     u3340 02CD                       u3260 0253                       u3252 0230  
                     u3172 0121                       u3500 061D                       u1900 03E7  
                     u2540 0A52                       u2460 0A06                       u1821 083E  
                     u3421 034A                       u3405 030F                       u3341 02CC  
                     u3253 0237                       u3181 0136                       u3173 0128  
                     u3501 061C                       u1901 03E6                       u2541 0A51  
                     u2525 0A3F                       u1750 080A                       u3430 0369  
                     u3350 02D2                       u3182 013D                       u2390 09AE  
                     u3510 0622                       u1910 03EB                       u1830 038F  
                     u2470 0A1C                       u1751 0809                       u3431 0368  
                     u3415 032D                       u3351 02D1                       u3335 02BC  
                     u3271 025F                       u3183 0144                       u2391 09AD  
                     u3511 0621                       u1911 03EA                       u1831 038E  
                     u2471 0A1B                       u1760 0815                       u3360 02E6  
                     u3280 027B                       u3272 0266                       u3600 06D8  
                     u3520 0644                       u1920 0443                       u1840 0395  
                     u2480 0A23                       u1761 0814                       u3425 0347  
                     u3361 02E5                       u3273 026D                       u3265 024E  
                     u2385 09A0                       u3601 06D7                       u3521 0643  
                     u1921 0442                       u1841 0394                       u2481 0A22  
                     u2465 0A01                       u1770 081C                       u3370 02ED  
                     u3530 064A                       u1930 044E                       u1850 039A  
                     u1771 081B                       u3371 02EC                       u3291 0287  
                     u3195 0146                       u3531 0649                       u1931 044C  
                     u1851 0399                       u1780 0823                       u3380 02F3  
                     u3292 028E                       u3700 0751                       u3620 06F4  
                     u3540 064F                       u1940 044F                       u1860 03B8  
                     u2900 0A8A                       u1781 0822                       u3381 02F2  
                     u3293 0295                       u3285 0276                       u3701 0750  
                     u3621 06F3                       u3541 064E                       u1925 043F  
                     u1861 03B7                       u2901 0A89                       u1790 082A  
                     u3390 0305                       u3710 0758                       u3630 070D  
                     u3550 066A                       u1950 0463                       u1870 03C3  
                     u1791 0829                       u3391 0304                       u3711 0757  
                     u3631 070C                       u3615 06DB                       u3551 0669  
                     u1951 0462                       u1871 03C2                       u2495 0A25  
                     u3800 0888                       u3720 075E                       u3640 0715  
                     u3560 0688                       u1960 0472                       u1880 03C9  
                     u2920 0AAB                       u3801 0887                       u3721 075D  
                     u3641 0714                       u3625 06F0                       u3561 0687  
                     u1961 0471                       u1881 03C8                       u2921 0AAA  
                     u2850 17E7                       u3730 0770                       u3570 06C2  
                     u3490 0617                       u1890 03CE                       u3810 0E15  
                     u2851 17E6                       u3731 076F                       u3571 06C1  
                     u3491 0616                       u1891 03CD                       u2915 0A9D  
                     u3740 077F                       u3660 0724                       u1980 0488  
                     u2940 0ACD                       u3820 0FD1                       u3661 0723  
                     u1981 0487                       u2941 0ACC                       u3821 0FD0  
                     u2870 17FB                       u3750 079C                       u1990 048C  
                     u3830 0FDC                       u2871 17FA                       u3751 079B  
                     u3655 0719                       u1991 048B                       u1975 0475  
                     u2935 0ABF                       u3831 0FDB                       u3760 07B9  
                     u3680 0738                       u2960 0ADD                       u2880 0A66  
                     u3840 0FE7                       u2865 17EE                       u3761 07B8  
                     u3745 077A                       u3681 0737                       u3585 06C4  
                     u2961 0ADC                       u2881 0A65                       u3841 0FE6  
                     u3770 07D0                       u3690 073D                       u2970 0AE3  
                     u2890 0A6A                       u3907 1788                       u3771 07CF  
                     u3755 0798                       u3691 073C                       u3675 0727  
                     u3595 06CD                       u2971 0AE2                       u2955 0AD2  
                     u2891 0A69                       u3780 0852                       u2980 0AE7  
                     u3765 07B5                       u2981 0AE6                       u3790 0876  
                     u2990 0AFC                       i1l56 1764                       u3857 174D  
                     u3867 088D                       u2995 0AF7                       u3877 089B  
                     u3887 08A8                       u3897 177C               __CFG_WRT$OFF 0000  
                     _adc1 00CE     __size_of_ADC_INTERRUPT 0009          ?_Lcd_Write_String 0076  
                     _main 0DB1                       btemp 007E                       start 000C  
       ??_Lcd_Write_String 0020              __CFG_IESO$OFF 0000            ___fldiv@new_exp 002D  
          __end_of_Lcd_Cmd 178E          ___bmul@multiplier 0076                      ??_ISR 0070  
                    b0@bb0 00A9                      b0@bb1 00A8                      b0@bb2 00A7  
                    b1@bb1 00A8                      b1@bb2 00A7              ___fltol@sign1 006D  
                    b2@bb2 00A4            __end_of___fladd 0606                      ?_main 0070  
          __end_of___fldiv 07E3            __end_of___awdiv 09E2              __CFG_WDTE$OFF 0000  
          __end_of___flmul 037E            __end_of___flsub 17B2            __end_of___fltol 0A5E  
                    _ANSEL 0188            ___awdiv@divisor 0073            ___awdiv@counter 0020  
  __size_of_Lcd_Set_Cursor 001C                      _TRISA 0085                      _TRISB 0086  
                    _TRISC 0087                      _TRISD 0088             __CFG_FCMEN$OFF 0000  
           __CFG_BOREN$OFF 0000                      pclath 000A                      status 0003  
                    wtemp0 007E           __end_of_Lcd_Init 08D0           __end_of_Lcd_Port 0843  
           __CFG_MCLRE$OFF 0000            __initialization 000F               __end_of_main 1000  
            _ADC_INTERRUPT 1720                     ??_main 00AC               ??_ADC_CONFIG 0074  
                   _ADRESH 001E           ___awdiv@dividend 0075                     _ANSELH 0189  
                   i1l2701 1754                     i1l2703 175A                     i1l2705 1760  
                   i1l2707 1763                     u344_20 175A                     u344_21 1759  
                ??_Lcd_Cmd 0074    __size_of_Lcd_Write_Char 0016           __end_of___xxtofl 0B1A  
           __CFG_PWRTE$OFF 0000                     ___bmul 1729                  ??___fladd 0050  
       __end_of_ADC_CONFIG 0DB1                     ___wmul 17B2                  ??___fldiv 0073  
                ??___awdiv 0077                  ??___flmul 0036                  ??___flsub 0079  
                ??___fltol 0068             ?_ADC_INTERRUPT 0070           ___awdiv@quotient 0022  
                   main@s1 00B3           __end_of_num_case 0979         __size_of__Umul8_16 0029  
                   saved_w 007E            Lcd_Set_Cursor@a 0078            Lcd_Set_Cursor@b 0077  
             ___xxtofl@arg 002A               ___xxtofl@exp 0029               ___xxtofl@val 0020  
  __end_of__initialization 0019                 ___fltol@f1 0064        ___bmul@multiplicand 0073  
           __pcstackCOMMON 0070                 __end_of_b0 0CA6                 __end_of_b1 0BD8  
               __end_of_b2 091B             _Lcd_Set_Cursor 07E3                  ?_Lcd_Init 0070  
                ?_Lcd_Port 0070                 __pbssBANK1 00C9          __end_of__Umul8_16 1800  
               __pmaintext 0DB1                    ?___bmul 0073            ??_ADC_INTERRUPT 0073  
                  ?___wmul 0073                 __pintentry 0004                    b0@local 00AB  
__size_of_Lcd_Write_String 0046                    b1@local 00A9     __end_of_Lcd_Set_Cursor 07FF  
                ?___xxtofl 0020                 ??_Lcd_Init 0077                 ??_Lcd_Port 0073  
               __stringtab 1000             _Lcd_Write_Char 173E                    _Lcd_Cmd 176B  
                ?_num_case 0070            __size_of___bmul 0015                    ___fladd 037E  
                  ___fldiv 0606                    ___awdiv 0979                    ___flmul 001D  
                  ___flsub 178E                    ___fltol 09E2            __size_of___wmul 0025  
                _ANSELbits 0188            ?_Lcd_Set_Cursor 0077                    __ptext1 08D0  
                  __ptext2 0B1A                    __ptext3 0BD8                    __ptext4 091B  
                  __ptext5 0A5E                    __ptext6 17B2                    __ptext7 09E2  
                  __ptext8 178E                    __ptext9 037E               __size_of_ISR 0017  
               ??___xxtofl 0024     __end_of_Lcd_Write_Char 1754       end_of_initialization 0019  
              num_case@num 0075                 ??_num_case 0073                  Lcd_Port@a 0073  
                _PORTBbits 0006                ___fladd@grs 005B              ___xxtofl@sign 0028  
                _TRISAbits 0085                  _TRISBbits 0086                  _TRISEbits 0089  
              ___fldiv@grs 002F                ___fldiv@rem 0028            ?_Lcd_Write_Char 0070  
        Lcd_Write_String@a 0076          Lcd_Write_String@i 0023                ___flmul@grs 003C  
           __end_of___bmul 173E             __end_of___wmul 17D7           _Lcd_Write_String 0843  
      start_initialization 000F                __end_of_ISR 176B          __size_of_Lcd_Init 0047  
        __size_of_Lcd_Port 003E   __CFG_FOSC$INTRC_NOCLKOUT 0000                   ??___bmul 0074  
                 ??___wmul 0077                  __Umul8_16 17D7            Lcd_Write_Char@a 0075  
                ___fladd@a 004C                  ___fladd@b 0048                  ___fldiv@a 0020  
                ___fldiv@b 0024                  ___flmul@a 0032                  ___flmul@b 002E  
              __pbssCOMMON 0079                  ___flsub@a 005C                  ___flsub@b 0060  
                ___latbits 0002              __pcstackBANK0 0020              __pcstackBANK1 00A0  
        __size_of___xxtofl 00BC                   ?_Lcd_Cmd 0070                  _main$1121 00B8  
                _main$1122 00BC                  _main$1123 00C0           ??_Lcd_Set_Cursor 0078  
                 ?___fladd 0048                   ?___fldiv 0020                   ?___awdiv 0073  
                 ?___flmul 002E                   ?___flsub 005C                   ?___fltol 0064  
               ?__Umul8_16 0073          __size_of_num_case 005E      __end_of_ADC_INTERRUPT 1729  
                __pstrings 1000                __size_of_b0 00CE                __size_of_b1 00BE  
              __size_of_b2 004B          interrupt_function 0004             ___wmul@product 0077  
                 _PIE1bits 008C                   Lcd_Cmd@a 0076                   _PIR1bits 000C  
                main@F1514 00C9                  main@TEMPA 00C6                  main@TEMPB 00C7  
                main@TEMPC 00C4                  main@TEMPD 00C5                 _ADCON0bits 001F  
              __stringbase 100F                 _ADCON1bits 009F          ___wmul@multiplier 0073  
         ??_Lcd_Write_Char 0074                 _ADC_CONFIG 0CA6                   _Lcd_Init 0889  
                 _Lcd_Port 0805   __end_of_Lcd_Write_String 0889           __size_of_Lcd_Cmd 0023  
              ??__Umul8_16 0075           __size_of___fladd 0288           __size_of___fldiv 01DD  
         __size_of___awdiv 0069           __size_of___flmul 0361           __size_of___flsub 0024  
         __size_of___fltol 007C         __end_of__stringtab 1010                 _ANSELHbits 0189  
                 ___xxtofl 0A5E                   __ptext10 0606                   __ptext11 1729  
                 __ptext20 0805                   __ptext12 0979                   __ptext21 1720  
                 __ptext13 001D                   __ptext22 0CA6                   __ptext14 17D7  
                 __ptext23 1754                   __ptext15 0843                   __ptext16 173E  
                 __ptext17 07E3                   __ptext18 0889                   __ptext19 176B  
        __CFG_BOR4V$BOR40V 0000              __size_of_main 024F                  num_case@r 0076  
                 _num_case 091B                   main@TEMP 00C8                 _INTCONbits 000B  
              ?_ADC_CONFIG 0073                   intlevel1 0000                  stringcode 100A  
   __Umul8_16@multiplicand 0073                   stringdir 100A                   stringtab 1000  
            ___fladd@signs 0058               ___fladd@aexp 0059               ___fladd@bexp 005A  
     __Umul8_16@multiplier 0024          __Umul8_16@product 0020  
