

Microchip Technology PIC LITE Macro Assembler V2.00 build -1524193055 
                                                                                               Wed Feb 26 18:32:22 2020

Microchip Technology Omniscient Code Generator v2.00 (Free mode) build 20180527130849
     1  0000                     
      + 0000                     
     2                           ; Version 2.00
     3                           ; Generated 27/05/2018 GMT
     4                           
     5                           ; 
     6                           ; Copyright © 2018, Microchip Technology Inc. and its subsidiaries ("Microchip")
     7                           ; All rights reserved.
     8                           ; 
     9                           ; This software is developed by Microchip Technology Inc. and its subsidiaries ("Microch
                                 ip").
    10                           ; 
    11                           ; Redistribution and use in source and binary forms, with or without modification, are
    12                           ; permitted provided that the following conditions are met:
    13                           ; 
    14                           ;     1. Redistributions of source code must retain the above copyright notice, this lis
                                 t of
    15                           ;        conditions and the following disclaimer.
    16                           ; 
    17                           ;     2. Redistributions in binary form must reproduce the above copyright notice, this 
                                 list
    18                           ;        of conditions and the following disclaimer in the documentation and/or other
    19                           ;        materials provided with the distribution.
    20                           ; 
    21                           ;     3. Microchip's name may not be used to endorse or promote products derived from th
                                 is
    22                           ;        software without specific prior written permission.
    23                           ; 
    24                           ; THIS SOFTWARE IS PROVIDED BY MICROCHIP "AS IS" AND ANY EXPRESS OR IMPLIED WARRANTIES,

    25                           ; INCLUDING, BUT NOT LIMITED TO, THE IMPLIED WARRANTIES OF MERCHANTABILITY AND FITNESS F
                                 OR
    26                           ; PURPOSE ARE DISCLAIMED.  IN NO EVENT SHALL MICROCHIP BE LIABLE FOR ANY DIRECT, INDIREC
                                 T,
    27                           ; INCIDENTAL, SPECIAL, EXEMPLARY, OR CONSEQUENTIAL DAMAGES (INCLUDING BUT NOT LIMITED TO
                                 
    28                           ; PROCUREMENT OF SUBSTITUTE GOODS OR SERVICES; LOSS OF USE, DATA OR PROFITS; OR BUSINESS
                                 
    29                           ; INTERRUPTION) HOWSOEVER CAUSED AND ON ANY THEORY OF LIABILITY, WHETHER IN CONTRACT, ST
                                 RICT
    30                           ; LIABILITY, OR TORT (INCLUDING NEGLIGENCE OR OTHERWISE) ARISING IN ANY WAY OUT OF THE U
                                 SE OF
    31                           ; THIS SOFTWARE, EVEN IF ADVISED OF THE POSSIBILITY OF SUCH DAMAGE.
    32                           ; 
    33                           
    34                           
    35                           ; 
    36                           ; Code-generator required, PIC16F887 Definitions
    37                           ; 
    38  0004                     fsr0 equ 04h
    39  0004                     indf equ 00h
    40  0000                     indf0 equ 00h
    41  0000                     pc equ 02h
    42  0002                     pcl equ 02h
    43  0002                     pclath equ 0Ah
    44  000A                     status equ 03h
    45  0003                     
     2                           opt pagewidth 120
     3  0000                     byte0	macro	val
     4                           	(getbyte(val,0))
     5                           endm
     6  0000                     byte1	macro	val
     7                           	(getbyte(val,1))
     8                           endm
     9  0000                     byte2	macro	val
    10                           	(getbyte(val,2))
    11                           endm
    12  0000                     byte3	macro	val
    13                           	(getbyte(val,3))
    14                           endm
    15  0000                     byte4	macro	val
    16                           	(getbyte(val,4))
    17                           endm
    18  0000                     byte5	macro	val
    19                           	(getbyte(val,5))
    20                           endm
    21  0000                     byte6	macro	val
    22                           	(getbyte(val,6))
    23                           endm
    24  0000                     byte7	macro	val
    25                           	(getbyte(val,7))
    26                           endm
    27  0000                     getword	macro	val,pos
    28                           	(((val) >> (8 * pos)) and 0xffff)
    29                           endm
    30  0000                     word0	macro	val
    31                           	(getword(val,0))
    32                           endm
    33  0000                     word1	macro	val
    34                           	(getword(val,2))
    35                           endm
    36  0000                     word2	macro	val
    37                           	(getword(val,4))
    38                           endm
    39  0000                     word3	macro	val
    40                           	(getword(val,6))
    41                           endm
    42  0000                     gettword	macro	val,pos
    43                           	(((val) >> (8 * pos)) and 0xffffff)
    44                           endm
    45  0000                     tword0	macro	val
    46                           	(gettword(val,0))
    47                           endm
    48  0000                     tword1	macro	val
    49                           	(gettword(val,3))
    50                           endm
    51  0000                     tword2	macro	val
    52                           	(gettword(val,6))
    53                           endm
    54  0000                     getdword	macro	val,pos
    55                           	(((val) >> (8 * pos)) and 0xffffffff)
    56                           endm
    57  0000                     dword0	macro	val
    58                           	(getdword(val,0))
    59                           endm
    60  0000                     dword1	macro	val
    61                           	(getdword(val,4))
    62                           endm
    63  0000                     clrc	macro
    64                           	bcf	3,0
    65                           	endm
    66  0000                     clrz	macro
    67                           	bcf	3,2
    68                           	endm
    69  0000                     setc	macro
    70                           	bsf	3,0
    71                           	endm
    72  0000                     setz	macro
    73                           	bsf	3,2
    74                           	endm
    75  0000                     skipc	macro
    76                           	btfss	3,0
    77                           	endm
    78  0000                     skipz	macro
    79                           	btfss	3,2
    80                           	endm
    81  0000                     skipnc	macro
    82                           	btfsc	3,0
    83                           	endm
    84  0000                     skipnz	macro
    85                           	btfsc	3,2
    86                           	endm
    87  0000                     # 54 "C:\Program Files (x86)\Microchip\xc8\v2.00\pic\include\pic16f887.h"
    88                           INDF equ 00h ;# 
    89  0000                     # 61 "C:\Program Files (x86)\Microchip\xc8\v2.00\pic\include\pic16f887.h"
    90                           TMR0 equ 01h ;# 
    91  0001                     # 68 "C:\Program Files (x86)\Microchip\xc8\v2.00\pic\include\pic16f887.h"
    92                           PCL equ 02h ;# 
    93  0002                     # 75 "C:\Program Files (x86)\Microchip\xc8\v2.00\pic\include\pic16f887.h"
    94                           STATUS equ 03h ;# 
    95  0003                     # 161 "C:\Program Files (x86)\Microchip\xc8\v2.00\pic\include\pic16f887.h"
    96                           FSR equ 04h ;# 
    97  0004                     # 168 "C:\Program Files (x86)\Microchip\xc8\v2.00\pic\include\pic16f887.h"
    98                           PORTA equ 05h ;# 
    99  0005                     # 230 "C:\Program Files (x86)\Microchip\xc8\v2.00\pic\include\pic16f887.h"
   100                           PORTB equ 06h ;# 
   101  0006                     # 292 "C:\Program Files (x86)\Microchip\xc8\v2.00\pic\include\pic16f887.h"
   102                           PORTC equ 07h ;# 
   103  0007                     # 354 "C:\Program Files (x86)\Microchip\xc8\v2.00\pic\include\pic16f887.h"
   104                           PORTD equ 08h ;# 
   105  0008                     # 416 "C:\Program Files (x86)\Microchip\xc8\v2.00\pic\include\pic16f887.h"
   106                           PORTE equ 09h ;# 
   107  0009                     # 454 "C:\Program Files (x86)\Microchip\xc8\v2.00\pic\include\pic16f887.h"
   108                           PCLATH equ 0Ah ;# 
   109  000A                     # 461 "C:\Program Files (x86)\Microchip\xc8\v2.00\pic\include\pic16f887.h"
   110                           INTCON equ 0Bh ;# 
   111  000B                     # 539 "C:\Program Files (x86)\Microchip\xc8\v2.00\pic\include\pic16f887.h"
   112                           PIR1 equ 0Ch ;# 
   113  000C                     # 595 "C:\Program Files (x86)\Microchip\xc8\v2.00\pic\include\pic16f887.h"
   114                           PIR2 equ 0Dh ;# 
   115  000D                     # 652 "C:\Program Files (x86)\Microchip\xc8\v2.00\pic\include\pic16f887.h"
   116                           TMR1 equ 0Eh ;# 
   117  000E                     # 659 "C:\Program Files (x86)\Microchip\xc8\v2.00\pic\include\pic16f887.h"
   118                           TMR1L equ 0Eh ;# 
   119  000E                     # 666 "C:\Program Files (x86)\Microchip\xc8\v2.00\pic\include\pic16f887.h"
   120                           TMR1H equ 0Fh ;# 
   121  000F                     # 673 "C:\Program Files (x86)\Microchip\xc8\v2.00\pic\include\pic16f887.h"
   122                           T1CON equ 010h ;# 
   123  0010                     # 767 "C:\Program Files (x86)\Microchip\xc8\v2.00\pic\include\pic16f887.h"
   124                           TMR2 equ 011h ;# 
   125  0011                     # 774 "C:\Program Files (x86)\Microchip\xc8\v2.00\pic\include\pic16f887.h"
   126                           T2CON equ 012h ;# 
   127  0012                     # 845 "C:\Program Files (x86)\Microchip\xc8\v2.00\pic\include\pic16f887.h"
   128                           SSPBUF equ 013h ;# 
   129  0013                     # 852 "C:\Program Files (x86)\Microchip\xc8\v2.00\pic\include\pic16f887.h"
   130                           SSPCON equ 014h ;# 
   131  0014                     # 922 "C:\Program Files (x86)\Microchip\xc8\v2.00\pic\include\pic16f887.h"
   132                           CCPR1 equ 015h ;# 
   133  0015                     # 929 "C:\Program Files (x86)\Microchip\xc8\v2.00\pic\include\pic16f887.h"
   134                           CCPR1L equ 015h ;# 
   135  0015                     # 936 "C:\Program Files (x86)\Microchip\xc8\v2.00\pic\include\pic16f887.h"
   136                           CCPR1H equ 016h ;# 
   137  0016                     # 943 "C:\Program Files (x86)\Microchip\xc8\v2.00\pic\include\pic16f887.h"
   138                           CCP1CON equ 017h ;# 
   139  0017                     # 1040 "C:\Program Files (x86)\Microchip\xc8\v2.00\pic\include\pic16f887.h"
   140                           RCSTA equ 018h ;# 
   141  0018                     # 1135 "C:\Program Files (x86)\Microchip\xc8\v2.00\pic\include\pic16f887.h"
   142                           TXREG equ 019h ;# 
   143  0019                     # 1142 "C:\Program Files (x86)\Microchip\xc8\v2.00\pic\include\pic16f887.h"
   144                           RCREG equ 01Ah ;# 
   145  001A                     # 1149 "C:\Program Files (x86)\Microchip\xc8\v2.00\pic\include\pic16f887.h"
   146                           CCPR2 equ 01Bh ;# 
   147  001B                     # 1156 "C:\Program Files (x86)\Microchip\xc8\v2.00\pic\include\pic16f887.h"
   148                           CCPR2L equ 01Bh ;# 
   149  001B                     # 1163 "C:\Program Files (x86)\Microchip\xc8\v2.00\pic\include\pic16f887.h"
   150                           CCPR2H equ 01Ch ;# 
   151  001C                     # 1170 "C:\Program Files (x86)\Microchip\xc8\v2.00\pic\include\pic16f887.h"
   152                           CCP2CON equ 01Dh ;# 
   153  001D                     # 1240 "C:\Program Files (x86)\Microchip\xc8\v2.00\pic\include\pic16f887.h"
   154                           ADRESH equ 01Eh ;# 
   155  001E                     # 1247 "C:\Program Files (x86)\Microchip\xc8\v2.00\pic\include\pic16f887.h"
   156                           ADCON0 equ 01Fh ;# 
   157  001F                     # 1348 "C:\Program Files (x86)\Microchip\xc8\v2.00\pic\include\pic16f887.h"
   158                           OPTION_REG equ 081h ;# 
   159  0081                     # 1418 "C:\Program Files (x86)\Microchip\xc8\v2.00\pic\include\pic16f887.h"
   160                           TRISA equ 085h ;# 
   161  0085                     # 1480 "C:\Program Files (x86)\Microchip\xc8\v2.00\pic\include\pic16f887.h"
   162                           TRISB equ 086h ;# 
   163  0086                     # 1542 "C:\Program Files (x86)\Microchip\xc8\v2.00\pic\include\pic16f887.h"
   164                           TRISC equ 087h ;# 
   165  0087                     # 1604 "C:\Program Files (x86)\Microchip\xc8\v2.00\pic\include\pic16f887.h"
   166                           TRISD equ 088h ;# 
   167  0088                     # 1666 "C:\Program Files (x86)\Microchip\xc8\v2.00\pic\include\pic16f887.h"
   168                           TRISE equ 089h ;# 
   169  0089                     # 1704 "C:\Program Files (x86)\Microchip\xc8\v2.00\pic\include\pic16f887.h"
   170                           PIE1 equ 08Ch ;# 
   171  008C                     # 1760 "C:\Program Files (x86)\Microchip\xc8\v2.00\pic\include\pic16f887.h"
   172                           PIE2 equ 08Dh ;# 
   173  008D                     # 1817 "C:\Program Files (x86)\Microchip\xc8\v2.00\pic\include\pic16f887.h"
   174                           PCON equ 08Eh ;# 
   175  008E                     # 1864 "C:\Program Files (x86)\Microchip\xc8\v2.00\pic\include\pic16f887.h"
   176                           OSCCON equ 08Fh ;# 
   177  008F                     # 1929 "C:\Program Files (x86)\Microchip\xc8\v2.00\pic\include\pic16f887.h"
   178                           OSCTUNE equ 090h ;# 
   179  0090                     # 1981 "C:\Program Files (x86)\Microchip\xc8\v2.00\pic\include\pic16f887.h"
   180                           SSPCON2 equ 091h ;# 
   181  0091                     # 2043 "C:\Program Files (x86)\Microchip\xc8\v2.00\pic\include\pic16f887.h"
   182                           PR2 equ 092h ;# 
   183  0092                     # 2050 "C:\Program Files (x86)\Microchip\xc8\v2.00\pic\include\pic16f887.h"
   184                           SSPADD equ 093h ;# 
   185  0093                     # 2057 "C:\Program Files (x86)\Microchip\xc8\v2.00\pic\include\pic16f887.h"
   186                           SSPMSK equ 093h ;# 
   187  0093                     # 2062 "C:\Program Files (x86)\Microchip\xc8\v2.00\pic\include\pic16f887.h"
   188                           MSK equ 093h ;# 
   189  0093                     # 2179 "C:\Program Files (x86)\Microchip\xc8\v2.00\pic\include\pic16f887.h"
   190                           SSPSTAT equ 094h ;# 
   191  0094                     # 2348 "C:\Program Files (x86)\Microchip\xc8\v2.00\pic\include\pic16f887.h"
   192                           WPUB equ 095h ;# 
   193  0095                     # 2418 "C:\Program Files (x86)\Microchip\xc8\v2.00\pic\include\pic16f887.h"
   194                           IOCB equ 096h ;# 
   195  0096                     # 2488 "C:\Program Files (x86)\Microchip\xc8\v2.00\pic\include\pic16f887.h"
   196                           VRCON equ 097h ;# 
   197  0097                     # 2558 "C:\Program Files (x86)\Microchip\xc8\v2.00\pic\include\pic16f887.h"
   198                           TXSTA equ 098h ;# 
   199  0098                     # 2644 "C:\Program Files (x86)\Microchip\xc8\v2.00\pic\include\pic16f887.h"
   200                           SPBRG equ 099h ;# 
   201  0099                     # 2706 "C:\Program Files (x86)\Microchip\xc8\v2.00\pic\include\pic16f887.h"
   202                           SPBRGH equ 09Ah ;# 
   203  009A                     # 2776 "C:\Program Files (x86)\Microchip\xc8\v2.00\pic\include\pic16f887.h"
   204                           PWM1CON equ 09Bh ;# 
   205  009B                     # 2846 "C:\Program Files (x86)\Microchip\xc8\v2.00\pic\include\pic16f887.h"
   206                           ECCPAS equ 09Ch ;# 
   207  009C                     # 2928 "C:\Program Files (x86)\Microchip\xc8\v2.00\pic\include\pic16f887.h"
   208                           PSTRCON equ 09Dh ;# 
   209  009D                     # 2972 "C:\Program Files (x86)\Microchip\xc8\v2.00\pic\include\pic16f887.h"
   210                           ADRESL equ 09Eh ;# 
   211  009E                     # 2979 "C:\Program Files (x86)\Microchip\xc8\v2.00\pic\include\pic16f887.h"
   212                           ADCON1 equ 09Fh ;# 
   213  009F                     # 3013 "C:\Program Files (x86)\Microchip\xc8\v2.00\pic\include\pic16f887.h"
   214                           WDTCON equ 0105h ;# 
   215  0105                     # 3066 "C:\Program Files (x86)\Microchip\xc8\v2.00\pic\include\pic16f887.h"
   216                           CM1CON0 equ 0107h ;# 
   217  0107                     # 3131 "C:\Program Files (x86)\Microchip\xc8\v2.00\pic\include\pic16f887.h"
   218                           CM2CON0 equ 0108h ;# 
   219  0108                     # 3196 "C:\Program Files (x86)\Microchip\xc8\v2.00\pic\include\pic16f887.h"
   220                           CM2CON1 equ 0109h ;# 
   221  0109                     # 3247 "C:\Program Files (x86)\Microchip\xc8\v2.00\pic\include\pic16f887.h"
   222                           EEDATA equ 010Ch ;# 
   223  010C                     # 3252 "C:\Program Files (x86)\Microchip\xc8\v2.00\pic\include\pic16f887.h"
   224                           EEDAT equ 010Ch ;# 
   225  010C                     # 3259 "C:\Program Files (x86)\Microchip\xc8\v2.00\pic\include\pic16f887.h"
   226                           EEADR equ 010Dh ;# 
   227  010D                     # 3266 "C:\Program Files (x86)\Microchip\xc8\v2.00\pic\include\pic16f887.h"
   228                           EEDATH equ 010Eh ;# 
   229  010E                     # 3273 "C:\Program Files (x86)\Microchip\xc8\v2.00\pic\include\pic16f887.h"
   230                           EEADRH equ 010Fh ;# 
   231  010F                     # 3280 "C:\Program Files (x86)\Microchip\xc8\v2.00\pic\include\pic16f887.h"
   232                           SRCON equ 0185h ;# 
   233  0185                     # 3337 "C:\Program Files (x86)\Microchip\xc8\v2.00\pic\include\pic16f887.h"
   234                           BAUDCTL equ 0187h ;# 
   235  0187                     # 3389 "C:\Program Files (x86)\Microchip\xc8\v2.00\pic\include\pic16f887.h"
   236                           ANSEL equ 0188h ;# 
   237  0188                     # 3451 "C:\Program Files (x86)\Microchip\xc8\v2.00\pic\include\pic16f887.h"
   238                           ANSELH equ 0189h ;# 
   239  0189                     # 3501 "C:\Program Files (x86)\Microchip\xc8\v2.00\pic\include\pic16f887.h"
   240                           EECON1 equ 018Ch ;# 
   241  018C                     # 3546 "C:\Program Files (x86)\Microchip\xc8\v2.00\pic\include\pic16f887.h"
   242                           EECON2 equ 018Dh ;# 
   243  018D                     # 54 "C:\Program Files (x86)\Microchip\xc8\v2.00\pic\include\pic16f887.h"
   244                           INDF equ 00h ;# 
   245  0000                     # 61 "C:\Program Files (x86)\Microchip\xc8\v2.00\pic\include\pic16f887.h"
   246                           TMR0 equ 01h ;# 
   247  0001                     # 68 "C:\Program Files (x86)\Microchip\xc8\v2.00\pic\include\pic16f887.h"
   248                           PCL equ 02h ;# 
   249  0002                     # 75 "C:\Program Files (x86)\Microchip\xc8\v2.00\pic\include\pic16f887.h"
   250                           STATUS equ 03h ;# 
   251  0003                     # 161 "C:\Program Files (x86)\Microchip\xc8\v2.00\pic\include\pic16f887.h"
   252                           FSR equ 04h ;# 
   253  0004                     # 168 "C:\Program Files (x86)\Microchip\xc8\v2.00\pic\include\pic16f887.h"
   254                           PORTA equ 05h ;# 
   255  0005                     # 230 "C:\Program Files (x86)\Microchip\xc8\v2.00\pic\include\pic16f887.h"
   256                           PORTB equ 06h ;# 
   257  0006                     # 292 "C:\Program Files (x86)\Microchip\xc8\v2.00\pic\include\pic16f887.h"
   258                           PORTC equ 07h ;# 
   259  0007                     # 354 "C:\Program Files (x86)\Microchip\xc8\v2.00\pic\include\pic16f887.h"
   260                           PORTD equ 08h ;# 
   261  0008                     # 416 "C:\Program Files (x86)\Microchip\xc8\v2.00\pic\include\pic16f887.h"
   262                           PORTE equ 09h ;# 
   263  0009                     # 454 "C:\Program Files (x86)\Microchip\xc8\v2.00\pic\include\pic16f887.h"
   264                           PCLATH equ 0Ah ;# 
   265  000A                     # 461 "C:\Program Files (x86)\Microchip\xc8\v2.00\pic\include\pic16f887.h"
   266                           INTCON equ 0Bh ;# 
   267  000B                     # 539 "C:\Program Files (x86)\Microchip\xc8\v2.00\pic\include\pic16f887.h"
   268                           PIR1 equ 0Ch ;# 
   269  000C                     # 595 "C:\Program Files (x86)\Microchip\xc8\v2.00\pic\include\pic16f887.h"
   270                           PIR2 equ 0Dh ;# 
   271  000D                     # 652 "C:\Program Files (x86)\Microchip\xc8\v2.00\pic\include\pic16f887.h"
   272                           TMR1 equ 0Eh ;# 
   273  000E                     # 659 "C:\Program Files (x86)\Microchip\xc8\v2.00\pic\include\pic16f887.h"
   274                           TMR1L equ 0Eh ;# 
   275  000E                     # 666 "C:\Program Files (x86)\Microchip\xc8\v2.00\pic\include\pic16f887.h"
   276                           TMR1H equ 0Fh ;# 
   277  000F                     # 673 "C:\Program Files (x86)\Microchip\xc8\v2.00\pic\include\pic16f887.h"
   278                           T1CON equ 010h ;# 
   279  0010                     # 767 "C:\Program Files (x86)\Microchip\xc8\v2.00\pic\include\pic16f887.h"
   280                           TMR2 equ 011h ;# 
   281  0011                     # 774 "C:\Program Files (x86)\Microchip\xc8\v2.00\pic\include\pic16f887.h"
   282                           T2CON equ 012h ;# 
   283  0012                     # 845 "C:\Program Files (x86)\Microchip\xc8\v2.00\pic\include\pic16f887.h"
   284                           SSPBUF equ 013h ;# 
   285  0013                     # 852 "C:\Program Files (x86)\Microchip\xc8\v2.00\pic\include\pic16f887.h"
   286                           SSPCON equ 014h ;# 
   287  0014                     # 922 "C:\Program Files (x86)\Microchip\xc8\v2.00\pic\include\pic16f887.h"
   288                           CCPR1 equ 015h ;# 
   289  0015                     # 929 "C:\Program Files (x86)\Microchip\xc8\v2.00\pic\include\pic16f887.h"
   290                           CCPR1L equ 015h ;# 
   291  0015                     # 936 "C:\Program Files (x86)\Microchip\xc8\v2.00\pic\include\pic16f887.h"
   292                           CCPR1H equ 016h ;# 
   293  0016                     # 943 "C:\Program Files (x86)\Microchip\xc8\v2.00\pic\include\pic16f887.h"
   294                           CCP1CON equ 017h ;# 
   295  0017                     # 1040 "C:\Program Files (x86)\Microchip\xc8\v2.00\pic\include\pic16f887.h"
   296                           RCSTA equ 018h ;# 
   297  0018                     # 1135 "C:\Program Files (x86)\Microchip\xc8\v2.00\pic\include\pic16f887.h"
   298                           TXREG equ 019h ;# 
   299  0019                     # 1142 "C:\Program Files (x86)\Microchip\xc8\v2.00\pic\include\pic16f887.h"
   300                           RCREG equ 01Ah ;# 
   301  001A                     # 1149 "C:\Program Files (x86)\Microchip\xc8\v2.00\pic\include\pic16f887.h"
   302                           CCPR2 equ 01Bh ;# 
   303  001B                     # 1156 "C:\Program Files (x86)\Microchip\xc8\v2.00\pic\include\pic16f887.h"
   304                           CCPR2L equ 01Bh ;# 
   305  001B                     # 1163 "C:\Program Files (x86)\Microchip\xc8\v2.00\pic\include\pic16f887.h"
   306                           CCPR2H equ 01Ch ;# 
   307  001C                     # 1170 "C:\Program Files (x86)\Microchip\xc8\v2.00\pic\include\pic16f887.h"
   308                           CCP2CON equ 01Dh ;# 
   309  001D                     # 1240 "C:\Program Files (x86)\Microchip\xc8\v2.00\pic\include\pic16f887.h"
   310                           ADRESH equ 01Eh ;# 
   311  001E                     # 1247 "C:\Program Files (x86)\Microchip\xc8\v2.00\pic\include\pic16f887.h"
   312                           ADCON0 equ 01Fh ;# 
   313  001F                     # 1348 "C:\Program Files (x86)\Microchip\xc8\v2.00\pic\include\pic16f887.h"
   314                           OPTION_REG equ 081h ;# 
   315  0081                     # 1418 "C:\Program Files (x86)\Microchip\xc8\v2.00\pic\include\pic16f887.h"
   316                           TRISA equ 085h ;# 
   317  0085                     # 1480 "C:\Program Files (x86)\Microchip\xc8\v2.00\pic\include\pic16f887.h"
   318                           TRISB equ 086h ;# 
   319  0086                     # 1542 "C:\Program Files (x86)\Microchip\xc8\v2.00\pic\include\pic16f887.h"
   320                           TRISC equ 087h ;# 
   321  0087                     # 1604 "C:\Program Files (x86)\Microchip\xc8\v2.00\pic\include\pic16f887.h"
   322                           TRISD equ 088h ;# 
   323  0088                     # 1666 "C:\Program Files (x86)\Microchip\xc8\v2.00\pic\include\pic16f887.h"
   324                           TRISE equ 089h ;# 
   325  0089                     # 1704 "C:\Program Files (x86)\Microchip\xc8\v2.00\pic\include\pic16f887.h"
   326                           PIE1 equ 08Ch ;# 
   327  008C                     # 1760 "C:\Program Files (x86)\Microchip\xc8\v2.00\pic\include\pic16f887.h"
   328                           PIE2 equ 08Dh ;# 
   329  008D                     # 1817 "C:\Program Files (x86)\Microchip\xc8\v2.00\pic\include\pic16f887.h"
   330                           PCON equ 08Eh ;# 
   331  008E                     # 1864 "C:\Program Files (x86)\Microchip\xc8\v2.00\pic\include\pic16f887.h"
   332                           OSCCON equ 08Fh ;# 
   333  008F                     # 1929 "C:\Program Files (x86)\Microchip\xc8\v2.00\pic\include\pic16f887.h"
   334                           OSCTUNE equ 090h ;# 
   335  0090                     # 1981 "C:\Program Files (x86)\Microchip\xc8\v2.00\pic\include\pic16f887.h"
   336                           SSPCON2 equ 091h ;# 
   337  0091                     # 2043 "C:\Program Files (x86)\Microchip\xc8\v2.00\pic\include\pic16f887.h"
   338                           PR2 equ 092h ;# 
   339  0092                     # 2050 "C:\Program Files (x86)\Microchip\xc8\v2.00\pic\include\pic16f887.h"
   340                           SSPADD equ 093h ;# 
   341  0093                     # 2057 "C:\Program Files (x86)\Microchip\xc8\v2.00\pic\include\pic16f887.h"
   342                           SSPMSK equ 093h ;# 
   343  0093                     # 2062 "C:\Program Files (x86)\Microchip\xc8\v2.00\pic\include\pic16f887.h"
   344                           MSK equ 093h ;# 
   345  0093                     # 2179 "C:\Program Files (x86)\Microchip\xc8\v2.00\pic\include\pic16f887.h"
   346                           SSPSTAT equ 094h ;# 
   347  0094                     # 2348 "C:\Program Files (x86)\Microchip\xc8\v2.00\pic\include\pic16f887.h"
   348                           WPUB equ 095h ;# 
   349  0095                     # 2418 "C:\Program Files (x86)\Microchip\xc8\v2.00\pic\include\pic16f887.h"
   350                           IOCB equ 096h ;# 
   351  0096                     # 2488 "C:\Program Files (x86)\Microchip\xc8\v2.00\pic\include\pic16f887.h"
   352                           VRCON equ 097h ;# 
   353  0097                     # 2558 "C:\Program Files (x86)\Microchip\xc8\v2.00\pic\include\pic16f887.h"
   354                           TXSTA equ 098h ;# 
   355  0098                     # 2644 "C:\Program Files (x86)\Microchip\xc8\v2.00\pic\include\pic16f887.h"
   356                           SPBRG equ 099h ;# 
   357  0099                     # 2706 "C:\Program Files (x86)\Microchip\xc8\v2.00\pic\include\pic16f887.h"
   358                           SPBRGH equ 09Ah ;# 
   359  009A                     # 2776 "C:\Program Files (x86)\Microchip\xc8\v2.00\pic\include\pic16f887.h"
   360                           PWM1CON equ 09Bh ;# 
   361  009B                     # 2846 "C:\Program Files (x86)\Microchip\xc8\v2.00\pic\include\pic16f887.h"
   362                           ECCPAS equ 09Ch ;# 
   363  009C                     # 2928 "C:\Program Files (x86)\Microchip\xc8\v2.00\pic\include\pic16f887.h"
   364                           PSTRCON equ 09Dh ;# 
   365  009D                     # 2972 "C:\Program Files (x86)\Microchip\xc8\v2.00\pic\include\pic16f887.h"
   366                           ADRESL equ 09Eh ;# 
   367  009E                     # 2979 "C:\Program Files (x86)\Microchip\xc8\v2.00\pic\include\pic16f887.h"
   368                           ADCON1 equ 09Fh ;# 
   369  009F                     # 3013 "C:\Program Files (x86)\Microchip\xc8\v2.00\pic\include\pic16f887.h"
   370                           WDTCON equ 0105h ;# 
   371  0105                     # 3066 "C:\Program Files (x86)\Microchip\xc8\v2.00\pic\include\pic16f887.h"
   372                           CM1CON0 equ 0107h ;# 
   373  0107                     # 3131 "C:\Program Files (x86)\Microchip\xc8\v2.00\pic\include\pic16f887.h"
   374                           CM2CON0 equ 0108h ;# 
   375  0108                     # 3196 "C:\Program Files (x86)\Microchip\xc8\v2.00\pic\include\pic16f887.h"
   376                           CM2CON1 equ 0109h ;# 
   377  0109                     # 3247 "C:\Program Files (x86)\Microchip\xc8\v2.00\pic\include\pic16f887.h"
   378                           EEDATA equ 010Ch ;# 
   379  010C                     # 3252 "C:\Program Files (x86)\Microchip\xc8\v2.00\pic\include\pic16f887.h"
   380                           EEDAT equ 010Ch ;# 
   381  010C                     # 3259 "C:\Program Files (x86)\Microchip\xc8\v2.00\pic\include\pic16f887.h"
   382                           EEADR equ 010Dh ;# 
   383  010D                     # 3266 "C:\Program Files (x86)\Microchip\xc8\v2.00\pic\include\pic16f887.h"
   384                           EEDATH equ 010Eh ;# 
   385  010E                     # 3273 "C:\Program Files (x86)\Microchip\xc8\v2.00\pic\include\pic16f887.h"
   386                           EEADRH equ 010Fh ;# 
   387  010F                     # 3280 "C:\Program Files (x86)\Microchip\xc8\v2.00\pic\include\pic16f887.h"
   388                           SRCON equ 0185h ;# 
   389  0185                     # 3337 "C:\Program Files (x86)\Microchip\xc8\v2.00\pic\include\pic16f887.h"
   390                           BAUDCTL equ 0187h ;# 
   391  0187                     # 3389 "C:\Program Files (x86)\Microchip\xc8\v2.00\pic\include\pic16f887.h"
   392                           ANSEL equ 0188h ;# 
   393  0188                     # 3451 "C:\Program Files (x86)\Microchip\xc8\v2.00\pic\include\pic16f887.h"
   394                           ANSELH equ 0189h ;# 
   395  0189                     # 3501 "C:\Program Files (x86)\Microchip\xc8\v2.00\pic\include\pic16f887.h"
   396                           EECON1 equ 018Ch ;# 
   397  018C                     # 3546 "C:\Program Files (x86)\Microchip\xc8\v2.00\pic\include\pic16f887.h"
   398                           EECON2 equ 018Dh ;# 
   399  018D                     # 54 "C:\Program Files (x86)\Microchip\xc8\v2.00\pic\include\pic16f887.h"
   400                           INDF equ 00h ;# 
   401  0000                     # 61 "C:\Program Files (x86)\Microchip\xc8\v2.00\pic\include\pic16f887.h"
   402                           TMR0 equ 01h ;# 
   403  0001                     # 68 "C:\Program Files (x86)\Microchip\xc8\v2.00\pic\include\pic16f887.h"
   404                           PCL equ 02h ;# 
   405  0002                     # 75 "C:\Program Files (x86)\Microchip\xc8\v2.00\pic\include\pic16f887.h"
   406                           STATUS equ 03h ;# 
   407  0003                     # 161 "C:\Program Files (x86)\Microchip\xc8\v2.00\pic\include\pic16f887.h"
   408                           FSR equ 04h ;# 
   409  0004                     # 168 "C:\Program Files (x86)\Microchip\xc8\v2.00\pic\include\pic16f887.h"
   410                           PORTA equ 05h ;# 
   411  0005                     # 230 "C:\Program Files (x86)\Microchip\xc8\v2.00\pic\include\pic16f887.h"
   412                           PORTB equ 06h ;# 
   413  0006                     # 292 "C:\Program Files (x86)\Microchip\xc8\v2.00\pic\include\pic16f887.h"
   414                           PORTC equ 07h ;# 
   415  0007                     # 354 "C:\Program Files (x86)\Microchip\xc8\v2.00\pic\include\pic16f887.h"
   416                           PORTD equ 08h ;# 
   417  0008                     # 416 "C:\Program Files (x86)\Microchip\xc8\v2.00\pic\include\pic16f887.h"
   418                           PORTE equ 09h ;# 
   419  0009                     # 454 "C:\Program Files (x86)\Microchip\xc8\v2.00\pic\include\pic16f887.h"
   420                           PCLATH equ 0Ah ;# 
   421  000A                     # 461 "C:\Program Files (x86)\Microchip\xc8\v2.00\pic\include\pic16f887.h"
   422                           INTCON equ 0Bh ;# 
   423  000B                     # 539 "C:\Program Files (x86)\Microchip\xc8\v2.00\pic\include\pic16f887.h"
   424                           PIR1 equ 0Ch ;# 
   425  000C                     # 595 "C:\Program Files (x86)\Microchip\xc8\v2.00\pic\include\pic16f887.h"
   426                           PIR2 equ 0Dh ;# 
   427  000D                     # 652 "C:\Program Files (x86)\Microchip\xc8\v2.00\pic\include\pic16f887.h"
   428                           TMR1 equ 0Eh ;# 
   429  000E                     # 659 "C:\Program Files (x86)\Microchip\xc8\v2.00\pic\include\pic16f887.h"
   430                           TMR1L equ 0Eh ;# 
   431  000E                     # 666 "C:\Program Files (x86)\Microchip\xc8\v2.00\pic\include\pic16f887.h"
   432                           TMR1H equ 0Fh ;# 
   433  000F                     # 673 "C:\Program Files (x86)\Microchip\xc8\v2.00\pic\include\pic16f887.h"
   434                           T1CON equ 010h ;# 
   435  0010                     # 767 "C:\Program Files (x86)\Microchip\xc8\v2.00\pic\include\pic16f887.h"
   436                           TMR2 equ 011h ;# 
   437  0011                     # 774 "C:\Program Files (x86)\Microchip\xc8\v2.00\pic\include\pic16f887.h"
   438                           T2CON equ 012h ;# 
   439  0012                     # 845 "C:\Program Files (x86)\Microchip\xc8\v2.00\pic\include\pic16f887.h"
   440                           SSPBUF equ 013h ;# 
   441  0013                     # 852 "C:\Program Files (x86)\Microchip\xc8\v2.00\pic\include\pic16f887.h"
   442                           SSPCON equ 014h ;# 
   443  0014                     # 922 "C:\Program Files (x86)\Microchip\xc8\v2.00\pic\include\pic16f887.h"
   444                           CCPR1 equ 015h ;# 
   445  0015                     # 929 "C:\Program Files (x86)\Microchip\xc8\v2.00\pic\include\pic16f887.h"
   446                           CCPR1L equ 015h ;# 
   447  0015                     # 936 "C:\Program Files (x86)\Microchip\xc8\v2.00\pic\include\pic16f887.h"
   448                           CCPR1H equ 016h ;# 
   449  0016                     # 943 "C:\Program Files (x86)\Microchip\xc8\v2.00\pic\include\pic16f887.h"
   450                           CCP1CON equ 017h ;# 
   451  0017                     # 1040 "C:\Program Files (x86)\Microchip\xc8\v2.00\pic\include\pic16f887.h"
   452                           RCSTA equ 018h ;# 
   453  0018                     # 1135 "C:\Program Files (x86)\Microchip\xc8\v2.00\pic\include\pic16f887.h"
   454                           TXREG equ 019h ;# 
   455  0019                     # 1142 "C:\Program Files (x86)\Microchip\xc8\v2.00\pic\include\pic16f887.h"
   456                           RCREG equ 01Ah ;# 
   457  001A                     # 1149 "C:\Program Files (x86)\Microchip\xc8\v2.00\pic\include\pic16f887.h"
   458                           CCPR2 equ 01Bh ;# 
   459  001B                     # 1156 "C:\Program Files (x86)\Microchip\xc8\v2.00\pic\include\pic16f887.h"
   460                           CCPR2L equ 01Bh ;# 
   461  001B                     # 1163 "C:\Program Files (x86)\Microchip\xc8\v2.00\pic\include\pic16f887.h"
   462                           CCPR2H equ 01Ch ;# 
   463  001C                     # 1170 "C:\Program Files (x86)\Microchip\xc8\v2.00\pic\include\pic16f887.h"
   464                           CCP2CON equ 01Dh ;# 
   465  001D                     # 1240 "C:\Program Files (x86)\Microchip\xc8\v2.00\pic\include\pic16f887.h"
   466                           ADRESH equ 01Eh ;# 
   467  001E                     # 1247 "C:\Program Files (x86)\Microchip\xc8\v2.00\pic\include\pic16f887.h"
   468                           ADCON0 equ 01Fh ;# 
   469  001F                     # 1348 "C:\Program Files (x86)\Microchip\xc8\v2.00\pic\include\pic16f887.h"
   470                           OPTION_REG equ 081h ;# 
   471  0081                     # 1418 "C:\Program Files (x86)\Microchip\xc8\v2.00\pic\include\pic16f887.h"
   472                           TRISA equ 085h ;# 
   473  0085                     # 1480 "C:\Program Files (x86)\Microchip\xc8\v2.00\pic\include\pic16f887.h"
   474                           TRISB equ 086h ;# 
   475  0086                     # 1542 "C:\Program Files (x86)\Microchip\xc8\v2.00\pic\include\pic16f887.h"
   476                           TRISC equ 087h ;# 
   477  0087                     # 1604 "C:\Program Files (x86)\Microchip\xc8\v2.00\pic\include\pic16f887.h"
   478                           TRISD equ 088h ;# 
   479  0088                     # 1666 "C:\Program Files (x86)\Microchip\xc8\v2.00\pic\include\pic16f887.h"
   480                           TRISE equ 089h ;# 
   481  0089                     # 1704 "C:\Program Files (x86)\Microchip\xc8\v2.00\pic\include\pic16f887.h"
   482                           PIE1 equ 08Ch ;# 
   483  008C                     # 1760 "C:\Program Files (x86)\Microchip\xc8\v2.00\pic\include\pic16f887.h"
   484                           PIE2 equ 08Dh ;# 
   485  008D                     # 1817 "C:\Program Files (x86)\Microchip\xc8\v2.00\pic\include\pic16f887.h"
   486                           PCON equ 08Eh ;# 
   487  008E                     # 1864 "C:\Program Files (x86)\Microchip\xc8\v2.00\pic\include\pic16f887.h"
   488                           OSCCON equ 08Fh ;# 
   489  008F                     # 1929 "C:\Program Files (x86)\Microchip\xc8\v2.00\pic\include\pic16f887.h"
   490                           OSCTUNE equ 090h ;# 
   491  0090                     # 1981 "C:\Program Files (x86)\Microchip\xc8\v2.00\pic\include\pic16f887.h"
   492                           SSPCON2 equ 091h ;# 
   493  0091                     # 2043 "C:\Program Files (x86)\Microchip\xc8\v2.00\pic\include\pic16f887.h"
   494                           PR2 equ 092h ;# 
   495  0092                     # 2050 "C:\Program Files (x86)\Microchip\xc8\v2.00\pic\include\pic16f887.h"
   496                           SSPADD equ 093h ;# 
   497  0093                     # 2057 "C:\Program Files (x86)\Microchip\xc8\v2.00\pic\include\pic16f887.h"
   498                           SSPMSK equ 093h ;# 
   499  0093                     # 2062 "C:\Program Files (x86)\Microchip\xc8\v2.00\pic\include\pic16f887.h"
   500                           MSK equ 093h ;# 
   501  0093                     # 2179 "C:\Program Files (x86)\Microchip\xc8\v2.00\pic\include\pic16f887.h"
   502                           SSPSTAT equ 094h ;# 
   503  0094                     # 2348 "C:\Program Files (x86)\Microchip\xc8\v2.00\pic\include\pic16f887.h"
   504                           WPUB equ 095h ;# 
   505  0095                     # 2418 "C:\Program Files (x86)\Microchip\xc8\v2.00\pic\include\pic16f887.h"
   506                           IOCB equ 096h ;# 
   507  0096                     # 2488 "C:\Program Files (x86)\Microchip\xc8\v2.00\pic\include\pic16f887.h"
   508                           VRCON equ 097h ;# 
   509  0097                     # 2558 "C:\Program Files (x86)\Microchip\xc8\v2.00\pic\include\pic16f887.h"
   510                           TXSTA equ 098h ;# 
   511  0098                     # 2644 "C:\Program Files (x86)\Microchip\xc8\v2.00\pic\include\pic16f887.h"
   512                           SPBRG equ 099h ;# 
   513  0099                     # 2706 "C:\Program Files (x86)\Microchip\xc8\v2.00\pic\include\pic16f887.h"
   514                           SPBRGH equ 09Ah ;# 
   515  009A                     # 2776 "C:\Program Files (x86)\Microchip\xc8\v2.00\pic\include\pic16f887.h"
   516                           PWM1CON equ 09Bh ;# 
   517  009B                     # 2846 "C:\Program Files (x86)\Microchip\xc8\v2.00\pic\include\pic16f887.h"
   518                           ECCPAS equ 09Ch ;# 
   519  009C                     # 2928 "C:\Program Files (x86)\Microchip\xc8\v2.00\pic\include\pic16f887.h"
   520                           PSTRCON equ 09Dh ;# 
   521  009D                     # 2972 "C:\Program Files (x86)\Microchip\xc8\v2.00\pic\include\pic16f887.h"
   522                           ADRESL equ 09Eh ;# 
   523  009E                     # 2979 "C:\Program Files (x86)\Microchip\xc8\v2.00\pic\include\pic16f887.h"
   524                           ADCON1 equ 09Fh ;# 
   525  009F                     # 3013 "C:\Program Files (x86)\Microchip\xc8\v2.00\pic\include\pic16f887.h"
   526                           WDTCON equ 0105h ;# 
   527  0105                     # 3066 "C:\Program Files (x86)\Microchip\xc8\v2.00\pic\include\pic16f887.h"
   528                           CM1CON0 equ 0107h ;# 
   529  0107                     # 3131 "C:\Program Files (x86)\Microchip\xc8\v2.00\pic\include\pic16f887.h"
   530                           CM2CON0 equ 0108h ;# 
   531  0108                     # 3196 "C:\Program Files (x86)\Microchip\xc8\v2.00\pic\include\pic16f887.h"
   532                           CM2CON1 equ 0109h ;# 
   533  0109                     # 3247 "C:\Program Files (x86)\Microchip\xc8\v2.00\pic\include\pic16f887.h"
   534                           EEDATA equ 010Ch ;# 
   535  010C                     # 3252 "C:\Program Files (x86)\Microchip\xc8\v2.00\pic\include\pic16f887.h"
   536                           EEDAT equ 010Ch ;# 
   537  010C                     # 3259 "C:\Program Files (x86)\Microchip\xc8\v2.00\pic\include\pic16f887.h"
   538                           EEADR equ 010Dh ;# 
   539  010D                     # 3266 "C:\Program Files (x86)\Microchip\xc8\v2.00\pic\include\pic16f887.h"
   540                           EEDATH equ 010Eh ;# 
   541  010E                     # 3273 "C:\Program Files (x86)\Microchip\xc8\v2.00\pic\include\pic16f887.h"
   542                           EEADRH equ 010Fh ;# 
   543  010F                     # 3280 "C:\Program Files (x86)\Microchip\xc8\v2.00\pic\include\pic16f887.h"
   544                           SRCON equ 0185h ;# 
   545  0185                     # 3337 "C:\Program Files (x86)\Microchip\xc8\v2.00\pic\include\pic16f887.h"
   546                           BAUDCTL equ 0187h ;# 
   547  0187                     # 3389 "C:\Program Files (x86)\Microchip\xc8\v2.00\pic\include\pic16f887.h"
   548                           ANSEL equ 0188h ;# 
   549  0188                     # 3451 "C:\Program Files (x86)\Microchip\xc8\v2.00\pic\include\pic16f887.h"
   550                           ANSELH equ 0189h ;# 
   551  0189                     # 3501 "C:\Program Files (x86)\Microchip\xc8\v2.00\pic\include\pic16f887.h"
   552                           EECON1 equ 018Ch ;# 
   553  018C                     # 3546 "C:\Program Files (x86)\Microchip\xc8\v2.00\pic\include\pic16f887.h"
   554                           EECON2 equ 018Dh ;# 
   555  018D                     # 54 "C:\Program Files (x86)\Microchip\xc8\v2.00\pic\include\pic16f887.h"
   556                           INDF equ 00h ;# 
   557  0000                     # 61 "C:\Program Files (x86)\Microchip\xc8\v2.00\pic\include\pic16f887.h"
   558                           TMR0 equ 01h ;# 
   559  0001                     # 68 "C:\Program Files (x86)\Microchip\xc8\v2.00\pic\include\pic16f887.h"
   560                           PCL equ 02h ;# 
   561  0002                     # 75 "C:\Program Files (x86)\Microchip\xc8\v2.00\pic\include\pic16f887.h"
   562                           STATUS equ 03h ;# 
   563  0003                     # 161 "C:\Program Files (x86)\Microchip\xc8\v2.00\pic\include\pic16f887.h"
   564                           FSR equ 04h ;# 
   565  0004                     # 168 "C:\Program Files (x86)\Microchip\xc8\v2.00\pic\include\pic16f887.h"
   566                           PORTA equ 05h ;# 
   567  0005                     # 230 "C:\Program Files (x86)\Microchip\xc8\v2.00\pic\include\pic16f887.h"
   568                           PORTB equ 06h ;# 
   569  0006                     # 292 "C:\Program Files (x86)\Microchip\xc8\v2.00\pic\include\pic16f887.h"
   570                           PORTC equ 07h ;# 
   571  0007                     # 354 "C:\Program Files (x86)\Microchip\xc8\v2.00\pic\include\pic16f887.h"
   572                           PORTD equ 08h ;# 
   573  0008                     # 416 "C:\Program Files (x86)\Microchip\xc8\v2.00\pic\include\pic16f887.h"
   574                           PORTE equ 09h ;# 
   575  0009                     # 454 "C:\Program Files (x86)\Microchip\xc8\v2.00\pic\include\pic16f887.h"
   576                           PCLATH equ 0Ah ;# 
   577  000A                     # 461 "C:\Program Files (x86)\Microchip\xc8\v2.00\pic\include\pic16f887.h"
   578                           INTCON equ 0Bh ;# 
   579  000B                     # 539 "C:\Program Files (x86)\Microchip\xc8\v2.00\pic\include\pic16f887.h"
   580                           PIR1 equ 0Ch ;# 
   581  000C                     # 595 "C:\Program Files (x86)\Microchip\xc8\v2.00\pic\include\pic16f887.h"
   582                           PIR2 equ 0Dh ;# 
   583  000D                     # 652 "C:\Program Files (x86)\Microchip\xc8\v2.00\pic\include\pic16f887.h"
   584                           TMR1 equ 0Eh ;# 
   585  000E                     # 659 "C:\Program Files (x86)\Microchip\xc8\v2.00\pic\include\pic16f887.h"
   586                           TMR1L equ 0Eh ;# 
   587  000E                     # 666 "C:\Program Files (x86)\Microchip\xc8\v2.00\pic\include\pic16f887.h"
   588                           TMR1H equ 0Fh ;# 
   589  000F                     # 673 "C:\Program Files (x86)\Microchip\xc8\v2.00\pic\include\pic16f887.h"
   590                           T1CON equ 010h ;# 
   591  0010                     # 767 "C:\Program Files (x86)\Microchip\xc8\v2.00\pic\include\pic16f887.h"
   592                           TMR2 equ 011h ;# 
   593  0011                     # 774 "C:\Program Files (x86)\Microchip\xc8\v2.00\pic\include\pic16f887.h"
   594                           T2CON equ 012h ;# 
   595  0012                     # 845 "C:\Program Files (x86)\Microchip\xc8\v2.00\pic\include\pic16f887.h"
   596                           SSPBUF equ 013h ;# 
   597  0013                     # 852 "C:\Program Files (x86)\Microchip\xc8\v2.00\pic\include\pic16f887.h"
   598                           SSPCON equ 014h ;# 
   599  0014                     # 922 "C:\Program Files (x86)\Microchip\xc8\v2.00\pic\include\pic16f887.h"
   600                           CCPR1 equ 015h ;# 
   601  0015                     # 929 "C:\Program Files (x86)\Microchip\xc8\v2.00\pic\include\pic16f887.h"
   602                           CCPR1L equ 015h ;# 
   603  0015                     # 936 "C:\Program Files (x86)\Microchip\xc8\v2.00\pic\include\pic16f887.h"
   604                           CCPR1H equ 016h ;# 
   605  0016                     # 943 "C:\Program Files (x86)\Microchip\xc8\v2.00\pic\include\pic16f887.h"
   606                           CCP1CON equ 017h ;# 
   607  0017                     # 1040 "C:\Program Files (x86)\Microchip\xc8\v2.00\pic\include\pic16f887.h"
   608                           RCSTA equ 018h ;# 
   609  0018                     # 1135 "C:\Program Files (x86)\Microchip\xc8\v2.00\pic\include\pic16f887.h"
   610                           TXREG equ 019h ;# 
   611  0019                     # 1142 "C:\Program Files (x86)\Microchip\xc8\v2.00\pic\include\pic16f887.h"
   612                           RCREG equ 01Ah ;# 
   613  001A                     # 1149 "C:\Program Files (x86)\Microchip\xc8\v2.00\pic\include\pic16f887.h"
   614                           CCPR2 equ 01Bh ;# 
   615  001B                     # 1156 "C:\Program Files (x86)\Microchip\xc8\v2.00\pic\include\pic16f887.h"
   616                           CCPR2L equ 01Bh ;# 
   617  001B                     # 1163 "C:\Program Files (x86)\Microchip\xc8\v2.00\pic\include\pic16f887.h"
   618                           CCPR2H equ 01Ch ;# 
   619  001C                     # 1170 "C:\Program Files (x86)\Microchip\xc8\v2.00\pic\include\pic16f887.h"
   620                           CCP2CON equ 01Dh ;# 
   621  001D                     # 1240 "C:\Program Files (x86)\Microchip\xc8\v2.00\pic\include\pic16f887.h"
   622                           ADRESH equ 01Eh ;# 
   623  001E                     # 1247 "C:\Program Files (x86)\Microchip\xc8\v2.00\pic\include\pic16f887.h"
   624                           ADCON0 equ 01Fh ;# 
   625  001F                     # 1348 "C:\Program Files (x86)\Microchip\xc8\v2.00\pic\include\pic16f887.h"
   626                           OPTION_REG equ 081h ;# 
   627  0081                     # 1418 "C:\Program Files (x86)\Microchip\xc8\v2.00\pic\include\pic16f887.h"
   628                           TRISA equ 085h ;# 
   629  0085                     # 1480 "C:\Program Files (x86)\Microchip\xc8\v2.00\pic\include\pic16f887.h"
   630                           TRISB equ 086h ;# 
   631  0086                     # 1542 "C:\Program Files (x86)\Microchip\xc8\v2.00\pic\include\pic16f887.h"
   632                           TRISC equ 087h ;# 
   633  0087                     # 1604 "C:\Program Files (x86)\Microchip\xc8\v2.00\pic\include\pic16f887.h"
   634                           TRISD equ 088h ;# 
   635  0088                     # 1666 "C:\Program Files (x86)\Microchip\xc8\v2.00\pic\include\pic16f887.h"
   636                           TRISE equ 089h ;# 
   637  0089                     # 1704 "C:\Program Files (x86)\Microchip\xc8\v2.00\pic\include\pic16f887.h"
   638                           PIE1 equ 08Ch ;# 
   639  008C                     # 1760 "C:\Program Files (x86)\Microchip\xc8\v2.00\pic\include\pic16f887.h"
   640                           PIE2 equ 08Dh ;# 
   641  008D                     # 1817 "C:\Program Files (x86)\Microchip\xc8\v2.00\pic\include\pic16f887.h"
   642                           PCON equ 08Eh ;# 
   643  008E                     # 1864 "C:\Program Files (x86)\Microchip\xc8\v2.00\pic\include\pic16f887.h"
   644                           OSCCON equ 08Fh ;# 
   645  008F                     # 1929 "C:\Program Files (x86)\Microchip\xc8\v2.00\pic\include\pic16f887.h"
   646                           OSCTUNE equ 090h ;# 
   647  0090                     # 1981 "C:\Program Files (x86)\Microchip\xc8\v2.00\pic\include\pic16f887.h"
   648                           SSPCON2 equ 091h ;# 
   649  0091                     # 2043 "C:\Program Files (x86)\Microchip\xc8\v2.00\pic\include\pic16f887.h"
   650                           PR2 equ 092h ;# 
   651  0092                     # 2050 "C:\Program Files (x86)\Microchip\xc8\v2.00\pic\include\pic16f887.h"
   652                           SSPADD equ 093h ;# 
   653  0093                     # 2057 "C:\Program Files (x86)\Microchip\xc8\v2.00\pic\include\pic16f887.h"
   654                           SSPMSK equ 093h ;# 
   655  0093                     # 2062 "C:\Program Files (x86)\Microchip\xc8\v2.00\pic\include\pic16f887.h"
   656                           MSK equ 093h ;# 
   657  0093                     # 2179 "C:\Program Files (x86)\Microchip\xc8\v2.00\pic\include\pic16f887.h"
   658                           SSPSTAT equ 094h ;# 
   659  0094                     # 2348 "C:\Program Files (x86)\Microchip\xc8\v2.00\pic\include\pic16f887.h"
   660                           WPUB equ 095h ;# 
   661  0095                     # 2418 "C:\Program Files (x86)\Microchip\xc8\v2.00\pic\include\pic16f887.h"
   662                           IOCB equ 096h ;# 
   663  0096                     # 2488 "C:\Program Files (x86)\Microchip\xc8\v2.00\pic\include\pic16f887.h"
   664                           VRCON equ 097h ;# 
   665  0097                     # 2558 "C:\Program Files (x86)\Microchip\xc8\v2.00\pic\include\pic16f887.h"
   666                           TXSTA equ 098h ;# 
   667  0098                     # 2644 "C:\Program Files (x86)\Microchip\xc8\v2.00\pic\include\pic16f887.h"
   668                           SPBRG equ 099h ;# 
   669  0099                     # 2706 "C:\Program Files (x86)\Microchip\xc8\v2.00\pic\include\pic16f887.h"
   670                           SPBRGH equ 09Ah ;# 
   671  009A                     # 2776 "C:\Program Files (x86)\Microchip\xc8\v2.00\pic\include\pic16f887.h"
   672                           PWM1CON equ 09Bh ;# 
   673  009B                     # 2846 "C:\Program Files (x86)\Microchip\xc8\v2.00\pic\include\pic16f887.h"
   674                           ECCPAS equ 09Ch ;# 
   675  009C                     # 2928 "C:\Program Files (x86)\Microchip\xc8\v2.00\pic\include\pic16f887.h"
   676                           PSTRCON equ 09Dh ;# 
   677  009D                     # 2972 "C:\Program Files (x86)\Microchip\xc8\v2.00\pic\include\pic16f887.h"
   678                           ADRESL equ 09Eh ;# 
   679  009E                     # 2979 "C:\Program Files (x86)\Microchip\xc8\v2.00\pic\include\pic16f887.h"
   680                           ADCON1 equ 09Fh ;# 
   681  009F                     # 3013 "C:\Program Files (x86)\Microchip\xc8\v2.00\pic\include\pic16f887.h"
   682                           WDTCON equ 0105h ;# 
   683  0105                     # 3066 "C:\Program Files (x86)\Microchip\xc8\v2.00\pic\include\pic16f887.h"
   684                           CM1CON0 equ 0107h ;# 
   685  0107                     # 3131 "C:\Program Files (x86)\Microchip\xc8\v2.00\pic\include\pic16f887.h"
   686                           CM2CON0 equ 0108h ;# 
   687  0108                     # 3196 "C:\Program Files (x86)\Microchip\xc8\v2.00\pic\include\pic16f887.h"
   688                           CM2CON1 equ 0109h ;# 
   689  0109                     # 3247 "C:\Program Files (x86)\Microchip\xc8\v2.00\pic\include\pic16f887.h"
   690                           EEDATA equ 010Ch ;# 
   691  010C                     # 3252 "C:\Program Files (x86)\Microchip\xc8\v2.00\pic\include\pic16f887.h"
   692                           EEDAT equ 010Ch ;# 
   693  010C                     # 3259 "C:\Program Files (x86)\Microchip\xc8\v2.00\pic\include\pic16f887.h"
   694                           EEADR equ 010Dh ;# 
   695  010D                     # 3266 "C:\Program Files (x86)\Microchip\xc8\v2.00\pic\include\pic16f887.h"
   696                           EEDATH equ 010Eh ;# 
   697  010E                     # 3273 "C:\Program Files (x86)\Microchip\xc8\v2.00\pic\include\pic16f887.h"
   698                           EEADRH equ 010Fh ;# 
   699  010F                     # 3280 "C:\Program Files (x86)\Microchip\xc8\v2.00\pic\include\pic16f887.h"
   700                           SRCON equ 0185h ;# 
   701  0185                     # 3337 "C:\Program Files (x86)\Microchip\xc8\v2.00\pic\include\pic16f887.h"
   702                           BAUDCTL equ 0187h ;# 
   703  0187                     # 3389 "C:\Program Files (x86)\Microchip\xc8\v2.00\pic\include\pic16f887.h"
   704                           ANSEL equ 0188h ;# 
   705  0188                     # 3451 "C:\Program Files (x86)\Microchip\xc8\v2.00\pic\include\pic16f887.h"
   706                           ANSELH equ 0189h ;# 
   707  0189                     # 3501 "C:\Program Files (x86)\Microchip\xc8\v2.00\pic\include\pic16f887.h"
   708                           EECON1 equ 018Ch ;# 
   709  018C                     # 3546 "C:\Program Files (x86)\Microchip\xc8\v2.00\pic\include\pic16f887.h"
   710                           EECON2 equ 018Dh ;# 
   711  018D                     # 54 "C:\Program Files (x86)\Microchip\xc8\v2.00\pic\include\pic16f887.h"
   712                           INDF equ 00h ;# 
   713  0000                     # 61 "C:\Program Files (x86)\Microchip\xc8\v2.00\pic\include\pic16f887.h"
   714                           TMR0 equ 01h ;# 
   715  0001                     # 68 "C:\Program Files (x86)\Microchip\xc8\v2.00\pic\include\pic16f887.h"
   716                           PCL equ 02h ;# 
   717  0002                     # 75 "C:\Program Files (x86)\Microchip\xc8\v2.00\pic\include\pic16f887.h"
   718                           STATUS equ 03h ;# 
   719  0003                     # 161 "C:\Program Files (x86)\Microchip\xc8\v2.00\pic\include\pic16f887.h"
   720                           FSR equ 04h ;# 
   721  0004                     # 168 "C:\Program Files (x86)\Microchip\xc8\v2.00\pic\include\pic16f887.h"
   722                           PORTA equ 05h ;# 
   723  0005                     # 230 "C:\Program Files (x86)\Microchip\xc8\v2.00\pic\include\pic16f887.h"
   724                           PORTB equ 06h ;# 
   725  0006                     # 292 "C:\Program Files (x86)\Microchip\xc8\v2.00\pic\include\pic16f887.h"
   726                           PORTC equ 07h ;# 
   727  0007                     # 354 "C:\Program Files (x86)\Microchip\xc8\v2.00\pic\include\pic16f887.h"
   728                           PORTD equ 08h ;# 
   729  0008                     # 416 "C:\Program Files (x86)\Microchip\xc8\v2.00\pic\include\pic16f887.h"
   730                           PORTE equ 09h ;# 
   731  0009                     # 454 "C:\Program Files (x86)\Microchip\xc8\v2.00\pic\include\pic16f887.h"
   732                           PCLATH equ 0Ah ;# 
   733  000A                     # 461 "C:\Program Files (x86)\Microchip\xc8\v2.00\pic\include\pic16f887.h"
   734                           INTCON equ 0Bh ;# 
   735  000B                     # 539 "C:\Program Files (x86)\Microchip\xc8\v2.00\pic\include\pic16f887.h"
   736                           PIR1 equ 0Ch ;# 
   737  000C                     # 595 "C:\Program Files (x86)\Microchip\xc8\v2.00\pic\include\pic16f887.h"
   738                           PIR2 equ 0Dh ;# 
   739  000D                     # 652 "C:\Program Files (x86)\Microchip\xc8\v2.00\pic\include\pic16f887.h"
   740                           TMR1 equ 0Eh ;# 
   741  000E                     # 659 "C:\Program Files (x86)\Microchip\xc8\v2.00\pic\include\pic16f887.h"
   742                           TMR1L equ 0Eh ;# 
   743  000E                     # 666 "C:\Program Files (x86)\Microchip\xc8\v2.00\pic\include\pic16f887.h"
   744                           TMR1H equ 0Fh ;# 
   745  000F                     # 673 "C:\Program Files (x86)\Microchip\xc8\v2.00\pic\include\pic16f887.h"
   746                           T1CON equ 010h ;# 
   747  0010                     # 767 "C:\Program Files (x86)\Microchip\xc8\v2.00\pic\include\pic16f887.h"
   748                           TMR2 equ 011h ;# 
   749  0011                     # 774 "C:\Program Files (x86)\Microchip\xc8\v2.00\pic\include\pic16f887.h"
   750                           T2CON equ 012h ;# 
   751  0012                     # 845 "C:\Program Files (x86)\Microchip\xc8\v2.00\pic\include\pic16f887.h"
   752                           SSPBUF equ 013h ;# 
   753  0013                     # 852 "C:\Program Files (x86)\Microchip\xc8\v2.00\pic\include\pic16f887.h"
   754                           SSPCON equ 014h ;# 
   755  0014                     # 922 "C:\Program Files (x86)\Microchip\xc8\v2.00\pic\include\pic16f887.h"
   756                           CCPR1 equ 015h ;# 
   757  0015                     # 929 "C:\Program Files (x86)\Microchip\xc8\v2.00\pic\include\pic16f887.h"
   758                           CCPR1L equ 015h ;# 
   759  0015                     # 936 "C:\Program Files (x86)\Microchip\xc8\v2.00\pic\include\pic16f887.h"
   760                           CCPR1H equ 016h ;# 
   761  0016                     # 943 "C:\Program Files (x86)\Microchip\xc8\v2.00\pic\include\pic16f887.h"
   762                           CCP1CON equ 017h ;# 
   763  0017                     # 1040 "C:\Program Files (x86)\Microchip\xc8\v2.00\pic\include\pic16f887.h"
   764                           RCSTA equ 018h ;# 
   765  0018                     # 1135 "C:\Program Files (x86)\Microchip\xc8\v2.00\pic\include\pic16f887.h"
   766                           TXREG equ 019h ;# 
   767  0019                     # 1142 "C:\Program Files (x86)\Microchip\xc8\v2.00\pic\include\pic16f887.h"
   768                           RCREG equ 01Ah ;# 
   769  001A                     # 1149 "C:\Program Files (x86)\Microchip\xc8\v2.00\pic\include\pic16f887.h"
   770                           CCPR2 equ 01Bh ;# 
   771  001B                     # 1156 "C:\Program Files (x86)\Microchip\xc8\v2.00\pic\include\pic16f887.h"
   772                           CCPR2L equ 01Bh ;# 
   773  001B                     # 1163 "C:\Program Files (x86)\Microchip\xc8\v2.00\pic\include\pic16f887.h"
   774                           CCPR2H equ 01Ch ;# 
   775  001C                     # 1170 "C:\Program Files (x86)\Microchip\xc8\v2.00\pic\include\pic16f887.h"
   776                           CCP2CON equ 01Dh ;# 
   777  001D                     # 1240 "C:\Program Files (x86)\Microchip\xc8\v2.00\pic\include\pic16f887.h"
   778                           ADRESH equ 01Eh ;# 
   779  001E                     # 1247 "C:\Program Files (x86)\Microchip\xc8\v2.00\pic\include\pic16f887.h"
   780                           ADCON0 equ 01Fh ;# 
   781  001F                     # 1348 "C:\Program Files (x86)\Microchip\xc8\v2.00\pic\include\pic16f887.h"
   782                           OPTION_REG equ 081h ;# 
   783  0081                     # 1418 "C:\Program Files (x86)\Microchip\xc8\v2.00\pic\include\pic16f887.h"
   784                           TRISA equ 085h ;# 
   785  0085                     # 1480 "C:\Program Files (x86)\Microchip\xc8\v2.00\pic\include\pic16f887.h"
   786                           TRISB equ 086h ;# 
   787  0086                     # 1542 "C:\Program Files (x86)\Microchip\xc8\v2.00\pic\include\pic16f887.h"
   788                           TRISC equ 087h ;# 
   789  0087                     # 1604 "C:\Program Files (x86)\Microchip\xc8\v2.00\pic\include\pic16f887.h"
   790                           TRISD equ 088h ;# 
   791  0088                     # 1666 "C:\Program Files (x86)\Microchip\xc8\v2.00\pic\include\pic16f887.h"
   792                           TRISE equ 089h ;# 
   793  0089                     # 1704 "C:\Program Files (x86)\Microchip\xc8\v2.00\pic\include\pic16f887.h"
   794                           PIE1 equ 08Ch ;# 
   795  008C                     # 1760 "C:\Program Files (x86)\Microchip\xc8\v2.00\pic\include\pic16f887.h"
   796                           PIE2 equ 08Dh ;# 
   797  008D                     # 1817 "C:\Program Files (x86)\Microchip\xc8\v2.00\pic\include\pic16f887.h"
   798                           PCON equ 08Eh ;# 
   799  008E                     # 1864 "C:\Program Files (x86)\Microchip\xc8\v2.00\pic\include\pic16f887.h"
   800                           OSCCON equ 08Fh ;# 
   801  008F                     # 1929 "C:\Program Files (x86)\Microchip\xc8\v2.00\pic\include\pic16f887.h"
   802                           OSCTUNE equ 090h ;# 
   803  0090                     # 1981 "C:\Program Files (x86)\Microchip\xc8\v2.00\pic\include\pic16f887.h"
   804                           SSPCON2 equ 091h ;# 
   805  0091                     # 2043 "C:\Program Files (x86)\Microchip\xc8\v2.00\pic\include\pic16f887.h"
   806                           PR2 equ 092h ;# 
   807  0092                     # 2050 "C:\Program Files (x86)\Microchip\xc8\v2.00\pic\include\pic16f887.h"
   808                           SSPADD equ 093h ;# 
   809  0093                     # 2057 "C:\Program Files (x86)\Microchip\xc8\v2.00\pic\include\pic16f887.h"
   810                           SSPMSK equ 093h ;# 
   811  0093                     # 2062 "C:\Program Files (x86)\Microchip\xc8\v2.00\pic\include\pic16f887.h"
   812                           MSK equ 093h ;# 
   813  0093                     # 2179 "C:\Program Files (x86)\Microchip\xc8\v2.00\pic\include\pic16f887.h"
   814                           SSPSTAT equ 094h ;# 
   815  0094                     # 2348 "C:\Program Files (x86)\Microchip\xc8\v2.00\pic\include\pic16f887.h"
   816                           WPUB equ 095h ;# 
   817  0095                     # 2418 "C:\Program Files (x86)\Microchip\xc8\v2.00\pic\include\pic16f887.h"
   818                           IOCB equ 096h ;# 
   819  0096                     # 2488 "C:\Program Files (x86)\Microchip\xc8\v2.00\pic\include\pic16f887.h"
   820                           VRCON equ 097h ;# 
   821  0097                     # 2558 "C:\Program Files (x86)\Microchip\xc8\v2.00\pic\include\pic16f887.h"
   822                           TXSTA equ 098h ;# 
   823  0098                     # 2644 "C:\Program Files (x86)\Microchip\xc8\v2.00\pic\include\pic16f887.h"
   824                           SPBRG equ 099h ;# 
   825  0099                     # 2706 "C:\Program Files (x86)\Microchip\xc8\v2.00\pic\include\pic16f887.h"
   826                           SPBRGH equ 09Ah ;# 
   827  009A                     # 2776 "C:\Program Files (x86)\Microchip\xc8\v2.00\pic\include\pic16f887.h"
   828                           PWM1CON equ 09Bh ;# 
   829  009B                     # 2846 "C:\Program Files (x86)\Microchip\xc8\v2.00\pic\include\pic16f887.h"
   830                           ECCPAS equ 09Ch ;# 
   831  009C                     # 2928 "C:\Program Files (x86)\Microchip\xc8\v2.00\pic\include\pic16f887.h"
   832                           PSTRCON equ 09Dh ;# 
   833  009D                     # 2972 "C:\Program Files (x86)\Microchip\xc8\v2.00\pic\include\pic16f887.h"
   834                           ADRESL equ 09Eh ;# 
   835  009E                     # 2979 "C:\Program Files (x86)\Microchip\xc8\v2.00\pic\include\pic16f887.h"
   836                           ADCON1 equ 09Fh ;# 
   837  009F                     # 3013 "C:\Program Files (x86)\Microchip\xc8\v2.00\pic\include\pic16f887.h"
   838                           WDTCON equ 0105h ;# 
   839  0105                     # 3066 "C:\Program Files (x86)\Microchip\xc8\v2.00\pic\include\pic16f887.h"
   840                           CM1CON0 equ 0107h ;# 
   841  0107                     # 3131 "C:\Program Files (x86)\Microchip\xc8\v2.00\pic\include\pic16f887.h"
   842                           CM2CON0 equ 0108h ;# 
   843  0108                     # 3196 "C:\Program Files (x86)\Microchip\xc8\v2.00\pic\include\pic16f887.h"
   844                           CM2CON1 equ 0109h ;# 
   845  0109                     # 3247 "C:\Program Files (x86)\Microchip\xc8\v2.00\pic\include\pic16f887.h"
   846                           EEDATA equ 010Ch ;# 
   847  010C                     # 3252 "C:\Program Files (x86)\Microchip\xc8\v2.00\pic\include\pic16f887.h"
   848                           EEDAT equ 010Ch ;# 
   849  010C                     # 3259 "C:\Program Files (x86)\Microchip\xc8\v2.00\pic\include\pic16f887.h"
   850                           EEADR equ 010Dh ;# 
   851  010D                     # 3266 "C:\Program Files (x86)\Microchip\xc8\v2.00\pic\include\pic16f887.h"
   852                           EEDATH equ 010Eh ;# 
   853  010E                     # 3273 "C:\Program Files (x86)\Microchip\xc8\v2.00\pic\include\pic16f887.h"
   854                           EEADRH equ 010Fh ;# 
   855  010F                     # 3280 "C:\Program Files (x86)\Microchip\xc8\v2.00\pic\include\pic16f887.h"
   856                           SRCON equ 0185h ;# 
   857  0185                     # 3337 "C:\Program Files (x86)\Microchip\xc8\v2.00\pic\include\pic16f887.h"
   858                           BAUDCTL equ 0187h ;# 
   859  0187                     # 3389 "C:\Program Files (x86)\Microchip\xc8\v2.00\pic\include\pic16f887.h"
   860                           ANSEL equ 0188h ;# 
   861  0188                     # 3451 "C:\Program Files (x86)\Microchip\xc8\v2.00\pic\include\pic16f887.h"
   862                           ANSELH equ 0189h ;# 
   863  0189                     # 3501 "C:\Program Files (x86)\Microchip\xc8\v2.00\pic\include\pic16f887.h"
   864                           EECON1 equ 018Ch ;# 
   865  018C                     # 3546 "C:\Program Files (x86)\Microchip\xc8\v2.00\pic\include\pic16f887.h"
   866                           EECON2 equ 018Dh ;# 
   867  018D                     	FNCALL	_main,_ADC_CONFIG
   868                           	FNCALL	_main,_ADC_INTERRUPT
   869                           	FNCALL	_main,_I2C_Slave_Init
   870                           	FNCALL	_main,_Lcd_Init
   871                           	FNCALL	_main,_Lcd_Set_Cursor
   872                           	FNCALL	_main,_Lcd_Write_String
   873                           	FNCALL	_main,___awdiv
   874                           	FNCALL	_main,___fladd
   875                           	FNCALL	_main,___flmul
   876                           	FNCALL	_main,___fltol
   877                           	FNCALL	_main,___xxtofl
   878                           	FNCALL	_main,_b0
   879                           	FNCALL	_main,_b1
   880                           	FNCALL	_main,_b2
   881                           	FNCALL	_main,_opcion_envio
   882                           	FNCALL	_b2,___fldiv
   883                           	FNCALL	_b2,___fltol
   884                           	FNCALL	_b2,_num_case
   885                           	FNCALL	_b1,___awdiv
   886                           	FNCALL	_b1,___fladd
   887                           	FNCALL	_b1,___fldiv
   888                           	FNCALL	_b1,___flneg
   889                           	FNCALL	_b1,___fltol
   890                           	FNCALL	_b1,___wmul
   891                           	FNCALL	_b1,___xxtofl
   892                           	FNCALL	_b1,_num_case
   893                           	FNCALL	_b0,___awdiv
   894                           	FNCALL	_b0,___bmul
   895                           	FNCALL	_b0,___fladd
   896                           	FNCALL	_b0,___fldiv
   897                           	FNCALL	_b0,___flneg
   898                           	FNCALL	_b0,___fltol
   899                           	FNCALL	_b0,___wmul
   900                           	FNCALL	_b0,___xxtofl
   901                           	FNCALL	_b0,_num_case
   902                           	FNCALL	___flmul,__Umul8_16
   903                           	FNCALL	_Lcd_Write_String,_Lcd_Write_Char
   904                           	FNCALL	_Lcd_Write_Char,_Lcd_Port
   905                           	FNCALL	_Lcd_Set_Cursor,_Lcd_Cmd
   906                           	FNCALL	_Lcd_Init,_Lcd_Cmd
   907                           	FNCALL	_Lcd_Cmd,_Lcd_Port
   908                           	FNROOT	_main
   909                           	FNCALL	intlevel1,_ISR
   910                           	global	intlevel1
   911                           	FNROOT	intlevel1
   912                           	global	_envio
   913                           	global	_z
   914                           	global	main@F1528
   915                           	global	_HUMO
   916                           	global	_TEMPA
   917                           	global	_TEMP
   918                           	global	_SISMO
   919                           	global	_eleccion
   920                           	global	_adc1
   921                           	global	_SSPCON
   922                           _SSPCON	set	0x14
   923  0014                     	global	_PORTBbits
   924                           _PORTBbits	set	0x6
   925  0006                     	global	_SSPBUF
   926                           _SSPBUF	set	0x13
   927  0013                     	global	_SSPCONbits
   928                           _SSPCONbits	set	0x14
   929  0014                     	global	_ADRESH
   930                           _ADRESH	set	0x1E
   931  001E                     	global	_INTCONbits
   932                           _INTCONbits	set	0xB
   933  000B                     	global	_PIR1bits
   934                           _PIR1bits	set	0xC
   935  000C                     	global	_ADCON0bits
   936                           _ADCON0bits	set	0x1F
   937  001F                     	global	_SSPIF
   938                           _SSPIF	set	0x63
   939  0063                     	global	_PEIE
   940                           _PEIE	set	0x5E
   941  005E                     	global	_GIE
   942                           _GIE	set	0x5F
   943  005F                     	global	_RD3
   944                           _RD3	set	0x43
   945  0043                     	global	_RD1
   946                           _RD1	set	0x41
   947  0041                     	global	_RD0
   948                           _RD0	set	0x40
   949  0040                     	global	_ADIF
   950                           _ADIF	set	0x66
   951  0066                     	global	_RC0
   952                           _RC0	set	0x38
   953  0038                     	global	_RC1
   954                           _RC1	set	0x39
   955  0039                     	global	_RA7
   956                           _RA7	set	0x2F
   957  002F                     	global	_RA6
   958                           _RA6	set	0x2E
   959  002E                     	global	_RA5
   960                           _RA5	set	0x2D
   961  002D                     	global	_RA4
   962                           _RA4	set	0x2C
   963  002C                     	global	_RA3
   964                           _RA3	set	0x2B
   965  002B                     	global	_RA2
   966                           _RA2	set	0x2A
   967  002A                     	global	_RA1
   968                           _RA1	set	0x29
   969  0029                     	global	_RA0
   970                           _RA0	set	0x28
   971  0028                     	global	_SSPCON2bits
   972                           _SSPCON2bits	set	0x91
   973  0091                     	global	_TRISCbits
   974                           _TRISCbits	set	0x87
   975  0087                     	global	_SSPSTAT
   976                           _SSPSTAT	set	0x94
   977  0094                     	global	_SSPADD
   978                           _SSPADD	set	0x93
   979  0093                     	global	_SSPCON2
   980                           _SSPCON2	set	0x91
   981  0091                     	global	_TRISD
   982                           _TRISD	set	0x88
   983  0088                     	global	_TRISB
   984                           _TRISB	set	0x86
   985  0086                     	global	_TRISC
   986                           _TRISC	set	0x87
   987  0087                     	global	_TRISA
   988                           _TRISA	set	0x85
   989  0085                     	global	_SSPSTATbits
   990                           _SSPSTATbits	set	0x94
   991  0094                     	global	_PIE1bits
   992                           _PIE1bits	set	0x8C
   993  008C                     	global	_TRISBbits
   994                           _TRISBbits	set	0x86
   995  0086                     	global	_TRISEbits
   996                           _TRISEbits	set	0x89
   997  0089                     	global	_TRISAbits
   998                           _TRISAbits	set	0x85
   999  0085                     	global	_ADCON1bits
  1000                           _ADCON1bits	set	0x9F
  1001  009F                     	global	_SSPIE
  1002                           _SSPIE	set	0x463
  1003  0463                     	global	_TRISC4
  1004                           _TRISC4	set	0x43C
  1005  043C                     	global	_TRISC3
  1006                           _TRISC3	set	0x43B
  1007  043B                     	global	_BF
  1008                           _BF	set	0x4A0
  1009  04A0                     	global	_ANSELH
  1010                           _ANSELH	set	0x189
  1011  0189                     	global	_ANSEL
  1012                           _ANSEL	set	0x188
  1013  0188                     	global	_ANSELHbits
  1014                           _ANSELHbits	set	0x189
  1015  0189                     	global	_ANSELbits
  1016                           _ANSELbits	set	0x188
  1017  0188                     psect	strings,class=STRING,delta=2,noexec
  1018                           global __pstrings
  1019                           __pstrings:
  1020  1000                     stringtab:
  1021  1000                     	global    __stringtab
  1022                           __stringtab:
  1023  1000                     ;	String table - string pointers are 1 byte each
  1024                           	btfsc	(btemp+1),7
  1025  1000  1BFF               	ljmp	stringcode
  1026  1001  280A               	bcf	status,7
  1027  1002  1383               	btfsc	(btemp+1),0
  1028  1003  187F               	bsf	status,7
  1029  1004  1783               	movf	indf,w
  1030  1005  0800               	incf fsr
  1031  1006  0A84               skipnz
  1032  1007  1903               incf btemp+1
  1033  1008  0AFF               	return
  1034  1009  0008               stringcode:stringdir:
  1035  100A                     movlw high(stringdir)
      + 100A                     stringdir:	
  1036  100A  3010               movwf pclath
  1037  100B  008A               movf fsr,w
  1038  100C  0804               incf fsr
  1039  100D  0A84               	addwf pc
  1040  100E  0782               	global __stringbase
  1041                           __stringbase:
  1042  100F                     	retlw	0
  1043  100F  3400               psect	strings
  1044                           	global    __end_of__stringtab
  1045                           __end_of__stringtab:
  1046  1010                     	
  1047                           STR_1:	
  1048  1010                     	retlw	84	;'T'
  1049  1010  3454               	retlw	101	;'e'
  1050  1011  3465               	retlw	109	;'m'
  1051  1012  346D               	retlw	112	;'p'
  1052  1013  3470               	retlw	58	;':'
  1053  1014  343A               	retlw	0
  1054  1015  3400               psect	strings
  1055                           	
  1056                           STR_2:	
  1057  1016                     	retlw	83	;'S'
  1058  1016  3453               	retlw	50	;'2'
  1059  1017  3432               	retlw	58	;':'
  1060  1018  343A               	retlw	0
  1061  1019  3400               psect	strings
  1062                           	
  1063                           STR_3:	
  1064  101A                     	retlw	83	;'S'
  1065  101A  3453               	retlw	51	;'3'
  1066  101B  3433               	retlw	58	;':'
  1067  101C  343A               	retlw	0
  1068  101D  3400               psect	strings
  1069                           ; #config settings
  1070                           global __CFG_FOSC$INTRC_NOCLKOUT
  1071                           __CFG_FOSC$INTRC_NOCLKOUT equ 0x0
  1072  0000                     global __CFG_WDTE$OFF
  1073                           __CFG_WDTE$OFF equ 0x0
  1074  0000                     global __CFG_PWRTE$OFF
  1075                           __CFG_PWRTE$OFF equ 0x0
  1076  0000                     global __CFG_MCLRE$OFF
  1077                           __CFG_MCLRE$OFF equ 0x0
  1078  0000                     global __CFG_CP$OFF
  1079                           __CFG_CP$OFF equ 0x0
  1080  0000                     global __CFG_CPD$OFF
  1081                           __CFG_CPD$OFF equ 0x0
  1082  0000                     global __CFG_BOREN$OFF
  1083                           __CFG_BOREN$OFF equ 0x0
  1084  0000                     global __CFG_IESO$OFF
  1085                           __CFG_IESO$OFF equ 0x0
  1086  0000                     global __CFG_FCMEN$OFF
  1087                           __CFG_FCMEN$OFF equ 0x0
  1088  0000                     global __CFG_LVP$OFF
  1089                           __CFG_LVP$OFF equ 0x0
  1090  0000                     global __CFG_BOR4V$BOR40V
  1091                           __CFG_BOR4V$BOR40V equ 0x0
  1092  0000                     global __CFG_WRT$OFF
  1093                           __CFG_WRT$OFF equ 0x0
  1094  0000                     	file	"C:\Users\JOSPEL~1\AppData\Local\Temp\sfsg."
  1095                           	line	#
  1096                           psect cinit,class=CODE,delta=2
  1097                           global start_initialization
  1098                           start_initialization:
  1099  000F                     
  1100                           global __initialization
  1101                           __initialization:
  1102  000F                     psect	bssCOMMON,class=COMMON,space=1,noexec
  1103                           global __pbssCOMMON
  1104                           __pbssCOMMON:
  1105  0078                     _envio:
  1106  0078                            ds      1
  1107  0078                     
  1108                           _z:
  1109  0079                            ds      1
  1110  0079                     
  1111                           _adc:
  1112  007A                            ds      1
  1113  007A                     
  1114                           psect	bssBANK1,class=BANK1,space=1,noexec
  1115                           global __pbssBANK1
  1116                           __pbssBANK1:
  1117  00BF                     main@F1528:
  1118  00BF                            ds      5
  1119  00BF                     
  1120                           _HUMO:
  1121  00C4                            ds      1
  1122  00C4                     
  1123                           _TEMPA:
  1124  00C5                            ds      1
  1125  00C5                     
  1126                           _TEMP:
  1127  00C6                            ds      1
  1128  00C6                     
  1129                           _SISMO:
  1130  00C7                            ds      1
  1131  00C7                     
  1132                           _min:
  1133  00C8                            ds      1
  1134  00C8                     
  1135                           _eleccion:
  1136  00C9                            ds      1
  1137  00C9                     
  1138                           _adc1:
  1139  00CA                            ds      1
  1140  00CA                     
  1141                           	file	"C:\Users\JOSPEL~1\AppData\Local\Temp\sfsg."
  1142                           	line	#
  1143                           ; Clear objects allocated to COMMON
  1144                           psect cinit,class=CODE,delta=2,merge=1
  1145                           	clrf	((__pbssCOMMON)+0)&07Fh
  1146  000F  01F8               	clrf	((__pbssCOMMON)+1)&07Fh
  1147  0010  01F9               	clrf	((__pbssCOMMON)+2)&07Fh
  1148  0011  01FA               ; Clear objects allocated to BANK1
  1149                           psect cinit,class=CODE,delta=2,merge=1
  1150                           	bsf	status, 5	;RP0=1, select bank1
  1151  0012  1683               	bcf	status, 6	;RP1=0, select bank1
  1152  0013  1303               	clrf	((__pbssBANK1)+0)&07Fh
  1153  0014  01BF               	clrf	((__pbssBANK1)+1)&07Fh
  1154  0015  01C0               	clrf	((__pbssBANK1)+2)&07Fh
  1155  0016  01C1               	clrf	((__pbssBANK1)+3)&07Fh
  1156  0017  01C2               	clrf	((__pbssBANK1)+4)&07Fh
  1157  0018  01C3               	clrf	((__pbssBANK1)+5)&07Fh
  1158  0019  01C4               	clrf	((__pbssBANK1)+6)&07Fh
  1159  001A  01C5               	clrf	((__pbssBANK1)+7)&07Fh
  1160  001B  01C6               	clrf	((__pbssBANK1)+8)&07Fh
  1161  001C  01C7               	clrf	((__pbssBANK1)+9)&07Fh
  1162  001D  01C8               	clrf	((__pbssBANK1)+10)&07Fh
  1163  001E  01C9               	clrf	((__pbssBANK1)+11)&07Fh
  1164  001F  01CA               psect cinit,class=CODE,delta=2,merge=1
  1165                           global end_of_initialization,__end_of__initialization
  1166                           
  1167                           ;End of C runtime variable initialization code
  1168                           
  1169                           end_of_initialization:
  1170  0020                     __end_of__initialization:
  1171  0020                     clrf status
  1172  0020  0183               ljmp _main	;jump to C main() function
  1173  0021  120A  158A  2DA1   psect	cstackBANK1,class=BANK1,space=1,noexec
  1174                           global __pcstackBANK1
  1175                           __pcstackBANK1:
  1176  00A0                     ?_b0:	; 1 bytes @ 0x0
  1177  00A0                     ?_b1:	; 1 bytes @ 0x0
  1178  00A0                     ?_b2:	; 1 bytes @ 0x0
  1179  00A0                     	global	b2@m
  1180                           b2@m:	; 4 bytes @ 0x0
  1181  00A0                     	global	b1@m
  1182                           b1@m:	; 4 bytes @ 0x0
  1183  00A0                     	global	b0@m
  1184                           b0@m:	; 4 bytes @ 0x0
  1185  00A0                     	ds	4
  1186  00A0                     	global	b1@bb2
  1187                           b1@bb2:	; 1 bytes @ 0x4
  1188  00A4                     	global	b0@bb2
  1189                           b0@bb2:	; 1 bytes @ 0x4
  1190  00A4                     	ds	1
  1191  00A4                     	global	b1@bb1
  1192                           b1@bb1:	; 1 bytes @ 0x5
  1193  00A5                     	global	b0@bb1
  1194                           b0@bb1:	; 1 bytes @ 0x5
  1195  00A5                     	ds	1
  1196  00A5                     	global	b1@local
  1197                           b1@local:	; 1 bytes @ 0x6
  1198  00A6                     	global	b0@bb0
  1199                           b0@bb0:	; 1 bytes @ 0x6
  1200  00A6                     	ds	1
  1201  00A6                     	global	b1@p1
  1202                           b1@p1:	; 1 bytes @ 0x7
  1203  00A7                     	global	b0@p0
  1204                           b0@p0:	; 1 bytes @ 0x7
  1205  00A7                     	ds	1
  1206  00A7                     	global	b0@local
  1207                           b0@local:	; 1 bytes @ 0x8
  1208  00A8                     	ds	1
  1209  00A8                     ??_main:	; 1 bytes @ 0x9
  1210  00A9                     	ds	5
  1211  00A9                     	global	main@s1
  1212                           main@s1:	; 5 bytes @ 0xE
  1213  00AE                     	ds	5
  1214  00AE                     	global	_main$1355
  1215                           _main$1355:	; 4 bytes @ 0x13
  1216  00B3                     	ds	4
  1217  00B3                     	global	_main$1356
  1218                           _main$1356:	; 4 bytes @ 0x17
  1219  00B7                     	ds	4
  1220  00B7                     	global	_main$1357
  1221                           _main$1357:	; 4 bytes @ 0x1B
  1222  00BB                     	ds	4
  1223  00BB                     psect	cstackCOMMON,class=COMMON,space=1,noexec
  1224                           global __pcstackCOMMON
  1225                           __pcstackCOMMON:
  1226  0070                     ?_I2C_Slave_Init:	; 1 bytes @ 0x0
  1227  0070                     ?_opcion_envio:	; 1 bytes @ 0x0
  1228  0070                     ?_ADC_INTERRUPT:	; 1 bytes @ 0x0
  1229  0070                     ?_Lcd_Port:	; 1 bytes @ 0x0
  1230  0070                     ?_Lcd_Cmd:	; 1 bytes @ 0x0
  1231  0070                     ?_Lcd_Init:	; 1 bytes @ 0x0
  1232  0070                     ?_Lcd_Write_Char:	; 1 bytes @ 0x0
  1233  0070                     ?_ISR:	; 1 bytes @ 0x0
  1234  0070                     ??_ISR:	; 1 bytes @ 0x0
  1235  0070                     ?_main:	; 1 bytes @ 0x0
  1236  0070                     ?_num_case:	; 1 bytes @ 0x0
  1237  0070                     	ds	3
  1238  0070                     ??_I2C_Slave_Init:	; 1 bytes @ 0x3
  1239  0073                     ??_opcion_envio:	; 1 bytes @ 0x3
  1240  0073                     ?_ADC_CONFIG:	; 1 bytes @ 0x3
  1241  0073                     ??_ADC_INTERRUPT:	; 1 bytes @ 0x3
  1242  0073                     ??_Lcd_Port:	; 1 bytes @ 0x3
  1243  0073                     ??_num_case:	; 1 bytes @ 0x3
  1244  0073                     ?___bmul:	; 1 bytes @ 0x3
  1245  0073                     ??___fldiv:	; 1 bytes @ 0x3
  1246  0073                     	global	?__Umul8_16
  1247                           ?__Umul8_16:	; 2 bytes @ 0x3
  1248  0073                     	global	?___wmul
  1249                           ?___wmul:	; 2 bytes @ 0x3
  1250  0073                     	global	?___awdiv
  1251                           ?___awdiv:	; 2 bytes @ 0x3
  1252  0073                     	global	ADC_CONFIG@justif
  1253                           ADC_CONFIG@justif:	; 1 bytes @ 0x3
  1254  0073                     	global	Lcd_Port@a
  1255                           Lcd_Port@a:	; 1 bytes @ 0x3
  1256  0073                     	global	I2C_Slave_Init@address
  1257                           I2C_Slave_Init@address:	; 1 bytes @ 0x3
  1258  0073                     	global	___bmul@multiplicand
  1259                           ___bmul@multiplicand:	; 1 bytes @ 0x3
  1260  0073                     	global	__Umul8_16@multiplicand
  1261                           __Umul8_16@multiplicand:	; 1 bytes @ 0x3
  1262  0073                     	global	___wmul@multiplier
  1263                           ___wmul@multiplier:	; 2 bytes @ 0x3
  1264  0073                     	global	___awdiv@divisor
  1265                           ___awdiv@divisor:	; 2 bytes @ 0x3
  1266  0073                     	ds	1
  1267  0073                     ??_ADC_CONFIG:	; 1 bytes @ 0x4
  1268  0074                     ??_Lcd_Cmd:	; 1 bytes @ 0x4
  1269  0074                     ??_Lcd_Write_Char:	; 1 bytes @ 0x4
  1270  0074                     ??___bmul:	; 1 bytes @ 0x4
  1271  0074                     	ds	1
  1272  0074                     ??__Umul8_16:	; 1 bytes @ 0x5
  1273  0075                     	global	Lcd_Write_Char@a
  1274                           Lcd_Write_Char@a:	; 1 bytes @ 0x5
  1275  0075                     	global	opcion_envio@seleccion
  1276                           opcion_envio@seleccion:	; 1 bytes @ 0x5
  1277  0075                     	global	num_case@num
  1278                           num_case@num:	; 1 bytes @ 0x5
  1279  0075                     	global	___bmul@product
  1280                           ___bmul@product:	; 1 bytes @ 0x5
  1281  0075                     	global	___wmul@multiplicand
  1282                           ___wmul@multiplicand:	; 2 bytes @ 0x5
  1283  0075                     	global	___awdiv@dividend
  1284                           ___awdiv@dividend:	; 2 bytes @ 0x5
  1285  0075                     	ds	1
  1286  0075                     ?_Lcd_Write_String:	; 1 bytes @ 0x6
  1287  0076                     	global	ADC_CONFIG@canal
  1288                           ADC_CONFIG@canal:	; 1 bytes @ 0x6
  1289  0076                     	global	Lcd_Cmd@a
  1290                           Lcd_Cmd@a:	; 1 bytes @ 0x6
  1291  0076                     	global	num_case@r
  1292                           num_case@r:	; 1 bytes @ 0x6
  1293  0076                     	global	___bmul@multiplier
  1294                           ___bmul@multiplier:	; 1 bytes @ 0x6
  1295  0076                     	global	Lcd_Write_String@a
  1296                           Lcd_Write_String@a:	; 2 bytes @ 0x6
  1297  0076                     	ds	1
  1298  0076                     ?_Lcd_Set_Cursor:	; 1 bytes @ 0x7
  1299  0077                     ??___wmul:	; 1 bytes @ 0x7
  1300  0077                     ??___awdiv:	; 1 bytes @ 0x7
  1301  0077                     ??___flneg:	; 1 bytes @ 0x7
  1302  0077                     	global	Lcd_Set_Cursor@b
  1303                           Lcd_Set_Cursor@b:	; 1 bytes @ 0x7
  1304  0077                     	ds	1
  1305  0077                     ??_Lcd_Set_Cursor:	; 1 bytes @ 0x8
  1306  0078                     psect	cstackBANK0,class=BANK0,space=1,noexec
  1307                           global __pcstackBANK0
  1308                           __pcstackBANK0:
  1309  0020                     ??_Lcd_Init:	; 1 bytes @ 0x0
  1310  0020                     ??_Lcd_Write_String:	; 1 bytes @ 0x0
  1311  0020                     	global	?___fldiv
  1312                           ?___fldiv:	; 4 bytes @ 0x0
  1313  0020                     	global	Lcd_Set_Cursor@a
  1314                           Lcd_Set_Cursor@a:	; 1 bytes @ 0x0
  1315  0020                     	global	___awdiv@counter
  1316                           ___awdiv@counter:	; 1 bytes @ 0x0
  1317  0020                     	global	___wmul@product
  1318                           ___wmul@product:	; 2 bytes @ 0x0
  1319  0020                     	global	__Umul8_16@product
  1320                           __Umul8_16@product:	; 2 bytes @ 0x0
  1321  0020                     	global	___fldiv@a
  1322                           ___fldiv@a:	; 4 bytes @ 0x0
  1323  0020                     	ds	1
  1324  0020                     	global	___awdiv@sign
  1325                           ___awdiv@sign:	; 1 bytes @ 0x1
  1326  0021                     	ds	1
  1327  0021                     	global	?___xxtofl
  1328                           ?___xxtofl:	; 4 bytes @ 0x2
  1329  0022                     	global	___awdiv@quotient
  1330                           ___awdiv@quotient:	; 2 bytes @ 0x2
  1331  0022                     	global	__Umul8_16@word_mpld
  1332                           __Umul8_16@word_mpld:	; 2 bytes @ 0x2
  1333  0022                     	global	___xxtofl@val
  1334                           ___xxtofl@val:	; 4 bytes @ 0x2
  1335  0022                     	ds	1
  1336  0022                     	global	Lcd_Write_String@i
  1337                           Lcd_Write_String@i:	; 2 bytes @ 0x3
  1338  0023                     	ds	1
  1339  0023                     	global	__Umul8_16@multiplier
  1340                           __Umul8_16@multiplier:	; 1 bytes @ 0x4
  1341  0024                     	global	___fldiv@b
  1342                           ___fldiv@b:	; 4 bytes @ 0x4
  1343  0024                     	ds	2
  1344  0024                     ??___xxtofl:	; 1 bytes @ 0x6
  1345  0026                     	ds	2
  1346  0026                     	global	___fldiv@rem
  1347                           ___fldiv@rem:	; 4 bytes @ 0x8
  1348  0028                     	ds	2
  1349  0028                     	global	___xxtofl@sign
  1350                           ___xxtofl@sign:	; 1 bytes @ 0xA
  1351  002A                     	ds	1
  1352  002A                     	global	___xxtofl@exp
  1353                           ___xxtofl@exp:	; 1 bytes @ 0xB
  1354  002B                     	ds	1
  1355  002B                     	global	___fldiv@sign
  1356                           ___fldiv@sign:	; 1 bytes @ 0xC
  1357  002C                     	global	___xxtofl@arg
  1358                           ___xxtofl@arg:	; 4 bytes @ 0xC
  1359  002C                     	ds	1
  1360  002C                     	global	___fldiv@new_exp
  1361                           ___fldiv@new_exp:	; 2 bytes @ 0xD
  1362  002D                     	ds	2
  1363  002D                     	global	___fldiv@grs
  1364                           ___fldiv@grs:	; 4 bytes @ 0xF
  1365  002F                     	ds	1
  1366  002F                     	global	?___flneg
  1367                           ?___flneg:	; 4 bytes @ 0x10
  1368  0030                     	global	?___flmul
  1369                           ?___flmul:	; 4 bytes @ 0x10
  1370  0030                     	global	___flneg@f1
  1371                           ___flneg@f1:	; 4 bytes @ 0x10
  1372  0030                     	global	___flmul@b
  1373                           ___flmul@b:	; 4 bytes @ 0x10
  1374  0030                     	ds	3
  1375  0030                     	global	___fldiv@bexp
  1376                           ___fldiv@bexp:	; 1 bytes @ 0x13
  1377  0033                     	ds	1
  1378  0033                     	global	___fldiv@aexp
  1379                           ___fldiv@aexp:	; 1 bytes @ 0x14
  1380  0034                     	global	___flmul@a
  1381                           ___flmul@a:	; 4 bytes @ 0x14
  1382  0034                     	ds	4
  1383  0034                     ??___flmul:	; 1 bytes @ 0x18
  1384  0038                     	ds	5
  1385  0038                     	global	___flmul@sign
  1386                           ___flmul@sign:	; 1 bytes @ 0x1D
  1387  003D                     	ds	1
  1388  003D                     	global	___flmul@grs
  1389                           ___flmul@grs:	; 4 bytes @ 0x1E
  1390  003E                     	ds	4
  1391  003E                     	global	___flmul@aexp
  1392                           ___flmul@aexp:	; 1 bytes @ 0x22
  1393  0042                     	ds	1
  1394  0042                     	global	___flmul@bexp
  1395                           ___flmul@bexp:	; 1 bytes @ 0x23
  1396  0043                     	ds	1
  1397  0043                     	global	___flmul@prod
  1398                           ___flmul@prod:	; 4 bytes @ 0x24
  1399  0044                     	ds	4
  1400  0044                     	global	___flmul@temp
  1401                           ___flmul@temp:	; 2 bytes @ 0x28
  1402  0048                     	ds	2
  1403  0048                     	global	?___fladd
  1404                           ?___fladd:	; 4 bytes @ 0x2A
  1405  004A                     	global	___fladd@b
  1406                           ___fladd@b:	; 4 bytes @ 0x2A
  1407  004A                     	ds	4
  1408  004A                     	global	___fladd@a
  1409                           ___fladd@a:	; 4 bytes @ 0x2E
  1410  004E                     	ds	4
  1411  004E                     ??___fladd:	; 1 bytes @ 0x32
  1412  0052                     	ds	12
  1413  0052                     	global	___fladd@signs
  1414                           ___fladd@signs:	; 1 bytes @ 0x3E
  1415  005E                     	ds	1
  1416  005E                     	global	___fladd@aexp
  1417                           ___fladd@aexp:	; 1 bytes @ 0x3F
  1418  005F                     	ds	1
  1419  005F                     	global	___fladd@bexp
  1420                           ___fladd@bexp:	; 1 bytes @ 0x40
  1421  0060                     	ds	1
  1422  0060                     	global	___fladd@grs
  1423                           ___fladd@grs:	; 1 bytes @ 0x41
  1424  0061                     	ds	1
  1425  0061                     	global	?___fltol
  1426                           ?___fltol:	; 4 bytes @ 0x42
  1427  0062                     	global	___fltol@f1
  1428                           ___fltol@f1:	; 4 bytes @ 0x42
  1429  0062                     	ds	4
  1430  0062                     ??___fltol:	; 1 bytes @ 0x46
  1431  0066                     	ds	5
  1432  0066                     	global	___fltol@sign1
  1433                           ___fltol@sign1:	; 1 bytes @ 0x4B
  1434  006B                     	ds	1
  1435  006B                     	global	___fltol@exp1
  1436                           ___fltol@exp1:	; 1 bytes @ 0x4C
  1437  006C                     	ds	1
  1438  006C                     ??_b0:	; 1 bytes @ 0x4D
  1439  006D                     ??_b1:	; 1 bytes @ 0x4D
  1440  006D                     ??_b2:	; 1 bytes @ 0x4D
  1441  006D                     	ds	1
  1442  006D                     	global	b2@bb2
  1443                           b2@bb2:	; 1 bytes @ 0x4E
  1444  006E                     	ds	1
  1445  006E                     	global	b2@p2
  1446                           b2@p2:	; 1 bytes @ 0x4F
  1447  006F                     	ds	1
  1448  006F                     ;!
  1449                           ;!Data Sizes:
  1450                           ;!    Strings     14
  1451                           ;!    Constant    0
  1452                           ;!    Data        0
  1453                           ;!    BSS         15
  1454                           ;!    Persistent  0
  1455                           ;!    Stack       0
  1456                           ;!
  1457                           ;!Auto Spaces:
  1458                           ;!    Space          Size  Autos    Used
  1459                           ;!    COMMON           14      8      11
  1460                           ;!    BANK0            80     80      80
  1461                           ;!    BANK1            80     31      43
  1462                           ;!    BANK3            96      0       0
  1463                           ;!    BANK2            96      0       0
  1464                           
  1465                           ;!
  1466                           ;!Pointer List with Targets:
  1467                           ;!
  1468                           ;!    Lcd_Write_String@a	PTR unsigned char  size(2) Largest target is 6
  1469                           ;!		 -> main@s1(BANK1[5]), STR_3(CODE[4]), STR_2(CODE[4]), STR_1(CODE[6]), 
  1470                           ;!
  1471                           
  1472                           
  1473                           ;!
  1474                           ;!Critical Paths under _main in COMMON
  1475                           ;!
  1476                           ;!    _main->_Lcd_Set_Cursor
  1477                           ;!    _main->_Lcd_Write_String
  1478                           ;!    _main->___awdiv
  1479                           ;!    _b2->___fldiv
  1480                           ;!    _b1->___awdiv
  1481                           ;!    _b1->___fldiv
  1482                           ;!    _b0->___awdiv
  1483                           ;!    _b0->___fldiv
  1484                           ;!    ___xxtofl->___wmul
  1485                           ;!    ___fltol->___fldiv
  1486                           ;!    ___flneg->___wmul
  1487                           ;!    ___fladd->___wmul
  1488                           ;!    ___flmul->__Umul8_16
  1489                           ;!    _Lcd_Write_String->_Lcd_Write_Char
  1490                           ;!    _Lcd_Write_Char->_Lcd_Port
  1491                           ;!    _Lcd_Set_Cursor->_Lcd_Cmd
  1492                           ;!    _Lcd_Init->_Lcd_Cmd
  1493                           ;!    _Lcd_Cmd->_Lcd_Port
  1494                           ;!
  1495                           ;!Critical Paths under _ISR in COMMON
  1496                           ;!
  1497                           ;!    None.
  1498                           ;!
  1499                           ;!Critical Paths under _main in BANK0
  1500                           ;!
  1501                           ;!    _main->_b0
  1502                           ;!    _main->_b1
  1503                           ;!    _main->_b2
  1504                           ;!    _b2->___fltol
  1505                           ;!    _b1->___fltol
  1506                           ;!    _b0->___fltol
  1507                           ;!    ___xxtofl->___wmul
  1508                           ;!    ___fltol->___fladd
  1509                           ;!    ___flneg->___xxtofl
  1510                           ;!    ___fladd->___flmul
  1511                           ;!    ___flmul->___xxtofl
  1512                           ;!
  1513                           ;!Critical Paths under _ISR in BANK0
  1514                           ;!
  1515                           ;!    None.
  1516                           ;!
  1517                           ;!Critical Paths under _main in BANK1
  1518                           ;!
  1519                           ;!    _main->_b0
  1520                           ;!
  1521                           ;!Critical Paths under _ISR in BANK1
  1522                           ;!
  1523                           ;!    None.
  1524                           ;!
  1525                           ;!Critical Paths under _main in BANK3
  1526                           ;!
  1527                           ;!    None.
  1528                           ;!
  1529                           ;!Critical Paths under _ISR in BANK3
  1530                           ;!
  1531                           ;!    None.
  1532                           ;!
  1533                           ;!Critical Paths under _main in BANK2
  1534                           ;!
  1535                           ;!    None.
  1536                           ;!
  1537                           ;!Critical Paths under _ISR in BANK2
  1538                           ;!
  1539                           ;!    None.
  1540                           
  1541 ;;
  1542 ;;Main: autosize = 0, tempsize = 5, incstack = 0, save=0
  1543 ;;
  1544                           
  1545                           ;!
  1546                           ;!Call Graph Tables:
  1547                           ;!
  1548                           ;! ---------------------------------------------------------------------------------
  1549                           ;! (Depth) Function   	        Calls       Base Space   Used Autos Params    Refs
  1550                           ;! ---------------------------------------------------------------------------------
  1551                           ;! (0) _main                                                26    26      0   30204
  1552                           ;!                                              9 BANK1     22    22      0
  1553                           ;!                         _ADC_CONFIG
  1554                           ;!                      _ADC_INTERRUPT
  1555                           ;!                     _I2C_Slave_Init
  1556                           ;!                           _Lcd_Init
  1557                           ;!                     _Lcd_Set_Cursor
  1558                           ;!                   _Lcd_Write_String
  1559                           ;!                            ___awdiv
  1560                           ;!                            ___fladd
  1561                           ;!                            ___flmul
  1562                           ;!                            ___fltol
  1563                           ;!                           ___xxtofl
  1564                           ;!                                 _b0
  1565                           ;!                                 _b1
  1566                           ;!                                 _b2
  1567                           ;!                       _opcion_envio
  1568                           ;! ---------------------------------------------------------------------------------
  1569                           ;! (1) _opcion_envio                                         3     3      0      22
  1570                           ;!                                              3 COMMON     3     3      0
  1571                           ;! ---------------------------------------------------------------------------------
  1572                           ;! (1) _b2                                                  11     7      4    3381
  1573                           ;!                                             77 BANK0      3     3      0
  1574                           ;!                                              0 BANK1      4     0      4
  1575                           ;!                            ___fldiv
  1576                           ;!                            ___fltol
  1577                           ;!                           ___xxtofl (ARG)
  1578                           ;!                           _num_case
  1579                           ;! ---------------------------------------------------------------------------------
  1580                           ;! (1) _b1                                                  11     7      4    8425
  1581                           ;!                                             77 BANK0      3     3      0
  1582                           ;!                                              0 BANK1      8     4      4
  1583                           ;!                            ___awdiv
  1584                           ;!                            ___fladd
  1585                           ;!                            ___fldiv
  1586                           ;!                            ___flneg
  1587                           ;!                            ___fltol
  1588                           ;!                             ___wmul
  1589                           ;!                           ___xxtofl
  1590                           ;!                           _num_case
  1591                           ;! ---------------------------------------------------------------------------------
  1592                           ;! (1) _b0                                                  12     8      4    8658
  1593                           ;!                                             77 BANK0      3     3      0
  1594                           ;!                                              0 BANK1      9     5      4
  1595                           ;!                            ___awdiv
  1596                           ;!                             ___bmul
  1597                           ;!                            ___fladd
  1598                           ;!                            ___fldiv
  1599                           ;!                            ___flneg
  1600                           ;!                            ___fltol
  1601                           ;!                             ___wmul
  1602                           ;!                           ___xxtofl
  1603                           ;!                           _num_case
  1604                           ;! ---------------------------------------------------------------------------------
  1605                           ;! (2) _num_case                                             4     4      0      92
  1606                           ;!                                              3 COMMON     4     4      0
  1607                           ;! ---------------------------------------------------------------------------------
  1608                           ;! (2) ___xxtofl                                            14    10      4     778
  1609                           ;!                                              2 BANK0     14    10      4
  1610                           ;!                             ___wmul (ARG)
  1611                           ;! ---------------------------------------------------------------------------------
  1612                           ;! (2) ___wmul                                               6     2      4     496
  1613                           ;!                                              3 COMMON     4     0      4
  1614                           ;!                                              0 BANK0      2     2      0
  1615                           ;! ---------------------------------------------------------------------------------
  1616                           ;! (2) ___fltol                                             11     7      4     877
  1617                           ;!                                             66 BANK0     11     7      4
  1618                           ;!                            ___fladd (ARG)
  1619                           ;!                            ___fldiv (ARG)
  1620                           ;!                            ___flmul (ARG)
  1621                           ;!                            ___flneg (ARG)
  1622                           ;!                             ___wmul (ARG)
  1623                           ;!                           ___xxtofl (ARG)
  1624                           ;! ---------------------------------------------------------------------------------
  1625                           ;! (2) ___flneg                                              4     0      4     197
  1626                           ;!                                             16 BANK0      4     0      4
  1627                           ;!                             ___wmul (ARG)
  1628                           ;!                           ___xxtofl (ARG)
  1629                           ;! ---------------------------------------------------------------------------------
  1630                           ;! (2) ___fldiv                                             26    18      8    2223
  1631                           ;!                                              3 COMMON     5     5      0
  1632                           ;!                                              0 BANK0     21    13      8
  1633                           ;! ---------------------------------------------------------------------------------
  1634                           ;! (2) ___fladd                                             24    16      8    2718
  1635                           ;!                                             42 BANK0     24    16      8
  1636                           ;!                            ___flmul (ARG)
  1637                           ;!                            ___flneg (ARG)
  1638                           ;!                             ___wmul (ARG)
  1639                           ;!                           ___xxtofl (ARG)
  1640                           ;! ---------------------------------------------------------------------------------
  1641                           ;! (2) ___bmul                                               4     3      1     168
  1642                           ;!                                              3 COMMON     4     3      1
  1643                           ;! ---------------------------------------------------------------------------------
  1644                           ;! (2) ___awdiv                                              9     5      4     756
  1645                           ;!                                              3 COMMON     5     1      4
  1646                           ;!                                              0 BANK0      4     4      0
  1647                           ;! ---------------------------------------------------------------------------------
  1648                           ;! (1) ___flmul                                             26    18      8    2417
  1649                           ;!                                             16 BANK0     26    18      8
  1650                           ;!                          __Umul8_16
  1651                           ;!                           ___xxtofl (ARG)
  1652                           ;! ---------------------------------------------------------------------------------
  1653                           ;! (2) __Umul8_16                                            9     7      2     799
  1654                           ;!                                              3 COMMON     4     2      2
  1655                           ;!                                              0 BANK0      5     5      0
  1656                           ;! ---------------------------------------------------------------------------------
  1657                           ;! (1) _Lcd_Write_String                                     7     5      2     769
  1658                           ;!                                              6 COMMON     2     0      2
  1659                           ;!                                              0 BANK0      5     5      0
  1660                           ;!                     _Lcd_Write_Char
  1661                           ;! ---------------------------------------------------------------------------------
  1662                           ;! (2) _Lcd_Write_Char                                       2     2      0     279
  1663                           ;!                                              4 COMMON     2     2      0
  1664                           ;!                           _Lcd_Port
  1665                           ;! ---------------------------------------------------------------------------------
  1666                           ;! (1) _Lcd_Set_Cursor                                       2     1      1     763
  1667                           ;!                                              7 COMMON     1     0      1
  1668                           ;!                                              0 BANK0      1     1      0
  1669                           ;!                            _Lcd_Cmd
  1670                           ;! ---------------------------------------------------------------------------------
  1671                           ;! (1) _Lcd_Init                                             2     2      0     279
  1672                           ;!                                              0 BANK0      2     2      0
  1673                           ;!                            _Lcd_Cmd
  1674                           ;! ---------------------------------------------------------------------------------
  1675                           ;! (2) _Lcd_Cmd                                              3     3      0     279
  1676                           ;!                                              4 COMMON     3     3      0
  1677                           ;!                           _Lcd_Port
  1678                           ;! ---------------------------------------------------------------------------------
  1679                           ;! (3) _Lcd_Port                                             1     1      0     248
  1680                           ;!                                              3 COMMON     1     1      0
  1681                           ;! ---------------------------------------------------------------------------------
  1682                           ;! (1) _I2C_Slave_Init                                       1     1      0      22
  1683                           ;!                                              3 COMMON     1     1      0
  1684                           ;! ---------------------------------------------------------------------------------
  1685                           ;! (1) _ADC_INTERRUPT                                        0     0      0       0
  1686                           ;! ---------------------------------------------------------------------------------
  1687                           ;! (1) _ADC_CONFIG                                           4     3      1     120
  1688                           ;!                                              3 COMMON     4     3      1
  1689                           ;! ---------------------------------------------------------------------------------
  1690                           ;! Estimated maximum stack depth 3
  1691                           ;! ---------------------------------------------------------------------------------
  1692                           ;! (Depth) Function   	        Calls       Base Space   Used Autos Params    Refs
  1693                           ;! ---------------------------------------------------------------------------------
  1694                           ;! (4) _ISR                                                  3     3      0       0
  1695                           ;!                                              0 COMMON     3     3      0
  1696                           ;! ---------------------------------------------------------------------------------
  1697                           ;! Estimated maximum stack depth 4
  1698                           ;! ---------------------------------------------------------------------------------
  1699                           ;!
  1700                           ;! Call Graph Graphs:
  1701                           ;!
  1702                           ;! _main (ROOT)
  1703                           ;!   _ADC_CONFIG
  1704                           ;!   _ADC_INTERRUPT
  1705                           ;!   _I2C_Slave_Init
  1706                           ;!   _Lcd_Init
  1707                           ;!     _Lcd_Cmd
  1708                           ;!       _Lcd_Port
  1709                           ;!   _Lcd_Set_Cursor
  1710                           ;!     _Lcd_Cmd
  1711                           ;!       _Lcd_Port
  1712                           ;!   _Lcd_Write_String
  1713                           ;!     _Lcd_Write_Char
  1714                           ;!       _Lcd_Port
  1715                           ;!   ___awdiv
  1716                           ;!   ___fladd
  1717                           ;!     ___flmul (ARG)
  1718                           ;!       __Umul8_16
  1719                           ;!       ___xxtofl (ARG)
  1720                           ;!         ___wmul (ARG)
  1721                           ;!     ___flneg (ARG)
  1722                           ;!       ___wmul (ARG)
  1723                           ;!       ___xxtofl (ARG)
  1724                           ;!         ___wmul (ARG)
  1725                           ;!     ___wmul (ARG)
  1726                           ;!     ___xxtofl (ARG)
  1727                           ;!       ___wmul (ARG)
  1728                           ;!   ___flmul
  1729                           ;!     __Umul8_16
  1730                           ;!     ___xxtofl (ARG)
  1731                           ;!       ___wmul (ARG)
  1732                           ;!   ___fltol
  1733                           ;!     ___fladd (ARG)
  1734                           ;!       ___flmul (ARG)
  1735                           ;!         __Umul8_16
  1736                           ;!         ___xxtofl (ARG)
  1737                           ;!           ___wmul (ARG)
  1738                           ;!       ___flneg (ARG)
  1739                           ;!         ___wmul (ARG)
  1740                           ;!         ___xxtofl (ARG)
  1741                           ;!           ___wmul (ARG)
  1742                           ;!       ___wmul (ARG)
  1743                           ;!       ___xxtofl (ARG)
  1744                           ;!         ___wmul (ARG)
  1745                           ;!     ___fldiv (ARG)
  1746                           ;!     ___flmul (ARG)
  1747                           ;!       __Umul8_16
  1748                           ;!       ___xxtofl (ARG)
  1749                           ;!         ___wmul (ARG)
  1750                           ;!     ___flneg (ARG)
  1751                           ;!       ___wmul (ARG)
  1752                           ;!       ___xxtofl (ARG)
  1753                           ;!         ___wmul (ARG)
  1754                           ;!     ___wmul (ARG)
  1755                           ;!     ___xxtofl (ARG)
  1756                           ;!       ___wmul (ARG)
  1757                           ;!   ___xxtofl
  1758                           ;!     ___wmul (ARG)
  1759                           ;!   _b0
  1760                           ;!     ___awdiv
  1761                           ;!     ___bmul
  1762                           ;!     ___fladd
  1763                           ;!       ___flmul (ARG)
  1764                           ;!         __Umul8_16
  1765                           ;!         ___xxtofl (ARG)
  1766                           ;!           ___wmul (ARG)
  1767                           ;!       ___flneg (ARG)
  1768                           ;!         ___wmul (ARG)
  1769                           ;!         ___xxtofl (ARG)
  1770                           ;!           ___wmul (ARG)
  1771                           ;!       ___wmul (ARG)
  1772                           ;!       ___xxtofl (ARG)
  1773                           ;!         ___wmul (ARG)
  1774                           ;!     ___fldiv
  1775                           ;!     ___flneg
  1776                           ;!       ___wmul (ARG)
  1777                           ;!       ___xxtofl (ARG)
  1778                           ;!         ___wmul (ARG)
  1779                           ;!     ___fltol
  1780                           ;!       ___fladd (ARG)
  1781                           ;!         ___flmul (ARG)
  1782                           ;!           __Umul8_16
  1783                           ;!           ___xxtofl (ARG)
  1784                           ;!             ___wmul (ARG)
  1785                           ;!         ___flneg (ARG)
  1786                           ;!           ___wmul (ARG)
  1787                           ;!           ___xxtofl (ARG)
  1788                           ;!             ___wmul (ARG)
  1789                           ;!         ___wmul (ARG)
  1790                           ;!         ___xxtofl (ARG)
  1791                           ;!           ___wmul (ARG)
  1792                           ;!       ___fldiv (ARG)
  1793                           ;!       ___flmul (ARG)
  1794                           ;!         __Umul8_16
  1795                           ;!         ___xxtofl (ARG)
  1796                           ;!           ___wmul (ARG)
  1797                           ;!       ___flneg (ARG)
  1798                           ;!         ___wmul (ARG)
  1799                           ;!         ___xxtofl (ARG)
  1800                           ;!           ___wmul (ARG)
  1801                           ;!       ___wmul (ARG)
  1802                           ;!       ___xxtofl (ARG)
  1803                           ;!         ___wmul (ARG)
  1804                           ;!     ___wmul
  1805                           ;!     ___xxtofl
  1806                           ;!       ___wmul (ARG)
  1807                           ;!     _num_case
  1808                           ;!   _b1
  1809                           ;!     ___awdiv
  1810                           ;!     ___fladd
  1811                           ;!       ___flmul (ARG)
  1812                           ;!         __Umul8_16
  1813                           ;!         ___xxtofl (ARG)
  1814                           ;!           ___wmul (ARG)
  1815                           ;!       ___flneg (ARG)
  1816                           ;!         ___wmul (ARG)
  1817                           ;!         ___xxtofl (ARG)
  1818                           ;!           ___wmul (ARG)
  1819                           ;!       ___wmul (ARG)
  1820                           ;!       ___xxtofl (ARG)
  1821                           ;!         ___wmul (ARG)
  1822                           ;!     ___fldiv
  1823                           ;!     ___flneg
  1824                           ;!       ___wmul (ARG)
  1825                           ;!       ___xxtofl (ARG)
  1826                           ;!         ___wmul (ARG)
  1827                           ;!     ___fltol
  1828                           ;!       ___fladd (ARG)
  1829                           ;!         ___flmul (ARG)
  1830                           ;!           __Umul8_16
  1831                           ;!           ___xxtofl (ARG)
  1832                           ;!             ___wmul (ARG)
  1833                           ;!         ___flneg (ARG)
  1834                           ;!           ___wmul (ARG)
  1835                           ;!           ___xxtofl (ARG)
  1836                           ;!             ___wmul (ARG)
  1837                           ;!         ___wmul (ARG)
  1838                           ;!         ___xxtofl (ARG)
  1839                           ;!           ___wmul (ARG)
  1840                           ;!       ___fldiv (ARG)
  1841                           ;!       ___flmul (ARG)
  1842                           ;!         __Umul8_16
  1843                           ;!         ___xxtofl (ARG)
  1844                           ;!           ___wmul (ARG)
  1845                           ;!       ___flneg (ARG)
  1846                           ;!         ___wmul (ARG)
  1847                           ;!         ___xxtofl (ARG)
  1848                           ;!           ___wmul (ARG)
  1849                           ;!       ___wmul (ARG)
  1850                           ;!       ___xxtofl (ARG)
  1851                           ;!         ___wmul (ARG)
  1852                           ;!     ___wmul
  1853                           ;!     ___xxtofl
  1854                           ;!       ___wmul (ARG)
  1855                           ;!     _num_case
  1856                           ;!   _b2
  1857                           ;!     ___fldiv
  1858                           ;!     ___fltol
  1859                           ;!       ___fladd (ARG)
  1860                           ;!         ___flmul (ARG)
  1861                           ;!           __Umul8_16
  1862                           ;!           ___xxtofl (ARG)
  1863                           ;!             ___wmul (ARG)
  1864                           ;!         ___flneg (ARG)
  1865                           ;!           ___wmul (ARG)
  1866                           ;!           ___xxtofl (ARG)
  1867                           ;!             ___wmul (ARG)
  1868                           ;!         ___wmul (ARG)
  1869                           ;!         ___xxtofl (ARG)
  1870                           ;!           ___wmul (ARG)
  1871                           ;!       ___fldiv (ARG)
  1872                           ;!       ___flmul (ARG)
  1873                           ;!         __Umul8_16
  1874                           ;!         ___xxtofl (ARG)
  1875                           ;!           ___wmul (ARG)
  1876                           ;!       ___flneg (ARG)
  1877                           ;!         ___wmul (ARG)
  1878                           ;!         ___xxtofl (ARG)
  1879                           ;!           ___wmul (ARG)
  1880                           ;!       ___wmul (ARG)
  1881                           ;!       ___xxtofl (ARG)
  1882                           ;!         ___wmul (ARG)
  1883                           ;!     ___xxtofl (ARG)
  1884                           ;!       ___wmul (ARG)
  1885                           ;!     _num_case (ARG)
  1886                           ;!   _opcion_envio
  1887                           ;!
  1888                           ;! _ISR (ROOT)
  1889                           ;!
  1890                           
  1891                           ;! Address spaces:
  1892                           
  1893                           ;!Name               Size   Autos  Total    Cost      Usage
  1894                           ;!BITCOMMON            E      0       0       0        0.0%
  1895                           ;!EEDATA             100      0       0       0        0.0%
  1896                           ;!NULL                 0      0       0       0        0.0%
  1897                           ;!CODE                 0      0       0       0        0.0%
  1898                           ;!COMMON               E      8       B       1       78.6%
  1899                           ;!BITSFR0              0      0       0       1        0.0%
  1900                           ;!SFR0                 0      0       0       1        0.0%
  1901                           ;!BITSFR1              0      0       0       2        0.0%
  1902                           ;!SFR1                 0      0       0       2        0.0%
  1903                           ;!STACK                0      0       0       2        0.0%
  1904                           ;!ABS                  0      0      86       3        0.0%
  1905                           ;!BITBANK0            50      0       0       4        0.0%
  1906                           ;!BITSFR3              0      0       0       4        0.0%
  1907                           ;!SFR3                 0      0       0       4        0.0%
  1908                           ;!BANK0               50     50      50       5      100.0%
  1909                           ;!BITSFR2              0      0       0       5        0.0%
  1910                           ;!SFR2                 0      0       0       5        0.0%
  1911                           ;!BITBANK1            50      0       0       6        0.0%
  1912                           ;!BANK1               50     1F      2B       7       53.8%
  1913                           ;!BITBANK3            60      0       0       8        0.0%
  1914                           ;!BANK3               60      0       0       9        0.0%
  1915                           ;!BITBANK2            60      0       0      10        0.0%
  1916                           ;!BANK2               60      0       0      11        0.0%
  1917                           ;!DATA                 0      0      86      12        0.0%
  1918                           
  1919                           	global	_main
  1920                           
  1921 ;; *************** function _main *****************
  1922 ;; Defined at:
  1923 ;;		line 99 in file "parteD.c"
  1924 ;; Parameters:    Size  Location     Type
  1925 ;;		None
  1926 ;; Auto vars:     Size  Location     Type
  1927 ;;  s1              5   14[BANK1 ] unsigned char [5]
  1928 ;;  adc             4    0        float 
  1929 ;; Return value:  Size  Location     Type
  1930 ;;                  1    wreg      void 
  1931 ;; Registers used:
  1932 ;;		wreg, fsr0l, fsr0h, status,2, status,0, btemp+1, pclath, cstack
  1933 ;; Tracked objects:
  1934 ;;		On entry : B00/0
  1935 ;;		On exit  : 0/0
  1936 ;;		Unchanged: 0/0
  1937 ;; Data sizes:     COMMON   BANK0   BANK1   BANK3   BANK2
  1938 ;;      Params:         0       0       0       0       0
  1939 ;;      Locals:         0       0      17       0       0
  1940 ;;      Temps:          0       0       5       0       0
  1941 ;;      Totals:         0       0      22       0       0
  1942 ;;Total ram usage:       22 bytes
  1943 ;; Hardware stack levels required when called:    4
  1944 ;; This function calls:
  1945 ;;		_ADC_CONFIG
  1946 ;;		_ADC_INTERRUPT
  1947 ;;		_I2C_Slave_Init
  1948 ;;		_Lcd_Init
  1949 ;;		_Lcd_Set_Cursor
  1950 ;;		_Lcd_Write_String
  1951 ;;		___awdiv
  1952 ;;		___fladd
  1953 ;;		___flmul
  1954 ;;		___fltol
  1955 ;;		___xxtofl
  1956 ;;		_b0
  1957 ;;		_b1
  1958 ;;		_b2
  1959 ;;		_opcion_envio
  1960 ;; This function is called by:
  1961 ;;		Startup code after reset
  1962 ;; This function uses a non-reentrant model
  1963 ;;
  1964                           psect	maintext,global,class=CODE,delta=2,split=1,group=0
  1965                           	file	"parteD.c"
  1966                           	line	99
  1967                           global __pmaintext
  1968                           __pmaintext:	;psect for function _main
  1969  0DA1                     psect	maintext
  1970                           	file	"parteD.c"
  1971                           	line	99
  1972                           	global	__size_of_main
  1973                           	__size_of_main	equ	__end_of_main-_main
  1974  025F                     	
  1975                           _main:	
  1976  0DA1                     ;incstack = 0
  1977                           	opt	stack 4
  1978                           ; Regs used in _main: [wreg-fsr0h+status,2+status,0+btemp+1+pclath+cstack]
  1979                           	line	100
  1980                           	
  1981                           l3481:	
  1982  0DA1                     ;parteD.c: 100:     ANSEL = 0;
  1983                           	bsf	status, 5	;RP0=1, select bank3
  1984  0DA1  1683               	bsf	status, 6	;RP1=1, select bank3
  1985  0DA2  1703               	clrf	(392)^0180h	;volatile
  1986  0DA3  0188               	line	101
  1987                           ;parteD.c: 101:     ANSELH = 0;
  1988                           	clrf	(393)^0180h	;volatile
  1989  0DA4  0189               	line	102
  1990                           ;parteD.c: 102:     TRISA = 0;
  1991                           	bsf	status, 5	;RP0=1, select bank1
  1992  0DA5  1683               	bcf	status, 6	;RP1=0, select bank1
  1993  0DA6  1303               	clrf	(133)^080h	;volatile
  1994  0DA7  0185               	line	103
  1995                           ;parteD.c: 103:     TRISC = 0x00;
  1996                           	clrf	(135)^080h	;volatile
  1997  0DA8  0187               	line	104
  1998                           	
  1999                           l3483:	
  2000  0DA9                     ;parteD.c: 104:     TRISB = 0xFF;
  2001                           	movlw	low(0FFh)
  2002  0DA9  30FF               	movwf	(134)^080h	;volatile
  2003  0DAA  0086               	line	105
  2004                           	
  2005                           l3485:	
  2006  0DAB                     ;parteD.c: 105:     TRISD = 0x00;
  2007                           	clrf	(136)^080h	;volatile
  2008  0DAB  0188               	line	107
  2009                           	
  2010                           l3487:	
  2011  0DAC                     ;parteD.c: 107:     Lcd_Init();
  2012                           	fcall	_Lcd_Init
  2013  0DAC  160A  118A  2753  120A  158A  	line	108
  2014                           	
  2015                           l3489:	
  2016  0DB1                     ;parteD.c: 108:     I2C_Slave_Init(0x10);
  2017                           	movlw	low(010h)
  2018  0DB1  3010               	fcall	_I2C_Slave_Init
  2019  0DB2  120A  158A  2003  120A  158A  	line	111
  2020                           	
  2021                           l3491:	
  2022  0DB7                     ;parteD.c: 111:     ADC_CONFIG(13,0);
  2023                           	clrf	(ADC_CONFIG@justif)
  2024  0DB7  01F3               	movlw	low(0Dh)
  2025  0DB8  300D               	fcall	_ADC_CONFIG
  2026  0DB9  120A  118A  2655  120A  158A  	line	112
  2027                           	
  2028                           l3493:	
  2029  0DBE                     ;parteD.c: 112:     ADC_INTERRUPT();
  2030                           	fcall	_ADC_INTERRUPT
  2031  0DBE  160A  118A  256D  120A  158A  	line	113
  2032                           	
  2033                           l3495:	
  2034  0DC3                     ;parteD.c: 113:     ADCON0bits.GO = 1;
  2035                           	bcf	status, 5	;RP0=0, select bank0
  2036  0DC3  1283               	bcf	status, 6	;RP1=0, select bank0
  2037  0DC4  1303               	bsf	(31),1	;volatile
  2038  0DC5  149F               	line	116
  2039                           	
  2040                           l3497:	
  2041  0DC6                     ;parteD.c: 116:     Lcd_Set_Cursor(1,1);
  2042                           	clrf	(Lcd_Set_Cursor@b)
  2043  0DC6  01F7               	incf	(Lcd_Set_Cursor@b),f
  2044  0DC7  0AF7               	movlw	low(01h)
  2045  0DC8  3001               	fcall	_Lcd_Set_Cursor
  2046  0DC9  160A  118A  25B4  120A  158A  	line	117
  2047                           	
  2048                           l3499:	
  2049  0DCE                     ;parteD.c: 117:     Lcd_Write_String("Temp:");
  2050                           	movlw	(low((((STR_1)-__stringbase)|8000h)))&0ffh
  2051  0DCE  3001               	movwf	(Lcd_Write_String@a)
  2052  0DCF  00F6               	movlw	80h
  2053  0DD0  3080               	movwf	(Lcd_Write_String@a+1)
  2054  0DD1  00F7               	fcall	_Lcd_Write_String
  2055  0DD2  160A  118A  26C3  120A  158A  	line	118
  2056                           	
  2057                           l3501:	
  2058  0DD7                     ;parteD.c: 118:     Lcd_Set_Cursor(1,7);
  2059                           	movlw	low(07h)
  2060  0DD7  3007               	bsf	status, 5	;RP0=1, select bank1
  2061  0DD8  1683               	bcf	status, 6	;RP1=0, select bank1
  2062  0DD9  1303               	movwf	(??_main+0)^080h+0
  2063  0DDA  00A9               	movf	(??_main+0)^080h+0,w
  2064  0DDB  0829               	movwf	(Lcd_Set_Cursor@b)
  2065  0DDC  00F7               	movlw	low(01h)
  2066  0DDD  3001               	fcall	_Lcd_Set_Cursor
  2067  0DDE  160A  118A  25B4  120A  158A  	line	119
  2068                           	
  2069                           l3503:	
  2070  0DE3                     ;parteD.c: 119:     Lcd_Write_String("S2:");
  2071                           	movlw	(low((((STR_2)-__stringbase)|8000h)))&0ffh
  2072  0DE3  3007               	movwf	(Lcd_Write_String@a)
  2073  0DE4  00F6               	movlw	80h
  2074  0DE5  3080               	movwf	(Lcd_Write_String@a+1)
  2075  0DE6  00F7               	fcall	_Lcd_Write_String
  2076  0DE7  160A  118A  26C3  120A  158A  	line	120
  2077                           	
  2078                           l3505:	
  2079  0DEC                     ;parteD.c: 120:     Lcd_Set_Cursor(1,12);
  2080                           	movlw	low(0Ch)
  2081  0DEC  300C               	bsf	status, 5	;RP0=1, select bank1
  2082  0DED  1683               	bcf	status, 6	;RP1=0, select bank1
  2083  0DEE  1303               	movwf	(??_main+0)^080h+0
  2084  0DEF  00A9               	movf	(??_main+0)^080h+0,w
  2085  0DF0  0829               	movwf	(Lcd_Set_Cursor@b)
  2086  0DF1  00F7               	movlw	low(01h)
  2087  0DF2  3001               	fcall	_Lcd_Set_Cursor
  2088  0DF3  160A  118A  25B4  120A  158A  	line	121
  2089                           	
  2090                           l3507:	
  2091  0DF8                     ;parteD.c: 121:     Lcd_Write_String("S3:");
  2092                           	movlw	(low((((STR_3)-__stringbase)|8000h)))&0ffh
  2093  0DF8  300B               	movwf	(Lcd_Write_String@a)
  2094  0DF9  00F6               	movlw	80h
  2095  0DFA  3080               	movwf	(Lcd_Write_String@a+1)
  2096  0DFB  00F7               	fcall	_Lcd_Write_String
  2097  0DFC  160A  118A  26C3  120A  158A  	line	124
  2098                           	
  2099                           l3509:	
  2100  0E01                     ;parteD.c: 123:     float adc;;parteD.c: 124:     char s1[5] = "";
  2101                           	movlw	(main@s1)&0ffh
  2102  0E01  30AE               	movwf	fsr0
  2103  0E02  0084               	bsf	status, 5	;RP0=1, select bank1
  2104  0E03  1683               	bcf	status, 6	;RP1=0, select bank1
  2105  0E04  1303               	movf	(main@F1528)^080h,w
  2106  0E05  083F               	bcf	status, 7	;select IRP bank1
  2107  0E06  1383               	movwf	indf
  2108  0E07  0080               	incf	fsr0,f
  2109  0E08  0A84               	movf	(main@F1528)^080h+1,w
  2110  0E09  0840               	movwf	indf
  2111  0E0A  0080               	incf	fsr0,f
  2112  0E0B  0A84               	movf	(main@F1528)^080h+2,w
  2113  0E0C  0841               	movwf	indf
  2114  0E0D  0080               	incf	fsr0,f
  2115  0E0E  0A84               	movf	(main@F1528)^080h+3,w
  2116  0E0F  0842               	movwf	indf
  2117  0E10  0080               	incf	fsr0,f
  2118  0E11  0A84               	movf	(main@F1528)^080h+4,w
  2119  0E12  0843               	movwf	indf
  2120  0E13  0080               	goto	l3511
  2121  0E14  2E15               	line	126
  2122                           ;parteD.c: 126:     while(1){
  2123                           	
  2124                           l221:	
  2125  0E15                     	line	127
  2126                           	
  2127                           l3511:	
  2128  0E15                     ;parteD.c: 127:         TEMP = -0.3519*adc1+59.185+4;
  2129                           	bsf	status, 5	;RP0=1, select bank1
  2130  0E15  1683               	bcf	status, 6	;RP1=0, select bank1
  2131  0E16  1303               	movf	(_adc1)^080h,w
  2132  0E17  084A               	movwf	(??_main+0)^080h+0
  2133  0E18  00A9               	clrf	(??_main+0)^080h+0+1
  2134  0E19  01AA               	clrf	(??_main+0)^080h+0+2
  2135  0E1A  01AB               	clrf	(??_main+0)^080h+0+3
  2136  0E1B  01AC               	movf	3+(??_main+0)^080h+0,w
  2137  0E1C  082C               	bcf	status, 5	;RP0=0, select bank0
  2138  0E1D  1283               	bcf	status, 6	;RP1=0, select bank0
  2139  0E1E  1303               	movwf	(___xxtofl@val+3)
  2140  0E1F  00A5               	bsf	status, 5	;RP0=1, select bank1
  2141  0E20  1683               	bcf	status, 6	;RP1=0, select bank1
  2142  0E21  1303               	movf	2+(??_main+0)^080h+0,w
  2143  0E22  082B               	bcf	status, 5	;RP0=0, select bank0
  2144  0E23  1283               	bcf	status, 6	;RP1=0, select bank0
  2145  0E24  1303               	movwf	(___xxtofl@val+2)
  2146  0E25  00A4               	bsf	status, 5	;RP0=1, select bank1
  2147  0E26  1683               	bcf	status, 6	;RP1=0, select bank1
  2148  0E27  1303               	movf	1+(??_main+0)^080h+0,w
  2149  0E28  082A               	bcf	status, 5	;RP0=0, select bank0
  2150  0E29  1283               	bcf	status, 6	;RP1=0, select bank0
  2151  0E2A  1303               	movwf	(___xxtofl@val+1)
  2152  0E2B  00A3               	bsf	status, 5	;RP0=1, select bank1
  2153  0E2C  1683               	bcf	status, 6	;RP1=0, select bank1
  2154  0E2D  1303               	movf	0+(??_main+0)^080h+0,w
  2155  0E2E  0829               	bcf	status, 5	;RP0=0, select bank0
  2156  0E2F  1283               	bcf	status, 6	;RP1=0, select bank0
  2157  0E30  1303               	movwf	(___xxtofl@val)
  2158  0E31  00A2               
  2159                           	movlw	low(01h)
  2160  0E32  3001               	fcall	___xxtofl
  2161  0E33  120A  158A  210E  120A  158A  	bcf	status, 5	;RP0=0, select bank0
  2162  0E38  1283               	bcf	status, 6	;RP1=0, select bank0
  2163  0E39  1303               	movf	(3+(?___xxtofl)),w
  2164  0E3A  0825               	movwf	(___flmul@a+3)
  2165  0E3B  00B7               	movf	(2+(?___xxtofl)),w
  2166  0E3C  0824               	movwf	(___flmul@a+2)
  2167  0E3D  00B6               	movf	(1+(?___xxtofl)),w
  2168  0E3E  0823               	movwf	(___flmul@a+1)
  2169  0E3F  00B5               	movf	(0+(?___xxtofl)),w
  2170  0E40  0822               	movwf	(___flmul@a)
  2171  0E41  00B4               
  2172                           	movlw	0xbe
  2173  0E42  30BE               	movwf	(___flmul@b+3)
  2174  0E43  00B3               	movlw	0xb4
  2175  0E44  30B4               	movwf	(___flmul@b+2)
  2176  0E45  00B2               	movlw	0x2c
  2177  0E46  302C               	movwf	(___flmul@b+1)
  2178  0E47  00B1               	movlw	0x3d
  2179  0E48  303D               	movwf	(___flmul@b)
  2180  0E49  00B0               
  2181                           	fcall	___flmul
  2182  0E4A  120A  118A  2024  120A  158A  	bcf	status, 5	;RP0=0, select bank0
  2183  0E4F  1283               	bcf	status, 6	;RP1=0, select bank0
  2184  0E50  1303               	movf	(3+(?___flmul)),w
  2185  0E51  0833               	movwf	(___fladd@a+3)
  2186  0E52  00D1               	movf	(2+(?___flmul)),w
  2187  0E53  0832               	movwf	(___fladd@a+2)
  2188  0E54  00D0               	movf	(1+(?___flmul)),w
  2189  0E55  0831               	movwf	(___fladd@a+1)
  2190  0E56  00CF               	movf	(0+(?___flmul)),w
  2191  0E57  0830               	movwf	(___fladd@a)
  2192  0E58  00CE               
  2193                           	movlw	0x42
  2194  0E59  3042               	movwf	(___fladd@b+3)
  2195  0E5A  00CD               	movlw	0x6c
  2196  0E5B  306C               	movwf	(___fladd@b+2)
  2197  0E5C  00CC               	movlw	0xbd
  2198  0E5D  30BD               	movwf	(___fladd@b+1)
  2199  0E5E  00CB               	movlw	0x71
  2200  0E5F  3071               	movwf	(___fladd@b)
  2201  0E60  00CA               
  2202                           	fcall	___fladd
  2203  0E61  120A  118A  2399  120A  158A  	bcf	status, 5	;RP0=0, select bank0
  2204  0E66  1283               	bcf	status, 6	;RP1=0, select bank0
  2205  0E67  1303               	movf	(3+(?___fladd)),w
  2206  0E68  084D               	bsf	status, 5	;RP0=1, select bank1
  2207  0E69  1683               	bcf	status, 6	;RP1=0, select bank1
  2208  0E6A  1303               	movwf	(_main$1355+3)^080h
  2209  0E6B  00B6               	bcf	status, 5	;RP0=0, select bank0
  2210  0E6C  1283               	bcf	status, 6	;RP1=0, select bank0
  2211  0E6D  1303               	movf	(2+(?___fladd)),w
  2212  0E6E  084C               	bsf	status, 5	;RP0=1, select bank1
  2213  0E6F  1683               	bcf	status, 6	;RP1=0, select bank1
  2214  0E70  1303               	movwf	(_main$1355+2)^080h
  2215  0E71  00B5               	bcf	status, 5	;RP0=0, select bank0
  2216  0E72  1283               	bcf	status, 6	;RP1=0, select bank0
  2217  0E73  1303               	movf	(1+(?___fladd)),w
  2218  0E74  084B               	bsf	status, 5	;RP0=1, select bank1
  2219  0E75  1683               	bcf	status, 6	;RP1=0, select bank1
  2220  0E76  1303               	movwf	(_main$1355+1)^080h
  2221  0E77  00B4               	bcf	status, 5	;RP0=0, select bank0
  2222  0E78  1283               	bcf	status, 6	;RP1=0, select bank0
  2223  0E79  1303               	movf	(0+(?___fladd)),w
  2224  0E7A  084A               	bsf	status, 5	;RP0=1, select bank1
  2225  0E7B  1683               	bcf	status, 6	;RP1=0, select bank1
  2226  0E7C  1303               	movwf	(_main$1355)^080h
  2227  0E7D  00B3               
  2228                           	
  2229                           l3513:	
  2230  0E7E                     ;parteD.c: 127:         TEMP = -0.3519*adc1+59.185+4;
  2231                           	movf	(_main$1355+3)^080h,w
  2232  0E7E  0836               	bcf	status, 5	;RP0=0, select bank0
  2233  0E7F  1283               	bcf	status, 6	;RP1=0, select bank0
  2234  0E80  1303               	movwf	(___fladd@a+3)
  2235  0E81  00D1               	bsf	status, 5	;RP0=1, select bank1
  2236  0E82  1683               	bcf	status, 6	;RP1=0, select bank1
  2237  0E83  1303               	movf	(_main$1355+2)^080h,w
  2238  0E84  0835               	bcf	status, 5	;RP0=0, select bank0
  2239  0E85  1283               	bcf	status, 6	;RP1=0, select bank0
  2240  0E86  1303               	movwf	(___fladd@a+2)
  2241  0E87  00D0               	bsf	status, 5	;RP0=1, select bank1
  2242  0E88  1683               	bcf	status, 6	;RP1=0, select bank1
  2243  0E89  1303               	movf	(_main$1355+1)^080h,w
  2244  0E8A  0834               	bcf	status, 5	;RP0=0, select bank0
  2245  0E8B  1283               	bcf	status, 6	;RP1=0, select bank0
  2246  0E8C  1303               	movwf	(___fladd@a+1)
  2247  0E8D  00CF               	bsf	status, 5	;RP0=1, select bank1
  2248  0E8E  1683               	bcf	status, 6	;RP1=0, select bank1
  2249  0E8F  1303               	movf	(_main$1355)^080h,w
  2250  0E90  0833               	bcf	status, 5	;RP0=0, select bank0
  2251  0E91  1283               	bcf	status, 6	;RP1=0, select bank0
  2252  0E92  1303               	movwf	(___fladd@a)
  2253  0E93  00CE               
  2254                           	movlw	0x40
  2255  0E94  3040               	movwf	(___fladd@b+3)
  2256  0E95  00CD               	movlw	0x80
  2257  0E96  3080               	movwf	(___fladd@b+2)
  2258  0E97  00CC               	movlw	0x0
  2259  0E98  3000               	movwf	(___fladd@b+1)
  2260  0E99  00CB               	movlw	0x0
  2261  0E9A  3000               	movwf	(___fladd@b)
  2262  0E9B  00CA               
  2263                           	fcall	___fladd
  2264  0E9C  120A  118A  2399  120A  158A  	bcf	status, 5	;RP0=0, select bank0
  2265  0EA1  1283               	bcf	status, 6	;RP1=0, select bank0
  2266  0EA2  1303               	movf	(3+(?___fladd)),w
  2267  0EA3  084D               	movwf	(___fltol@f1+3)
  2268  0EA4  00E5               	movf	(2+(?___fladd)),w
  2269  0EA5  084C               	movwf	(___fltol@f1+2)
  2270  0EA6  00E4               	movf	(1+(?___fladd)),w
  2271  0EA7  084B               	movwf	(___fltol@f1+1)
  2272  0EA8  00E3               	movf	(0+(?___fladd)),w
  2273  0EA9  084A               	movwf	(___fltol@f1)
  2274  0EAA  00E2               
  2275                           	fcall	___fltol
  2276  0EAB  120A  118A  2763  120A  158A  	bcf	status, 5	;RP0=0, select bank0
  2277  0EB0  1283               	bcf	status, 6	;RP1=0, select bank0
  2278  0EB1  1303               	movf	(0+(?___fltol)),w
  2279  0EB2  0862               	bsf	status, 5	;RP0=1, select bank1
  2280  0EB3  1683               	bcf	status, 6	;RP1=0, select bank1
  2281  0EB4  1303               	movwf	(??_main+0)^080h+0
  2282  0EB5  00A9               	movf	(??_main+0)^080h+0,w
  2283  0EB6  0829               	movwf	(_TEMP)^080h
  2284  0EB7  00C6               	line	128
  2285                           	
  2286                           l3515:	
  2287  0EB8                     ;parteD.c: 128:         TEMP = (TEMP+TEMPA)/2;
  2288                           	movlw	02h
  2289  0EB8  3002               	movwf	(___awdiv@divisor)
  2290  0EB9  00F3               	movlw	0
  2291  0EBA  3000               	movwf	((___awdiv@divisor))+1
  2292  0EBB  00F4               	movf	(_TEMP)^080h,w
  2293  0EBC  0846               	addwf	(_TEMPA)^080h,w
  2294  0EBD  0745               	movwf	(___awdiv@dividend)
  2295  0EBE  00F5               	clrf	(___awdiv@dividend)+1
  2296  0EBF  01F6               	rlf	1+(___awdiv@dividend),f
  2297  0EC0  0DF6               	
  2298                           	fcall	___awdiv
  2299  0EC1  120A  158A  201D  120A  158A  	movf	(0+(?___awdiv)),w
  2300  0EC6  0873               	bsf	status, 5	;RP0=1, select bank1
  2301  0EC7  1683               	bcf	status, 6	;RP1=0, select bank1
  2302  0EC8  1303               	movwf	(??_main+0)^080h+0
  2303  0EC9  00A9               	movf	(??_main+0)^080h+0,w
  2304  0ECA  0829               	movwf	(_TEMP)^080h
  2305  0ECB  00C6               	line	129
  2306                           	
  2307                           l3517:	
  2308  0ECC                     ;parteD.c: 129:         Lcd_Set_Cursor(2,1);
  2309                           	clrf	(Lcd_Set_Cursor@b)
  2310  0ECC  01F7               	incf	(Lcd_Set_Cursor@b),f
  2311  0ECD  0AF7               	movlw	low(02h)
  2312  0ECE  3002               	fcall	_Lcd_Set_Cursor
  2313  0ECF  160A  118A  25B4  120A  158A  	line	130
  2314                           	
  2315                           l3519:	
  2316  0ED4                     ;parteD.c: 130:         s1[2] = b0(TEMP);
  2317                           	bsf	status, 5	;RP0=1, select bank1
  2318  0ED4  1683               	bcf	status, 6	;RP1=0, select bank1
  2319  0ED5  1303               	movf	(_TEMP)^080h,w
  2320  0ED6  0846               	movwf	(??_main+0)^080h+0
  2321  0ED7  00A9               	clrf	(??_main+0)^080h+0+1
  2322  0ED8  01AA               	clrf	(??_main+0)^080h+0+2
  2323  0ED9  01AB               	clrf	(??_main+0)^080h+0+3
  2324  0EDA  01AC               	movf	3+(??_main+0)^080h+0,w
  2325  0EDB  082C               	bcf	status, 5	;RP0=0, select bank0
  2326  0EDC  1283               	bcf	status, 6	;RP1=0, select bank0
  2327  0EDD  1303               	movwf	(___xxtofl@val+3)
  2328  0EDE  00A5               	bsf	status, 5	;RP0=1, select bank1
  2329  0EDF  1683               	bcf	status, 6	;RP1=0, select bank1
  2330  0EE0  1303               	movf	2+(??_main+0)^080h+0,w
  2331  0EE1  082B               	bcf	status, 5	;RP0=0, select bank0
  2332  0EE2  1283               	bcf	status, 6	;RP1=0, select bank0
  2333  0EE3  1303               	movwf	(___xxtofl@val+2)
  2334  0EE4  00A4               	bsf	status, 5	;RP0=1, select bank1
  2335  0EE5  1683               	bcf	status, 6	;RP1=0, select bank1
  2336  0EE6  1303               	movf	1+(??_main+0)^080h+0,w
  2337  0EE7  082A               	bcf	status, 5	;RP0=0, select bank0
  2338  0EE8  1283               	bcf	status, 6	;RP1=0, select bank0
  2339  0EE9  1303               	movwf	(___xxtofl@val+1)
  2340  0EEA  00A3               	bsf	status, 5	;RP0=1, select bank1
  2341  0EEB  1683               	bcf	status, 6	;RP1=0, select bank1
  2342  0EEC  1303               	movf	0+(??_main+0)^080h+0,w
  2343  0EED  0829               	bcf	status, 5	;RP0=0, select bank0
  2344  0EEE  1283               	bcf	status, 6	;RP1=0, select bank0
  2345  0EEF  1303               	movwf	(___xxtofl@val)
  2346  0EF0  00A2               
  2347                           	movlw	low(0)
  2348  0EF1  3000               	fcall	___xxtofl
  2349  0EF2  120A  158A  210E  120A  158A  	bcf	status, 5	;RP0=0, select bank0
  2350  0EF7  1283               	bcf	status, 6	;RP1=0, select bank0
  2351  0EF8  1303               	movf	(3+(?___xxtofl)),w
  2352  0EF9  0825               	bsf	status, 5	;RP0=1, select bank1
  2353  0EFA  1683               	bcf	status, 6	;RP1=0, select bank1
  2354  0EFB  1303               	movwf	(_main$1356+3)^080h
  2355  0EFC  00BA               	bcf	status, 5	;RP0=0, select bank0
  2356  0EFD  1283               	bcf	status, 6	;RP1=0, select bank0
  2357  0EFE  1303               	movf	(2+(?___xxtofl)),w
  2358  0EFF  0824               	bsf	status, 5	;RP0=1, select bank1
  2359  0F00  1683               	bcf	status, 6	;RP1=0, select bank1
  2360  0F01  1303               	movwf	(_main$1356+2)^080h
  2361  0F02  00B9               	bcf	status, 5	;RP0=0, select bank0
  2362  0F03  1283               	bcf	status, 6	;RP1=0, select bank0
  2363  0F04  1303               	movf	(1+(?___xxtofl)),w
  2364  0F05  0823               	bsf	status, 5	;RP0=1, select bank1
  2365  0F06  1683               	bcf	status, 6	;RP1=0, select bank1
  2366  0F07  1303               	movwf	(_main$1356+1)^080h
  2367  0F08  00B8               	bcf	status, 5	;RP0=0, select bank0
  2368  0F09  1283               	bcf	status, 6	;RP1=0, select bank0
  2369  0F0A  1303               	movf	(0+(?___xxtofl)),w
  2370  0F0B  0822               	bsf	status, 5	;RP0=1, select bank1
  2371  0F0C  1683               	bcf	status, 6	;RP1=0, select bank1
  2372  0F0D  1303               	movwf	(_main$1356)^080h
  2373  0F0E  00B7               
  2374                           	
  2375                           l3521:	
  2376  0F0F                     ;parteD.c: 130:         s1[2] = b0(TEMP);
  2377                           	movf	(_main$1356+3)^080h,w
  2378  0F0F  083A               	movwf	(b0@m+3)^080h
  2379  0F10  00A3               	movf	(_main$1356+2)^080h,w
  2380  0F11  0839               	movwf	(b0@m+2)^080h
  2381  0F12  00A2               	movf	(_main$1356+1)^080h,w
  2382  0F13  0838               	movwf	(b0@m+1)^080h
  2383  0F14  00A1               	movf	(_main$1356)^080h,w
  2384  0F15  0837               	movwf	(b0@m)^080h
  2385  0F16  00A0               
  2386                           	fcall	_b0
  2387  0F17  120A  158A  22A8  120A  158A  	bsf	status, 5	;RP0=1, select bank1
  2388  0F1C  1683               	bcf	status, 6	;RP1=0, select bank1
  2389  0F1D  1303               	movwf	(??_main+0)^080h+0
  2390  0F1E  00A9               	movf	(??_main+0)^080h+0,w
  2391  0F1F  0829               	movwf	0+(main@s1)^080h+02h
  2392  0F20  00B0               	line	131
  2393                           	
  2394                           l3523:	
  2395  0F21                     ;parteD.c: 131:         s1[1] = b1(TEMP);
  2396                           	movf	(_TEMP)^080h,w
  2397  0F21  0846               	movwf	(??_main+0)^080h+0
  2398  0F22  00A9               	clrf	(??_main+0)^080h+0+1
  2399  0F23  01AA               	clrf	(??_main+0)^080h+0+2
  2400  0F24  01AB               	clrf	(??_main+0)^080h+0+3
  2401  0F25  01AC               	movf	3+(??_main+0)^080h+0,w
  2402  0F26  082C               	bcf	status, 5	;RP0=0, select bank0
  2403  0F27  1283               	bcf	status, 6	;RP1=0, select bank0
  2404  0F28  1303               	movwf	(___xxtofl@val+3)
  2405  0F29  00A5               	bsf	status, 5	;RP0=1, select bank1
  2406  0F2A  1683               	bcf	status, 6	;RP1=0, select bank1
  2407  0F2B  1303               	movf	2+(??_main+0)^080h+0,w
  2408  0F2C  082B               	bcf	status, 5	;RP0=0, select bank0
  2409  0F2D  1283               	bcf	status, 6	;RP1=0, select bank0
  2410  0F2E  1303               	movwf	(___xxtofl@val+2)
  2411  0F2F  00A4               	bsf	status, 5	;RP0=1, select bank1
  2412  0F30  1683               	bcf	status, 6	;RP1=0, select bank1
  2413  0F31  1303               	movf	1+(??_main+0)^080h+0,w
  2414  0F32  082A               	bcf	status, 5	;RP0=0, select bank0
  2415  0F33  1283               	bcf	status, 6	;RP1=0, select bank0
  2416  0F34  1303               	movwf	(___xxtofl@val+1)
  2417  0F35  00A3               	bsf	status, 5	;RP0=1, select bank1
  2418  0F36  1683               	bcf	status, 6	;RP1=0, select bank1
  2419  0F37  1303               	movf	0+(??_main+0)^080h+0,w
  2420  0F38  0829               	bcf	status, 5	;RP0=0, select bank0
  2421  0F39  1283               	bcf	status, 6	;RP1=0, select bank0
  2422  0F3A  1303               	movwf	(___xxtofl@val)
  2423  0F3B  00A2               
  2424                           	movlw	low(0)
  2425  0F3C  3000               	fcall	___xxtofl
  2426  0F3D  120A  158A  210E  120A  158A  	bcf	status, 5	;RP0=0, select bank0
  2427  0F42  1283               	bcf	status, 6	;RP1=0, select bank0
  2428  0F43  1303               	movf	(3+(?___xxtofl)),w
  2429  0F44  0825               	bsf	status, 5	;RP0=1, select bank1
  2430  0F45  1683               	bcf	status, 6	;RP1=0, select bank1
  2431  0F46  1303               	movwf	(_main$1357+3)^080h
  2432  0F47  00BE               	bcf	status, 5	;RP0=0, select bank0
  2433  0F48  1283               	bcf	status, 6	;RP1=0, select bank0
  2434  0F49  1303               	movf	(2+(?___xxtofl)),w
  2435  0F4A  0824               	bsf	status, 5	;RP0=1, select bank1
  2436  0F4B  1683               	bcf	status, 6	;RP1=0, select bank1
  2437  0F4C  1303               	movwf	(_main$1357+2)^080h
  2438  0F4D  00BD               	bcf	status, 5	;RP0=0, select bank0
  2439  0F4E  1283               	bcf	status, 6	;RP1=0, select bank0
  2440  0F4F  1303               	movf	(1+(?___xxtofl)),w
  2441  0F50  0823               	bsf	status, 5	;RP0=1, select bank1
  2442  0F51  1683               	bcf	status, 6	;RP1=0, select bank1
  2443  0F52  1303               	movwf	(_main$1357+1)^080h
  2444  0F53  00BC               	bcf	status, 5	;RP0=0, select bank0
  2445  0F54  1283               	bcf	status, 6	;RP1=0, select bank0
  2446  0F55  1303               	movf	(0+(?___xxtofl)),w
  2447  0F56  0822               	bsf	status, 5	;RP0=1, select bank1
  2448  0F57  1683               	bcf	status, 6	;RP1=0, select bank1
  2449  0F58  1303               	movwf	(_main$1357)^080h
  2450  0F59  00BB               
  2451                           	
  2452                           l3525:	
  2453  0F5A                     ;parteD.c: 131:         s1[1] = b1(TEMP);
  2454                           	movf	(_main$1357+3)^080h,w
  2455  0F5A  083E               	movwf	(b1@m+3)^080h
  2456  0F5B  00A3               	movf	(_main$1357+2)^080h,w
  2457  0F5C  083D               	movwf	(b1@m+2)^080h
  2458  0F5D  00A2               	movf	(_main$1357+1)^080h,w
  2459  0F5E  083C               	movwf	(b1@m+1)^080h
  2460  0F5F  00A1               	movf	(_main$1357)^080h,w
  2461  0F60  083B               	movwf	(b1@m)^080h
  2462  0F61  00A0               
  2463                           	fcall	_b1
  2464  0F62  120A  158A  21D2  120A  158A  	bsf	status, 5	;RP0=1, select bank1
  2465  0F67  1683               	bcf	status, 6	;RP1=0, select bank1
  2466  0F68  1303               	movwf	(??_main+0)^080h+0
  2467  0F69  00A9               	movf	(??_main+0)^080h+0,w
  2468  0F6A  0829               	movwf	0+(main@s1)^080h+01h
  2469  0F6B  00AF               	line	132
  2470                           	
  2471                           l3527:	
  2472  0F6C                     ;parteD.c: 132:         s1[0] = b2(TEMP);
  2473                           	movf	(_TEMP)^080h,w
  2474  0F6C  0846               	movwf	(??_main+0)^080h+0
  2475  0F6D  00A9               	clrf	(??_main+0)^080h+0+1
  2476  0F6E  01AA               	clrf	(??_main+0)^080h+0+2
  2477  0F6F  01AB               	clrf	(??_main+0)^080h+0+3
  2478  0F70  01AC               	movf	3+(??_main+0)^080h+0,w
  2479  0F71  082C               	bcf	status, 5	;RP0=0, select bank0
  2480  0F72  1283               	bcf	status, 6	;RP1=0, select bank0
  2481  0F73  1303               	movwf	(___xxtofl@val+3)
  2482  0F74  00A5               	bsf	status, 5	;RP0=1, select bank1
  2483  0F75  1683               	bcf	status, 6	;RP1=0, select bank1
  2484  0F76  1303               	movf	2+(??_main+0)^080h+0,w
  2485  0F77  082B               	bcf	status, 5	;RP0=0, select bank0
  2486  0F78  1283               	bcf	status, 6	;RP1=0, select bank0
  2487  0F79  1303               	movwf	(___xxtofl@val+2)
  2488  0F7A  00A4               	bsf	status, 5	;RP0=1, select bank1
  2489  0F7B  1683               	bcf	status, 6	;RP1=0, select bank1
  2490  0F7C  1303               	movf	1+(??_main+0)^080h+0,w
  2491  0F7D  082A               	bcf	status, 5	;RP0=0, select bank0
  2492  0F7E  1283               	bcf	status, 6	;RP1=0, select bank0
  2493  0F7F  1303               	movwf	(___xxtofl@val+1)
  2494  0F80  00A3               	bsf	status, 5	;RP0=1, select bank1
  2495  0F81  1683               	bcf	status, 6	;RP1=0, select bank1
  2496  0F82  1303               	movf	0+(??_main+0)^080h+0,w
  2497  0F83  0829               	bcf	status, 5	;RP0=0, select bank0
  2498  0F84  1283               	bcf	status, 6	;RP1=0, select bank0
  2499  0F85  1303               	movwf	(___xxtofl@val)
  2500  0F86  00A2               
  2501                           	movlw	low(0)
  2502  0F87  3000               	fcall	___xxtofl
  2503  0F88  120A  158A  210E  120A  158A  	bcf	status, 5	;RP0=0, select bank0
  2504  0F8D  1283               	bcf	status, 6	;RP1=0, select bank0
  2505  0F8E  1303               	movf	(3+(?___xxtofl)),w
  2506  0F8F  0825               	bsf	status, 5	;RP0=1, select bank1
  2507  0F90  1683               	bcf	status, 6	;RP1=0, select bank1
  2508  0F91  1303               	movwf	(b2@m+3)^080h
  2509  0F92  00A3               	bcf	status, 5	;RP0=0, select bank0
  2510  0F93  1283               	bcf	status, 6	;RP1=0, select bank0
  2511  0F94  1303               	movf	(2+(?___xxtofl)),w
  2512  0F95  0824               	bsf	status, 5	;RP0=1, select bank1
  2513  0F96  1683               	bcf	status, 6	;RP1=0, select bank1
  2514  0F97  1303               	movwf	(b2@m+2)^080h
  2515  0F98  00A2               	bcf	status, 5	;RP0=0, select bank0
  2516  0F99  1283               	bcf	status, 6	;RP1=0, select bank0
  2517  0F9A  1303               	movf	(1+(?___xxtofl)),w
  2518  0F9B  0823               	bsf	status, 5	;RP0=1, select bank1
  2519  0F9C  1683               	bcf	status, 6	;RP1=0, select bank1
  2520  0F9D  1303               	movwf	(b2@m+1)^080h
  2521  0F9E  00A1               	bcf	status, 5	;RP0=0, select bank0
  2522  0F9F  1283               	bcf	status, 6	;RP1=0, select bank0
  2523  0FA0  1303               	movf	(0+(?___xxtofl)),w
  2524  0FA1  0822               	bsf	status, 5	;RP0=1, select bank1
  2525  0FA2  1683               	bcf	status, 6	;RP1=0, select bank1
  2526  0FA3  1303               	movwf	(b2@m)^080h
  2527  0FA4  00A0               
  2528                           	fcall	_b2
  2529  0FA5  160A  118A  270B  120A  158A  	bsf	status, 5	;RP0=1, select bank1
  2530  0FAA  1683               	bcf	status, 6	;RP1=0, select bank1
  2531  0FAB  1303               	movwf	(??_main+4)^080h+0
  2532  0FAC  00AD               	movf	(??_main+4)^080h+0,w
  2533  0FAD  082D               	movwf	(main@s1)^080h
  2534  0FAE  00AE               	line	133
  2535                           	
  2536                           l3529:	
  2537  0FAF                     ;parteD.c: 133:         Lcd_Write_String(s1);
  2538                           	movlw	(low(main@s1|((0x0)<<8))&0ffh)
  2539  0FAF  30AE               	movwf	(Lcd_Write_String@a)
  2540  0FB0  00F6               	movlw	(0x0)
  2541  0FB1  3000               	movwf	(Lcd_Write_String@a+1)
  2542  0FB2  00F7               	fcall	_Lcd_Write_String
  2543  0FB3  160A  118A  26C3  120A  158A  	line	135
  2544                           	
  2545                           l3531:	
  2546  0FB8                     ;parteD.c: 135:         if (PORTBbits.RB1 == 1){
  2547                           	bcf	status, 5	;RP0=0, select bank0
  2548  0FB8  1283               	bcf	status, 6	;RP1=0, select bank0
  2549  0FB9  1303               	btfss	(6),1	;volatile
  2550  0FBA  1C86               	goto	u4271
  2551  0FBB  2FBD               	goto	u4270
  2552  0FBC  2FBE               u4271:
  2553  0FBD                     	goto	l3535
  2554  0FBD  2FC6               u4270:
  2555  0FBE                     	line	136
  2556                           	
  2557                           l3533:	
  2558  0FBE                     ;parteD.c: 136:             SISMO = 1;
  2559                           	bsf	status, 5	;RP0=1, select bank1
  2560  0FBE  1683               	bcf	status, 6	;RP1=0, select bank1
  2561  0FBF  1303               	clrf	(_SISMO)^080h
  2562  0FC0  01C7               	incf	(_SISMO)^080h,f
  2563  0FC1  0AC7               	line	137
  2564                           ;parteD.c: 137:             RD0 = 1;
  2565                           	bcf	status, 5	;RP0=0, select bank0
  2566  0FC2  1283               	bcf	status, 6	;RP1=0, select bank0
  2567  0FC3  1303               	bsf	(64/8),(64)&7	;volatile
  2568  0FC4  1408               	line	138
  2569                           ;parteD.c: 138:         }
  2570                           	goto	l3539
  2571  0FC5  2FCD               	line	139
  2572                           ;parteD.c: 139:         else {
  2573                           	
  2574                           l222:	
  2575  0FC6                     	line	140
  2576                           	
  2577                           l3535:	
  2578  0FC6                     ;parteD.c: 140:             SISMO = 0;
  2579                           	bsf	status, 5	;RP0=1, select bank1
  2580  0FC6  1683               	bcf	status, 6	;RP1=0, select bank1
  2581  0FC7  1303               	clrf	(_SISMO)^080h
  2582  0FC8  01C7               	line	141
  2583                           	
  2584                           l3537:	
  2585  0FC9                     ;parteD.c: 141:             RD0 = 0;
  2586                           	bcf	status, 5	;RP0=0, select bank0
  2587  0FC9  1283               	bcf	status, 6	;RP1=0, select bank0
  2588  0FCA  1303               	bcf	(64/8),(64)&7	;volatile
  2589  0FCB  1008               	goto	l3539
  2590  0FCC  2FCD               	line	142
  2591                           ;parteD.c: 142:         }
  2592                           	
  2593                           l223:	
  2594  0FCD                     	line	144
  2595                           	
  2596                           l3539:	
  2597  0FCD                     ;parteD.c: 144:         if(TEMP >=29){
  2598                           	movlw	low(01Dh)
  2599  0FCD  301D               	bsf	status, 5	;RP0=1, select bank1
  2600  0FCE  1683               	bcf	status, 6	;RP1=0, select bank1
  2601  0FCF  1303               	subwf	(_TEMP)^080h,w
  2602  0FD0  0246               	skipc
  2603  0FD1  1C03               	goto	u4281
  2604  0FD2  2FD4               	goto	u4280
  2605  0FD3  2FD5               u4281:
  2606  0FD4                     	goto	l224
  2607  0FD4  2FD9               u4280:
  2608  0FD5                     	line	145
  2609                           	
  2610                           l3541:	
  2611  0FD5                     ;parteD.c: 145:             RD1 = 1;
  2612                           	bcf	status, 5	;RP0=0, select bank0
  2613  0FD5  1283               	bcf	status, 6	;RP1=0, select bank0
  2614  0FD6  1303               	bsf	(65/8),(65)&7	;volatile
  2615  0FD7  1488               	line	146
  2616                           ;parteD.c: 146:         }
  2617                           	goto	l225
  2618  0FD8  2FDC               	line	147
  2619                           ;parteD.c: 147:         else{
  2620                           	
  2621                           l224:	
  2622  0FD9                     	line	148
  2623                           ;parteD.c: 148:             RD1 = 0;
  2624                           	bcf	status, 5	;RP0=0, select bank0
  2625  0FD9  1283               	bcf	status, 6	;RP1=0, select bank0
  2626  0FDA  1303               	bcf	(65/8),(65)&7	;volatile
  2627  0FDB  1088               	line	149
  2628                           ;parteD.c: 149:         }
  2629                           	
  2630                           l225:	
  2631  0FDC                     	line	151
  2632                           ;parteD.c: 151:         if (PORTBbits.RB0 == 0){
  2633                           	btfsc	(6),0	;volatile
  2634  0FDC  1806               	goto	u4291
  2635  0FDD  2FDF               	goto	u4290
  2636  0FDE  2FE0               u4291:
  2637  0FDF                     	goto	l3545
  2638  0FDF  2FE8               u4290:
  2639  0FE0                     	line	152
  2640                           	
  2641                           l3543:	
  2642  0FE0                     ;parteD.c: 152:             HUMO = 1;
  2643                           	bsf	status, 5	;RP0=1, select bank1
  2644  0FE0  1683               	bcf	status, 6	;RP1=0, select bank1
  2645  0FE1  1303               	clrf	(_HUMO)^080h
  2646  0FE2  01C4               	incf	(_HUMO)^080h,f
  2647  0FE3  0AC4               	line	153
  2648                           ;parteD.c: 153:             RD3 = 1;
  2649                           	bcf	status, 5	;RP0=0, select bank0
  2650  0FE4  1283               	bcf	status, 6	;RP1=0, select bank0
  2651  0FE5  1303               	bsf	(67/8),(67)&7	;volatile
  2652  0FE6  1588               	line	154
  2653                           ;parteD.c: 154:         }
  2654                           	goto	l3549
  2655  0FE7  2FEF               	line	155
  2656                           ;parteD.c: 155:         else {
  2657                           	
  2658                           l226:	
  2659  0FE8                     	line	156
  2660                           	
  2661                           l3545:	
  2662  0FE8                     ;parteD.c: 156:             HUMO = 0;
  2663                           	bsf	status, 5	;RP0=1, select bank1
  2664  0FE8  1683               	bcf	status, 6	;RP1=0, select bank1
  2665  0FE9  1303               	clrf	(_HUMO)^080h
  2666  0FEA  01C4               	line	157
  2667                           	
  2668                           l3547:	
  2669  0FEB                     ;parteD.c: 157:             RD3 = 0;
  2670                           	bcf	status, 5	;RP0=0, select bank0
  2671  0FEB  1283               	bcf	status, 6	;RP1=0, select bank0
  2672  0FEC  1303               	bcf	(67/8),(67)&7	;volatile
  2673  0FED  1188               	goto	l3549
  2674  0FEE  2FEF               	line	158
  2675                           ;parteD.c: 158:         }
  2676                           	
  2677                           l227:	
  2678  0FEF                     	line	161
  2679                           	
  2680                           l3549:	
  2681  0FEF                     ;parteD.c: 161:         TEMPA = TEMP;
  2682                           	bsf	status, 5	;RP0=1, select bank1
  2683  0FEF  1683               	bcf	status, 6	;RP1=0, select bank1
  2684  0FF0  1303               	movf	(_TEMP)^080h,w
  2685  0FF1  0846               	movwf	(??_main+0)^080h+0
  2686  0FF2  00A9               	movf	(??_main+0)^080h+0,w
  2687  0FF3  0829               	movwf	(_TEMPA)^080h
  2688  0FF4  00C5               	line	162
  2689                           	
  2690                           l3551:	
  2691  0FF5                     ;parteD.c: 162:         opcion_envio(eleccion);
  2692                           	movf	(_eleccion)^080h,w
  2693  0FF5  0849               	fcall	_opcion_envio
  2694  0FF6  160A  118A  2653  120A  158A  	goto	l3511
  2695  0FFB  2E15               	line	163
  2696                           ;parteD.c: 163:     }
  2697                           	
  2698                           l228:	
  2699  0FFC                     	goto	l3511
  2700  0FFC  2E15               	
  2701                           l229:	
  2702  0FFD                     	line	165
  2703                           	
  2704                           l230:	
  2705  0FFD                     	global	start
  2706                           	ljmp	start
  2707  0FFD  120A  118A  280C   	opt stack 0
  2708                           GLOBAL	__end_of_main
  2709                           	__end_of_main:
  2710  1000                     	signat	_main,89
  2711                           	global	_opcion_envio
  2712                           
  2713 ;; *************** function _opcion_envio *****************
  2714 ;; Defined at:
  2715 ;;		line 167 in file "parteD.c"
  2716 ;; Parameters:    Size  Location     Type
  2717 ;;  seleccion       1    wreg     unsigned char 
  2718 ;; Auto vars:     Size  Location     Type
  2719 ;;  seleccion       1    5[COMMON] unsigned char 
  2720 ;; Return value:  Size  Location     Type
  2721 ;;                  1    wreg      void 
  2722 ;; Registers used:
  2723 ;;		wreg, fsr0l, fsr0h, status,2, status,0
  2724 ;; Tracked objects:
  2725 ;;		On entry : 0/0
  2726 ;;		On exit  : 0/0
  2727 ;;		Unchanged: 0/0
  2728 ;; Data sizes:     COMMON   BANK0   BANK1   BANK3   BANK2
  2729 ;;      Params:         0       0       0       0       0
  2730 ;;      Locals:         1       0       0       0       0
  2731 ;;      Temps:          2       0       0       0       0
  2732 ;;      Totals:         3       0       0       0       0
  2733 ;;Total ram usage:        3 bytes
  2734 ;; Hardware stack levels used:    1
  2735 ;; Hardware stack levels required when called:    1
  2736 ;; This function calls:
  2737 ;;		Nothing
  2738 ;; This function is called by:
  2739 ;;		_main
  2740 ;; This function uses a non-reentrant model
  2741 ;;
  2742                           psect	text1,local,class=CODE,delta=2,merge=1,group=0
  2743                           	line	167
  2744                           global __ptext1
  2745                           __ptext1:	;psect for function _opcion_envio
  2746  1653                     psect	text1
  2747                           	file	"parteD.c"
  2748                           	line	167
  2749                           	global	__size_of_opcion_envio
  2750                           	__size_of_opcion_envio	equ	__end_of_opcion_envio-_opcion_envio
  2751  0031                     	
  2752                           _opcion_envio:	
  2753  1653                     ;incstack = 0
  2754                           	opt	stack 6
  2755                           ; Regs used in _opcion_envio: [wreg-fsr0h+status,2+status,0]
  2756                           ;opcion_envio@seleccion stored from wreg
  2757                           	movwf	(opcion_envio@seleccion)
  2758  1653  00F5               	line	168
  2759                           	
  2760                           l2785:	
  2761  1654                     ;parteD.c: 168:     switch(seleccion){
  2762                           	goto	l2797
  2763  1654  2E70               	line	169
  2764                           ;parteD.c: 169:         case 1:
  2765                           	
  2766                           l234:	
  2767  1655                     	line	170
  2768                           	
  2769                           l2787:	
  2770  1655                     ;parteD.c: 170:             envio=TEMP;
  2771                           	bsf	status, 5	;RP0=1, select bank1
  2772  1655  1683               	bcf	status, 6	;RP1=0, select bank1
  2773  1656  1303               	movf	(_TEMP)^080h,w
  2774  1657  0846               	movwf	(??_opcion_envio+0)+0
  2775  1658  00F3               	movf	(??_opcion_envio+0)+0,w
  2776  1659  0873               	movwf	(_envio)
  2777  165A  00F8               	line	171
  2778                           ;parteD.c: 171:             break;
  2779                           	goto	l239
  2780  165B  2E83               	line	172
  2781                           ;parteD.c: 172:         case 2:
  2782                           	
  2783                           l236:	
  2784  165C                     	line	173
  2785                           	
  2786                           l2789:	
  2787  165C                     ;parteD.c: 173:             envio=HUMO;
  2788                           	bsf	status, 5	;RP0=1, select bank1
  2789  165C  1683               	bcf	status, 6	;RP1=0, select bank1
  2790  165D  1303               	movf	(_HUMO)^080h,w
  2791  165E  0844               	movwf	(??_opcion_envio+0)+0
  2792  165F  00F3               	movf	(??_opcion_envio+0)+0,w
  2793  1660  0873               	movwf	(_envio)
  2794  1661  00F8               	line	174
  2795                           ;parteD.c: 174:             break;
  2796                           	goto	l239
  2797  1662  2E83               	line	175
  2798                           ;parteD.c: 175:         case 3:
  2799                           	
  2800                           l237:	
  2801  1663                     	line	176
  2802                           	
  2803                           l2791:	
  2804  1663                     ;parteD.c: 176:             envio=SISMO;
  2805                           	bsf	status, 5	;RP0=1, select bank1
  2806  1663  1683               	bcf	status, 6	;RP1=0, select bank1
  2807  1664  1303               	movf	(_SISMO)^080h,w
  2808  1665  0847               	movwf	(??_opcion_envio+0)+0
  2809  1666  00F3               	movf	(??_opcion_envio+0)+0,w
  2810  1667  0873               	movwf	(_envio)
  2811  1668  00F8               	line	177
  2812                           ;parteD.c: 177:             break;
  2813                           	goto	l239
  2814  1669  2E83               	line	178
  2815                           ;parteD.c: 178:         default:
  2816                           	
  2817                           l238:	
  2818  166A                     	line	179
  2819                           	
  2820                           l2793:	
  2821  166A                     ;parteD.c: 179:             envio=250;
  2822                           	movlw	low(0FAh)
  2823  166A  30FA               	movwf	(??_opcion_envio+0)+0
  2824  166B  00F3               	movf	(??_opcion_envio+0)+0,w
  2825  166C  0873               	movwf	(_envio)
  2826  166D  00F8               	line	180
  2827                           ;parteD.c: 180:             break;
  2828                           	goto	l239
  2829  166E  2E83               	line	181
  2830                           	
  2831                           l2795:	
  2832  166F                     ;parteD.c: 181:     }
  2833                           	goto	l239
  2834  166F  2E83               	
  2835                           l233:	
  2836  1670                     	
  2837                           l2797:	
  2838  1670                     	movf	(opcion_envio@seleccion),w
  2839  1670  0875               	movwf	(??_opcion_envio+0)+0
  2840  1671  00F3               	clrf	(??_opcion_envio+0)+0+1
  2841  1672  01F4               	; Switch on 2 bytes has been partitioned into a top level switch of size 1, and 1 sub-s
                                 witches
  2842                           ; Switch size 1, requested type "space"
  2843                           ; Number of cases is 1, Range of values is 0 to 0
  2844                           ; switch strategies available:
  2845                           ; Name         Instructions Cycles
  2846                           ; simple_byte            4     3 (average)
  2847                           ; direct_byte           11     8 (fixed)
  2848                           ; jumptable            260     6 (fixed)
  2849                           ;	Chosen strategy is simple_byte
  2850                           
  2851                           	movf 1+(??_opcion_envio+0)+0,w
  2852  1673  0874               	opt asmopt_push
  2853                           	opt asmopt_off
  2854                           	xorlw	0^0	; case 0
  2855  1674  3A00               	skipnz
  2856  1675  1903               	goto	l3633
  2857  1676  2E78               	goto	l2793
  2858  1677  2E6A               	opt asmopt_pop
  2859                           	
  2860                           l3633:	
  2861  1678                     ; Switch size 1, requested type "space"
  2862                           ; Number of cases is 3, Range of values is 1 to 3
  2863                           ; switch strategies available:
  2864                           ; Name         Instructions Cycles
  2865                           ; simple_byte           10     6 (average)
  2866                           ; direct_byte           20    11 (fixed)
  2867                           ; jumptable            263     9 (fixed)
  2868                           ;	Chosen strategy is simple_byte
  2869                           
  2870                           	movf 0+(??_opcion_envio+0)+0,w
  2871  1678  0873               	opt asmopt_push
  2872                           	opt asmopt_off
  2873                           	xorlw	1^0	; case 1
  2874  1679  3A01               	skipnz
  2875  167A  1903               	goto	l2787
  2876  167B  2E55               	xorlw	2^1	; case 2
  2877  167C  3A03               	skipnz
  2878  167D  1903               	goto	l2789
  2879  167E  2E5C               	xorlw	3^2	; case 3
  2880  167F  3A01               	skipnz
  2881  1680  1903               	goto	l2791
  2882  1681  2E63               	goto	l2793
  2883  1682  2E6A               	opt asmopt_pop
  2884                           
  2885                           	
  2886                           l235:	
  2887  1683                     	line	182
  2888                           	
  2889                           l239:	
  2890  1683                     	return
  2891  1683  0008               	opt stack 0
  2892                           GLOBAL	__end_of_opcion_envio
  2893                           	__end_of_opcion_envio:
  2894  1684                     	signat	_opcion_envio,4217
  2895                           	global	_b2
  2896                           
  2897 ;; *************** function _b2 *****************
  2898 ;; Defined at:
  2899 ;;		line 231 in file "parteD.c"
  2900 ;; Parameters:    Size  Location     Type
  2901 ;;  m               4    0[BANK1 ] float 
  2902 ;; Auto vars:     Size  Location     Type
  2903 ;;  local           4    0        float 
  2904 ;;  p2              1   79[BANK0 ] unsigned char 
  2905 ;;  bb2             1   78[BANK0 ] unsigned char 
  2906 ;; Return value:  Size  Location     Type
  2907 ;;                  1    wreg      unsigned char 
  2908 ;; Registers used:
  2909 ;;		wreg, fsr0l, fsr0h, status,2, status,0, btemp+1, pclath, cstack
  2910 ;; Tracked objects:
  2911 ;;		On entry : 0/0
  2912 ;;		On exit  : 0/0
  2913 ;;		Unchanged: 0/0
  2914 ;; Data sizes:     COMMON   BANK0   BANK1   BANK3   BANK2
  2915 ;;      Params:         0       0       4       0       0
  2916 ;;      Locals:         0       2       0       0       0
  2917 ;;      Temps:          0       1       0       0       0
  2918 ;;      Totals:         0       3       4       0       0
  2919 ;;Total ram usage:        7 bytes
  2920 ;; Hardware stack levels used:    1
  2921 ;; Hardware stack levels required when called:    2
  2922 ;; This function calls:
  2923 ;;		___fldiv
  2924 ;;		___fltol
  2925 ;;		_num_case
  2926 ;; This function is called by:
  2927 ;;		_main
  2928 ;; This function uses a non-reentrant model
  2929 ;;
  2930                           psect	text2,local,class=CODE,delta=2,merge=1,group=0
  2931                           	line	231
  2932                           global __ptext2
  2933                           __ptext2:	;psect for function _b2
  2934  170B                     psect	text2
  2935                           	file	"parteD.c"
  2936                           	line	231
  2937                           	global	__size_of_b2
  2938                           	__size_of_b2	equ	__end_of_b2-_b2
  2939  0048                     	
  2940                           _b2:	
  2941  170B                     ;incstack = 0
  2942                           	opt	stack 5
  2943                           ; Regs used in _b2: [wreg-fsr0h+status,2+status,0+btemp+1+pclath+cstack]
  2944                           	line	236
  2945                           	
  2946                           l3467:	
  2947  170B                     ;parteD.c: 232:     uint8_t bb2;;parteD.c: 233:     float local;;parteD.c: 234:     char
                                  p2;;parteD.c: 236:     bb2 = m/100;
  2948                           	bsf	status, 5	;RP0=1, select bank1
  2949  170B  1683               	bcf	status, 6	;RP1=0, select bank1
  2950  170C  1303               	movf	(b2@m+3)^080h,w
  2951  170D  0823               	bcf	status, 5	;RP0=0, select bank0
  2952  170E  1283               	bcf	status, 6	;RP1=0, select bank0
  2953  170F  1303               	movwf	(___fldiv@b+3)
  2954  1710  00A7               	bsf	status, 5	;RP0=1, select bank1
  2955  1711  1683               	bcf	status, 6	;RP1=0, select bank1
  2956  1712  1303               	movf	(b2@m+2)^080h,w
  2957  1713  0822               	bcf	status, 5	;RP0=0, select bank0
  2958  1714  1283               	bcf	status, 6	;RP1=0, select bank0
  2959  1715  1303               	movwf	(___fldiv@b+2)
  2960  1716  00A6               	bsf	status, 5	;RP0=1, select bank1
  2961  1717  1683               	bcf	status, 6	;RP1=0, select bank1
  2962  1718  1303               	movf	(b2@m+1)^080h,w
  2963  1719  0821               	bcf	status, 5	;RP0=0, select bank0
  2964  171A  1283               	bcf	status, 6	;RP1=0, select bank0
  2965  171B  1303               	movwf	(___fldiv@b+1)
  2966  171C  00A5               	bsf	status, 5	;RP0=1, select bank1
  2967  171D  1683               	bcf	status, 6	;RP1=0, select bank1
  2968  171E  1303               	movf	(b2@m)^080h,w
  2969  171F  0820               	bcf	status, 5	;RP0=0, select bank0
  2970  1720  1283               	bcf	status, 6	;RP1=0, select bank0
  2971  1721  1303               	movwf	(___fldiv@b)
  2972  1722  00A4               
  2973                           	movlw	0x42
  2974  1723  3042               	movwf	(___fldiv@a+3)
  2975  1724  00A3               	movlw	0xc8
  2976  1725  30C8               	movwf	(___fldiv@a+2)
  2977  1726  00A2               	movlw	0x0
  2978  1727  3000               	movwf	(___fldiv@a+1)
  2979  1728  00A1               	movlw	0x0
  2980  1729  3000               	movwf	(___fldiv@a)
  2981  172A  00A0               
  2982                           	fcall	___fldiv
  2983  172B  120A  158A  2398  160A  118A  	bcf	status, 5	;RP0=0, select bank0
  2984  1730  1283               	bcf	status, 6	;RP1=0, select bank0
  2985  1731  1303               	movf	(3+(?___fldiv)),w
  2986  1732  0823               	movwf	(___fltol@f1+3)
  2987  1733  00E5               	movf	(2+(?___fldiv)),w
  2988  1734  0822               	movwf	(___fltol@f1+2)
  2989  1735  00E4               	movf	(1+(?___fldiv)),w
  2990  1736  0821               	movwf	(___fltol@f1+1)
  2991  1737  00E3               	movf	(0+(?___fldiv)),w
  2992  1738  0820               	movwf	(___fltol@f1)
  2993  1739  00E2               
  2994                           	fcall	___fltol
  2995  173A  120A  118A  2763  160A  118A  	bcf	status, 5	;RP0=0, select bank0
  2996  173F  1283               	bcf	status, 6	;RP1=0, select bank0
  2997  1740  1303               	movf	(0+(?___fltol)),w
  2998  1741  0862               	movwf	(??_b2+0)+0
  2999  1742  00ED               	movf	(??_b2+0)+0,w
  3000  1743  086D               	movwf	(b2@bb2)
  3001  1744  00EE               	line	237
  3002                           	
  3003                           l3469:	
  3004  1745                     ;parteD.c: 237:     p2 = num_case(bb2);
  3005                           	movf	(b2@bb2),w
  3006  1745  086E               	fcall	_num_case
  3007  1746  160A  118A  27A0  160A  118A  	bcf	status, 5	;RP0=0, select bank0
  3008  174B  1283               	bcf	status, 6	;RP1=0, select bank0
  3009  174C  1303               	movwf	(??_b2+0)+0
  3010  174D  00ED               	movf	(??_b2+0)+0,w
  3011  174E  086D               	movwf	(b2@p2)
  3012  174F  00EF               	line	238
  3013                           	
  3014                           l3471:	
  3015  1750                     ;parteD.c: 238:     return p2;
  3016                           	movf	(b2@p2),w
  3017  1750  086F               	goto	l257
  3018  1751  2F52               	
  3019                           l3473:	
  3020  1752                     	line	239
  3021                           	
  3022                           l257:	
  3023  1752                     	return
  3024  1752  0008               	opt stack 0
  3025                           GLOBAL	__end_of_b2
  3026                           	__end_of_b2:
  3027  1753                     	signat	_b2,4217
  3028                           	global	_b1
  3029                           
  3030 ;; *************** function _b1 *****************
  3031 ;; Defined at:
  3032 ;;		line 241 in file "parteD.c"
  3033 ;; Parameters:    Size  Location     Type
  3034 ;;  m               4    0[BANK1 ] float 
  3035 ;; Auto vars:     Size  Location     Type
  3036 ;;  p1              1    7[BANK1 ] unsigned char 
  3037 ;;  local           1    6[BANK1 ] unsigned char 
  3038 ;;  bb1             1    5[BANK1 ] unsigned char 
  3039 ;;  bb2             1    4[BANK1 ] unsigned char 
  3040 ;; Return value:  Size  Location     Type
  3041 ;;                  1    wreg      unsigned char 
  3042 ;; Registers used:
  3043 ;;		wreg, fsr0l, fsr0h, status,2, status,0, btemp+1, pclath, cstack
  3044 ;; Tracked objects:
  3045 ;;		On entry : 0/0
  3046 ;;		On exit  : 0/0
  3047 ;;		Unchanged: 0/0
  3048 ;; Data sizes:     COMMON   BANK0   BANK1   BANK3   BANK2
  3049 ;;      Params:         0       0       4       0       0
  3050 ;;      Locals:         0       0       4       0       0
  3051 ;;      Temps:          0       3       0       0       0
  3052 ;;      Totals:         0       3       8       0       0
  3053 ;;Total ram usage:       11 bytes
  3054 ;; Hardware stack levels used:    1
  3055 ;; Hardware stack levels required when called:    2
  3056 ;; This function calls:
  3057 ;;		___awdiv
  3058 ;;		___fladd
  3059 ;;		___fldiv
  3060 ;;		___flneg
  3061 ;;		___fltol
  3062 ;;		___wmul
  3063 ;;		___xxtofl
  3064 ;;		_num_case
  3065 ;; This function is called by:
  3066 ;;		_main
  3067 ;; This function uses a non-reentrant model
  3068 ;;
  3069                           psect	text3,local,class=CODE,delta=2,merge=1,group=0
  3070                           	line	241
  3071                           global __ptext3
  3072                           __ptext3:	;psect for function _b1
  3073  09D2                     psect	text3
  3074                           	file	"parteD.c"
  3075                           	line	241
  3076                           	global	__size_of_b1
  3077                           	__size_of_b1	equ	__end_of_b1-_b1
  3078  00D6                     	
  3079                           _b1:	
  3080  09D2                     ;incstack = 0
  3081                           	opt	stack 5
  3082                           ; Regs used in _b1: [wreg-fsr0h+status,2+status,0+btemp+1+pclath+cstack]
  3083                           	line	247
  3084                           	
  3085                           l3457:	
  3086  09D2                     ;parteD.c: 242:     uint8_t bb2;;parteD.c: 243:     uint8_t bb1;;parteD.c: 244:     uint
                                 8_t local;;parteD.c: 245:     char p1;;parteD.c: 247:     bb2 = m/100;
  3087                           	bsf	status, 5	;RP0=1, select bank1
  3088  09D2  1683               	bcf	status, 6	;RP1=0, select bank1
  3089  09D3  1303               	movf	(b1@m+3)^080h,w
  3090  09D4  0823               	bcf	status, 5	;RP0=0, select bank0
  3091  09D5  1283               	bcf	status, 6	;RP1=0, select bank0
  3092  09D6  1303               	movwf	(___fldiv@b+3)
  3093  09D7  00A7               	bsf	status, 5	;RP0=1, select bank1
  3094  09D8  1683               	bcf	status, 6	;RP1=0, select bank1
  3095  09D9  1303               	movf	(b1@m+2)^080h,w
  3096  09DA  0822               	bcf	status, 5	;RP0=0, select bank0
  3097  09DB  1283               	bcf	status, 6	;RP1=0, select bank0
  3098  09DC  1303               	movwf	(___fldiv@b+2)
  3099  09DD  00A6               	bsf	status, 5	;RP0=1, select bank1
  3100  09DE  1683               	bcf	status, 6	;RP1=0, select bank1
  3101  09DF  1303               	movf	(b1@m+1)^080h,w
  3102  09E0  0821               	bcf	status, 5	;RP0=0, select bank0
  3103  09E1  1283               	bcf	status, 6	;RP1=0, select bank0
  3104  09E2  1303               	movwf	(___fldiv@b+1)
  3105  09E3  00A5               	bsf	status, 5	;RP0=1, select bank1
  3106  09E4  1683               	bcf	status, 6	;RP1=0, select bank1
  3107  09E5  1303               	movf	(b1@m)^080h,w
  3108  09E6  0820               	bcf	status, 5	;RP0=0, select bank0
  3109  09E7  1283               	bcf	status, 6	;RP1=0, select bank0
  3110  09E8  1303               	movwf	(___fldiv@b)
  3111  09E9  00A4               
  3112                           	movlw	0x42
  3113  09EA  3042               	movwf	(___fldiv@a+3)
  3114  09EB  00A3               	movlw	0xc8
  3115  09EC  30C8               	movwf	(___fldiv@a+2)
  3116  09ED  00A2               	movlw	0x0
  3117  09EE  3000               	movwf	(___fldiv@a+1)
  3118  09EF  00A1               	movlw	0x0
  3119  09F0  3000               	movwf	(___fldiv@a)
  3120  09F1  00A0               
  3121                           	fcall	___fldiv
  3122  09F2  120A  158A  2398  120A  158A  	bcf	status, 5	;RP0=0, select bank0
  3123  09F7  1283               	bcf	status, 6	;RP1=0, select bank0
  3124  09F8  1303               	movf	(3+(?___fldiv)),w
  3125  09F9  0823               	movwf	(___fltol@f1+3)
  3126  09FA  00E5               	movf	(2+(?___fldiv)),w
  3127  09FB  0822               	movwf	(___fltol@f1+2)
  3128  09FC  00E4               	movf	(1+(?___fldiv)),w
  3129  09FD  0821               	movwf	(___fltol@f1+1)
  3130  09FE  00E3               	movf	(0+(?___fldiv)),w
  3131  09FF  0820               	movwf	(___fltol@f1)
  3132  0A00  00E2               
  3133                           	fcall	___fltol
  3134  0A01  120A  118A  2763  120A  158A  	bcf	status, 5	;RP0=0, select bank0
  3135  0A06  1283               	bcf	status, 6	;RP1=0, select bank0
  3136  0A07  1303               	movf	(0+(?___fltol)),w
  3137  0A08  0862               	movwf	(??_b1+0)+0
  3138  0A09  00ED               	movf	(??_b1+0)+0,w
  3139  0A0A  086D               	bsf	status, 5	;RP0=1, select bank1
  3140  0A0B  1683               	bcf	status, 6	;RP1=0, select bank1
  3141  0A0C  1303               	movwf	(b1@bb2)^080h
  3142  0A0D  00A4               	line	248
  3143                           ;parteD.c: 248:     local = m-bb2*100;
  3144                           	movlw	064h
  3145  0A0E  3064               	movwf	(___wmul@multiplicand)
  3146  0A0F  00F5               	movlw	0
  3147  0A10  3000               	movwf	((___wmul@multiplicand))+1
  3148  0A11  00F6               	movf	(b1@bb2)^080h,w
  3149  0A12  0824               	bcf	status, 5	;RP0=0, select bank0
  3150  0A13  1283               	bcf	status, 6	;RP1=0, select bank0
  3151  0A14  1303               	movwf	(??_b1+0)+0
  3152  0A15  00ED               	clrf	(??_b1+0)+0+1
  3153  0A16  01EE               	movf	0+(??_b1+0)+0,w
  3154  0A17  086D               	movwf	(___wmul@multiplier)
  3155  0A18  00F3               	movf	1+(??_b1+0)+0,w
  3156  0A19  086E               	movwf	(___wmul@multiplier+1)
  3157  0A1A  00F4               	fcall	___wmul
  3158  0A1B  160A  118A  2625  120A  158A  	movf	(0+(?___wmul)),w
  3159  0A20  0873               	bcf	status, 5	;RP0=0, select bank0
  3160  0A21  1283               	bcf	status, 6	;RP1=0, select bank0
  3161  0A22  1303               	movwf	(___xxtofl@val)
  3162  0A23  00A2               	movf	(1+(?___wmul)),w
  3163  0A24  0874               	movwf	(___xxtofl@val+1)
  3164  0A25  00A3               	movlw	0
  3165  0A26  3000               	btfsc	(___xxtofl@val+1),7
  3166  0A27  1BA3               	movlw	255
  3167  0A28  30FF               	movwf	(___xxtofl@val+2)
  3168  0A29  00A4               	movwf	(___xxtofl@val+3)
  3169  0A2A  00A5               	movlw	low(01h)
  3170  0A2B  3001               	fcall	___xxtofl
  3171  0A2C  120A  158A  210E  120A  158A  	bcf	status, 5	;RP0=0, select bank0
  3172  0A31  1283               	bcf	status, 6	;RP1=0, select bank0
  3173  0A32  1303               	movf	(3+(?___xxtofl)),w
  3174  0A33  0825               	movwf	(___flneg@f1+3)
  3175  0A34  00B3               	movf	(2+(?___xxtofl)),w
  3176  0A35  0824               	movwf	(___flneg@f1+2)
  3177  0A36  00B2               	movf	(1+(?___xxtofl)),w
  3178  0A37  0823               	movwf	(___flneg@f1+1)
  3179  0A38  00B1               	movf	(0+(?___xxtofl)),w
  3180  0A39  0822               	movwf	(___flneg@f1)
  3181  0A3A  00B0               
  3182                           	fcall	___flneg
  3183  0A3B  160A  118A  2576  120A  158A  	bcf	status, 5	;RP0=0, select bank0
  3184  0A40  1283               	bcf	status, 6	;RP1=0, select bank0
  3185  0A41  1303               	movf	(3+(?___flneg)),w
  3186  0A42  0833               	movwf	(___fladd@a+3)
  3187  0A43  00D1               	movf	(2+(?___flneg)),w
  3188  0A44  0832               	movwf	(___fladd@a+2)
  3189  0A45  00D0               	movf	(1+(?___flneg)),w
  3190  0A46  0831               	movwf	(___fladd@a+1)
  3191  0A47  00CF               	movf	(0+(?___flneg)),w
  3192  0A48  0830               	movwf	(___fladd@a)
  3193  0A49  00CE               
  3194                           	bsf	status, 5	;RP0=1, select bank1
  3195  0A4A  1683               	bcf	status, 6	;RP1=0, select bank1
  3196  0A4B  1303               	movf	(b1@m+3)^080h,w
  3197  0A4C  0823               	bcf	status, 5	;RP0=0, select bank0
  3198  0A4D  1283               	bcf	status, 6	;RP1=0, select bank0
  3199  0A4E  1303               	movwf	(___fladd@b+3)
  3200  0A4F  00CD               	bsf	status, 5	;RP0=1, select bank1
  3201  0A50  1683               	bcf	status, 6	;RP1=0, select bank1
  3202  0A51  1303               	movf	(b1@m+2)^080h,w
  3203  0A52  0822               	bcf	status, 5	;RP0=0, select bank0
  3204  0A53  1283               	bcf	status, 6	;RP1=0, select bank0
  3205  0A54  1303               	movwf	(___fladd@b+2)
  3206  0A55  00CC               	bsf	status, 5	;RP0=1, select bank1
  3207  0A56  1683               	bcf	status, 6	;RP1=0, select bank1
  3208  0A57  1303               	movf	(b1@m+1)^080h,w
  3209  0A58  0821               	bcf	status, 5	;RP0=0, select bank0
  3210  0A59  1283               	bcf	status, 6	;RP1=0, select bank0
  3211  0A5A  1303               	movwf	(___fladd@b+1)
  3212  0A5B  00CB               	bsf	status, 5	;RP0=1, select bank1
  3213  0A5C  1683               	bcf	status, 6	;RP1=0, select bank1
  3214  0A5D  1303               	movf	(b1@m)^080h,w
  3215  0A5E  0820               	bcf	status, 5	;RP0=0, select bank0
  3216  0A5F  1283               	bcf	status, 6	;RP1=0, select bank0
  3217  0A60  1303               	movwf	(___fladd@b)
  3218  0A61  00CA               
  3219                           	fcall	___fladd
  3220  0A62  120A  118A  2399  120A  158A  	bcf	status, 5	;RP0=0, select bank0
  3221  0A67  1283               	bcf	status, 6	;RP1=0, select bank0
  3222  0A68  1303               	movf	(3+(?___fladd)),w
  3223  0A69  084D               	movwf	(___fltol@f1+3)
  3224  0A6A  00E5               	movf	(2+(?___fladd)),w
  3225  0A6B  084C               	movwf	(___fltol@f1+2)
  3226  0A6C  00E4               	movf	(1+(?___fladd)),w
  3227  0A6D  084B               	movwf	(___fltol@f1+1)
  3228  0A6E  00E3               	movf	(0+(?___fladd)),w
  3229  0A6F  084A               	movwf	(___fltol@f1)
  3230  0A70  00E2               
  3231                           	fcall	___fltol
  3232  0A71  120A  118A  2763  120A  158A  	bcf	status, 5	;RP0=0, select bank0
  3233  0A76  1283               	bcf	status, 6	;RP1=0, select bank0
  3234  0A77  1303               	movf	(0+(?___fltol)),w
  3235  0A78  0862               	movwf	(??_b1+2)+0
  3236  0A79  00EF               	movf	(??_b1+2)+0,w
  3237  0A7A  086F               	bsf	status, 5	;RP0=1, select bank1
  3238  0A7B  1683               	bcf	status, 6	;RP1=0, select bank1
  3239  0A7C  1303               	movwf	(b1@local)^080h
  3240  0A7D  00A6               	line	249
  3241                           	
  3242                           l3459:	
  3243  0A7E                     ;parteD.c: 249:     bb1 = local/10;
  3244                           	movlw	0Ah
  3245  0A7E  300A               	movwf	(___awdiv@divisor)
  3246  0A7F  00F3               	movlw	0
  3247  0A80  3000               	movwf	((___awdiv@divisor))+1
  3248  0A81  00F4               	movf	(b1@local)^080h,w
  3249  0A82  0826               	bcf	status, 5	;RP0=0, select bank0
  3250  0A83  1283               	bcf	status, 6	;RP1=0, select bank0
  3251  0A84  1303               	movwf	(??_b1+0)+0
  3252  0A85  00ED               	clrf	(??_b1+0)+0+1
  3253  0A86  01EE               	movf	0+(??_b1+0)+0,w
  3254  0A87  086D               	movwf	(___awdiv@dividend)
  3255  0A88  00F5               	movf	1+(??_b1+0)+0,w
  3256  0A89  086E               	movwf	(___awdiv@dividend+1)
  3257  0A8A  00F6               	fcall	___awdiv
  3258  0A8B  120A  158A  201D  120A  158A  	movf	(0+(?___awdiv)),w
  3259  0A90  0873               	bcf	status, 5	;RP0=0, select bank0
  3260  0A91  1283               	bcf	status, 6	;RP1=0, select bank0
  3261  0A92  1303               	movwf	(??_b1+2)+0
  3262  0A93  00EF               	movf	(??_b1+2)+0,w
  3263  0A94  086F               	bsf	status, 5	;RP0=1, select bank1
  3264  0A95  1683               	bcf	status, 6	;RP1=0, select bank1
  3265  0A96  1303               	movwf	(b1@bb1)^080h
  3266  0A97  00A5               	line	250
  3267                           	
  3268                           l3461:	
  3269  0A98                     ;parteD.c: 250:     p1 = num_case(bb1);
  3270                           	movf	(b1@bb1)^080h,w
  3271  0A98  0825               	fcall	_num_case
  3272  0A99  160A  118A  27A0  120A  158A  	bcf	status, 5	;RP0=0, select bank0
  3273  0A9E  1283               	bcf	status, 6	;RP1=0, select bank0
  3274  0A9F  1303               	movwf	(??_b1+0)+0
  3275  0AA0  00ED               	movf	(??_b1+0)+0,w
  3276  0AA1  086D               	bsf	status, 5	;RP0=1, select bank1
  3277  0AA2  1683               	bcf	status, 6	;RP1=0, select bank1
  3278  0AA3  1303               	movwf	(b1@p1)^080h
  3279  0AA4  00A7               	line	251
  3280                           	
  3281                           l3463:	
  3282  0AA5                     ;parteD.c: 251:     return p1;
  3283                           	movf	(b1@p1)^080h,w
  3284  0AA5  0827               	goto	l260
  3285  0AA6  2AA7               	
  3286                           l3465:	
  3287  0AA7                     	line	252
  3288                           	
  3289                           l260:	
  3290  0AA7                     	return
  3291  0AA7  0008               	opt stack 0
  3292                           GLOBAL	__end_of_b1
  3293                           	__end_of_b1:
  3294  0AA8                     	signat	_b1,4217
  3295                           	global	_b0
  3296                           
  3297 ;; *************** function _b0 *****************
  3298 ;; Defined at:
  3299 ;;		line 254 in file "parteD.c"
  3300 ;; Parameters:    Size  Location     Type
  3301 ;;  m               4    0[BANK1 ] float 
  3302 ;; Auto vars:     Size  Location     Type
  3303 ;;  local           1    8[BANK1 ] unsigned char 
  3304 ;;  p0              1    7[BANK1 ] unsigned char 
  3305 ;;  bb0             1    6[BANK1 ] unsigned char 
  3306 ;;  bb1             1    5[BANK1 ] unsigned char 
  3307 ;;  bb2             1    4[BANK1 ] unsigned char 
  3308 ;; Return value:  Size  Location     Type
  3309 ;;                  1    wreg      unsigned char 
  3310 ;; Registers used:
  3311 ;;		wreg, fsr0l, fsr0h, status,2, status,0, btemp+1, pclath, cstack
  3312 ;; Tracked objects:
  3313 ;;		On entry : 0/0
  3314 ;;		On exit  : 0/0
  3315 ;;		Unchanged: 0/0
  3316 ;; Data sizes:     COMMON   BANK0   BANK1   BANK3   BANK2
  3317 ;;      Params:         0       0       4       0       0
  3318 ;;      Locals:         0       0       5       0       0
  3319 ;;      Temps:          0       3       0       0       0
  3320 ;;      Totals:         0       3       9       0       0
  3321 ;;Total ram usage:       12 bytes
  3322 ;; Hardware stack levels used:    1
  3323 ;; Hardware stack levels required when called:    2
  3324 ;; This function calls:
  3325 ;;		___awdiv
  3326 ;;		___bmul
  3327 ;;		___fladd
  3328 ;;		___fldiv
  3329 ;;		___flneg
  3330 ;;		___fltol
  3331 ;;		___wmul
  3332 ;;		___xxtofl
  3333 ;;		_num_case
  3334 ;; This function is called by:
  3335 ;;		_main
  3336 ;; This function uses a non-reentrant model
  3337 ;;
  3338                           psect	text4,local,class=CODE,delta=2,merge=1,group=0
  3339                           	line	254
  3340                           global __ptext4
  3341                           __ptext4:	;psect for function _b0
  3342  0AA8                     psect	text4
  3343                           	file	"parteD.c"
  3344                           	line	254
  3345                           	global	__size_of_b0
  3346                           	__size_of_b0	equ	__end_of_b0-_b0
  3347  00F0                     	
  3348                           _b0:	
  3349  0AA8                     ;incstack = 0
  3350                           	opt	stack 5
  3351                           ; Regs used in _b0: [wreg-fsr0h+status,2+status,0+btemp+1+pclath+cstack]
  3352                           	line	261
  3353                           	
  3354                           l3445:	
  3355  0AA8                     ;parteD.c: 255:     uint8_t bb2;;parteD.c: 256:     uint8_t bb1;;parteD.c: 257:     uint
                                 8_t bb0;;parteD.c: 258:     uint8_t local;;parteD.c: 259:     char p0;;parteD.c: 261:   
                                   bb2 = m/100;
  3356                           	bsf	status, 5	;RP0=1, select bank1
  3357  0AA8  1683               	bcf	status, 6	;RP1=0, select bank1
  3358  0AA9  1303               	movf	(b0@m+3)^080h,w
  3359  0AAA  0823               	bcf	status, 5	;RP0=0, select bank0
  3360  0AAB  1283               	bcf	status, 6	;RP1=0, select bank0
  3361  0AAC  1303               	movwf	(___fldiv@b+3)
  3362  0AAD  00A7               	bsf	status, 5	;RP0=1, select bank1
  3363  0AAE  1683               	bcf	status, 6	;RP1=0, select bank1
  3364  0AAF  1303               	movf	(b0@m+2)^080h,w
  3365  0AB0  0822               	bcf	status, 5	;RP0=0, select bank0
  3366  0AB1  1283               	bcf	status, 6	;RP1=0, select bank0
  3367  0AB2  1303               	movwf	(___fldiv@b+2)
  3368  0AB3  00A6               	bsf	status, 5	;RP0=1, select bank1
  3369  0AB4  1683               	bcf	status, 6	;RP1=0, select bank1
  3370  0AB5  1303               	movf	(b0@m+1)^080h,w
  3371  0AB6  0821               	bcf	status, 5	;RP0=0, select bank0
  3372  0AB7  1283               	bcf	status, 6	;RP1=0, select bank0
  3373  0AB8  1303               	movwf	(___fldiv@b+1)
  3374  0AB9  00A5               	bsf	status, 5	;RP0=1, select bank1
  3375  0ABA  1683               	bcf	status, 6	;RP1=0, select bank1
  3376  0ABB  1303               	movf	(b0@m)^080h,w
  3377  0ABC  0820               	bcf	status, 5	;RP0=0, select bank0
  3378  0ABD  1283               	bcf	status, 6	;RP1=0, select bank0
  3379  0ABE  1303               	movwf	(___fldiv@b)
  3380  0ABF  00A4               
  3381                           	movlw	0x42
  3382  0AC0  3042               	movwf	(___fldiv@a+3)
  3383  0AC1  00A3               	movlw	0xc8
  3384  0AC2  30C8               	movwf	(___fldiv@a+2)
  3385  0AC3  00A2               	movlw	0x0
  3386  0AC4  3000               	movwf	(___fldiv@a+1)
  3387  0AC5  00A1               	movlw	0x0
  3388  0AC6  3000               	movwf	(___fldiv@a)
  3389  0AC7  00A0               
  3390                           	fcall	___fldiv
  3391  0AC8  120A  158A  2398  120A  158A  	bcf	status, 5	;RP0=0, select bank0
  3392  0ACD  1283               	bcf	status, 6	;RP1=0, select bank0
  3393  0ACE  1303               	movf	(3+(?___fldiv)),w
  3394  0ACF  0823               	movwf	(___fltol@f1+3)
  3395  0AD0  00E5               	movf	(2+(?___fldiv)),w
  3396  0AD1  0822               	movwf	(___fltol@f1+2)
  3397  0AD2  00E4               	movf	(1+(?___fldiv)),w
  3398  0AD3  0821               	movwf	(___fltol@f1+1)
  3399  0AD4  00E3               	movf	(0+(?___fldiv)),w
  3400  0AD5  0820               	movwf	(___fltol@f1)
  3401  0AD6  00E2               
  3402                           	fcall	___fltol
  3403  0AD7  120A  118A  2763  120A  158A  	bcf	status, 5	;RP0=0, select bank0
  3404  0ADC  1283               	bcf	status, 6	;RP1=0, select bank0
  3405  0ADD  1303               	movf	(0+(?___fltol)),w
  3406  0ADE  0862               	movwf	(??_b0+0)+0
  3407  0ADF  00ED               	movf	(??_b0+0)+0,w
  3408  0AE0  086D               	bsf	status, 5	;RP0=1, select bank1
  3409  0AE1  1683               	bcf	status, 6	;RP1=0, select bank1
  3410  0AE2  1303               	movwf	(b0@bb2)^080h
  3411  0AE3  00A4               	line	262
  3412                           ;parteD.c: 262:     local = m-bb2*100;
  3413                           	movlw	064h
  3414  0AE4  3064               	movwf	(___wmul@multiplicand)
  3415  0AE5  00F5               	movlw	0
  3416  0AE6  3000               	movwf	((___wmul@multiplicand))+1
  3417  0AE7  00F6               	movf	(b0@bb2)^080h,w
  3418  0AE8  0824               	bcf	status, 5	;RP0=0, select bank0
  3419  0AE9  1283               	bcf	status, 6	;RP1=0, select bank0
  3420  0AEA  1303               	movwf	(??_b0+0)+0
  3421  0AEB  00ED               	clrf	(??_b0+0)+0+1
  3422  0AEC  01EE               	movf	0+(??_b0+0)+0,w
  3423  0AED  086D               	movwf	(___wmul@multiplier)
  3424  0AEE  00F3               	movf	1+(??_b0+0)+0,w
  3425  0AEF  086E               	movwf	(___wmul@multiplier+1)
  3426  0AF0  00F4               	fcall	___wmul
  3427  0AF1  160A  118A  2625  120A  158A  	movf	(0+(?___wmul)),w
  3428  0AF6  0873               	bcf	status, 5	;RP0=0, select bank0
  3429  0AF7  1283               	bcf	status, 6	;RP1=0, select bank0
  3430  0AF8  1303               	movwf	(___xxtofl@val)
  3431  0AF9  00A2               	movf	(1+(?___wmul)),w
  3432  0AFA  0874               	movwf	(___xxtofl@val+1)
  3433  0AFB  00A3               	movlw	0
  3434  0AFC  3000               	btfsc	(___xxtofl@val+1),7
  3435  0AFD  1BA3               	movlw	255
  3436  0AFE  30FF               	movwf	(___xxtofl@val+2)
  3437  0AFF  00A4               	movwf	(___xxtofl@val+3)
  3438  0B00  00A5               	movlw	low(01h)
  3439  0B01  3001               	fcall	___xxtofl
  3440  0B02  120A  158A  210E  120A  158A  	bcf	status, 5	;RP0=0, select bank0
  3441  0B07  1283               	bcf	status, 6	;RP1=0, select bank0
  3442  0B08  1303               	movf	(3+(?___xxtofl)),w
  3443  0B09  0825               	movwf	(___flneg@f1+3)
  3444  0B0A  00B3               	movf	(2+(?___xxtofl)),w
  3445  0B0B  0824               	movwf	(___flneg@f1+2)
  3446  0B0C  00B2               	movf	(1+(?___xxtofl)),w
  3447  0B0D  0823               	movwf	(___flneg@f1+1)
  3448  0B0E  00B1               	movf	(0+(?___xxtofl)),w
  3449  0B0F  0822               	movwf	(___flneg@f1)
  3450  0B10  00B0               
  3451                           	fcall	___flneg
  3452  0B11  160A  118A  2576  120A  158A  	bcf	status, 5	;RP0=0, select bank0
  3453  0B16  1283               	bcf	status, 6	;RP1=0, select bank0
  3454  0B17  1303               	movf	(3+(?___flneg)),w
  3455  0B18  0833               	movwf	(___fladd@a+3)
  3456  0B19  00D1               	movf	(2+(?___flneg)),w
  3457  0B1A  0832               	movwf	(___fladd@a+2)
  3458  0B1B  00D0               	movf	(1+(?___flneg)),w
  3459  0B1C  0831               	movwf	(___fladd@a+1)
  3460  0B1D  00CF               	movf	(0+(?___flneg)),w
  3461  0B1E  0830               	movwf	(___fladd@a)
  3462  0B1F  00CE               
  3463                           	bsf	status, 5	;RP0=1, select bank1
  3464  0B20  1683               	bcf	status, 6	;RP1=0, select bank1
  3465  0B21  1303               	movf	(b0@m+3)^080h,w
  3466  0B22  0823               	bcf	status, 5	;RP0=0, select bank0
  3467  0B23  1283               	bcf	status, 6	;RP1=0, select bank0
  3468  0B24  1303               	movwf	(___fladd@b+3)
  3469  0B25  00CD               	bsf	status, 5	;RP0=1, select bank1
  3470  0B26  1683               	bcf	status, 6	;RP1=0, select bank1
  3471  0B27  1303               	movf	(b0@m+2)^080h,w
  3472  0B28  0822               	bcf	status, 5	;RP0=0, select bank0
  3473  0B29  1283               	bcf	status, 6	;RP1=0, select bank0
  3474  0B2A  1303               	movwf	(___fladd@b+2)
  3475  0B2B  00CC               	bsf	status, 5	;RP0=1, select bank1
  3476  0B2C  1683               	bcf	status, 6	;RP1=0, select bank1
  3477  0B2D  1303               	movf	(b0@m+1)^080h,w
  3478  0B2E  0821               	bcf	status, 5	;RP0=0, select bank0
  3479  0B2F  1283               	bcf	status, 6	;RP1=0, select bank0
  3480  0B30  1303               	movwf	(___fladd@b+1)
  3481  0B31  00CB               	bsf	status, 5	;RP0=1, select bank1
  3482  0B32  1683               	bcf	status, 6	;RP1=0, select bank1
  3483  0B33  1303               	movf	(b0@m)^080h,w
  3484  0B34  0820               	bcf	status, 5	;RP0=0, select bank0
  3485  0B35  1283               	bcf	status, 6	;RP1=0, select bank0
  3486  0B36  1303               	movwf	(___fladd@b)
  3487  0B37  00CA               
  3488                           	fcall	___fladd
  3489  0B38  120A  118A  2399  120A  158A  	bcf	status, 5	;RP0=0, select bank0
  3490  0B3D  1283               	bcf	status, 6	;RP1=0, select bank0
  3491  0B3E  1303               	movf	(3+(?___fladd)),w
  3492  0B3F  084D               	movwf	(___fltol@f1+3)
  3493  0B40  00E5               	movf	(2+(?___fladd)),w
  3494  0B41  084C               	movwf	(___fltol@f1+2)
  3495  0B42  00E4               	movf	(1+(?___fladd)),w
  3496  0B43  084B               	movwf	(___fltol@f1+1)
  3497  0B44  00E3               	movf	(0+(?___fladd)),w
  3498  0B45  084A               	movwf	(___fltol@f1)
  3499  0B46  00E2               
  3500                           	fcall	___fltol
  3501  0B47  120A  118A  2763  120A  158A  	bcf	status, 5	;RP0=0, select bank0
  3502  0B4C  1283               	bcf	status, 6	;RP1=0, select bank0
  3503  0B4D  1303               	movf	(0+(?___fltol)),w
  3504  0B4E  0862               	movwf	(??_b0+2)+0
  3505  0B4F  00EF               	movf	(??_b0+2)+0,w
  3506  0B50  086F               	bsf	status, 5	;RP0=1, select bank1
  3507  0B51  1683               	bcf	status, 6	;RP1=0, select bank1
  3508  0B52  1303               	movwf	(b0@local)^080h
  3509  0B53  00A8               	line	263
  3510                           	
  3511                           l3447:	
  3512  0B54                     ;parteD.c: 263:     bb1 = local/10;
  3513                           	movlw	0Ah
  3514  0B54  300A               	movwf	(___awdiv@divisor)
  3515  0B55  00F3               	movlw	0
  3516  0B56  3000               	movwf	((___awdiv@divisor))+1
  3517  0B57  00F4               	movf	(b0@local)^080h,w
  3518  0B58  0828               	bcf	status, 5	;RP0=0, select bank0
  3519  0B59  1283               	bcf	status, 6	;RP1=0, select bank0
  3520  0B5A  1303               	movwf	(??_b0+0)+0
  3521  0B5B  00ED               	clrf	(??_b0+0)+0+1
  3522  0B5C  01EE               	movf	0+(??_b0+0)+0,w
  3523  0B5D  086D               	movwf	(___awdiv@dividend)
  3524  0B5E  00F5               	movf	1+(??_b0+0)+0,w
  3525  0B5F  086E               	movwf	(___awdiv@dividend+1)
  3526  0B60  00F6               	fcall	___awdiv
  3527  0B61  120A  158A  201D  120A  158A  	movf	(0+(?___awdiv)),w
  3528  0B66  0873               	bcf	status, 5	;RP0=0, select bank0
  3529  0B67  1283               	bcf	status, 6	;RP1=0, select bank0
  3530  0B68  1303               	movwf	(??_b0+2)+0
  3531  0B69  00EF               	movf	(??_b0+2)+0,w
  3532  0B6A  086F               	bsf	status, 5	;RP0=1, select bank1
  3533  0B6B  1683               	bcf	status, 6	;RP1=0, select bank1
  3534  0B6C  1303               	movwf	(b0@bb1)^080h
  3535  0B6D  00A5               	line	264
  3536                           	
  3537                           l3449:	
  3538  0B6E                     ;parteD.c: 264:     bb0 = local-bb1*10;
  3539                           	movlw	low(0Ah)
  3540  0B6E  300A               	bcf	status, 5	;RP0=0, select bank0
  3541  0B6F  1283               	bcf	status, 6	;RP1=0, select bank0
  3542  0B70  1303               	movwf	(??_b0+0)+0
  3543  0B71  00ED               	movf	(??_b0+0)+0,w
  3544  0B72  086D               	movwf	(___bmul@multiplicand)
  3545  0B73  00F3               	bsf	status, 5	;RP0=1, select bank1
  3546  0B74  1683               	bcf	status, 6	;RP1=0, select bank1
  3547  0B75  1303               	movf	(b0@bb1)^080h,w
  3548  0B76  0825               	fcall	___bmul
  3549  0B77  160A  118A  259B  120A  158A  	xorlw	0ffh
  3550  0B7C  3AFF               	addlw	1
  3551  0B7D  3E01               	bsf	status, 5	;RP0=1, select bank1
  3552  0B7E  1683               	bcf	status, 6	;RP1=0, select bank1
  3553  0B7F  1303               	addwf	(b0@local)^080h,w
  3554  0B80  0728               	bcf	status, 5	;RP0=0, select bank0
  3555  0B81  1283               	bcf	status, 6	;RP1=0, select bank0
  3556  0B82  1303               	movwf	(??_b0+1)+0
  3557  0B83  00EE               	movf	(??_b0+1)+0,w
  3558  0B84  086E               	bsf	status, 5	;RP0=1, select bank1
  3559  0B85  1683               	bcf	status, 6	;RP1=0, select bank1
  3560  0B86  1303               	movwf	(b0@bb0)^080h
  3561  0B87  00A6               	line	265
  3562                           	
  3563                           l3451:	
  3564  0B88                     ;parteD.c: 265:     p0 = num_case(bb0);
  3565                           	movf	(b0@bb0)^080h,w
  3566  0B88  0826               	fcall	_num_case
  3567  0B89  160A  118A  27A0  120A  158A  	bcf	status, 5	;RP0=0, select bank0
  3568  0B8E  1283               	bcf	status, 6	;RP1=0, select bank0
  3569  0B8F  1303               	movwf	(??_b0+0)+0
  3570  0B90  00ED               	movf	(??_b0+0)+0,w
  3571  0B91  086D               	bsf	status, 5	;RP0=1, select bank1
  3572  0B92  1683               	bcf	status, 6	;RP1=0, select bank1
  3573  0B93  1303               	movwf	(b0@p0)^080h
  3574  0B94  00A7               	line	266
  3575                           	
  3576                           l3453:	
  3577  0B95                     ;parteD.c: 266:     return p0;
  3578                           	movf	(b0@p0)^080h,w
  3579  0B95  0827               	goto	l263
  3580  0B96  2B97               	
  3581                           l3455:	
  3582  0B97                     	line	267
  3583                           	
  3584                           l263:	
  3585  0B97                     	return
  3586  0B97  0008               	opt stack 0
  3587                           GLOBAL	__end_of_b0
  3588                           	__end_of_b0:
  3589  0B98                     	signat	_b0,4217
  3590                           	global	_num_case
  3591                           
  3592 ;; *************** function _num_case *****************
  3593 ;; Defined at:
  3594 ;;		line 184 in file "parteD.c"
  3595 ;; Parameters:    Size  Location     Type
  3596 ;;  num             1    wreg     unsigned char 
  3597 ;; Auto vars:     Size  Location     Type
  3598 ;;  num             1    5[COMMON] unsigned char 
  3599 ;;  r               1    6[COMMON] unsigned char 
  3600 ;; Return value:  Size  Location     Type
  3601 ;;                  1    wreg      unsigned char 
  3602 ;; Registers used:
  3603 ;;		wreg, fsr0l, fsr0h, status,2, status,0
  3604 ;; Tracked objects:
  3605 ;;		On entry : 0/0
  3606 ;;		On exit  : 0/0
  3607 ;;		Unchanged: 0/0
  3608 ;; Data sizes:     COMMON   BANK0   BANK1   BANK3   BANK2
  3609 ;;      Params:         0       0       0       0       0
  3610 ;;      Locals:         2       0       0       0       0
  3611 ;;      Temps:          2       0       0       0       0
  3612 ;;      Totals:         4       0       0       0       0
  3613 ;;Total ram usage:        4 bytes
  3614 ;; Hardware stack levels used:    1
  3615 ;; Hardware stack levels required when called:    1
  3616 ;; This function calls:
  3617 ;;		Nothing
  3618 ;; This function is called by:
  3619 ;;		_b2
  3620 ;;		_b1
  3621 ;;		_b0
  3622 ;; This function uses a non-reentrant model
  3623 ;;
  3624                           psect	text5,local,class=CODE,delta=2,merge=1,group=0
  3625                           	line	184
  3626                           global __ptext5
  3627                           __ptext5:	;psect for function _num_case
  3628  17A0                     psect	text5
  3629                           	file	"parteD.c"
  3630                           	line	184
  3631                           	global	__size_of_num_case
  3632                           	__size_of_num_case	equ	__end_of_num_case-_num_case
  3633  0060                     	
  3634                           _num_case:	
  3635  17A0                     ;incstack = 0
  3636                           	opt	stack 5
  3637                           ; Regs used in _num_case: [wreg-fsr0h+status,2+status,0]
  3638                           ;num_case@num stored from wreg
  3639                           	movwf	(num_case@num)
  3640  17A0  00F5               	line	186
  3641                           	
  3642                           l3183:	
  3643  17A1                     ;parteD.c: 185:     char r;;parteD.c: 186:     switch(num){
  3644                           	goto	l3207
  3645  17A1  2FD5               	line	187
  3646                           ;parteD.c: 187:         case 0:
  3647                           	
  3648                           l243:	
  3649  17A2                     	line	188
  3650                           	
  3651                           l3185:	
  3652  17A2                     ;parteD.c: 188:             r = '0';
  3653                           	movlw	low(030h)
  3654  17A2  3030               	movwf	(??_num_case+0)+0
  3655  17A3  00F3               	movf	(??_num_case+0)+0,w
  3656  17A4  0873               	movwf	(num_case@r)
  3657  17A5  00F6               	line	189
  3658                           ;parteD.c: 189:             break;
  3659                           	goto	l3209
  3660  17A6  2FFD               	line	190
  3661                           ;parteD.c: 190:         case 1:
  3662                           	
  3663                           l245:	
  3664  17A7                     	line	191
  3665                           	
  3666                           l3187:	
  3667  17A7                     ;parteD.c: 191:             r = '1';
  3668                           	movlw	low(031h)
  3669  17A7  3031               	movwf	(??_num_case+0)+0
  3670  17A8  00F3               	movf	(??_num_case+0)+0,w
  3671  17A9  0873               	movwf	(num_case@r)
  3672  17AA  00F6               	line	192
  3673                           ;parteD.c: 192:             break;
  3674                           	goto	l3209
  3675  17AB  2FFD               	line	193
  3676                           ;parteD.c: 193:         case 2:
  3677                           	
  3678                           l246:	
  3679  17AC                     	line	194
  3680                           	
  3681                           l3189:	
  3682  17AC                     ;parteD.c: 194:             r = '2';
  3683                           	movlw	low(032h)
  3684  17AC  3032               	movwf	(??_num_case+0)+0
  3685  17AD  00F3               	movf	(??_num_case+0)+0,w
  3686  17AE  0873               	movwf	(num_case@r)
  3687  17AF  00F6               	line	195
  3688                           ;parteD.c: 195:             break;
  3689                           	goto	l3209
  3690  17B0  2FFD               	line	196
  3691                           ;parteD.c: 196:         case 3:
  3692                           	
  3693                           l247:	
  3694  17B1                     	line	197
  3695                           	
  3696                           l3191:	
  3697  17B1                     ;parteD.c: 197:             r = '3';
  3698                           	movlw	low(033h)
  3699  17B1  3033               	movwf	(??_num_case+0)+0
  3700  17B2  00F3               	movf	(??_num_case+0)+0,w
  3701  17B3  0873               	movwf	(num_case@r)
  3702  17B4  00F6               	line	198
  3703                           ;parteD.c: 198:             break;
  3704                           	goto	l3209
  3705  17B5  2FFD               	line	199
  3706                           ;parteD.c: 199:         case 4:
  3707                           	
  3708                           l248:	
  3709  17B6                     	line	200
  3710                           	
  3711                           l3193:	
  3712  17B6                     ;parteD.c: 200:             r = '4';
  3713                           	movlw	low(034h)
  3714  17B6  3034               	movwf	(??_num_case+0)+0
  3715  17B7  00F3               	movf	(??_num_case+0)+0,w
  3716  17B8  0873               	movwf	(num_case@r)
  3717  17B9  00F6               	line	201
  3718                           ;parteD.c: 201:             break;
  3719                           	goto	l3209
  3720  17BA  2FFD               	line	202
  3721                           ;parteD.c: 202:         case 5:
  3722                           	
  3723                           l249:	
  3724  17BB                     	line	203
  3725                           	
  3726                           l3195:	
  3727  17BB                     ;parteD.c: 203:             r = '5';
  3728                           	movlw	low(035h)
  3729  17BB  3035               	movwf	(??_num_case+0)+0
  3730  17BC  00F3               	movf	(??_num_case+0)+0,w
  3731  17BD  0873               	movwf	(num_case@r)
  3732  17BE  00F6               	line	204
  3733                           ;parteD.c: 204:             break;
  3734                           	goto	l3209
  3735  17BF  2FFD               	line	205
  3736                           ;parteD.c: 205:         case 6:
  3737                           	
  3738                           l250:	
  3739  17C0                     	line	206
  3740                           	
  3741                           l3197:	
  3742  17C0                     ;parteD.c: 206:             r = '6';
  3743                           	movlw	low(036h)
  3744  17C0  3036               	movwf	(??_num_case+0)+0
  3745  17C1  00F3               	movf	(??_num_case+0)+0,w
  3746  17C2  0873               	movwf	(num_case@r)
  3747  17C3  00F6               	line	207
  3748                           ;parteD.c: 207:             break;
  3749                           	goto	l3209
  3750  17C4  2FFD               	line	208
  3751                           ;parteD.c: 208:         case 7:
  3752                           	
  3753                           l251:	
  3754  17C5                     	line	209
  3755                           	
  3756                           l3199:	
  3757  17C5                     ;parteD.c: 209:             r = '7';
  3758                           	movlw	low(037h)
  3759  17C5  3037               	movwf	(??_num_case+0)+0
  3760  17C6  00F3               	movf	(??_num_case+0)+0,w
  3761  17C7  0873               	movwf	(num_case@r)
  3762  17C8  00F6               	line	210
  3763                           ;parteD.c: 210:             break;
  3764                           	goto	l3209
  3765  17C9  2FFD               	line	211
  3766                           ;parteD.c: 211:         case 8:
  3767                           	
  3768                           l252:	
  3769  17CA                     	line	212
  3770                           	
  3771                           l3201:	
  3772  17CA                     ;parteD.c: 212:             r = '8';
  3773                           	movlw	low(038h)
  3774  17CA  3038               	movwf	(??_num_case+0)+0
  3775  17CB  00F3               	movf	(??_num_case+0)+0,w
  3776  17CC  0873               	movwf	(num_case@r)
  3777  17CD  00F6               	line	213
  3778                           ;parteD.c: 213:             break;
  3779                           	goto	l3209
  3780  17CE  2FFD               	line	214
  3781                           ;parteD.c: 214:         case 9:
  3782                           	
  3783                           l253:	
  3784  17CF                     	line	215
  3785                           	
  3786                           l3203:	
  3787  17CF                     ;parteD.c: 215:             r = '9';
  3788                           	movlw	low(039h)
  3789  17CF  3039               	movwf	(??_num_case+0)+0
  3790  17D0  00F3               	movf	(??_num_case+0)+0,w
  3791  17D1  0873               	movwf	(num_case@r)
  3792  17D2  00F6               	line	216
  3793                           ;parteD.c: 216:             break;
  3794                           	goto	l3209
  3795  17D3  2FFD               	line	217
  3796                           	
  3797                           l3205:	
  3798  17D4                     ;parteD.c: 217:     }
  3799                           	goto	l3209
  3800  17D4  2FFD               	
  3801                           l242:	
  3802  17D5                     	
  3803                           l3207:	
  3804  17D5                     	movf	(num_case@num),w
  3805  17D5  0875               	movwf	(??_num_case+0)+0
  3806  17D6  00F3               	clrf	(??_num_case+0)+0+1
  3807  17D7  01F4               	; Switch on 2 bytes has been partitioned into a top level switch of size 1, and 1 sub-s
                                 witches
  3808                           ; Switch size 1, requested type "space"
  3809                           ; Number of cases is 1, Range of values is 0 to 0
  3810                           ; switch strategies available:
  3811                           ; Name         Instructions Cycles
  3812                           ; simple_byte            4     3 (average)
  3813                           ; direct_byte           11     8 (fixed)
  3814                           ; jumptable            260     6 (fixed)
  3815                           ;	Chosen strategy is simple_byte
  3816                           
  3817                           	movf 1+(??_num_case+0)+0,w
  3818  17D8  0874               	opt asmopt_push
  3819                           	opt asmopt_off
  3820                           	xorlw	0^0	; case 0
  3821  17D9  3A00               	skipnz
  3822  17DA  1903               	goto	l3635
  3823  17DB  2FDD               	goto	l3209
  3824  17DC  2FFD               	opt asmopt_pop
  3825                           	
  3826                           l3635:	
  3827  17DD                     ; Switch size 1, requested type "space"
  3828                           ; Number of cases is 10, Range of values is 0 to 9
  3829                           ; switch strategies available:
  3830                           ; Name         Instructions Cycles
  3831                           ; simple_byte           31    16 (average)
  3832                           ; direct_byte           38     8 (fixed)
  3833                           ; jumptable            260     6 (fixed)
  3834                           ;	Chosen strategy is simple_byte
  3835                           
  3836                           	movf 0+(??_num_case+0)+0,w
  3837  17DD  0873               	opt asmopt_push
  3838                           	opt asmopt_off
  3839                           	xorlw	0^0	; case 0
  3840  17DE  3A00               	skipnz
  3841  17DF  1903               	goto	l3185
  3842  17E0  2FA2               	xorlw	1^0	; case 1
  3843  17E1  3A01               	skipnz
  3844  17E2  1903               	goto	l3187
  3845  17E3  2FA7               	xorlw	2^1	; case 2
  3846  17E4  3A03               	skipnz
  3847  17E5  1903               	goto	l3189
  3848  17E6  2FAC               	xorlw	3^2	; case 3
  3849  17E7  3A01               	skipnz
  3850  17E8  1903               	goto	l3191
  3851  17E9  2FB1               	xorlw	4^3	; case 4
  3852  17EA  3A07               	skipnz
  3853  17EB  1903               	goto	l3193
  3854  17EC  2FB6               	xorlw	5^4	; case 5
  3855  17ED  3A01               	skipnz
  3856  17EE  1903               	goto	l3195
  3857  17EF  2FBB               	xorlw	6^5	; case 6
  3858  17F0  3A03               	skipnz
  3859  17F1  1903               	goto	l3197
  3860  17F2  2FC0               	xorlw	7^6	; case 7
  3861  17F3  3A01               	skipnz
  3862  17F4  1903               	goto	l3199
  3863  17F5  2FC5               	xorlw	8^7	; case 8
  3864  17F6  3A0F               	skipnz
  3865  17F7  1903               	goto	l3201
  3866  17F8  2FCA               	xorlw	9^8	; case 9
  3867  17F9  3A01               	skipnz
  3868  17FA  1903               	goto	l3203
  3869  17FB  2FCF               	goto	l3209
  3870  17FC  2FFD               	opt asmopt_pop
  3871                           
  3872                           	
  3873                           l244:	
  3874  17FD                     	line	218
  3875                           	
  3876                           l3209:	
  3877  17FD                     ;parteD.c: 218:     return r;
  3878                           	movf	(num_case@r),w
  3879  17FD  0876               	goto	l254
  3880  17FE  2FFF               	
  3881                           l3211:	
  3882  17FF                     	line	219
  3883                           	
  3884                           l254:	
  3885  17FF                     	return
  3886  17FF  0008               	opt stack 0
  3887                           GLOBAL	__end_of_num_case
  3888                           	__end_of_num_case:
  3889  1800                     	signat	_num_case,4217
  3890                           	global	___xxtofl
  3891                           
  3892 ;; *************** function ___xxtofl *****************
  3893 ;; Defined at:
  3894 ;;		line 10 in file "C:\Program Files (x86)\Microchip\xc8\v2.00\pic\sources\c90\common\xxtofl.c"
  3895 ;; Parameters:    Size  Location     Type
  3896 ;;  sign            1    wreg     unsigned char 
  3897 ;;  val             4    2[BANK0 ] long 
  3898 ;; Auto vars:     Size  Location     Type
  3899 ;;  sign            1   10[BANK0 ] unsigned char 
  3900 ;;  arg             4   12[BANK0 ] unsigned long 
  3901 ;;  exp             1   11[BANK0 ] unsigned char 
  3902 ;; Return value:  Size  Location     Type
  3903 ;;                  4    2[BANK0 ] unsigned char 
  3904 ;; Registers used:
  3905 ;;		wreg, status,2, status,0
  3906 ;; Tracked objects:
  3907 ;;		On entry : 0/0
  3908 ;;		On exit  : 0/0
  3909 ;;		Unchanged: 0/0
  3910 ;; Data sizes:     COMMON   BANK0   BANK1   BANK3   BANK2
  3911 ;;      Params:         0       4       0       0       0
  3912 ;;      Locals:         0       6       0       0       0
  3913 ;;      Temps:          0       4       0       0       0
  3914 ;;      Totals:         0      14       0       0       0
  3915 ;;Total ram usage:       14 bytes
  3916 ;; Hardware stack levels used:    1
  3917 ;; Hardware stack levels required when called:    1
  3918 ;; This function calls:
  3919 ;;		Nothing
  3920 ;; This function is called by:
  3921 ;;		_main
  3922 ;;		_b1
  3923 ;;		_b0
  3924 ;; This function uses a non-reentrant model
  3925 ;;
  3926                           psect	text6,local,class=CODE,delta=2,merge=1,group=1
  3927                           	file	"C:\Program Files (x86)\Microchip\xc8\v2.00\pic\sources\c90\common\xxtofl.c"
  3928                           	line	10
  3929                           global __ptext6
  3930                           __ptext6:	;psect for function ___xxtofl
  3931  090E                     psect	text6
  3932                           	file	"C:\Program Files (x86)\Microchip\xc8\v2.00\pic\sources\c90\common\xxtofl.c"
  3933                           	line	10
  3934                           	global	__size_of___xxtofl
  3935                           	__size_of___xxtofl	equ	__end_of___xxtofl-___xxtofl
  3936  00C4                     	
  3937                           ___xxtofl:	
  3938  090E                     ;incstack = 0
  3939                           	opt	stack 5
  3940                           ; Regs used in ___xxtofl: [wreg+status,2+status,0]
  3941                           ;___xxtofl@sign stored from wreg
  3942                           	bcf	status, 5	;RP0=0, select bank0
  3943  090E  1283               	bcf	status, 6	;RP1=0, select bank0
  3944  090F  1303               	movwf	(___xxtofl@sign)
  3945  0910  00AA               	line	15
  3946                           	
  3947                           l2579:	
  3948  0911                     	movf	((___xxtofl@sign)),w
  3949  0911  082A               	btfsc	status,2
  3950  0912  1903               	goto	u3021
  3951  0913  2915               	goto	u3020
  3952  0914  2916               u3021:
  3953  0915                     	goto	l2585
  3954  0915  292A               u3020:
  3955  0916                     	
  3956                           l2581:	
  3957  0916                     	btfss	(___xxtofl@val+3),7
  3958  0916  1FA5               	goto	u3031
  3959  0917  2919               	goto	u3030
  3960  0918  291A               u3031:
  3961  0919                     	goto	l2585
  3962  0919  292A               u3030:
  3963  091A                     	line	16
  3964                           	
  3965                           l2583:	
  3966  091A                     	comf	(___xxtofl@val)+0,w
  3967  091A  0922               	movwf	(___xxtofl@arg)
  3968  091B  00AC               	comf	(___xxtofl@val)+1,w
  3969  091C  0923               	movwf	(___xxtofl@arg+1)
  3970  091D  00AD               	comf	(___xxtofl@val)+2,w
  3971  091E  0924               	movwf	(___xxtofl@arg+2)
  3972  091F  00AE               	comf	(___xxtofl@val)+3,w
  3973  0920  0925               	movwf	(___xxtofl@arg+3)
  3974  0921  00AF               	incf	(___xxtofl@arg),f
  3975  0922  0AAC               	skipnz
  3976  0923  1903               	incf	(___xxtofl@arg+1),f
  3977  0924  0AAD               	skipnz
  3978  0925  1903               	incf	(___xxtofl@arg+2),f
  3979  0926  0AAE               	skipnz
  3980  0927  1903               	incf	(___xxtofl@arg+3),f
  3981  0928  0AAF               	line	17
  3982                           	goto	l812
  3983  0929  2932               	line	18
  3984                           	
  3985                           l811:	
  3986  092A                     	line	19
  3987                           	
  3988                           l2585:	
  3989  092A                     	movf	(___xxtofl@val+3),w
  3990  092A  0825               	movwf	(___xxtofl@arg+3)
  3991  092B  00AF               	movf	(___xxtofl@val+2),w
  3992  092C  0824               	movwf	(___xxtofl@arg+2)
  3993  092D  00AE               	movf	(___xxtofl@val+1),w
  3994  092E  0823               	movwf	(___xxtofl@arg+1)
  3995  092F  00AD               	movf	(___xxtofl@val),w
  3996  0930  0822               	movwf	(___xxtofl@arg)
  3997  0931  00AC               
  3998                           	line	20
  3999                           	
  4000                           l812:	
  4001  0932                     	line	21
  4002                           	movf	(___xxtofl@val+3),w
  4003  0932  0825               	iorwf	(___xxtofl@val+2),w
  4004  0933  0424               	iorwf	(___xxtofl@val+1),w
  4005  0934  0423               	iorwf	(___xxtofl@val),w
  4006  0935  0422               	skipz
  4007  0936  1D03               	goto	u3041
  4008  0937  2939               	goto	u3040
  4009  0938  293A               u3041:
  4010  0939                     	goto	l2591
  4011  0939  2944               u3040:
  4012  093A                     	line	22
  4013                           	
  4014                           l2587:	
  4015  093A                     	movlw	0x0
  4016  093A  3000               	movwf	(?___xxtofl+3)
  4017  093B  00A5               	movlw	0x0
  4018  093C  3000               	movwf	(?___xxtofl+2)
  4019  093D  00A4               	movlw	0x0
  4020  093E  3000               	movwf	(?___xxtofl+1)
  4021  093F  00A3               	movlw	0x0
  4022  0940  3000               	movwf	(?___xxtofl)
  4023  0941  00A2               
  4024                           	goto	l814
  4025  0942  29D1               	
  4026                           l2589:	
  4027  0943                     	goto	l814
  4028  0943  29D1               	
  4029                           l813:	
  4030  0944                     	line	23
  4031                           	
  4032                           l2591:	
  4033  0944                     	movlw	low(096h)
  4034  0944  3096               	movwf	(??___xxtofl+0)+0
  4035  0945  00A6               	movf	(??___xxtofl+0)+0,w
  4036  0946  0826               	movwf	(___xxtofl@exp)
  4037  0947  00AB               	line	24
  4038                           	goto	l2595
  4039  0948  2957               	
  4040                           l816:	
  4041  0949                     	line	25
  4042                           	
  4043                           l2593:	
  4044  0949                     	movlw	low(01h)
  4045  0949  3001               	movwf	(??___xxtofl+0)+0
  4046  094A  00A6               	movf	(??___xxtofl+0)+0,w
  4047  094B  0826               	addwf	(___xxtofl@exp),f
  4048  094C  07AB               	line	26
  4049                           	movlw	01h
  4050  094D  3001               u3055:
  4051  094E                     	clrc
  4052  094E  1003               	rrf	(___xxtofl@arg+3),f
  4053  094F  0CAF               	rrf	(___xxtofl@arg+2),f
  4054  0950  0CAE               	rrf	(___xxtofl@arg+1),f
  4055  0951  0CAD               	rrf	(___xxtofl@arg),f
  4056  0952  0CAC               	addlw	-1
  4057  0953  3EFF               	skipz
  4058  0954  1D03               	goto	u3055
  4059  0955  294E               
  4060                           	goto	l2595
  4061  0956  2957               	line	27
  4062                           	
  4063                           l815:	
  4064  0957                     	line	24
  4065                           	
  4066                           l2595:	
  4067  0957                     	movlw	high highword(0FE000000h)
  4068  0957  30FE               	andwf	(___xxtofl@arg+3),w
  4069  0958  052F               	btfss	status,2
  4070  0959  1D03               	goto	u3061
  4071  095A  295C               	goto	u3060
  4072  095B  295D               u3061:
  4073  095C                     	goto	l2593
  4074  095C  2949               u3060:
  4075  095D                     	goto	l818
  4076  095D  297A               	
  4077                           l817:	
  4078  095E                     	line	28
  4079                           	goto	l818
  4080  095E  297A               	
  4081                           l819:	
  4082  095F                     	line	29
  4083                           	
  4084                           l2597:	
  4085  095F                     	movlw	low(01h)
  4086  095F  3001               	movwf	(??___xxtofl+0)+0
  4087  0960  00A6               	movf	(??___xxtofl+0)+0,w
  4088  0961  0826               	addwf	(___xxtofl@exp),f
  4089  0962  07AB               	line	30
  4090                           	
  4091                           l2599:	
  4092  0963                     	movlw	01h
  4093  0963  3001               	addwf	(___xxtofl@arg),f
  4094  0964  07AC               	movlw	0
  4095  0965  3000               	skipnc
  4096  0966  1803               movlw 1
  4097  0967  3001               	addwf	(___xxtofl@arg+1),f
  4098  0968  07AD               	movlw	0
  4099  0969  3000               	skipnc
  4100  096A  1803               movlw 1
  4101  096B  3001               	addwf	(___xxtofl@arg+2),f
  4102  096C  07AE               	movlw	0
  4103  096D  3000               	skipnc
  4104  096E  1803               movlw 1
  4105  096F  3001               	addwf	(___xxtofl@arg+3),f
  4106  0970  07AF               	line	31
  4107                           	
  4108                           l2601:	
  4109  0971                     	movlw	01h
  4110  0971  3001               u3075:
  4111  0972                     	clrc
  4112  0972  1003               	rrf	(___xxtofl@arg+3),f
  4113  0973  0CAF               	rrf	(___xxtofl@arg+2),f
  4114  0974  0CAE               	rrf	(___xxtofl@arg+1),f
  4115  0975  0CAD               	rrf	(___xxtofl@arg),f
  4116  0976  0CAC               	addlw	-1
  4117  0977  3EFF               	skipz
  4118  0978  1D03               	goto	u3075
  4119  0979  2972               
  4120                           	line	32
  4121                           	
  4122                           l818:	
  4123  097A                     	line	28
  4124                           	movlw	high highword(0FF000000h)
  4125  097A  30FF               	andwf	(___xxtofl@arg+3),w
  4126  097B  052F               	btfss	status,2
  4127  097C  1D03               	goto	u3081
  4128  097D  297F               	goto	u3080
  4129  097E  2980               u3081:
  4130  097F                     	goto	l2597
  4131  097F  295F               u3080:
  4132  0980                     	goto	l2605
  4133  0980  298E               	
  4134                           l820:	
  4135  0981                     	line	33
  4136                           	goto	l2605
  4137  0981  298E               	
  4138                           l822:	
  4139  0982                     	line	34
  4140                           	
  4141                           l2603:	
  4142  0982                     	movlw	01h
  4143  0982  3001               	subwf	(___xxtofl@exp),f
  4144  0983  02AB               	line	35
  4145                           	movlw	01h
  4146  0984  3001               	movwf	(??___xxtofl+0)+0
  4147  0985  00A6               u3095:
  4148  0986                     	clrc
  4149  0986  1003               	rlf	(___xxtofl@arg),f
  4150  0987  0DAC               	rlf	(___xxtofl@arg+1),f
  4151  0988  0DAD               	rlf	(___xxtofl@arg+2),f
  4152  0989  0DAE               	rlf	(___xxtofl@arg+3),f
  4153  098A  0DAF               	decfsz	(??___xxtofl+0)+0
  4154  098B  0BA6               	goto	u3095
  4155  098C  2986               	goto	l2605
  4156  098D  298E               	line	36
  4157                           	
  4158                           l821:	
  4159  098E                     	line	33
  4160                           	
  4161                           l2605:	
  4162  098E                     	btfsc	(___xxtofl@arg+2),(23)&7
  4163  098E  1BAE               	goto	u3101
  4164  098F  2991               	goto	u3100
  4165  0990  2992               u3101:
  4166  0991                     	goto	l825
  4167  0991  2999               u3100:
  4168  0992                     	
  4169                           l2607:	
  4170  0992                     	movlw	low(02h)
  4171  0992  3002               	subwf	(___xxtofl@exp),w
  4172  0993  022B               	skipnc
  4173  0994  1803               	goto	u3111
  4174  0995  2997               	goto	u3110
  4175  0996  2998               u3111:
  4176  0997                     	goto	l2603
  4177  0997  2982               u3110:
  4178  0998                     	goto	l825
  4179  0998  2999               	
  4180                           l824:	
  4181  0999                     	
  4182                           l825:	
  4183  0999                     	line	37
  4184                           	btfsc	(___xxtofl@exp),(0)&7
  4185  0999  182B               	goto	u3121
  4186  099A  299C               	goto	u3120
  4187  099B  299D               u3121:
  4188  099C                     	goto	l826
  4189  099C  29A5               u3120:
  4190  099D                     	line	38
  4191                           	
  4192                           l2609:	
  4193  099D                     	movlw	0FFh
  4194  099D  30FF               	andwf	(___xxtofl@arg),f
  4195  099E  05AC               	movlw	0FFh
  4196  099F  30FF               	andwf	(___xxtofl@arg+1),f
  4197  09A0  05AD               	movlw	07Fh
  4198  09A1  307F               	andwf	(___xxtofl@arg+2),f
  4199  09A2  05AE               	movlw	0FFh
  4200  09A3  30FF               	andwf	(___xxtofl@arg+3),f
  4201  09A4  05AF               	
  4202                           l826:	
  4203  09A5                     	line	39
  4204                           	clrc
  4205  09A5  1003               	rrf	(___xxtofl@exp),f
  4206  09A6  0CAB               
  4207                           	line	40
  4208                           	
  4209                           l2611:	
  4210  09A7                     	movf	(___xxtofl@exp),w
  4211  09A7  082B               	movwf	(??___xxtofl+0)+0
  4212  09A8  00A6               	clrf	(??___xxtofl+0)+0+1
  4213  09A9  01A7               	clrf	(??___xxtofl+0)+0+2
  4214  09AA  01A8               	clrf	(??___xxtofl+0)+0+3
  4215  09AB  01A9               	movlw	018h
  4216  09AC  3018               u3135:
  4217  09AD                     	clrc
  4218  09AD  1003               	rlf	(??___xxtofl+0)+0,f
  4219  09AE  0DA6               	rlf	(??___xxtofl+0)+1,f
  4220  09AF  0DA7               	rlf	(??___xxtofl+0)+2,f
  4221  09B0  0DA8               	rlf	(??___xxtofl+0)+3,f
  4222  09B1  0DA9               u3130:
  4223  09B2                     	addlw	-1
  4224  09B2  3EFF               	skipz
  4225  09B3  1D03               	goto	u3135
  4226  09B4  29AD               	movf	0+(??___xxtofl+0)+0,w
  4227  09B5  0826               	iorwf	(___xxtofl@arg),f
  4228  09B6  04AC               	movf	1+(??___xxtofl+0)+0,w
  4229  09B7  0827               	iorwf	(___xxtofl@arg+1),f
  4230  09B8  04AD               	movf	2+(??___xxtofl+0)+0,w
  4231  09B9  0828               	iorwf	(___xxtofl@arg+2),f
  4232  09BA  04AE               	movf	3+(??___xxtofl+0)+0,w
  4233  09BB  0829               	iorwf	(___xxtofl@arg+3),f
  4234  09BC  04AF               	line	41
  4235                           	
  4236                           l2613:	
  4237  09BD                     	movf	((___xxtofl@sign)),w
  4238  09BD  082A               	btfsc	status,2
  4239  09BE  1903               	goto	u3141
  4240  09BF  29C1               	goto	u3140
  4241  09C0  29C2               u3141:
  4242  09C1                     	goto	l2619
  4243  09C1  29C8               u3140:
  4244  09C2                     	
  4245                           l2615:	
  4246  09C2                     	btfss	(___xxtofl@val+3),7
  4247  09C2  1FA5               	goto	u3151
  4248  09C3  29C5               	goto	u3150
  4249  09C4  29C6               u3151:
  4250  09C5                     	goto	l2619
  4251  09C5  29C8               u3150:
  4252  09C6                     	line	42
  4253                           	
  4254                           l2617:	
  4255  09C6                     	bsf	(___xxtofl@arg)+(31/8),(31)&7
  4256  09C6  17AF               	goto	l2619
  4257  09C7  29C8               	
  4258                           l827:	
  4259  09C8                     	line	43
  4260                           	
  4261                           l2619:	
  4262  09C8                     	movf	(___xxtofl@arg+3),w
  4263  09C8  082F               	movwf	(?___xxtofl+3)
  4264  09C9  00A5               	movf	(___xxtofl@arg+2),w
  4265  09CA  082E               	movwf	(?___xxtofl+2)
  4266  09CB  00A4               	movf	(___xxtofl@arg+1),w
  4267  09CC  082D               	movwf	(?___xxtofl+1)
  4268  09CD  00A3               	movf	(___xxtofl@arg),w
  4269  09CE  082C               	movwf	(?___xxtofl)
  4270  09CF  00A2               
  4271                           	goto	l814
  4272  09D0  29D1               	
  4273                           l2621:	
  4274  09D1                     	line	44
  4275                           	
  4276                           l814:	
  4277  09D1                     	return
  4278  09D1  0008               	opt stack 0
  4279                           GLOBAL	__end_of___xxtofl
  4280                           	__end_of___xxtofl:
  4281  09D2                     	signat	___xxtofl,8316
  4282                           	global	___wmul
  4283                           
  4284 ;; *************** function ___wmul *****************
  4285 ;; Defined at:
  4286 ;;		line 15 in file "C:\Program Files (x86)\Microchip\xc8\v2.00\pic\sources\c90\common\Umul16.c"
  4287 ;; Parameters:    Size  Location     Type
  4288 ;;  multiplier      2    3[COMMON] unsigned int 
  4289 ;;  multiplicand    2    5[COMMON] unsigned int 
  4290 ;; Auto vars:     Size  Location     Type
  4291 ;;  product         2    0[BANK0 ] unsigned int 
  4292 ;; Return value:  Size  Location     Type
  4293 ;;                  2    3[COMMON] unsigned int 
  4294 ;; Registers used:
  4295 ;;		wreg, status,2, status,0
  4296 ;; Tracked objects:
  4297 ;;		On entry : 0/0
  4298 ;;		On exit  : 0/0
  4299 ;;		Unchanged: 0/0
  4300 ;; Data sizes:     COMMON   BANK0   BANK1   BANK3   BANK2
  4301 ;;      Params:         4       0       0       0       0
  4302 ;;      Locals:         0       2       0       0       0
  4303 ;;      Temps:          0       0       0       0       0
  4304 ;;      Totals:         4       2       0       0       0
  4305 ;;Total ram usage:        6 bytes
  4306 ;; Hardware stack levels used:    1
  4307 ;; Hardware stack levels required when called:    1
  4308 ;; This function calls:
  4309 ;;		Nothing
  4310 ;; This function is called by:
  4311 ;;		_b1
  4312 ;;		_b0
  4313 ;; This function uses a non-reentrant model
  4314 ;;
  4315                           psect	text7,local,class=CODE,delta=2,merge=1,group=1
  4316                           	file	"C:\Program Files (x86)\Microchip\xc8\v2.00\pic\sources\c90\common\Umul16.c"
  4317                           	line	15
  4318                           global __ptext7
  4319                           __ptext7:	;psect for function ___wmul
  4320  1625                     psect	text7
  4321                           	file	"C:\Program Files (x86)\Microchip\xc8\v2.00\pic\sources\c90\common\Umul16.c"
  4322                           	line	15
  4323                           	global	__size_of___wmul
  4324                           	__size_of___wmul	equ	__end_of___wmul-___wmul
  4325  002E                     	
  4326                           ___wmul:	
  4327  1625                     ;incstack = 0
  4328                           	opt	stack 5
  4329                           ; Regs used in ___wmul: [wreg+status,2+status,0]
  4330                           	line	43
  4331                           	
  4332                           l3217:	
  4333  1625                     	bcf	status, 5	;RP0=0, select bank0
  4334  1625  1283               	bcf	status, 6	;RP1=0, select bank0
  4335  1626  1303               	clrf	(___wmul@product)
  4336  1627  01A0               	clrf	(___wmul@product+1)
  4337  1628  01A1               	goto	l3219
  4338  1629  2E2A               	line	44
  4339                           	
  4340                           l403:	
  4341  162A                     	line	45
  4342                           	
  4343                           l3219:	
  4344  162A                     	btfss	(___wmul@multiplier),(0)&7
  4345  162A  1C73               	goto	u3791
  4346  162B  2E2D               	goto	u3790
  4347  162C  2E2E               u3791:
  4348  162D                     	goto	l404
  4349  162D  2E36               u3790:
  4350  162E                     	line	46
  4351                           	
  4352                           l3221:	
  4353  162E                     	movf	(___wmul@multiplicand),w
  4354  162E  0875               	bcf	status, 5	;RP0=0, select bank0
  4355  162F  1283               	bcf	status, 6	;RP1=0, select bank0
  4356  1630  1303               	addwf	(___wmul@product),f
  4357  1631  07A0               	skipnc
  4358  1632  1803               	incf	(___wmul@product+1),f
  4359  1633  0AA1               	movf	(___wmul@multiplicand+1),w
  4360  1634  0876               	addwf	(___wmul@product+1),f
  4361  1635  07A1               	
  4362                           l404:	
  4363  1636                     	line	47
  4364                           	movlw	01h
  4365  1636  3001               	
  4366                           u3805:
  4367  1637                     	clrc
  4368  1637  1003               	rlf	(___wmul@multiplicand),f
  4369  1638  0DF5               	rlf	(___wmul@multiplicand+1),f
  4370  1639  0DF6               	addlw	-1
  4371  163A  3EFF               	skipz
  4372  163B  1D03               	goto	u3805
  4373  163C  2E37               	line	48
  4374                           	
  4375                           l3223:	
  4376  163D                     	movlw	01h
  4377  163D  3001               	
  4378                           u3815:
  4379  163E                     	clrc
  4380  163E  1003               	rrf	(___wmul@multiplier+1),f
  4381  163F  0CF4               	rrf	(___wmul@multiplier),f
  4382  1640  0CF3               	addlw	-1
  4383  1641  3EFF               	skipz
  4384  1642  1D03               	goto	u3815
  4385  1643  2E3E               	line	49
  4386                           	
  4387                           l3225:	
  4388  1644                     	movf	((___wmul@multiplier)),w
  4389  1644  0873               iorwf	((___wmul@multiplier+1)),w
  4390  1645  0474               	btfss	status,2
  4391  1646  1D03               	goto	u3821
  4392  1647  2E49               	goto	u3820
  4393  1648  2E4A               u3821:
  4394  1649                     	goto	l3219
  4395  1649  2E2A               u3820:
  4396  164A                     	goto	l3227
  4397  164A  2E4B               	
  4398                           l405:	
  4399  164B                     	line	52
  4400                           	
  4401                           l3227:	
  4402  164B                     	bcf	status, 5	;RP0=0, select bank0
  4403  164B  1283               	bcf	status, 6	;RP1=0, select bank0
  4404  164C  1303               	movf	(___wmul@product+1),w
  4405  164D  0821               	movwf	(?___wmul+1)
  4406  164E  00F4               	movf	(___wmul@product),w
  4407  164F  0820               	movwf	(?___wmul)
  4408  1650  00F3               	goto	l406
  4409  1651  2E52               	
  4410                           l3229:	
  4411  1652                     	line	53
  4412                           	
  4413                           l406:	
  4414  1652                     	return
  4415  1652  0008               	opt stack 0
  4416                           GLOBAL	__end_of___wmul
  4417                           	__end_of___wmul:
  4418  1653                     	signat	___wmul,8314
  4419                           	global	___fltol
  4420                           
  4421 ;; *************** function ___fltol *****************
  4422 ;; Defined at:
  4423 ;;		line 43 in file "C:\Program Files (x86)\Microchip\xc8\v2.00\pic\sources\c90\common\fltol.c"
  4424 ;; Parameters:    Size  Location     Type
  4425 ;;  f1              4   66[BANK0 ] unsigned int 
  4426 ;; Auto vars:     Size  Location     Type
  4427 ;;  exp1            1   76[BANK0 ] unsigned char 
  4428 ;;  sign1           1   75[BANK0 ] unsigned char 
  4429 ;; Return value:  Size  Location     Type
  4430 ;;                  4   66[BANK0 ] long 
  4431 ;; Registers used:
  4432 ;;		wreg, status,2, status,0
  4433 ;; Tracked objects:
  4434 ;;		On entry : 0/0
  4435 ;;		On exit  : 0/0
  4436 ;;		Unchanged: 0/0
  4437 ;; Data sizes:     COMMON   BANK0   BANK1   BANK3   BANK2
  4438 ;;      Params:         0       4       0       0       0
  4439 ;;      Locals:         0       2       0       0       0
  4440 ;;      Temps:          0       5       0       0       0
  4441 ;;      Totals:         0      11       0       0       0
  4442 ;;Total ram usage:       11 bytes
  4443 ;; Hardware stack levels used:    1
  4444 ;; Hardware stack levels required when called:    1
  4445 ;; This function calls:
  4446 ;;		Nothing
  4447 ;; This function is called by:
  4448 ;;		_main
  4449 ;;		_b2
  4450 ;;		_b1
  4451 ;;		_b0
  4452 ;; This function uses a non-reentrant model
  4453 ;;
  4454                           psect	text8,local,class=CODE,delta=2,merge=1,group=1
  4455                           	file	"C:\Program Files (x86)\Microchip\xc8\v2.00\pic\sources\c90\common\fltol.c"
  4456                           	line	43
  4457                           global __ptext8
  4458                           __ptext8:	;psect for function ___fltol
  4459  0763                     psect	text8
  4460                           	file	"C:\Program Files (x86)\Microchip\xc8\v2.00\pic\sources\c90\common\fltol.c"
  4461                           	line	43
  4462                           	global	__size_of___fltol
  4463                           	__size_of___fltol	equ	__end_of___fltol-___fltol
  4464  009C                     	
  4465                           ___fltol:	
  4466  0763                     ;incstack = 0
  4467                           	opt	stack 5
  4468                           ; Regs used in ___fltol: [wreg+status,2+status,0]
  4469                           	line	47
  4470                           	
  4471                           l3231:	
  4472  0763                     	bcf	status, 5	;RP0=0, select bank0
  4473  0763  1283               	bcf	status, 6	;RP1=0, select bank0
  4474  0764  1303               	movf	(___fltol@f1),w
  4475  0765  0862               	movwf	(??___fltol+0)+0
  4476  0766  00E6               	movf	(___fltol@f1+1),w
  4477  0767  0863               	movwf	((??___fltol+0)+0+1)
  4478  0768  00E7               	movf	(___fltol@f1+2),w
  4479  0769  0864               	movwf	((??___fltol+0)+0+2)
  4480  076A  00E8               	movf	(___fltol@f1+3),w
  4481  076B  0865               	movwf	((??___fltol+0)+0+3)
  4482  076C  00E9               	clrc
  4483  076D  1003               	rlf	(??___fltol+0)+2,w
  4484  076E  0D68               	rlf	(??___fltol+0)+3,w
  4485  076F  0D69               	movwf	(??___fltol+4)+0
  4486  0770  00EA               	movf	(??___fltol+4)+0,w
  4487  0771  086A               	movwf	(___fltol@exp1)
  4488  0772  00EC               	movf	(((___fltol@exp1))),w
  4489  0773  086C               	btfss	status,2
  4490  0774  1D03               	goto	u3831
  4491  0775  2F77               	goto	u3830
  4492  0776  2F78               u3831:
  4493  0777                     	goto	l3237
  4494  0777  2F82               u3830:
  4495  0778                     	line	48
  4496                           	
  4497                           l3233:	
  4498  0778                     	movlw	high highword(0)
  4499  0778  3000               	movwf	(?___fltol+3)
  4500  0779  00E5               	movlw	low highword(0)
  4501  077A  3000               	movwf	(?___fltol+2)
  4502  077B  00E4               	movlw	high(0)
  4503  077C  3000               	movwf	(?___fltol+1)
  4504  077D  00E3               	movlw	low(0)
  4505  077E  3000               	movwf	(?___fltol)
  4506  077F  00E2               
  4507                           	goto	l590
  4508  0780  2FFE               	
  4509                           l3235:	
  4510  0781                     	goto	l590
  4511  0781  2FFE               	
  4512                           l589:	
  4513  0782                     	line	49
  4514                           	
  4515                           l3237:	
  4516  0782                     	movf	(___fltol@f1),w
  4517  0782  0862               	movwf	(??___fltol+0)+0
  4518  0783  00E6               	movf	(___fltol@f1+1),w
  4519  0784  0863               	movwf	((??___fltol+0)+0+1)
  4520  0785  00E7               	movf	(___fltol@f1+2),w
  4521  0786  0864               	movwf	((??___fltol+0)+0+2)
  4522  0787  00E8               	movf	(___fltol@f1+3),w
  4523  0788  0865               	movwf	((??___fltol+0)+0+3)
  4524  0789  00E9               	movlw	01Fh
  4525  078A  301F               u3845:
  4526  078B                     	clrc
  4527  078B  1003               	rrf	(??___fltol+0)+3,f
  4528  078C  0CE9               	rrf	(??___fltol+0)+2,f
  4529  078D  0CE8               	rrf	(??___fltol+0)+1,f
  4530  078E  0CE7               	rrf	(??___fltol+0)+0,f
  4531  078F  0CE6               u3840:
  4532  0790                     	addlw	-1
  4533  0790  3EFF               	skipz
  4534  0791  1D03               	goto	u3845
  4535  0792  2F8B               	movf	0+(??___fltol+0)+0,w
  4536  0793  0866               	movwf	(??___fltol+4)+0
  4537  0794  00EA               	movf	(??___fltol+4)+0,w
  4538  0795  086A               	movwf	(___fltol@sign1)
  4539  0796  00EB               	line	50
  4540                           	
  4541                           l3239:	
  4542  0797                     	bsf	(___fltol@f1)+(23/8),(23)&7
  4543  0797  17E4               	line	51
  4544                           	
  4545                           l3241:	
  4546  0798                     	movlw	0FFh
  4547  0798  30FF               	andwf	(___fltol@f1),f
  4548  0799  05E2               	movlw	0FFh
  4549  079A  30FF               	andwf	(___fltol@f1+1),f
  4550  079B  05E3               	movlw	0FFh
  4551  079C  30FF               	andwf	(___fltol@f1+2),f
  4552  079D  05E4               	movlw	0
  4553  079E  3000               	andwf	(___fltol@f1+3),f
  4554  079F  05E5               	line	52
  4555                           	
  4556                           l3243:	
  4557  07A0                     	movlw	096h
  4558  07A0  3096               	subwf	(___fltol@exp1),f
  4559  07A1  02EC               	line	53
  4560                           	
  4561                           l3245:	
  4562  07A2                     	btfss	(___fltol@exp1),7
  4563  07A2  1FEC               	goto	u3851
  4564  07A3  2FA5               	goto	u3850
  4565  07A4  2FA6               u3851:
  4566  07A5                     	goto	l3255
  4567  07A5  2FCB               u3850:
  4568  07A6                     	line	54
  4569                           	
  4570                           l3247:	
  4571  07A6                     	movf	(___fltol@exp1),w
  4572  07A6  086C               	xorlw	80h
  4573  07A7  3A80               	addlw	-((-23)^80h)
  4574  07A8  3E97               	skipnc
  4575  07A9  1803               	goto	u3861
  4576  07AA  2FAC               	goto	u3860
  4577  07AB  2FAD               u3861:
  4578  07AC                     	goto	l3253
  4579  07AC  2FB8               u3860:
  4580  07AD                     	line	55
  4581                           	
  4582                           l3249:	
  4583  07AD                     	movlw	high highword(0)
  4584  07AD  3000               	movwf	(?___fltol+3)
  4585  07AE  00E5               	movlw	low highword(0)
  4586  07AF  3000               	movwf	(?___fltol+2)
  4587  07B0  00E4               	movlw	high(0)
  4588  07B1  3000               	movwf	(?___fltol+1)
  4589  07B2  00E3               	movlw	low(0)
  4590  07B3  3000               	movwf	(?___fltol)
  4591  07B4  00E2               
  4592                           	goto	l590
  4593  07B5  2FFE               	
  4594                           l3251:	
  4595  07B6                     	goto	l590
  4596  07B6  2FFE               	
  4597                           l592:	
  4598  07B7                     	goto	l3253
  4599  07B7  2FB8               	line	56
  4600                           	
  4601                           l593:	
  4602  07B8                     	line	57
  4603                           	
  4604                           l3253:	
  4605  07B8                     	movlw	01h
  4606  07B8  3001               u3875:
  4607  07B9                     	clrc
  4608  07B9  1003               	rrf	(___fltol@f1+3),f
  4609  07BA  0CE5               	rrf	(___fltol@f1+2),f
  4610  07BB  0CE4               	rrf	(___fltol@f1+1),f
  4611  07BC  0CE3               	rrf	(___fltol@f1),f
  4612  07BD  0CE2               	addlw	-1
  4613  07BE  3EFF               	skipz
  4614  07BF  1D03               	goto	u3875
  4615  07C0  2FB9               
  4616                           	line	58
  4617                           	movlw	low(01h)
  4618  07C1  3001               	movwf	(??___fltol+0)+0
  4619  07C2  00E6               	movf	(??___fltol+0)+0,w
  4620  07C3  0866               	addwf	(___fltol@exp1),f
  4621  07C4  07EC               	btfss	status,2
  4622  07C5  1D03               	goto	u3881
  4623  07C6  2FC8               	goto	u3880
  4624  07C7  2FC9               u3881:
  4625  07C8                     	goto	l3253
  4626  07C8  2FB8               u3880:
  4627  07C9                     	goto	l3263
  4628  07C9  2FEE               	
  4629                           l594:	
  4630  07CA                     	line	59
  4631                           	goto	l3263
  4632  07CA  2FEE               	
  4633                           l591:	
  4634  07CB                     	line	60
  4635                           	
  4636                           l3255:	
  4637  07CB                     	movlw	low(020h)
  4638  07CB  3020               	subwf	(___fltol@exp1),w
  4639  07CC  026C               	skipc
  4640  07CD  1C03               	goto	u3891
  4641  07CE  2FD0               	goto	u3890
  4642  07CF  2FD1               u3891:
  4643  07D0                     	goto	l597
  4644  07D0  2FE7               u3890:
  4645  07D1                     	line	61
  4646                           	
  4647                           l3257:	
  4648  07D1                     	movlw	high highword(0)
  4649  07D1  3000               	movwf	(?___fltol+3)
  4650  07D2  00E5               	movlw	low highword(0)
  4651  07D3  3000               	movwf	(?___fltol+2)
  4652  07D4  00E4               	movlw	high(0)
  4653  07D5  3000               	movwf	(?___fltol+1)
  4654  07D6  00E3               	movlw	low(0)
  4655  07D7  3000               	movwf	(?___fltol)
  4656  07D8  00E2               
  4657                           	goto	l590
  4658  07D9  2FFE               	
  4659                           l3259:	
  4660  07DA                     	goto	l590
  4661  07DA  2FFE               	
  4662                           l596:	
  4663  07DB                     	line	62
  4664                           	goto	l597
  4665  07DB  2FE7               	
  4666                           l598:	
  4667  07DC                     	line	63
  4668                           	
  4669                           l3261:	
  4670  07DC                     	movlw	01h
  4671  07DC  3001               	movwf	(??___fltol+0)+0
  4672  07DD  00E6               u3905:
  4673  07DE                     	clrc
  4674  07DE  1003               	rlf	(___fltol@f1),f
  4675  07DF  0DE2               	rlf	(___fltol@f1+1),f
  4676  07E0  0DE3               	rlf	(___fltol@f1+2),f
  4677  07E1  0DE4               	rlf	(___fltol@f1+3),f
  4678  07E2  0DE5               	decfsz	(??___fltol+0)+0
  4679  07E3  0BE6               	goto	u3905
  4680  07E4  2FDE               	line	64
  4681                           	movlw	01h
  4682  07E5  3001               	subwf	(___fltol@exp1),f
  4683  07E6  02EC               	line	65
  4684                           	
  4685                           l597:	
  4686  07E7                     	line	62
  4687                           	movf	((___fltol@exp1)),w
  4688  07E7  086C               	btfss	status,2
  4689  07E8  1D03               	goto	u3911
  4690  07E9  2FEB               	goto	u3910
  4691  07EA  2FEC               u3911:
  4692  07EB                     	goto	l3261
  4693  07EB  2FDC               u3910:
  4694  07EC                     	goto	l3263
  4695  07EC  2FEE               	
  4696                           l599:	
  4697  07ED                     	goto	l3263
  4698  07ED  2FEE               	line	66
  4699                           	
  4700                           l595:	
  4701  07EE                     	line	67
  4702                           	
  4703                           l3263:	
  4704  07EE                     	movf	((___fltol@sign1)),w
  4705  07EE  086B               	btfsc	status,2
  4706  07EF  1903               	goto	u3921
  4707  07F0  2FF2               	goto	u3920
  4708  07F1  2FF3               u3921:
  4709  07F2                     	goto	l600
  4710  07F2  2FFE               u3920:
  4711  07F3                     	line	68
  4712                           	
  4713                           l3265:	
  4714  07F3                     	comf	(___fltol@f1),f
  4715  07F3  09E2               	comf	(___fltol@f1+1),f
  4716  07F4  09E3               	comf	(___fltol@f1+2),f
  4717  07F5  09E4               	comf	(___fltol@f1+3),f
  4718  07F6  09E5               	incf	(___fltol@f1),f
  4719  07F7  0AE2               	skipnz
  4720  07F8  1903               	incf	(___fltol@f1+1),f
  4721  07F9  0AE3               	skipnz
  4722  07FA  1903               	incf	(___fltol@f1+2),f
  4723  07FB  0AE4               	skipnz
  4724  07FC  1903               	incf	(___fltol@f1+3),f
  4725  07FD  0AE5               	
  4726                           l600:	
  4727  07FE                     	line	69
  4728                           	line	70
  4729                           	
  4730                           l590:	
  4731  07FE                     	return
  4732  07FE  0008               	opt stack 0
  4733                           GLOBAL	__end_of___fltol
  4734                           	__end_of___fltol:
  4735  07FF                     	signat	___fltol,4220
  4736                           	global	___flneg
  4737                           
  4738 ;; *************** function ___flneg *****************
  4739 ;; Defined at:
  4740 ;;		line 15 in file "C:\Program Files (x86)\Microchip\xc8\v2.00\pic\sources\c90\common\flneg.c"
  4741 ;; Parameters:    Size  Location     Type
  4742 ;;  f1              4   16[BANK0 ] long 
  4743 ;; Auto vars:     Size  Location     Type
  4744 ;;		None
  4745 ;; Return value:  Size  Location     Type
  4746 ;;                  4   16[BANK0 ] long 
  4747 ;; Registers used:
  4748 ;;		wreg
  4749 ;; Tracked objects:
  4750 ;;		On entry : 0/0
  4751 ;;		On exit  : 0/0
  4752 ;;		Unchanged: 0/0
  4753 ;; Data sizes:     COMMON   BANK0   BANK1   BANK3   BANK2
  4754 ;;      Params:         0       4       0       0       0
  4755 ;;      Locals:         0       0       0       0       0
  4756 ;;      Temps:          0       0       0       0       0
  4757 ;;      Totals:         0       4       0       0       0
  4758 ;;Total ram usage:        4 bytes
  4759 ;; Hardware stack levels used:    1
  4760 ;; Hardware stack levels required when called:    1
  4761 ;; This function calls:
  4762 ;;		Nothing
  4763 ;; This function is called by:
  4764 ;;		_b1
  4765 ;;		_b0
  4766 ;; This function uses a non-reentrant model
  4767 ;;
  4768                           psect	text9,local,class=CODE,delta=2,merge=1,group=1
  4769                           	file	"C:\Program Files (x86)\Microchip\xc8\v2.00\pic\sources\c90\common\flneg.c"
  4770                           	line	15
  4771                           global __ptext9
  4772                           __ptext9:	;psect for function ___flneg
  4773  1576                     psect	text9
  4774                           	file	"C:\Program Files (x86)\Microchip\xc8\v2.00\pic\sources\c90\common\flneg.c"
  4775                           	line	15
  4776                           	global	__size_of___flneg
  4777                           	__size_of___flneg	equ	__end_of___flneg-___flneg
  4778  000F                     	
  4779                           ___flneg:	
  4780  1576                     ;incstack = 0
  4781                           	opt	stack 5
  4782                           ; Regs used in ___flneg: [wreg]
  4783                           	line	17
  4784                           	
  4785                           l2185:	
  4786  1576                     	bcf	status, 5	;RP0=0, select bank0
  4787  1576  1283               	bcf	status, 6	;RP1=0, select bank0
  4788  1577  1303               	movf	(___flneg@f1+3),w
  4789  1578  0833               	iorwf	(___flneg@f1+2),w
  4790  1579  0432               	iorwf	(___flneg@f1+1),w
  4791  157A  0431               	iorwf	(___flneg@f1),w
  4792  157B  0430               	skipnz
  4793  157C  1903               	goto	u2121
  4794  157D  2D7F               	goto	u2120
  4795  157E  2D80               u2121:
  4796  157F                     	goto	l2189
  4797  157F  2D83               u2120:
  4798  1580                     	line	18
  4799                           	
  4800                           l2187:	
  4801  1580                     	movlw	080h
  4802  1580  3080               	xorwf	(___flneg@f1+3),f
  4803  1581  06B3               	goto	l2189
  4804  1582  2D83               	
  4805                           l585:	
  4806  1583                     	line	19
  4807                           	
  4808                           l2189:	
  4809  1583                     	goto	l586
  4810  1583  2D84               	
  4811                           l2191:	
  4812  1584                     	line	20
  4813                           	
  4814                           l586:	
  4815  1584                     	return
  4816  1584  0008               	opt stack 0
  4817                           GLOBAL	__end_of___flneg
  4818                           	__end_of___flneg:
  4819  1585                     	signat	___flneg,4220
  4820                           	global	___fldiv
  4821                           
  4822 ;; *************** function ___fldiv *****************
  4823 ;; Defined at:
  4824 ;;		line 8 in file "C:\Program Files (x86)\Microchip\xc8\v2.00\pic\sources\c90\common\sprcdiv.c"
  4825 ;; Parameters:    Size  Location     Type
  4826 ;;  a               4    0[BANK0 ] long 
  4827 ;;  b               4    4[BANK0 ] long 
  4828 ;; Auto vars:     Size  Location     Type
  4829 ;;  grs             4   15[BANK0 ] unsigned long 
  4830 ;;  rem             4    8[BANK0 ] unsigned long 
  4831 ;;  new_exp         2   13[BANK0 ] int 
  4832 ;;  aexp            1   20[BANK0 ] unsigned char 
  4833 ;;  bexp            1   19[BANK0 ] unsigned char 
  4834 ;;  sign            1   12[BANK0 ] unsigned char 
  4835 ;; Return value:  Size  Location     Type
  4836 ;;                  4    0[BANK0 ] unsigned char 
  4837 ;; Registers used:
  4838 ;;		wreg, status,2, status,0, btemp+1
  4839 ;; Tracked objects:
  4840 ;;		On entry : 0/0
  4841 ;;		On exit  : 0/0
  4842 ;;		Unchanged: 0/0
  4843 ;; Data sizes:     COMMON   BANK0   BANK1   BANK3   BANK2
  4844 ;;      Params:         0       8       0       0       0
  4845 ;;      Locals:         0      13       0       0       0
  4846 ;;      Temps:          5       0       0       0       0
  4847 ;;      Totals:         5      21       0       0       0
  4848 ;;Total ram usage:       26 bytes
  4849 ;; Hardware stack levels used:    1
  4850 ;; Hardware stack levels required when called:    1
  4851 ;; This function calls:
  4852 ;;		Nothing
  4853 ;; This function is called by:
  4854 ;;		_b2
  4855 ;;		_b1
  4856 ;;		_b0
  4857 ;; This function uses a non-reentrant model
  4858 ;;
  4859                           psect	text10,local,class=CODE,delta=2,merge=1,group=1
  4860                           	file	"C:\Program Files (x86)\Microchip\xc8\v2.00\pic\sources\c90\common\sprcdiv.c"
  4861                           	line	8
  4862                           global __ptext10
  4863                           __ptext10:	;psect for function ___fldiv
  4864  0B98                     psect	text10
  4865                           	file	"C:\Program Files (x86)\Microchip\xc8\v2.00\pic\sources\c90\common\sprcdiv.c"
  4866                           	line	8
  4867                           	global	__size_of___fldiv
  4868                           	__size_of___fldiv	equ	__end_of___fldiv-___fldiv
  4869  0209                     	
  4870                           ___fldiv:	
  4871  0B98                     ;incstack = 0
  4872                           	opt	stack 5
  4873                           ; Regs used in ___fldiv: [wreg+status,2+status,0+btemp+1]
  4874                           	line	26
  4875                           	
  4876                           l3267:	
  4877  0B98                     	bcf	status, 5	;RP0=0, select bank0
  4878  0B98  1283               	bcf	status, 6	;RP1=0, select bank0
  4879  0B99  1303               	movf	0+(___fldiv@b)+03h,w
  4880  0B9A  0827               	andlw	080h
  4881  0B9B  3980               	movwf	(??___fldiv+0)+0
  4882  0B9C  00F3               	movf	(??___fldiv+0)+0,w
  4883  0B9D  0873               	movwf	(___fldiv@sign)
  4884  0B9E  00AC               	line	27
  4885                           	
  4886                           l3269:	
  4887  0B9F                     	movf	0+(___fldiv@b)+03h,w
  4888  0B9F  0827               	movwf	(??___fldiv+0)+0
  4889  0BA0  00F3               	addwf	(??___fldiv+0)+0,w
  4890  0BA1  0773               	movwf	(??___fldiv+1)+0
  4891  0BA2  00F4               	movf	(??___fldiv+1)+0,w
  4892  0BA3  0874               	movwf	(___fldiv@bexp)
  4893  0BA4  00B3               	line	28
  4894                           	
  4895                           l3271:	
  4896  0BA5                     	btfss	0+(___fldiv@b)+02h,(7)&7
  4897  0BA5  1FA6               	goto	u3931
  4898  0BA6  2BA8               	goto	u3930
  4899  0BA7  2BA9               u3931:
  4900  0BA8                     	goto	l3275
  4901  0BA8  2BAB               u3930:
  4902  0BA9                     	line	29
  4903                           	
  4904                           l3273:	
  4905  0BA9                     	bsf	(___fldiv@bexp)+(0/8),(0)&7
  4906  0BA9  1433               	goto	l3275
  4907  0BAA  2BAB               	line	30
  4908                           	
  4909                           l746:	
  4910  0BAB                     	line	33
  4911                           	
  4912                           l3275:	
  4913  0BAB                     	movf	((___fldiv@bexp)),w
  4914  0BAB  0833               	btfsc	status,2
  4915  0BAC  1903               	goto	u3941
  4916  0BAD  2BAF               	goto	u3940
  4917  0BAE  2BB0               u3941:
  4918  0BAF                     	goto	l3285
  4919  0BAF  2BC1               u3940:
  4920  0BB0                     	line	35
  4921                           	
  4922                           l3277:	
  4923  0BB0                     		incf	((___fldiv@bexp)),w
  4924  0BB0  0A33               	btfss	status,2
  4925  0BB1  1D03               	goto	u3951
  4926  0BB2  2BB4               	goto	u3950
  4927  0BB3  2BB5               u3951:
  4928  0BB4                     	goto	l3281
  4929  0BB4  2BBE               u3950:
  4930  0BB5                     	line	37
  4931                           	
  4932                           l3279:	
  4933  0BB5                     	movlw	0x0
  4934  0BB5  3000               	movwf	(___fldiv@b+3)
  4935  0BB6  00A7               	movlw	0x0
  4936  0BB7  3000               	movwf	(___fldiv@b+2)
  4937  0BB8  00A6               	movlw	0x0
  4938  0BB9  3000               	movwf	(___fldiv@b+1)
  4939  0BBA  00A5               	movlw	0x0
  4940  0BBB  3000               	movwf	(___fldiv@b)
  4941  0BBC  00A4               
  4942                           	goto	l3281
  4943  0BBD  2BBE               	line	38
  4944                           	
  4945                           l748:	
  4946  0BBE                     	line	40
  4947                           	
  4948                           l3281:	
  4949  0BBE                     	bsf	(___fldiv@b)+(23/8),(23)&7
  4950  0BBE  17A6               	line	42
  4951                           	
  4952                           l3283:	
  4953  0BBF                     	clrf	0+(___fldiv@b)+03h
  4954  0BBF  01A7               	line	43
  4955                           	goto	l3287
  4956  0BC0  2BCA               	line	44
  4957                           	
  4958                           l747:	
  4959  0BC1                     	line	46
  4960                           	
  4961                           l3285:	
  4962  0BC1                     	movlw	0x0
  4963  0BC1  3000               	movwf	(___fldiv@b+3)
  4964  0BC2  00A7               	movlw	0x0
  4965  0BC3  3000               	movwf	(___fldiv@b+2)
  4966  0BC4  00A6               	movlw	0x0
  4967  0BC5  3000               	movwf	(___fldiv@b+1)
  4968  0BC6  00A5               	movlw	0x0
  4969  0BC7  3000               	movwf	(___fldiv@b)
  4970  0BC8  00A4               
  4971                           	goto	l3287
  4972  0BC9  2BCA               	line	47
  4973                           	
  4974                           l749:	
  4975  0BCA                     	line	49
  4976                           	
  4977                           l3287:	
  4978  0BCA                     	movf	0+(___fldiv@a)+03h,w
  4979  0BCA  0823               	andlw	080h
  4980  0BCB  3980               	movwf	(??___fldiv+0)+0
  4981  0BCC  00F3               	movf	(??___fldiv+0)+0,w
  4982  0BCD  0873               	xorwf	(___fldiv@sign),f
  4983  0BCE  06AC               	line	50
  4984                           	
  4985                           l3289:	
  4986  0BCF                     	movf	0+(___fldiv@a)+03h,w
  4987  0BCF  0823               	movwf	(??___fldiv+0)+0
  4988  0BD0  00F3               	addwf	(??___fldiv+0)+0,w
  4989  0BD1  0773               	movwf	(??___fldiv+1)+0
  4990  0BD2  00F4               	movf	(??___fldiv+1)+0,w
  4991  0BD3  0874               	movwf	(___fldiv@aexp)
  4992  0BD4  00B4               	line	51
  4993                           	
  4994                           l3291:	
  4995  0BD5                     	btfss	0+(___fldiv@a)+02h,(7)&7
  4996  0BD5  1FA2               	goto	u3961
  4997  0BD6  2BD8               	goto	u3960
  4998  0BD7  2BD9               u3961:
  4999  0BD8                     	goto	l3295
  5000  0BD8  2BDB               u3960:
  5001  0BD9                     	line	52
  5002                           	
  5003                           l3293:	
  5004  0BD9                     	bsf	(___fldiv@aexp)+(0/8),(0)&7
  5005  0BD9  1434               	goto	l3295
  5006  0BDA  2BDB               	line	53
  5007                           	
  5008                           l750:	
  5009  0BDB                     	line	56
  5010                           	
  5011                           l3295:	
  5012  0BDB                     	movf	((___fldiv@aexp)),w
  5013  0BDB  0834               	btfsc	status,2
  5014  0BDC  1903               	goto	u3971
  5015  0BDD  2BDF               	goto	u3970
  5016  0BDE  2BE0               u3971:
  5017  0BDF                     	goto	l3305
  5018  0BDF  2BF1               u3970:
  5019  0BE0                     	line	58
  5020                           	
  5021                           l3297:	
  5022  0BE0                     		incf	((___fldiv@aexp)),w
  5023  0BE0  0A34               	btfss	status,2
  5024  0BE1  1D03               	goto	u3981
  5025  0BE2  2BE4               	goto	u3980
  5026  0BE3  2BE5               u3981:
  5027  0BE4                     	goto	l3301
  5028  0BE4  2BEE               u3980:
  5029  0BE5                     	line	60
  5030                           	
  5031                           l3299:	
  5032  0BE5                     	movlw	0x0
  5033  0BE5  3000               	movwf	(___fldiv@a+3)
  5034  0BE6  00A3               	movlw	0x0
  5035  0BE7  3000               	movwf	(___fldiv@a+2)
  5036  0BE8  00A2               	movlw	0x0
  5037  0BE9  3000               	movwf	(___fldiv@a+1)
  5038  0BEA  00A1               	movlw	0x0
  5039  0BEB  3000               	movwf	(___fldiv@a)
  5040  0BEC  00A0               
  5041                           	goto	l3301
  5042  0BED  2BEE               	line	61
  5043                           	
  5044                           l752:	
  5045  0BEE                     	line	63
  5046                           	
  5047                           l3301:	
  5048  0BEE                     	bsf	(___fldiv@a)+(23/8),(23)&7
  5049  0BEE  17A2               	line	65
  5050                           	
  5051                           l3303:	
  5052  0BEF                     	clrf	0+(___fldiv@a)+03h
  5053  0BEF  01A3               	line	66
  5054                           	goto	l753
  5055  0BF0  2BF9               	line	67
  5056                           	
  5057                           l751:	
  5058  0BF1                     	line	69
  5059                           	
  5060                           l3305:	
  5061  0BF1                     	movlw	0x0
  5062  0BF1  3000               	movwf	(___fldiv@a+3)
  5063  0BF2  00A3               	movlw	0x0
  5064  0BF3  3000               	movwf	(___fldiv@a+2)
  5065  0BF4  00A2               	movlw	0x0
  5066  0BF5  3000               	movwf	(___fldiv@a+1)
  5067  0BF6  00A1               	movlw	0x0
  5068  0BF7  3000               	movwf	(___fldiv@a)
  5069  0BF8  00A0               
  5070                           	line	70
  5071                           	
  5072                           l753:	
  5073  0BF9                     	line	75
  5074                           	movf	(___fldiv@a+3),w
  5075  0BF9  0823               	iorwf	(___fldiv@a+2),w
  5076  0BFA  0422               	iorwf	(___fldiv@a+1),w
  5077  0BFB  0421               	iorwf	(___fldiv@a),w
  5078  0BFC  0420               	skipz
  5079  0BFD  1D03               	goto	u3991
  5080  0BFE  2C00               	goto	u3990
  5081  0BFF  2C01               u3991:
  5082  0C00                     	goto	l3315
  5083  0C00  2C1B               u3990:
  5084  0C01                     	line	76
  5085                           	
  5086                           l3307:	
  5087  0C01                     	movlw	high highword(0)
  5088  0C01  3000               	movwf	(___fldiv@b+3)
  5089  0C02  00A7               	movlw	low highword(0)
  5090  0C03  3000               	movwf	(___fldiv@b+2)
  5091  0C04  00A6               	movlw	high(0)
  5092  0C05  3000               	movwf	(___fldiv@b+1)
  5093  0C06  00A5               	movlw	low(0)
  5094  0C07  3000               	movwf	(___fldiv@b)
  5095  0C08  00A4               
  5096                           	line	77
  5097                           	movlw	080h
  5098  0C09  3080               	iorwf	0+(___fldiv@b)+02h,f
  5099  0C0A  04A6               	movlw	07Fh
  5100  0C0B  307F               	iorwf	1+(___fldiv@b)+02h,f
  5101  0C0C  04A7               	line	78
  5102                           	
  5103                           l3309:	
  5104  0C0D                     	movf	(___fldiv@sign),w
  5105  0C0D  082C               	movwf	(??___fldiv+0)+0
  5106  0C0E  00F3               	movf	(??___fldiv+0)+0,w
  5107  0C0F  0873               	iorwf	0+(___fldiv@b)+03h,f
  5108  0C10  04A7               	line	79
  5109                           	
  5110                           l3311:	
  5111  0C11                     	movf	(___fldiv@b+3),w
  5112  0C11  0827               	movwf	(?___fldiv+3)
  5113  0C12  00A3               	movf	(___fldiv@b+2),w
  5114  0C13  0826               	movwf	(?___fldiv+2)
  5115  0C14  00A2               	movf	(___fldiv@b+1),w
  5116  0C15  0825               	movwf	(?___fldiv+1)
  5117  0C16  00A1               	movf	(___fldiv@b),w
  5118  0C17  0824               	movwf	(?___fldiv)
  5119  0C18  00A0               
  5120                           	goto	l755
  5121  0C19  2DA0               	
  5122                           l3313:	
  5123  0C1A                     	goto	l755
  5124  0C1A  2DA0               	line	80
  5125                           	
  5126                           l754:	
  5127  0C1B                     	line	83
  5128                           	
  5129                           l3315:	
  5130  0C1B                     	movf	((___fldiv@bexp)),w
  5131  0C1B  0833               	btfss	status,2
  5132  0C1C  1D03               	goto	u4001
  5133  0C1D  2C1F               	goto	u4000
  5134  0C1E  2C20               u4001:
  5135  0C1F                     	goto	l3321
  5136  0C1F  2C32               u4000:
  5137  0C20                     	line	84
  5138                           	
  5139                           l3317:	
  5140  0C20                     	movlw	high highword(0)
  5141  0C20  3000               	movwf	(___fldiv@b+3)
  5142  0C21  00A7               	movlw	low highword(0)
  5143  0C22  3000               	movwf	(___fldiv@b+2)
  5144  0C23  00A6               	movlw	high(0)
  5145  0C24  3000               	movwf	(___fldiv@b+1)
  5146  0C25  00A5               	movlw	low(0)
  5147  0C26  3000               	movwf	(___fldiv@b)
  5148  0C27  00A4               
  5149                           	line	85
  5150                           	movf	(___fldiv@b+3),w
  5151  0C28  0827               	movwf	(?___fldiv+3)
  5152  0C29  00A3               	movf	(___fldiv@b+2),w
  5153  0C2A  0826               	movwf	(?___fldiv+2)
  5154  0C2B  00A2               	movf	(___fldiv@b+1),w
  5155  0C2C  0825               	movwf	(?___fldiv+1)
  5156  0C2D  00A1               	movf	(___fldiv@b),w
  5157  0C2E  0824               	movwf	(?___fldiv)
  5158  0C2F  00A0               
  5159                           	goto	l755
  5160  0C30  2DA0               	
  5161                           l3319:	
  5162  0C31                     	goto	l755
  5163  0C31  2DA0               	line	86
  5164                           	
  5165                           l756:	
  5166  0C32                     	line	89
  5167                           	
  5168                           l3321:	
  5169  0C32                     	movf	(___fldiv@aexp),w
  5170  0C32  0834               	movwf	(??___fldiv+0)+0
  5171  0C33  00F3               	clrf	(??___fldiv+0)+0+1
  5172  0C34  01F4               	comf	(??___fldiv+0)+0,f
  5173  0C35  09F3               	comf	(??___fldiv+0)+1,f
  5174  0C36  09F4               	incf	(??___fldiv+0)+0,f
  5175  0C37  0AF3               	skipnz
  5176  0C38  1903               	incf	(??___fldiv+0)+1,f
  5177  0C39  0AF4               	movf	(___fldiv@bexp),w
  5178  0C3A  0833               	addwf	0+(??___fldiv+0)+0,w
  5179  0C3B  0773               	movwf	(??___fldiv+2)+0
  5180  0C3C  00F5               	movf	1+(??___fldiv+0)+0,w
  5181  0C3D  0874               	skipnc
  5182  0C3E  1803               	incf	1+(??___fldiv+0)+0,w
  5183  0C3F  0A74               	movwf	((??___fldiv+2)+0)+1
  5184  0C40  00F6               	movf	0+(??___fldiv+2)+0,w
  5185  0C41  0875               	addlw	low(07Fh)
  5186  0C42  3E7F               	movwf	(___fldiv@new_exp)
  5187  0C43  00AD               	movf	1+(??___fldiv+2)+0,w
  5188  0C44  0876               	skipnc
  5189  0C45  1803               	addlw	1
  5190  0C46  3E01               	addlw	high(07Fh)
  5191  0C47  3E00               	movwf	1+(___fldiv@new_exp)
  5192  0C48  00AE               	line	92
  5193                           	
  5194                           l3323:	
  5195  0C49                     	movf	(___fldiv@b+3),w
  5196  0C49  0827               	movwf	(___fldiv@rem+3)
  5197  0C4A  00AB               	movf	(___fldiv@b+2),w
  5198  0C4B  0826               	movwf	(___fldiv@rem+2)
  5199  0C4C  00AA               	movf	(___fldiv@b+1),w
  5200  0C4D  0825               	movwf	(___fldiv@rem+1)
  5201  0C4E  00A9               	movf	(___fldiv@b),w
  5202  0C4F  0824               	movwf	(___fldiv@rem)
  5203  0C50  00A8               
  5204                           	line	93
  5205                           	
  5206                           l3325:	
  5207  0C51                     	movlw	high highword(0)
  5208  0C51  3000               	movwf	(___fldiv@b+3)
  5209  0C52  00A7               	movlw	low highword(0)
  5210  0C53  3000               	movwf	(___fldiv@b+2)
  5211  0C54  00A6               	movlw	high(0)
  5212  0C55  3000               	movwf	(___fldiv@b+1)
  5213  0C56  00A5               	movlw	low(0)
  5214  0C57  3000               	movwf	(___fldiv@b)
  5215  0C58  00A4               
  5216                           	line	94
  5217                           	
  5218                           l3327:	
  5219  0C59                     	movlw	high highword(0)
  5220  0C59  3000               	movwf	(___fldiv@grs+3)
  5221  0C5A  00B2               	movlw	low highword(0)
  5222  0C5B  3000               	movwf	(___fldiv@grs+2)
  5223  0C5C  00B1               	movlw	high(0)
  5224  0C5D  3000               	movwf	(___fldiv@grs+1)
  5225  0C5E  00B0               	movlw	low(0)
  5226  0C5F  3000               	movwf	(___fldiv@grs)
  5227  0C60  00AF               
  5228                           	line	96
  5229                           	
  5230                           l3329:	
  5231  0C61                     	clrf	(___fldiv@aexp)
  5232  0C61  01B4               	line	97
  5233                           	goto	l3349
  5234  0C62  2CB1               	
  5235                           l758:	
  5236  0C63                     	line	100
  5237                           	
  5238                           l3331:	
  5239  0C63                     	movf	((___fldiv@aexp)),w
  5240  0C63  0834               	btfsc	status,2
  5241  0C64  1903               	goto	u4011
  5242  0C65  2C67               	goto	u4010
  5243  0C66  2C68               u4011:
  5244  0C67                     	goto	l3341
  5245  0C67  2C8A               u4010:
  5246  0C68                     	line	101
  5247                           	
  5248                           l3333:	
  5249  0C68                     	movlw	01h
  5250  0C68  3001               	movwf	(??___fldiv+0)+0
  5251  0C69  00F3               u4025:
  5252  0C6A                     	clrc
  5253  0C6A  1003               	rlf	(___fldiv@rem),f
  5254  0C6B  0DA8               	rlf	(___fldiv@rem+1),f
  5255  0C6C  0DA9               	rlf	(___fldiv@rem+2),f
  5256  0C6D  0DAA               	rlf	(___fldiv@rem+3),f
  5257  0C6E  0DAB               	decfsz	(??___fldiv+0)+0
  5258  0C6F  0BF3               	goto	u4025
  5259  0C70  2C6A               	line	102
  5260                           	movlw	01h
  5261  0C71  3001               	movwf	(??___fldiv+0)+0
  5262  0C72  00F3               u4035:
  5263  0C73                     	clrc
  5264  0C73  1003               	rlf	(___fldiv@b),f
  5265  0C74  0DA4               	rlf	(___fldiv@b+1),f
  5266  0C75  0DA5               	rlf	(___fldiv@b+2),f
  5267  0C76  0DA6               	rlf	(___fldiv@b+3),f
  5268  0C77  0DA7               	decfsz	(??___fldiv+0)+0
  5269  0C78  0BF3               	goto	u4035
  5270  0C79  2C73               	line	103
  5271                           	
  5272                           l3335:	
  5273  0C7A                     	btfss	(___fldiv@grs+3),(31)&7
  5274  0C7A  1FB2               	goto	u4041
  5275  0C7B  2C7D               	goto	u4040
  5276  0C7C  2C7E               u4041:
  5277  0C7D                     	goto	l3339
  5278  0C7D  2C80               u4040:
  5279  0C7E                     	line	104
  5280                           	
  5281                           l3337:	
  5282  0C7E                     	bsf	(___fldiv@b)+(0/8),(0)&7
  5283  0C7E  1424               	goto	l3339
  5284  0C7F  2C80               	line	105
  5285                           	
  5286                           l760:	
  5287  0C80                     	line	106
  5288                           	
  5289                           l3339:	
  5290  0C80                     	movlw	01h
  5291  0C80  3001               	movwf	(??___fldiv+0)+0
  5292  0C81  00F3               u4055:
  5293  0C82                     	clrc
  5294  0C82  1003               	rlf	(___fldiv@grs),f
  5295  0C83  0DAF               	rlf	(___fldiv@grs+1),f
  5296  0C84  0DB0               	rlf	(___fldiv@grs+2),f
  5297  0C85  0DB1               	rlf	(___fldiv@grs+3),f
  5298  0C86  0DB2               	decfsz	(??___fldiv+0)+0
  5299  0C87  0BF3               	goto	u4055
  5300  0C88  2C82               	goto	l3341
  5301  0C89  2C8A               	line	107
  5302                           	
  5303                           l759:	
  5304  0C8A                     	line	112
  5305                           	
  5306                           l3341:	
  5307  0C8A                     	movf	(___fldiv@a+3),w
  5308  0C8A  0823               	subwf	(___fldiv@rem+3),w
  5309  0C8B  022B               	skipz
  5310  0C8C  1D03               	goto	u4065
  5311  0C8D  2C98               	movf	(___fldiv@a+2),w
  5312  0C8E  0822               	subwf	(___fldiv@rem+2),w
  5313  0C8F  022A               	skipz
  5314  0C90  1D03               	goto	u4065
  5315  0C91  2C98               	movf	(___fldiv@a+1),w
  5316  0C92  0821               	subwf	(___fldiv@rem+1),w
  5317  0C93  0229               	skipz
  5318  0C94  1D03               	goto	u4065
  5319  0C95  2C98               	movf	(___fldiv@a),w
  5320  0C96  0820               	subwf	(___fldiv@rem),w
  5321  0C97  0228               u4065:
  5322  0C98                     	skipc
  5323  0C98  1C03               	goto	u4061
  5324  0C99  2C9B               	goto	u4060
  5325  0C9A  2C9C               u4061:
  5326  0C9B                     	goto	l3347
  5327  0C9B  2CAC               u4060:
  5328  0C9C                     	line	115
  5329                           	
  5330                           l3343:	
  5331  0C9C                     	bsf	(___fldiv@grs)+(30/8),(30)&7
  5332  0C9C  1732               	line	116
  5333                           	
  5334                           l3345:	
  5335  0C9D                     	movf	(___fldiv@a),w
  5336  0C9D  0820               	subwf	(___fldiv@rem),f
  5337  0C9E  02A8               	movf	(___fldiv@a+1),w
  5338  0C9F  0821               	skipc
  5339  0CA0  1C03               	incfsz	(___fldiv@a+1),w
  5340  0CA1  0F21               	subwf	(___fldiv@rem+1),f
  5341  0CA2  02A9               	movf	(___fldiv@a+2),w
  5342  0CA3  0822               	skipc
  5343  0CA4  1C03               	incfsz	(___fldiv@a+2),w
  5344  0CA5  0F22               	subwf	(___fldiv@rem+2),f
  5345  0CA6  02AA               	movf	(___fldiv@a+3),w
  5346  0CA7  0823               	skipc
  5347  0CA8  1C03               	incfsz	(___fldiv@a+3),w
  5348  0CA9  0F23               	subwf	(___fldiv@rem+3),f
  5349  0CAA  02AB               	goto	l3347
  5350  0CAB  2CAC               	line	117
  5351                           	
  5352                           l761:	
  5353  0CAC                     	line	118
  5354                           	
  5355                           l3347:	
  5356  0CAC                     	movlw	low(01h)
  5357  0CAC  3001               	movwf	(??___fldiv+0)+0
  5358  0CAD  00F3               	movf	(??___fldiv+0)+0,w
  5359  0CAE  0873               	addwf	(___fldiv@aexp),f
  5360  0CAF  07B4               	goto	l3349
  5361  0CB0  2CB1               	line	119
  5362                           	
  5363                           l757:	
  5364  0CB1                     	line	97
  5365                           	
  5366                           l3349:	
  5367  0CB1                     	movlw	low(01Ah)
  5368  0CB1  301A               	subwf	(___fldiv@aexp),w
  5369  0CB2  0234               	skipc
  5370  0CB3  1C03               	goto	u4071
  5371  0CB4  2CB6               	goto	u4070
  5372  0CB5  2CB7               u4071:
  5373  0CB6                     	goto	l3331
  5374  0CB6  2C63               u4070:
  5375  0CB7                     	goto	l3351
  5376  0CB7  2CB8               	
  5377                           l762:	
  5378  0CB8                     	line	122
  5379                           	
  5380                           l3351:	
  5381  0CB8                     	movf	(___fldiv@rem+3),w
  5382  0CB8  082B               	iorwf	(___fldiv@rem+2),w
  5383  0CB9  042A               	iorwf	(___fldiv@rem+1),w
  5384  0CBA  0429               	iorwf	(___fldiv@rem),w
  5385  0CBB  0428               	skipnz
  5386  0CBC  1903               	goto	u4081
  5387  0CBD  2CBF               	goto	u4080
  5388  0CBE  2CC0               u4081:
  5389  0CBF                     	goto	l3365
  5390  0CBF  2CE2               u4080:
  5391  0CC0                     	line	123
  5392                           	
  5393                           l3353:	
  5394  0CC0                     	bsf	(___fldiv@grs)+(0/8),(0)&7
  5395  0CC0  142F               	goto	l3365
  5396  0CC1  2CE2               	line	124
  5397                           	
  5398                           l763:	
  5399  0CC2                     	line	127
  5400                           	goto	l3365
  5401  0CC2  2CE2               	
  5402                           l765:	
  5403  0CC3                     	line	128
  5404                           	
  5405                           l3355:	
  5406  0CC3                     	movlw	01h
  5407  0CC3  3001               	movwf	(??___fldiv+0)+0
  5408  0CC4  00F3               u4095:
  5409  0CC5                     	clrc
  5410  0CC5  1003               	rlf	(___fldiv@b),f
  5411  0CC6  0DA4               	rlf	(___fldiv@b+1),f
  5412  0CC7  0DA5               	rlf	(___fldiv@b+2),f
  5413  0CC8  0DA6               	rlf	(___fldiv@b+3),f
  5414  0CC9  0DA7               	decfsz	(??___fldiv+0)+0
  5415  0CCA  0BF3               	goto	u4095
  5416  0CCB  2CC5               	line	129
  5417                           	
  5418                           l3357:	
  5419  0CCC                     	btfss	(___fldiv@grs+3),(31)&7
  5420  0CCC  1FB2               	goto	u4101
  5421  0CCD  2CCF               	goto	u4100
  5422  0CCE  2CD0               u4101:
  5423  0CCF                     	goto	l3361
  5424  0CCF  2CD2               u4100:
  5425  0CD0                     	line	130
  5426                           	
  5427                           l3359:	
  5428  0CD0                     	bsf	(___fldiv@b)+(0/8),(0)&7
  5429  0CD0  1424               	goto	l3361
  5430  0CD1  2CD2               	line	131
  5431                           	
  5432                           l766:	
  5433  0CD2                     	line	132
  5434                           	
  5435                           l3361:	
  5436  0CD2                     	movlw	01h
  5437  0CD2  3001               	movwf	(??___fldiv+0)+0
  5438  0CD3  00F3               u4115:
  5439  0CD4                     	clrc
  5440  0CD4  1003               	rlf	(___fldiv@grs),f
  5441  0CD5  0DAF               	rlf	(___fldiv@grs+1),f
  5442  0CD6  0DB0               	rlf	(___fldiv@grs+2),f
  5443  0CD7  0DB1               	rlf	(___fldiv@grs+3),f
  5444  0CD8  0DB2               	decfsz	(??___fldiv+0)+0
  5445  0CD9  0BF3               	goto	u4115
  5446  0CDA  2CD4               	line	133
  5447                           	
  5448                           l3363:	
  5449  0CDB                     	movlw	0FFh
  5450  0CDB  30FF               	addwf	(___fldiv@new_exp),f
  5451  0CDC  07AD               	skipnc
  5452  0CDD  1803               	incf	(___fldiv@new_exp+1),f
  5453  0CDE  0AAE               	movlw	0FFh
  5454  0CDF  30FF               	addwf	(___fldiv@new_exp+1),f
  5455  0CE0  07AE               	goto	l3365
  5456  0CE1  2CE2               	line	134
  5457                           	
  5458                           l764:	
  5459  0CE2                     	line	127
  5460                           	
  5461                           l3365:	
  5462  0CE2                     	btfss	(___fldiv@b+2),(23)&7
  5463  0CE2  1FA6               	goto	u4121
  5464  0CE3  2CE5               	goto	u4120
  5465  0CE4  2CE6               u4121:
  5466  0CE5                     	goto	l3355
  5467  0CE5  2CC3               u4120:
  5468  0CE6                     	goto	l3367
  5469  0CE6  2CE7               	
  5470                           l767:	
  5471  0CE7                     	line	139
  5472                           	
  5473                           l3367:	
  5474  0CE7                     	clrf	(___fldiv@aexp)
  5475  0CE7  01B4               	line	140
  5476                           	
  5477                           l3369:	
  5478  0CE8                     	btfss	(___fldiv@grs+3),(31)&7
  5479  0CE8  1FB2               	goto	u4131
  5480  0CE9  2CEB               	goto	u4130
  5481  0CEA  2CEC               u4131:
  5482  0CEB                     	goto	l3377
  5483  0CEB  2D0C               u4130:
  5484  0CEC                     	line	141
  5485                           	
  5486                           l3371:	
  5487  0CEC                     	movlw	0FFh
  5488  0CEC  30FF               	andwf	(___fldiv@grs),w
  5489  0CED  052F               	movwf	(??___fldiv+0)+0
  5490  0CEE  00F3               	movlw	0FFh
  5491  0CEF  30FF               	andwf	(___fldiv@grs+1),w
  5492  0CF0  0530               	movwf	((??___fldiv+0)+0+1)
  5493  0CF1  00F4               	movlw	0FFh
  5494  0CF2  30FF               	andwf	(___fldiv@grs+2),w
  5495  0CF3  0531               	movwf	((??___fldiv+0)+0+2)
  5496  0CF4  00F5               	movlw	07Fh
  5497  0CF5  307F               	andwf	(___fldiv@grs+3),w
  5498  0CF6  0532               	movwf	((??___fldiv+0)+0+3)
  5499  0CF7  00F6               	movf	3+(??___fldiv+0)+0,w
  5500  0CF8  0876               	iorwf	2+(??___fldiv+0)+0,w
  5501  0CF9  0475               	iorwf	1+(??___fldiv+0)+0,w
  5502  0CFA  0474               	iorwf	0+(??___fldiv+0)+0,w
  5503  0CFB  0473               	skipnz
  5504  0CFC  1903               	goto	u4141
  5505  0CFD  2CFF               	goto	u4140
  5506  0CFE  2D00               u4141:
  5507  0CFF                     	goto	l769
  5508  0CFF  2D03               u4140:
  5509  0D00                     	line	142
  5510                           	
  5511                           l3373:	
  5512  0D00                     	clrf	(___fldiv@aexp)
  5513  0D00  01B4               	incf	(___fldiv@aexp),f
  5514  0D01  0AB4               	line	143
  5515                           	goto	l3377
  5516  0D02  2D0C               	line	144
  5517                           	
  5518                           l769:	
  5519  0D03                     	line	145
  5520                           	btfss	(___fldiv@b),(0)&7
  5521  0D03  1C24               	goto	u4151
  5522  0D04  2D06               	goto	u4150
  5523  0D05  2D07               u4151:
  5524  0D06                     	goto	l3377
  5525  0D06  2D0C               u4150:
  5526  0D07                     	line	146
  5527                           	
  5528                           l3375:	
  5529  0D07                     	clrf	(___fldiv@aexp)
  5530  0D07  01B4               	incf	(___fldiv@aexp),f
  5531  0D08  0AB4               	goto	l3377
  5532  0D09  2D0C               	line	147
  5533                           	
  5534                           l771:	
  5535  0D0A                     	goto	l3377
  5536  0D0A  2D0C               	line	148
  5537                           	
  5538                           l770:	
  5539  0D0B                     	goto	l3377
  5540  0D0B  2D0C               	line	149
  5541                           	
  5542                           l768:	
  5543  0D0C                     	line	150
  5544                           	
  5545                           l3377:	
  5546  0D0C                     	movf	((___fldiv@aexp)),w
  5547  0D0C  0834               	btfsc	status,2
  5548  0D0D  1903               	goto	u4161
  5549  0D0E  2D10               	goto	u4160
  5550  0D0F  2D11               u4161:
  5551  0D10                     	goto	l3387
  5552  0D10  2D44               u4160:
  5553  0D11                     	line	151
  5554                           	
  5555                           l3379:	
  5556  0D11                     	movlw	01h
  5557  0D11  3001               	addwf	(___fldiv@b),f
  5558  0D12  07A4               	movlw	0
  5559  0D13  3000               	skipnc
  5560  0D14  1803               movlw 1
  5561  0D15  3001               	addwf	(___fldiv@b+1),f
  5562  0D16  07A5               	movlw	0
  5563  0D17  3000               	skipnc
  5564  0D18  1803               movlw 1
  5565  0D19  3001               	addwf	(___fldiv@b+2),f
  5566  0D1A  07A6               	movlw	0
  5567  0D1B  3000               	skipnc
  5568  0D1C  1803               movlw 1
  5569  0D1D  3001               	addwf	(___fldiv@b+3),f
  5570  0D1E  07A7               	line	152
  5571                           	
  5572                           l3381:	
  5573  0D1F                     	btfss	(___fldiv@b+3),(24)&7
  5574  0D1F  1C27               	goto	u4171
  5575  0D20  2D22               	goto	u4170
  5576  0D21  2D23               u4171:
  5577  0D22                     	goto	l3387
  5578  0D22  2D44               u4170:
  5579  0D23                     	line	153
  5580                           	
  5581                           l3383:	
  5582  0D23                     	movf	(___fldiv@b),w
  5583  0D23  0824               	movwf	(??___fldiv+0)+0
  5584  0D24  00F3               	movf	(___fldiv@b+1),w
  5585  0D25  0825               	movwf	((??___fldiv+0)+0+1)
  5586  0D26  00F4               	movf	(___fldiv@b+2),w
  5587  0D27  0826               	movwf	((??___fldiv+0)+0+2)
  5588  0D28  00F5               	movf	(___fldiv@b+3),w
  5589  0D29  0827               	movwf	((??___fldiv+0)+0+3)
  5590  0D2A  00F6               	movlw	01h
  5591  0D2B  3001               	movwf	(??___fldiv+4)+0
  5592  0D2C  00F7               u4185:
  5593  0D2D                     	rlf	(??___fldiv+0)+3,w
  5594  0D2D  0D76               	rrf	(??___fldiv+0)+3,f
  5595  0D2E  0CF6               	rrf	(??___fldiv+0)+2,f
  5596  0D2F  0CF5               	rrf	(??___fldiv+0)+1,f
  5597  0D30  0CF4               	rrf	(??___fldiv+0)+0,f
  5598  0D31  0CF3               u4180:
  5599  0D32                     	decfsz	(??___fldiv+4)+0,f
  5600  0D32  0BF7               	goto	u4185
  5601  0D33  2D2D               	movf	3+(??___fldiv+0)+0,w
  5602  0D34  0876               	movwf	(___fldiv@b+3)
  5603  0D35  00A7               	movf	2+(??___fldiv+0)+0,w
  5604  0D36  0875               	movwf	(___fldiv@b+2)
  5605  0D37  00A6               	movf	1+(??___fldiv+0)+0,w
  5606  0D38  0874               	movwf	(___fldiv@b+1)
  5607  0D39  00A5               	movf	0+(??___fldiv+0)+0,w
  5608  0D3A  0873               	movwf	(___fldiv@b)
  5609  0D3B  00A4               
  5610                           	line	154
  5611                           	
  5612                           l3385:	
  5613  0D3C                     	movlw	01h
  5614  0D3C  3001               	addwf	(___fldiv@new_exp),f
  5615  0D3D  07AD               	skipnc
  5616  0D3E  1803               	incf	(___fldiv@new_exp+1),f
  5617  0D3F  0AAE               	movlw	0
  5618  0D40  3000               	addwf	(___fldiv@new_exp+1),f
  5619  0D41  07AE               	goto	l3387
  5620  0D42  2D44               	line	155
  5621                           	
  5622                           l773:	
  5623  0D43                     	goto	l3387
  5624  0D43  2D44               	line	156
  5625                           	
  5626                           l772:	
  5627  0D44                     	line	159
  5628                           	
  5629                           l3387:	
  5630  0D44                     	movf	(___fldiv@new_exp+1),w
  5631  0D44  082E               	xorlw	80h
  5632  0D45  3A80               	movwf	btemp+1
  5633  0D46  00FF               	movlw	(0)^80h
  5634  0D47  3080               	subwf	btemp+1,w
  5635  0D48  027F               	skipz
  5636  0D49  1D03               	goto	u4195
  5637  0D4A  2D4D               	movlw	0FFh
  5638  0D4B  30FF               	subwf	(___fldiv@new_exp),w
  5639  0D4C  022D               u4195:
  5640  0D4D                     
  5641                           	skipc
  5642  0D4D  1C03               	goto	u4191
  5643  0D4E  2D50               	goto	u4190
  5644  0D4F  2D51               u4191:
  5645  0D50                     	goto	l3391
  5646  0D50  2D60               u4190:
  5647  0D51                     	line	160
  5648                           	
  5649                           l3389:	
  5650  0D51                     	movlw	0FFh
  5651  0D51  30FF               	bcf	status, 5	;RP0=0, select bank0
  5652  0D52  1283               	bcf	status, 6	;RP1=0, select bank0
  5653  0D53  1303               	movwf	(___fldiv@new_exp)
  5654  0D54  00AD               	movlw	0
  5655  0D55  3000               	movwf	((___fldiv@new_exp))+1
  5656  0D56  00AE               	line	161
  5657                           	movlw	high highword(0)
  5658  0D57  3000               	movwf	(___fldiv@b+3)
  5659  0D58  00A7               	movlw	low highword(0)
  5660  0D59  3000               	movwf	(___fldiv@b+2)
  5661  0D5A  00A6               	movlw	high(0)
  5662  0D5B  3000               	movwf	(___fldiv@b+1)
  5663  0D5C  00A5               	movlw	low(0)
  5664  0D5D  3000               	movwf	(___fldiv@b)
  5665  0D5E  00A4               
  5666                           	goto	l3391
  5667  0D5F  2D60               	line	162
  5668                           	
  5669                           l774:	
  5670  0D60                     	line	165
  5671                           	
  5672                           l3391:	
  5673  0D60                     	bcf	status, 5	;RP0=0, select bank0
  5674  0D60  1283               	bcf	status, 6	;RP1=0, select bank0
  5675  0D61  1303               	movf	(___fldiv@new_exp+1),w
  5676  0D62  082E               	xorlw	80h
  5677  0D63  3A80               	movwf	btemp+1
  5678  0D64  00FF               	movlw	(0)^80h
  5679  0D65  3080               	subwf	btemp+1,w
  5680  0D66  027F               	skipz
  5681  0D67  1D03               	goto	u4205
  5682  0D68  2D6B               	movlw	01h
  5683  0D69  3001               	subwf	(___fldiv@new_exp),w
  5684  0D6A  022D               u4205:
  5685  0D6B                     
  5686                           	skipnc
  5687  0D6B  1803               	goto	u4201
  5688  0D6C  2D6E               	goto	u4200
  5689  0D6D  2D6F               u4201:
  5690  0D6E                     	goto	l775
  5691  0D6E  2D7C               u4200:
  5692  0D6F                     	line	166
  5693                           	
  5694                           l3393:	
  5695  0D6F                     	bcf	status, 5	;RP0=0, select bank0
  5696  0D6F  1283               	bcf	status, 6	;RP1=0, select bank0
  5697  0D70  1303               	clrf	(___fldiv@new_exp)
  5698  0D71  01AD               	clrf	(___fldiv@new_exp+1)
  5699  0D72  01AE               	line	167
  5700                           	
  5701                           l3395:	
  5702  0D73                     	movlw	high highword(0)
  5703  0D73  3000               	movwf	(___fldiv@b+3)
  5704  0D74  00A7               	movlw	low highword(0)
  5705  0D75  3000               	movwf	(___fldiv@b+2)
  5706  0D76  00A6               	movlw	high(0)
  5707  0D77  3000               	movwf	(___fldiv@b+1)
  5708  0D78  00A5               	movlw	low(0)
  5709  0D79  3000               	movwf	(___fldiv@b)
  5710  0D7A  00A4               
  5711                           	line	169
  5712                           	
  5713                           l3397:	
  5714  0D7B                     	clrf	(___fldiv@sign)
  5715  0D7B  01AC               	line	170
  5716                           	
  5717                           l775:	
  5718  0D7C                     	line	173
  5719                           	bcf	status, 5	;RP0=0, select bank0
  5720  0D7C  1283               	bcf	status, 6	;RP1=0, select bank0
  5721  0D7D  1303               	movf	(___fldiv@new_exp),w
  5722  0D7E  082D               	movwf	(??___fldiv+0)+0
  5723  0D7F  00F3               	movf	(??___fldiv+0)+0,w
  5724  0D80  0873               	movwf	(___fldiv@bexp)
  5725  0D81  00B3               	line	175
  5726                           	
  5727                           l3399:	
  5728  0D82                     	btfss	(___fldiv@bexp),(0)&7
  5729  0D82  1C33               	goto	u4211
  5730  0D83  2D85               	goto	u4210
  5731  0D84  2D86               u4211:
  5732  0D85                     	goto	l3403
  5733  0D85  2D88               u4210:
  5734  0D86                     	line	176
  5735                           	
  5736                           l3401:	
  5737  0D86                     	bsf	0+(___fldiv@b)+02h+(7/8),(7)&7
  5738  0D86  17A6               	line	177
  5739                           	goto	l777
  5740  0D87  2D8C               	line	179
  5741                           	
  5742                           l776:	
  5743  0D88                     	line	180
  5744                           	
  5745                           l3403:	
  5746  0D88                     	movlw	low(07Fh)
  5747  0D88  307F               	movwf	(??___fldiv+0)+0
  5748  0D89  00F3               	movf	(??___fldiv+0)+0,w
  5749  0D8A  0873               	andwf	0+(___fldiv@b)+02h,f
  5750  0D8B  05A6               	line	181
  5751                           	
  5752                           l777:	
  5753  0D8C                     	line	182
  5754                           	movf	(___fldiv@bexp),w
  5755  0D8C  0833               	movwf	(??___fldiv+0)+0
  5756  0D8D  00F3               	clrc
  5757  0D8E  1003               	rrf	(??___fldiv+0)+0,w
  5758  0D8F  0C73               	movwf	(??___fldiv+1)+0
  5759  0D90  00F4               	movf	(??___fldiv+1)+0,w
  5760  0D91  0874               	movwf	0+(___fldiv@b)+03h
  5761  0D92  00A7               	line	183
  5762                           	movf	(___fldiv@sign),w
  5763  0D93  082C               	movwf	(??___fldiv+0)+0
  5764  0D94  00F3               	movf	(??___fldiv+0)+0,w
  5765  0D95  0873               	iorwf	0+(___fldiv@b)+03h,f
  5766  0D96  04A7               	line	184
  5767                           	
  5768                           l3405:	
  5769  0D97                     	movf	(___fldiv@b+3),w
  5770  0D97  0827               	movwf	(?___fldiv+3)
  5771  0D98  00A3               	movf	(___fldiv@b+2),w
  5772  0D99  0826               	movwf	(?___fldiv+2)
  5773  0D9A  00A2               	movf	(___fldiv@b+1),w
  5774  0D9B  0825               	movwf	(?___fldiv+1)
  5775  0D9C  00A1               	movf	(___fldiv@b),w
  5776  0D9D  0824               	movwf	(?___fldiv)
  5777  0D9E  00A0               
  5778                           	goto	l755
  5779  0D9F  2DA0               	
  5780                           l3407:	
  5781  0DA0                     	line	185
  5782                           	
  5783                           l755:	
  5784  0DA0                     	return
  5785  0DA0  0008               	opt stack 0
  5786                           GLOBAL	__end_of___fldiv
  5787                           	__end_of___fldiv:
  5788  0DA1                     	signat	___fldiv,8316
  5789                           	global	___fladd
  5790                           
  5791 ;; *************** function ___fladd *****************
  5792 ;; Defined at:
  5793 ;;		line 10 in file "C:\Program Files (x86)\Microchip\xc8\v2.00\pic\sources\c90\common\sprcadd.c"
  5794 ;; Parameters:    Size  Location     Type
  5795 ;;  b               4   42[BANK0 ] unsigned char 
  5796 ;;  a               4   46[BANK0 ] unsigned char 
  5797 ;; Auto vars:     Size  Location     Type
  5798 ;;  grs             1   65[BANK0 ] unsigned char 
  5799 ;;  bexp            1   64[BANK0 ] unsigned char 
  5800 ;;  aexp            1   63[BANK0 ] unsigned char 
  5801 ;;  signs           1   62[BANK0 ] unsigned char 
  5802 ;; Return value:  Size  Location     Type
  5803 ;;                  4   42[BANK0 ] unsigned char 
  5804 ;; Registers used:
  5805 ;;		wreg, status,2, status,0, btemp+1
  5806 ;; Tracked objects:
  5807 ;;		On entry : 0/0
  5808 ;;		On exit  : 0/0
  5809 ;;		Unchanged: 0/0
  5810 ;; Data sizes:     COMMON   BANK0   BANK1   BANK3   BANK2
  5811 ;;      Params:         0       8       0       0       0
  5812 ;;      Locals:         0       4       0       0       0
  5813 ;;      Temps:          0      12       0       0       0
  5814 ;;      Totals:         0      24       0       0       0
  5815 ;;Total ram usage:       24 bytes
  5816 ;; Hardware stack levels used:    1
  5817 ;; Hardware stack levels required when called:    1
  5818 ;; This function calls:
  5819 ;;		Nothing
  5820 ;; This function is called by:
  5821 ;;		_main
  5822 ;;		_b1
  5823 ;;		_b0
  5824 ;; This function uses a non-reentrant model
  5825 ;;
  5826                           psect	text11,local,class=CODE,delta=2,merge=1,group=1
  5827                           	file	"C:\Program Files (x86)\Microchip\xc8\v2.00\pic\sources\c90\common\sprcadd.c"
  5828                           	line	10
  5829                           global __ptext11
  5830                           __ptext11:	;psect for function ___fladd
  5831  0399                     psect	text11
  5832                           	file	"C:\Program Files (x86)\Microchip\xc8\v2.00\pic\sources\c90\common\sprcadd.c"
  5833                           	line	10
  5834                           	global	__size_of___fladd
  5835                           	__size_of___fladd	equ	__end_of___fladd-___fladd
  5836  02BC                     	
  5837                           ___fladd:	
  5838  0399                     ;incstack = 0
  5839                           	opt	stack 5
  5840                           ; Regs used in ___fladd: [wreg+status,2+status,0+btemp+1]
  5841                           	line	21
  5842                           	
  5843                           l2229:	
  5844  0399                     	bcf	status, 5	;RP0=0, select bank0
  5845  0399  1283               	bcf	status, 6	;RP1=0, select bank0
  5846  039A  1303               	movf	0+(___fladd@b)+03h,w
  5847  039B  084D               	andlw	080h
  5848  039C  3980               	movwf	(??___fladd+0)+0
  5849  039D  00D2               	movf	(??___fladd+0)+0,w
  5850  039E  0852               	movwf	(___fladd@signs)
  5851  039F  00DE               	line	22
  5852                           	
  5853                           l2231:	
  5854  03A0                     	movf	0+(___fladd@b)+03h,w
  5855  03A0  084D               	movwf	(??___fladd+0)+0
  5856  03A1  00D2               	addwf	(??___fladd+0)+0,w
  5857  03A2  0752               	movwf	(??___fladd+1)+0
  5858  03A3  00D3               	movf	(??___fladd+1)+0,w
  5859  03A4  0853               	movwf	(___fladd@bexp)
  5860  03A5  00E0               	line	23
  5861                           	
  5862                           l2233:	
  5863  03A6                     	btfss	0+(___fladd@b)+02h,(7)&7
  5864  03A6  1FCC               	goto	u2231
  5865  03A7  2BA9               	goto	u2230
  5866  03A8  2BAA               u2231:
  5867  03A9                     	goto	l2237
  5868  03A9  2BAC               u2230:
  5869  03AA                     	line	24
  5870                           	
  5871                           l2235:	
  5872  03AA                     	bsf	(___fladd@bexp)+(0/8),(0)&7
  5873  03AA  1460               	goto	l2237
  5874  03AB  2BAC               	line	25
  5875                           	
  5876                           l689:	
  5877  03AC                     	line	28
  5878                           	
  5879                           l2237:	
  5880  03AC                     	movf	((___fladd@bexp)),w
  5881  03AC  0860               	btfsc	status,2
  5882  03AD  1903               	goto	u2241
  5883  03AE  2BB0               	goto	u2240
  5884  03AF  2BB1               u2241:
  5885  03B0                     	goto	l2247
  5886  03B0  2BC2               u2240:
  5887  03B1                     	line	30
  5888                           	
  5889                           l2239:	
  5890  03B1                     		incf	((___fladd@bexp)),w
  5891  03B1  0A60               	btfss	status,2
  5892  03B2  1D03               	goto	u2251
  5893  03B3  2BB5               	goto	u2250
  5894  03B4  2BB6               u2251:
  5895  03B5                     	goto	l2243
  5896  03B5  2BBF               u2250:
  5897  03B6                     	line	32
  5898                           	
  5899                           l2241:	
  5900  03B6                     	movlw	0x0
  5901  03B6  3000               	movwf	(___fladd@b+3)
  5902  03B7  00CD               	movlw	0x0
  5903  03B8  3000               	movwf	(___fladd@b+2)
  5904  03B9  00CC               	movlw	0x0
  5905  03BA  3000               	movwf	(___fladd@b+1)
  5906  03BB  00CB               	movlw	0x0
  5907  03BC  3000               	movwf	(___fladd@b)
  5908  03BD  00CA               
  5909                           	goto	l2243
  5910  03BE  2BBF               	line	33
  5911                           	
  5912                           l691:	
  5913  03BF                     	line	35
  5914                           	
  5915                           l2243:	
  5916  03BF                     	bsf	(___fladd@b)+(23/8),(23)&7
  5917  03BF  17CC               	line	37
  5918                           	
  5919                           l2245:	
  5920  03C0                     	clrf	0+(___fladd@b)+03h
  5921  03C0  01CD               	line	38
  5922                           	goto	l2249
  5923  03C1  2BCB               	line	39
  5924                           	
  5925                           l690:	
  5926  03C2                     	line	41
  5927                           	
  5928                           l2247:	
  5929  03C2                     	movlw	0x0
  5930  03C2  3000               	movwf	(___fladd@b+3)
  5931  03C3  00CD               	movlw	0x0
  5932  03C4  3000               	movwf	(___fladd@b+2)
  5933  03C5  00CC               	movlw	0x0
  5934  03C6  3000               	movwf	(___fladd@b+1)
  5935  03C7  00CB               	movlw	0x0
  5936  03C8  3000               	movwf	(___fladd@b)
  5937  03C9  00CA               
  5938                           	goto	l2249
  5939  03CA  2BCB               	line	42
  5940                           	
  5941                           l692:	
  5942  03CB                     	line	44
  5943                           	
  5944                           l2249:	
  5945  03CB                     	movf	0+(___fladd@a)+03h,w
  5946  03CB  0851               	andlw	080h
  5947  03CC  3980               	movwf	(??___fladd+0)+0
  5948  03CD  00D2               	movf	(??___fladd+0)+0,w
  5949  03CE  0852               	movwf	(___fladd@aexp)
  5950  03CF  00DF               	line	46
  5951                           	
  5952                           l2251:	
  5953  03D0                     	movf	(___fladd@aexp),w
  5954  03D0  085F               	xorwf	(___fladd@signs),w
  5955  03D1  065E               	skipnz
  5956  03D2  1903               	goto	u2261
  5957  03D3  2BD5               	goto	u2260
  5958  03D4  2BD6               u2261:
  5959  03D5                     	goto	l2255
  5960  03D5  2BD8               u2260:
  5961  03D6                     	line	47
  5962                           	
  5963                           l2253:	
  5964  03D6                     	bsf	(___fladd@signs)+(6/8),(6)&7
  5965  03D6  175E               	goto	l2255
  5966  03D7  2BD8               	line	48
  5967                           	
  5968                           l693:	
  5969  03D8                     	line	49
  5970                           	
  5971                           l2255:	
  5972  03D8                     	movf	0+(___fladd@a)+03h,w
  5973  03D8  0851               	movwf	(??___fladd+0)+0
  5974  03D9  00D2               	addwf	(??___fladd+0)+0,w
  5975  03DA  0752               	movwf	(??___fladd+1)+0
  5976  03DB  00D3               	movf	(??___fladd+1)+0,w
  5977  03DC  0853               	movwf	(___fladd@aexp)
  5978  03DD  00DF               	line	50
  5979                           	
  5980                           l2257:	
  5981  03DE                     	btfss	0+(___fladd@a)+02h,(7)&7
  5982  03DE  1FD0               	goto	u2271
  5983  03DF  2BE1               	goto	u2270
  5984  03E0  2BE2               u2271:
  5985  03E1                     	goto	l2261
  5986  03E1  2BE4               u2270:
  5987  03E2                     	line	51
  5988                           	
  5989                           l2259:	
  5990  03E2                     	bsf	(___fladd@aexp)+(0/8),(0)&7
  5991  03E2  145F               	goto	l2261
  5992  03E3  2BE4               	line	52
  5993                           	
  5994                           l694:	
  5995  03E4                     	line	55
  5996                           	
  5997                           l2261:	
  5998  03E4                     	movf	((___fladd@aexp)),w
  5999  03E4  085F               	btfsc	status,2
  6000  03E5  1903               	goto	u2281
  6001  03E6  2BE8               	goto	u2280
  6002  03E7  2BE9               u2281:
  6003  03E8                     	goto	l2271
  6004  03E8  2BFA               u2280:
  6005  03E9                     	line	57
  6006                           	
  6007                           l2263:	
  6008  03E9                     		incf	((___fladd@aexp)),w
  6009  03E9  0A5F               	btfss	status,2
  6010  03EA  1D03               	goto	u2291
  6011  03EB  2BED               	goto	u2290
  6012  03EC  2BEE               u2291:
  6013  03ED                     	goto	l2267
  6014  03ED  2BF7               u2290:
  6015  03EE                     	line	59
  6016                           	
  6017                           l2265:	
  6018  03EE                     	movlw	0x0
  6019  03EE  3000               	movwf	(___fladd@a+3)
  6020  03EF  00D1               	movlw	0x0
  6021  03F0  3000               	movwf	(___fladd@a+2)
  6022  03F1  00D0               	movlw	0x0
  6023  03F2  3000               	movwf	(___fladd@a+1)
  6024  03F3  00CF               	movlw	0x0
  6025  03F4  3000               	movwf	(___fladd@a)
  6026  03F5  00CE               
  6027                           	goto	l2267
  6028  03F6  2BF7               	line	60
  6029                           	
  6030                           l696:	
  6031  03F7                     	line	62
  6032                           	
  6033                           l2267:	
  6034  03F7                     	bsf	(___fladd@a)+(23/8),(23)&7
  6035  03F7  17D0               	line	64
  6036                           	
  6037                           l2269:	
  6038  03F8                     	clrf	0+(___fladd@a)+03h
  6039  03F8  01D1               	line	65
  6040                           	goto	l697
  6041  03F9  2C02               	line	66
  6042                           	
  6043                           l695:	
  6044  03FA                     	line	68
  6045                           	
  6046                           l2271:	
  6047  03FA                     	movlw	0x0
  6048  03FA  3000               	movwf	(___fladd@a+3)
  6049  03FB  00D1               	movlw	0x0
  6050  03FC  3000               	movwf	(___fladd@a+2)
  6051  03FD  00D0               	movlw	0x0
  6052  03FE  3000               	movwf	(___fladd@a+1)
  6053  03FF  00CF               	movlw	0x0
  6054  0400  3000               	movwf	(___fladd@a)
  6055  0401  00CE               
  6056                           	line	69
  6057                           	
  6058                           l697:	
  6059  0402                     	line	75
  6060                           	movf	(___fladd@bexp),w
  6061  0402  0860               	subwf	(___fladd@aexp),w
  6062  0403  025F               	skipnc
  6063  0404  1803               	goto	u2301
  6064  0405  2C07               	goto	u2300
  6065  0406  2C08               u2301:
  6066  0407                     	goto	l2307
  6067  0407  2C4E               u2300:
  6068  0408                     	line	77
  6069                           	
  6070                           l2273:	
  6071  0408                     	btfss	(___fladd@signs),(6)&7
  6072  0408  1F5E               	goto	u2311
  6073  0409  2C0B               	goto	u2310
  6074  040A  2C0C               u2311:
  6075  040B                     	goto	l2277
  6076  040B  2C11               u2310:
  6077  040C                     	line	78
  6078                           	
  6079                           l2275:	
  6080  040C                     	movlw	low(080h)
  6081  040C  3080               	movwf	(??___fladd+0)+0
  6082  040D  00D2               	movf	(??___fladd+0)+0,w
  6083  040E  0852               	xorwf	(___fladd@signs),f
  6084  040F  06DE               	goto	l2277
  6085  0410  2C11               	line	79
  6086                           	
  6087                           l699:	
  6088  0411                     	line	81
  6089                           	
  6090                           l2277:	
  6091  0411                     	movf	(___fladd@bexp),w
  6092  0411  0860               	movwf	(??___fladd+0)+0
  6093  0412  00D2               	movf	(??___fladd+0)+0,w
  6094  0413  0852               	movwf	(___fladd@grs)
  6095  0414  00E1               	line	82
  6096                           	
  6097                           l2279:	
  6098  0415                     	movf	(___fladd@aexp),w
  6099  0415  085F               	movwf	(??___fladd+0)+0
  6100  0416  00D2               	movf	(??___fladd+0)+0,w
  6101  0417  0852               	movwf	(___fladd@bexp)
  6102  0418  00E0               	line	83
  6103                           	
  6104                           l2281:	
  6105  0419                     	movf	(___fladd@grs),w
  6106  0419  0861               	movwf	(??___fladd+0)+0
  6107  041A  00D2               	movf	(??___fladd+0)+0,w
  6108  041B  0852               	movwf	(___fladd@aexp)
  6109  041C  00DF               	line	84
  6110                           	
  6111                           l2283:	
  6112  041D                     	movf	(___fladd@b),w
  6113  041D  084A               	movwf	(??___fladd+0)+0
  6114  041E  00D2               	movf	(??___fladd+0)+0,w
  6115  041F  0852               	movwf	(___fladd@grs)
  6116  0420  00E1               	line	85
  6117                           	
  6118                           l2285:	
  6119  0421                     	movf	(___fladd@a),w
  6120  0421  084E               	movwf	(??___fladd+0)+0
  6121  0422  00D2               	movf	(??___fladd+0)+0,w
  6122  0423  0852               	movwf	(___fladd@b)
  6123  0424  00CA               	line	86
  6124                           	
  6125                           l2287:	
  6126  0425                     	movf	(___fladd@grs),w
  6127  0425  0861               	movwf	(??___fladd+0)+0
  6128  0426  00D2               	movf	(??___fladd+0)+0,w
  6129  0427  0852               	movwf	(___fladd@a)
  6130  0428  00CE               	line	87
  6131                           	
  6132                           l2289:	
  6133  0429                     	movf	0+(___fladd@b)+01h,w
  6134  0429  084B               	movwf	(??___fladd+0)+0
  6135  042A  00D2               	movf	(??___fladd+0)+0,w
  6136  042B  0852               	movwf	(___fladd@grs)
  6137  042C  00E1               	line	88
  6138                           	
  6139                           l2291:	
  6140  042D                     	movf	0+(___fladd@a)+01h,w
  6141  042D  084F               	movwf	(??___fladd+0)+0
  6142  042E  00D2               	movf	(??___fladd+0)+0,w
  6143  042F  0852               	movwf	0+(___fladd@b)+01h
  6144  0430  00CB               	line	89
  6145                           	
  6146                           l2293:	
  6147  0431                     	movf	(___fladd@grs),w
  6148  0431  0861               	movwf	(??___fladd+0)+0
  6149  0432  00D2               	movf	(??___fladd+0)+0,w
  6150  0433  0852               	movwf	0+(___fladd@a)+01h
  6151  0434  00CF               	line	90
  6152                           	
  6153                           l2295:	
  6154  0435                     	movf	0+(___fladd@b)+02h,w
  6155  0435  084C               	movwf	(??___fladd+0)+0
  6156  0436  00D2               	movf	(??___fladd+0)+0,w
  6157  0437  0852               	movwf	(___fladd@grs)
  6158  0438  00E1               	line	91
  6159                           	
  6160                           l2297:	
  6161  0439                     	movf	0+(___fladd@a)+02h,w
  6162  0439  0850               	movwf	(??___fladd+0)+0
  6163  043A  00D2               	movf	(??___fladd+0)+0,w
  6164  043B  0852               	movwf	0+(___fladd@b)+02h
  6165  043C  00CC               	line	92
  6166                           	
  6167                           l2299:	
  6168  043D                     	movf	(___fladd@grs),w
  6169  043D  0861               	movwf	(??___fladd+0)+0
  6170  043E  00D2               	movf	(??___fladd+0)+0,w
  6171  043F  0852               	movwf	0+(___fladd@a)+02h
  6172  0440  00D0               	line	93
  6173                           	
  6174                           l2301:	
  6175  0441                     	movf	0+(___fladd@b)+03h,w
  6176  0441  084D               	movwf	(??___fladd+0)+0
  6177  0442  00D2               	movf	(??___fladd+0)+0,w
  6178  0443  0852               	movwf	(___fladd@grs)
  6179  0444  00E1               	line	94
  6180                           	
  6181                           l2303:	
  6182  0445                     	movf	0+(___fladd@a)+03h,w
  6183  0445  0851               	movwf	(??___fladd+0)+0
  6184  0446  00D2               	movf	(??___fladd+0)+0,w
  6185  0447  0852               	movwf	0+(___fladd@b)+03h
  6186  0448  00CD               	line	95
  6187                           	
  6188                           l2305:	
  6189  0449                     	movf	(___fladd@grs),w
  6190  0449  0861               	movwf	(??___fladd+0)+0
  6191  044A  00D2               	movf	(??___fladd+0)+0,w
  6192  044B  0852               	movwf	0+(___fladd@a)+03h
  6193  044C  00D1               	goto	l2307
  6194  044D  2C4E               	line	96
  6195                           	
  6196                           l698:	
  6197  044E                     	line	98
  6198                           	
  6199                           l2307:	
  6200  044E                     	clrf	(___fladd@grs)
  6201  044E  01E1               	line	100
  6202                           	
  6203                           l2309:	
  6204  044F                     	movf	(___fladd@bexp),w
  6205  044F  0860               	movwf	(??___fladd+0)+0
  6206  0450  00D2               	clrf	(??___fladd+0)+0+1
  6207  0451  01D3               	comf	(??___fladd+0)+0,f
  6208  0452  09D2               	comf	(??___fladd+0)+1,f
  6209  0453  09D3               	incf	(??___fladd+0)+0,f
  6210  0454  0AD2               	skipnz
  6211  0455  1903               	incf	(??___fladd+0)+1,f
  6212  0456  0AD3               	movf	(___fladd@aexp),w
  6213  0457  085F               	addwf	0+(??___fladd+0)+0,w
  6214  0458  0752               	movwf	(??___fladd+2)+0
  6215  0459  00D4               	movf	1+(??___fladd+0)+0,w
  6216  045A  0853               	skipnc
  6217  045B  1803               	incf	1+(??___fladd+0)+0,w
  6218  045C  0A53               	movwf	((??___fladd+2)+0)+1
  6219  045D  00D5               	movf	1+(??___fladd+2)+0,w
  6220  045E  0855               	xorlw	80h
  6221  045F  3A80               	movwf	btemp+1
  6222  0460  00FF               	movlw	(0)^80h
  6223  0461  3080               	subwf	btemp+1,w
  6224  0462  027F               	skipz
  6225  0463  1D03               	goto	u2325
  6226  0464  2C67               	movlw	01Ah
  6227  0465  301A               	subwf	0+(??___fladd+2)+0,w
  6228  0466  0254               u2325:
  6229  0467                     
  6230                           	skipc
  6231  0467  1C03               	goto	u2321
  6232  0468  2C6A               	goto	u2320
  6233  0469  2C6B               u2321:
  6234  046A                     	goto	l2325
  6235  046A  2CAC               u2320:
  6236  046B                     	line	101
  6237                           	
  6238                           l2311:	
  6239  046B                     	bcf	status, 5	;RP0=0, select bank0
  6240  046B  1283               	bcf	status, 6	;RP1=0, select bank0
  6241  046C  1303               	movf	(___fladd@b+3),w
  6242  046D  084D               	iorwf	(___fladd@b+2),w
  6243  046E  044C               	iorwf	(___fladd@b+1),w
  6244  046F  044B               	iorwf	(___fladd@b),w
  6245  0470  044A               	skipz
  6246  0471  1D03               	goto	u2331
  6247  0472  2C74               	goto	u2330
  6248  0473  2C76               u2331:
  6249  0474                     	movlw	1
  6250  0474  3001               	goto	u2340
  6251  0475  2C77               u2330:
  6252  0476                     	movlw	0
  6253  0476  3000               u2340:
  6254  0477                     	movwf	(??___fladd+0)+0
  6255  0477  00D2               	movf	(??___fladd+0)+0,w
  6256  0478  0852               	movwf	(___fladd@grs)
  6257  0479  00E1               	line	102
  6258                           	movlw	high highword(0)
  6259  047A  3000               	movwf	(___fladd@b+3)
  6260  047B  00CD               	movlw	low highword(0)
  6261  047C  3000               	movwf	(___fladd@b+2)
  6262  047D  00CC               	movlw	high(0)
  6263  047E  3000               	movwf	(___fladd@b+1)
  6264  047F  00CB               	movlw	low(0)
  6265  0480  3000               	movwf	(___fladd@b)
  6266  0481  00CA               
  6267                           	line	103
  6268                           	movf	(___fladd@aexp),w
  6269  0482  085F               	movwf	(??___fladd+0)+0
  6270  0483  00D2               	movf	(??___fladd+0)+0,w
  6271  0484  0852               	movwf	(___fladd@bexp)
  6272  0485  00E0               	line	104
  6273                           	goto	l701
  6274  0486  2CB5               	line	105
  6275                           	
  6276                           l700:	
  6277  0487                     	line	106
  6278                           	goto	l2325
  6279  0487  2CAC               	
  6280                           l703:	
  6281  0488                     	line	109
  6282                           	btfss	(___fladd@grs),(0)&7
  6283  0488  1C61               	goto	u2351
  6284  0489  2C8B               	goto	u2350
  6285  048A  2C8C               u2351:
  6286  048B                     	goto	l2315
  6287  048B  2C95               u2350:
  6288  048C                     	line	110
  6289                           	
  6290                           l2313:	
  6291  048C                     	movf	(___fladd@grs),w
  6292  048C  0861               	movwf	(??___fladd+0)+0
  6293  048D  00D2               	clrc
  6294  048E  1003               	rrf	(??___fladd+0)+0,w
  6295  048F  0C52               	iorlw	01h
  6296  0490  3801               	movwf	(??___fladd+1)+0
  6297  0491  00D3               	movf	(??___fladd+1)+0,w
  6298  0492  0853               	movwf	(___fladd@grs)
  6299  0493  00E1               	line	111
  6300                           	goto	l2317
  6301  0494  2C98               	line	112
  6302                           	
  6303                           l704:	
  6304  0495                     	line	113
  6305                           	
  6306                           l2315:	
  6307  0495                     	clrc
  6308  0495  1003               	rrf	(___fladd@grs),f
  6309  0496  0CE1               
  6310                           	goto	l2317
  6311  0497  2C98               	line	114
  6312                           	
  6313                           l705:	
  6314  0498                     	line	115
  6315                           	
  6316                           l2317:	
  6317  0498                     	btfss	(___fladd@b),(0)&7
  6318  0498  1C4A               	goto	u2361
  6319  0499  2C9B               	goto	u2360
  6320  049A  2C9C               u2361:
  6321  049B                     	goto	l2321
  6322  049B  2C9E               u2360:
  6323  049C                     	line	116
  6324                           	
  6325                           l2319:	
  6326  049C                     	bsf	(___fladd@grs)+(7/8),(7)&7
  6327  049C  17E1               	goto	l2321
  6328  049D  2C9E               	line	117
  6329                           	
  6330                           l706:	
  6331  049E                     	line	118
  6332                           	
  6333                           l2321:	
  6334  049E                     	movlw	01h
  6335  049E  3001               	movwf	(??___fladd+0)+0
  6336  049F  00D2               u2375:
  6337  04A0                     	rlf	(___fladd@b+3),w
  6338  04A0  0D4D               	rrf	(___fladd@b+3),f
  6339  04A1  0CCD               	rrf	(___fladd@b+2),f
  6340  04A2  0CCC               	rrf	(___fladd@b+1),f
  6341  04A3  0CCB               	rrf	(___fladd@b),f
  6342  04A4  0CCA               	decfsz	(??___fladd+0)+0&07fh,f
  6343  04A5  0BD2               	goto	u2375
  6344  04A6  2CA0               
  6345                           	line	119
  6346                           	
  6347                           l2323:	
  6348  04A7                     	movlw	low(01h)
  6349  04A7  3001               	movwf	(??___fladd+0)+0
  6350  04A8  00D2               	movf	(??___fladd+0)+0,w
  6351  04A9  0852               	addwf	(___fladd@bexp),f
  6352  04AA  07E0               	goto	l2325
  6353  04AB  2CAC               	line	120
  6354                           	
  6355                           l702:	
  6356  04AC                     	line	106
  6357                           	
  6358                           l2325:	
  6359  04AC                     	bcf	status, 5	;RP0=0, select bank0
  6360  04AC  1283               	bcf	status, 6	;RP1=0, select bank0
  6361  04AD  1303               	movf	(___fladd@aexp),w
  6362  04AE  085F               	subwf	(___fladd@bexp),w
  6363  04AF  0260               	skipc
  6364  04B0  1C03               	goto	u2381
  6365  04B1  2CB3               	goto	u2380
  6366  04B2  2CB4               u2381:
  6367  04B3                     	goto	l703
  6368  04B3  2C88               u2380:
  6369  04B4                     	goto	l701
  6370  04B4  2CB5               	
  6371                           l707:	
  6372  04B5                     	line	121
  6373                           	
  6374                           l701:	
  6375  04B5                     	line	124
  6376                           	btfsc	(___fladd@signs),(6)&7
  6377  04B5  1B5E               	goto	u2391
  6378  04B6  2CB8               	goto	u2390
  6379  04B7  2CB9               u2391:
  6380  04B8                     	goto	l2351
  6381  04B8  2D08               u2390:
  6382  04B9                     	line	127
  6383                           	
  6384                           l2327:	
  6385  04B9                     	movf	((___fladd@bexp)),w
  6386  04B9  0860               	btfss	status,2
  6387  04BA  1D03               	goto	u2401
  6388  04BB  2CBD               	goto	u2400
  6389  04BC  2CBE               u2401:
  6390  04BD                     	goto	l2333
  6391  04BD  2CC8               u2400:
  6392  04BE                     	line	128
  6393                           	
  6394                           l2329:	
  6395  04BE                     	movlw	0x0
  6396  04BE  3000               	movwf	(?___fladd+3)
  6397  04BF  00CD               	movlw	0x0
  6398  04C0  3000               	movwf	(?___fladd+2)
  6399  04C1  00CC               	movlw	0x0
  6400  04C2  3000               	movwf	(?___fladd+1)
  6401  04C3  00CB               	movlw	0x0
  6402  04C4  3000               	movwf	(?___fladd)
  6403  04C5  00CA               
  6404                           	goto	l710
  6405  04C6  2E54               	
  6406                           l2331:	
  6407  04C7                     	goto	l710
  6408  04C7  2E54               	line	129
  6409                           	
  6410                           l709:	
  6411  04C8                     	line	132
  6412                           	
  6413                           l2333:	
  6414  04C8                     	movf	(___fladd@a),w
  6415  04C8  084E               	addwf	(___fladd@b),f
  6416  04C9  07CA               	movf	(___fladd@a+1),w
  6417  04CA  084F               	clrz
  6418  04CB  1103               	skipnc
  6419  04CC  1803               	addlw	1
  6420  04CD  3E01               	skipnz
  6421  04CE  1903               	goto	u2411
  6422  04CF  2CD1               	addwf	(___fladd@b+1),f
  6423  04D0  07CB               u2411:
  6424  04D1                     	movf	(___fladd@a+2),w
  6425  04D1  0850               	clrz
  6426  04D2  1103               	skipnc
  6427  04D3  1803               	addlw	1
  6428  04D4  3E01               	skipnz
  6429  04D5  1903               	goto	u2412
  6430  04D6  2CD8               	addwf	(___fladd@b+2),f
  6431  04D7  07CC               u2412:
  6432  04D8                     	movf	(___fladd@a+3),w
  6433  04D8  0851               	clrz
  6434  04D9  1103               	skipnc
  6435  04DA  1803               	addlw	1
  6436  04DB  3E01               	skipnz
  6437  04DC  1903               	goto	u2413
  6438  04DD  2CDF               	addwf	(___fladd@b+3),f
  6439  04DE  07CD               u2413:
  6440  04DF                     
  6441                           	line	134
  6442                           	
  6443                           l2335:	
  6444  04DF                     	btfss	(___fladd@b+3),(24)&7
  6445  04DF  1C4D               	goto	u2421
  6446  04E0  2CE2               	goto	u2420
  6447  04E1  2CE3               u2421:
  6448  04E2                     	goto	l2385
  6449  04E2  2DD1               u2420:
  6450  04E3                     	line	135
  6451                           	
  6452                           l2337:	
  6453  04E3                     	btfss	(___fladd@grs),(0)&7
  6454  04E3  1C61               	goto	u2431
  6455  04E4  2CE6               	goto	u2430
  6456  04E5  2CE7               u2431:
  6457  04E6                     	goto	l2341
  6458  04E6  2CF0               u2430:
  6459  04E7                     	line	136
  6460                           	
  6461                           l2339:	
  6462  04E7                     	movf	(___fladd@grs),w
  6463  04E7  0861               	movwf	(??___fladd+0)+0
  6464  04E8  00D2               	clrc
  6465  04E9  1003               	rrf	(??___fladd+0)+0,w
  6466  04EA  0C52               	iorlw	01h
  6467  04EB  3801               	movwf	(??___fladd+1)+0
  6468  04EC  00D3               	movf	(??___fladd+1)+0,w
  6469  04ED  0853               	movwf	(___fladd@grs)
  6470  04EE  00E1               	line	137
  6471                           	goto	l2343
  6472  04EF  2CF3               	line	138
  6473                           	
  6474                           l712:	
  6475  04F0                     	line	139
  6476                           	
  6477                           l2341:	
  6478  04F0                     	clrc
  6479  04F0  1003               	rrf	(___fladd@grs),f
  6480  04F1  0CE1               
  6481                           	goto	l2343
  6482  04F2  2CF3               	line	140
  6483                           	
  6484                           l713:	
  6485  04F3                     	line	141
  6486                           	
  6487                           l2343:	
  6488  04F3                     	btfss	(___fladd@b),(0)&7
  6489  04F3  1C4A               	goto	u2441
  6490  04F4  2CF6               	goto	u2440
  6491  04F5  2CF7               u2441:
  6492  04F6                     	goto	l2347
  6493  04F6  2CF9               u2440:
  6494  04F7                     	line	142
  6495                           	
  6496                           l2345:	
  6497  04F7                     	bsf	(___fladd@grs)+(7/8),(7)&7
  6498  04F7  17E1               	goto	l2347
  6499  04F8  2CF9               	line	143
  6500                           	
  6501                           l714:	
  6502  04F9                     	line	144
  6503                           	
  6504                           l2347:	
  6505  04F9                     	movlw	01h
  6506  04F9  3001               	movwf	(??___fladd+0)+0
  6507  04FA  00D2               u2455:
  6508  04FB                     	rlf	(___fladd@b+3),w
  6509  04FB  0D4D               	rrf	(___fladd@b+3),f
  6510  04FC  0CCD               	rrf	(___fladd@b+2),f
  6511  04FD  0CCC               	rrf	(___fladd@b+1),f
  6512  04FE  0CCB               	rrf	(___fladd@b),f
  6513  04FF  0CCA               	decfsz	(??___fladd+0)+0&07fh,f
  6514  0500  0BD2               	goto	u2455
  6515  0501  2CFB               
  6516                           	line	145
  6517                           	
  6518                           l2349:	
  6519  0502                     	movlw	low(01h)
  6520  0502  3001               	movwf	(??___fladd+0)+0
  6521  0503  00D2               	movf	(??___fladd+0)+0,w
  6522  0504  0852               	addwf	(___fladd@bexp),f
  6523  0505  07E0               	goto	l2385
  6524  0506  2DD1               	line	146
  6525                           	
  6526                           l711:	
  6527  0507                     	line	148
  6528                           	goto	l2385
  6529  0507  2DD1               	line	149
  6530                           	
  6531                           l708:	
  6532  0508                     	line	153
  6533                           	
  6534                           l2351:	
  6535  0508                     	movf	(___fladd@b+3),w
  6536  0508  084D               	xorlw	80h
  6537  0509  3A80               	movwf	btemp+1
  6538  050A  00FF               	movf	(___fladd@a+3),w
  6539  050B  0851               	xorlw	80h
  6540  050C  3A80               	subwf	btemp+1,w
  6541  050D  027F               	
  6542                           	skipz
  6543  050E  1D03               	goto	u2463
  6544  050F  2D1A               	movf	(___fladd@a+2),w
  6545  0510  0850               	subwf	(___fladd@b+2),w
  6546  0511  024C               	skipz
  6547  0512  1D03               	goto	u2463
  6548  0513  2D1A               	movf	(___fladd@a+1),w
  6549  0514  084F               	subwf	(___fladd@b+1),w
  6550  0515  024B               	skipz
  6551  0516  1D03               	goto	u2463
  6552  0517  2D1A               	movf	(___fladd@a),w
  6553  0518  084E               	subwf	(___fladd@b),w
  6554  0519  024A               u2463:
  6555  051A                     	skipnc
  6556  051A  1803               	goto	u2461
  6557  051B  2D1D               	goto	u2460
  6558  051C  2D1E               u2461:
  6559  051D                     	goto	l2361
  6560  051D  2D84               u2460:
  6561  051E                     	line	154
  6562                           	
  6563                           l2353:	
  6564  051E                     	movlw	0FFh
  6565  051E  30FF               	movwf	((??___fladd+0)+0)
  6566  051F  00D2               	movlw	0FFh
  6567  0520  30FF               	movwf	((??___fladd+0)+0+1)
  6568  0521  00D3               	movlw	0FFh
  6569  0522  30FF               	movwf	((??___fladd+0)+0+2)
  6570  0523  00D4               	movlw	0FFh
  6571  0524  30FF               	movwf	((??___fladd+0)+0+3)
  6572  0525  00D5               	movf	(___fladd@a),w
  6573  0526  084E               	movwf	(??___fladd+4)+0
  6574  0527  00D6               	movf	(___fladd@a+1),w
  6575  0528  084F               	movwf	((??___fladd+4)+0+1)
  6576  0529  00D7               	movf	(___fladd@a+2),w
  6577  052A  0850               	movwf	((??___fladd+4)+0+2)
  6578  052B  00D8               	movf	(___fladd@a+3),w
  6579  052C  0851               	movwf	((??___fladd+4)+0+3)
  6580  052D  00D9               	comf	(___fladd@b),w
  6581  052E  094A               	movwf	(??___fladd+8)+0
  6582  052F  00DA               	comf	(___fladd@b+1),w
  6583  0530  094B               	movwf	((??___fladd+8)+0+1)
  6584  0531  00DB               	comf	(___fladd@b+2),w
  6585  0532  094C               	movwf	((??___fladd+8)+0+2)
  6586  0533  00DC               	comf	(___fladd@b+3),w
  6587  0534  094D               	movwf	((??___fladd+8)+0+3)
  6588  0535  00DD               	incf	(??___fladd+8)+0,f
  6589  0536  0ADA               	skipnz
  6590  0537  1903               	incf	((??___fladd+8)+0+1),f
  6591  0538  0ADB               	skipnz
  6592  0539  1903               	incf	((??___fladd+8)+0+2),f
  6593  053A  0ADC               	skipnz
  6594  053B  1903               	incf	((??___fladd+8)+0+3),f
  6595  053C  0ADD               	movf	0+(??___fladd+8)+0,w
  6596  053D  085A               	addwf	(??___fladd+4)+0,f
  6597  053E  07D6               	movf	1+(??___fladd+8)+0,w
  6598  053F  085B               	skipnc
  6599  0540  1803               	incfsz	1+(??___fladd+8)+0,w
  6600  0541  0F5B               	goto	u2470
  6601  0542  2D44               	goto	u2471
  6602  0543  2D45               u2470:
  6603  0544                     	addwf	(??___fladd+4)+1,f
  6604  0544  07D7               u2471:
  6605  0545                     	movf	2+(??___fladd+8)+0,w
  6606  0545  085C               	skipnc
  6607  0546  1803               	incfsz	2+(??___fladd+8)+0,w
  6608  0547  0F5C               	goto	u2472
  6609  0548  2D4A               	goto	u2473
  6610  0549  2D4B               u2472:
  6611  054A                     	addwf	(??___fladd+4)+2,f
  6612  054A  07D8               u2473:
  6613  054B                     	movf	3+(??___fladd+8)+0,w
  6614  054B  085D               	skipnc
  6615  054C  1803               	incf	3+(??___fladd+8)+0,w
  6616  054D  0A5D               	addwf	(??___fladd+4)+3,f
  6617  054E  07D9               	movf	0+(??___fladd+4)+0,w
  6618  054F  0856               	addwf	(??___fladd+0)+0,f
  6619  0550  07D2               	movf	1+(??___fladd+4)+0,w
  6620  0551  0857               	skipnc
  6621  0552  1803               	incfsz	1+(??___fladd+4)+0,w
  6622  0553  0F57               	goto	u2480
  6623  0554  2D56               	goto	u2481
  6624  0555  2D57               u2480:
  6625  0556                     	addwf	(??___fladd+0)+1,f
  6626  0556  07D3               u2481:
  6627  0557                     	movf	2+(??___fladd+4)+0,w
  6628  0557  0858               	skipnc
  6629  0558  1803               	incfsz	2+(??___fladd+4)+0,w
  6630  0559  0F58               	goto	u2482
  6631  055A  2D5C               	goto	u2483
  6632  055B  2D5D               u2482:
  6633  055C                     	addwf	(??___fladd+0)+2,f
  6634  055C  07D4               u2483:
  6635  055D                     	movf	3+(??___fladd+4)+0,w
  6636  055D  0859               	skipnc
  6637  055E  1803               	incf	3+(??___fladd+4)+0,w
  6638  055F  0A59               	addwf	(??___fladd+0)+3,f
  6639  0560  07D5               	movf	3+(??___fladd+0)+0,w
  6640  0561  0855               	movwf	(___fladd@b+3)
  6641  0562  00CD               	movf	2+(??___fladd+0)+0,w
  6642  0563  0854               	movwf	(___fladd@b+2)
  6643  0564  00CC               	movf	1+(??___fladd+0)+0,w
  6644  0565  0853               	movwf	(___fladd@b+1)
  6645  0566  00CB               	movf	0+(??___fladd+0)+0,w
  6646  0567  0852               	movwf	(___fladd@b)
  6647  0568  00CA               
  6648                           	line	155
  6649                           	movlw	low(080h)
  6650  0569  3080               	movwf	(??___fladd+0)+0
  6651  056A  00D2               	movf	(??___fladd+0)+0,w
  6652  056B  0852               	xorwf	(___fladd@signs),f
  6653  056C  06DE               	line	156
  6654                           	
  6655                           l2355:	
  6656  056D                     	comf	(___fladd@grs),f
  6657  056D  09E1               	incf	(___fladd@grs),f
  6658  056E  0AE1               	line	157
  6659                           	
  6660                           l2357:	
  6661  056F                     	movf	((___fladd@grs)),w
  6662  056F  0861               	btfss	status,2
  6663  0570  1D03               	goto	u2491
  6664  0571  2D73               	goto	u2490
  6665  0572  2D74               u2491:
  6666  0573                     	goto	l718
  6667  0573  2D92               u2490:
  6668  0574                     	line	158
  6669                           	
  6670                           l2359:	
  6671  0574                     	movlw	01h
  6672  0574  3001               	addwf	(___fladd@b),f
  6673  0575  07CA               	movlw	0
  6674  0576  3000               	skipnc
  6675  0577  1803               movlw 1
  6676  0578  3001               	addwf	(___fladd@b+1),f
  6677  0579  07CB               	movlw	0
  6678  057A  3000               	skipnc
  6679  057B  1803               movlw 1
  6680  057C  3001               	addwf	(___fladd@b+2),f
  6681  057D  07CC               	movlw	0
  6682  057E  3000               	skipnc
  6683  057F  1803               movlw 1
  6684  0580  3001               	addwf	(___fladd@b+3),f
  6685  0581  07CD               	goto	l718
  6686  0582  2D92               	line	159
  6687                           	
  6688                           l717:	
  6689  0583                     	line	160
  6690                           	goto	l718
  6691  0583  2D92               	line	161
  6692                           	
  6693                           l716:	
  6694  0584                     	line	162
  6695                           	
  6696                           l2361:	
  6697  0584                     	movf	(___fladd@a),w
  6698  0584  084E               	subwf	(___fladd@b),f
  6699  0585  02CA               	movf	(___fladd@a+1),w
  6700  0586  084F               	skipc
  6701  0587  1C03               	incfsz	(___fladd@a+1),w
  6702  0588  0F4F               	subwf	(___fladd@b+1),f
  6703  0589  02CB               	movf	(___fladd@a+2),w
  6704  058A  0850               	skipc
  6705  058B  1C03               	incfsz	(___fladd@a+2),w
  6706  058C  0F50               	subwf	(___fladd@b+2),f
  6707  058D  02CC               	movf	(___fladd@a+3),w
  6708  058E  0851               	skipc
  6709  058F  1C03               	incfsz	(___fladd@a+3),w
  6710  0590  0F51               	subwf	(___fladd@b+3),f
  6711  0591  02CD               	line	163
  6712                           	
  6713                           l718:	
  6714  0592                     	line	166
  6715                           	movf	(___fladd@b+3),w
  6716  0592  084D               	iorwf	(___fladd@b+2),w
  6717  0593  044C               	iorwf	(___fladd@b+1),w
  6718  0594  044B               	iorwf	(___fladd@b),w
  6719  0595  044A               	skipz
  6720  0596  1D03               	goto	u2501
  6721  0597  2D99               	goto	u2500
  6722  0598  2D9A               u2501:
  6723  0599                     	goto	l2383
  6724  0599  2DCB               u2500:
  6725  059A                     	
  6726                           l2363:	
  6727  059A                     	movf	((___fladd@grs)),w
  6728  059A  0861               	btfss	status,2
  6729  059B  1D03               	goto	u2511
  6730  059C  2D9E               	goto	u2510
  6731  059D  2D9F               u2511:
  6732  059E                     	goto	l2383
  6733  059E  2DCB               u2510:
  6734  059F                     	line	167
  6735                           	
  6736                           l2365:	
  6737  059F                     	movlw	0x0
  6738  059F  3000               	movwf	(?___fladd+3)
  6739  05A0  00CD               	movlw	0x0
  6740  05A1  3000               	movwf	(?___fladd+2)
  6741  05A2  00CC               	movlw	0x0
  6742  05A3  3000               	movwf	(?___fladd+1)
  6743  05A4  00CB               	movlw	0x0
  6744  05A5  3000               	movwf	(?___fladd)
  6745  05A6  00CA               
  6746                           	goto	l710
  6747  05A7  2E54               	
  6748                           l2367:	
  6749  05A8                     	goto	l710
  6750  05A8  2E54               	line	168
  6751                           	
  6752                           l719:	
  6753  05A9                     	line	171
  6754                           	goto	l2383
  6755  05A9  2DCB               	
  6756                           l721:	
  6757  05AA                     	line	172
  6758                           	
  6759                           l2369:	
  6760  05AA                     	movlw	01h
  6761  05AA  3001               	movwf	(??___fladd+0)+0
  6762  05AB  00D2               u2525:
  6763  05AC                     	clrc
  6764  05AC  1003               	rlf	(___fladd@b),f
  6765  05AD  0DCA               	rlf	(___fladd@b+1),f
  6766  05AE  0DCB               	rlf	(___fladd@b+2),f
  6767  05AF  0DCC               	rlf	(___fladd@b+3),f
  6768  05B0  0DCD               	decfsz	(??___fladd+0)+0
  6769  05B1  0BD2               	goto	u2525
  6770  05B2  2DAC               	line	173
  6771                           	
  6772                           l2371:	
  6773  05B3                     	btfss	(___fladd@grs),(7)&7
  6774  05B3  1FE1               	goto	u2531
  6775  05B4  2DB6               	goto	u2530
  6776  05B5  2DB7               u2531:
  6777  05B6                     	goto	l722
  6778  05B6  2DB8               u2530:
  6779  05B7                     	line	174
  6780                           	
  6781                           l2373:	
  6782  05B7                     	bsf	(___fladd@b)+(0/8),(0)&7
  6783  05B7  144A               	line	175
  6784                           	
  6785                           l722:	
  6786  05B8                     	line	176
  6787                           	btfss	(___fladd@grs),(0)&7
  6788  05B8  1C61               	goto	u2541
  6789  05B9  2DBB               	goto	u2540
  6790  05BA  2DBC               u2541:
  6791  05BB                     	goto	l2377
  6792  05BB  2DBF               u2540:
  6793  05BC                     	line	177
  6794                           	
  6795                           l2375:	
  6796  05BC                     	setc
  6797  05BC  1403               	rlf	(___fladd@grs),f
  6798  05BD  0DE1               	line	178
  6799                           	goto	l2379
  6800  05BE  2DC2               	line	179
  6801                           	
  6802                           l723:	
  6803  05BF                     	line	180
  6804                           	
  6805                           l2377:	
  6806  05BF                     	clrc
  6807  05BF  1003               	rlf	(___fladd@grs),f
  6808  05C0  0DE1               
  6809                           	goto	l2379
  6810  05C1  2DC2               	line	181
  6811                           	
  6812                           l724:	
  6813  05C2                     	line	182
  6814                           	
  6815                           l2379:	
  6816  05C2                     	movf	((___fladd@bexp)),w
  6817  05C2  0860               	btfsc	status,2
  6818  05C3  1903               	goto	u2551
  6819  05C4  2DC6               	goto	u2550
  6820  05C5  2DC7               u2551:
  6821  05C6                     	goto	l2383
  6822  05C6  2DCB               u2550:
  6823  05C7                     	line	183
  6824                           	
  6825                           l2381:	
  6826  05C7                     	movlw	01h
  6827  05C7  3001               	subwf	(___fladd@bexp),f
  6828  05C8  02E0               	goto	l2383
  6829  05C9  2DCB               	line	184
  6830                           	
  6831                           l725:	
  6832  05CA                     	goto	l2383
  6833  05CA  2DCB               	line	185
  6834                           	
  6835                           l720:	
  6836  05CB                     	line	171
  6837                           	
  6838                           l2383:	
  6839  05CB                     	btfss	(___fladd@b+2),(23)&7
  6840  05CB  1FCC               	goto	u2561
  6841  05CC  2DCE               	goto	u2560
  6842  05CD  2DCF               u2561:
  6843  05CE                     	goto	l2369
  6844  05CE  2DAA               u2560:
  6845  05CF                     	goto	l2385
  6846  05CF  2DD1               	
  6847                           l726:	
  6848  05D0                     	goto	l2385
  6849  05D0  2DD1               	line	186
  6850                           	
  6851                           l715:	
  6852  05D1                     	line	192
  6853                           	
  6854                           l2385:	
  6855  05D1                     	clrf	(___fladd@aexp)
  6856  05D1  01DF               	line	193
  6857                           	
  6858                           l2387:	
  6859  05D2                     	btfss	(___fladd@grs),(7)&7
  6860  05D2  1FE1               	goto	u2571
  6861  05D3  2DD5               	goto	u2570
  6862  05D4  2DD6               u2571:
  6863  05D5                     	goto	l2395
  6864  05D5  2DE8               u2570:
  6865  05D6                     	line	194
  6866                           	
  6867                           l2389:	
  6868  05D6                     	movf	(___fladd@grs),w
  6869  05D6  0861               	andlw	07Fh
  6870  05D7  397F               	btfsc	status,2
  6871  05D8  1903               	goto	u2581
  6872  05D9  2DDB               	goto	u2580
  6873  05DA  2DDC               u2581:
  6874  05DB                     	goto	l728
  6875  05DB  2DDF               u2580:
  6876  05DC                     	line	195
  6877                           	
  6878                           l2391:	
  6879  05DC                     	clrf	(___fladd@aexp)
  6880  05DC  01DF               	incf	(___fladd@aexp),f
  6881  05DD  0ADF               	line	196
  6882                           	goto	l2395
  6883  05DE  2DE8               	line	197
  6884                           	
  6885                           l728:	
  6886  05DF                     	line	198
  6887                           	btfss	(___fladd@b),(0)&7
  6888  05DF  1C4A               	goto	u2591
  6889  05E0  2DE2               	goto	u2590
  6890  05E1  2DE3               u2591:
  6891  05E2                     	goto	l2395
  6892  05E2  2DE8               u2590:
  6893  05E3                     	line	199
  6894                           	
  6895                           l2393:	
  6896  05E3                     	clrf	(___fladd@aexp)
  6897  05E3  01DF               	incf	(___fladd@aexp),f
  6898  05E4  0ADF               	goto	l2395
  6899  05E5  2DE8               	line	200
  6900                           	
  6901                           l730:	
  6902  05E6                     	goto	l2395
  6903  05E6  2DE8               	line	201
  6904                           	
  6905                           l729:	
  6906  05E7                     	goto	l2395
  6907  05E7  2DE8               	line	202
  6908                           	
  6909                           l727:	
  6910  05E8                     	line	203
  6911                           	
  6912                           l2395:	
  6913  05E8                     	movf	((___fladd@aexp)),w
  6914  05E8  085F               	btfsc	status,2
  6915  05E9  1903               	goto	u2601
  6916  05EA  2DEC               	goto	u2600
  6917  05EB  2DED               u2601:
  6918  05EC                     	goto	l731
  6919  05EC  2E23               u2600:
  6920  05ED                     	line	204
  6921                           	
  6922                           l2397:	
  6923  05ED                     	movlw	01h
  6924  05ED  3001               	addwf	(___fladd@b),f
  6925  05EE  07CA               	movlw	0
  6926  05EF  3000               	skipnc
  6927  05F0  1803               movlw 1
  6928  05F1  3001               	addwf	(___fladd@b+1),f
  6929  05F2  07CB               	movlw	0
  6930  05F3  3000               	skipnc
  6931  05F4  1803               movlw 1
  6932  05F5  3001               	addwf	(___fladd@b+2),f
  6933  05F6  07CC               	movlw	0
  6934  05F7  3000               	skipnc
  6935  05F8  1803               movlw 1
  6936  05F9  3001               	addwf	(___fladd@b+3),f
  6937  05FA  07CD               	line	205
  6938                           	
  6939                           l2399:	
  6940  05FB                     	btfss	(___fladd@b+3),(24)&7
  6941  05FB  1C4D               	goto	u2611
  6942  05FC  2DFE               	goto	u2610
  6943  05FD  2DFF               u2611:
  6944  05FE                     	goto	l731
  6945  05FE  2E23               u2610:
  6946  05FF                     	line	206
  6947                           	
  6948                           l2401:	
  6949  05FF                     	movf	(___fladd@b),w
  6950  05FF  084A               	movwf	(??___fladd+0)+0
  6951  0600  00D2               	movf	(___fladd@b+1),w
  6952  0601  084B               	movwf	((??___fladd+0)+0+1)
  6953  0602  00D3               	movf	(___fladd@b+2),w
  6954  0603  084C               	movwf	((??___fladd+0)+0+2)
  6955  0604  00D4               	movf	(___fladd@b+3),w
  6956  0605  084D               	movwf	((??___fladd+0)+0+3)
  6957  0606  00D5               	movlw	01h
  6958  0607  3001               	movwf	(??___fladd+4)+0
  6959  0608  00D6               u2625:
  6960  0609                     	rlf	(??___fladd+0)+3,w
  6961  0609  0D55               	rrf	(??___fladd+0)+3,f
  6962  060A  0CD5               	rrf	(??___fladd+0)+2,f
  6963  060B  0CD4               	rrf	(??___fladd+0)+1,f
  6964  060C  0CD3               	rrf	(??___fladd+0)+0,f
  6965  060D  0CD2               u2620:
  6966  060E                     	decfsz	(??___fladd+4)+0,f
  6967  060E  0BD6               	goto	u2625
  6968  060F  2E09               	movf	3+(??___fladd+0)+0,w
  6969  0610  0855               	movwf	(___fladd@b+3)
  6970  0611  00CD               	movf	2+(??___fladd+0)+0,w
  6971  0612  0854               	movwf	(___fladd@b+2)
  6972  0613  00CC               	movf	1+(??___fladd+0)+0,w
  6973  0614  0853               	movwf	(___fladd@b+1)
  6974  0615  00CB               	movf	0+(??___fladd+0)+0,w
  6975  0616  0852               	movwf	(___fladd@b)
  6976  0617  00CA               
  6977                           	line	207
  6978                           		incf	((___fladd@bexp)),w
  6979  0618  0A60               	btfsc	status,2
  6980  0619  1903               	goto	u2631
  6981  061A  2E1C               	goto	u2630
  6982  061B  2E1D               u2631:
  6983  061C                     	goto	l731
  6984  061C  2E23               u2630:
  6985  061D                     	line	208
  6986                           	
  6987                           l2403:	
  6988  061D                     	movlw	low(01h)
  6989  061D  3001               	movwf	(??___fladd+0)+0
  6990  061E  00D2               	movf	(??___fladd+0)+0,w
  6991  061F  0852               	addwf	(___fladd@bexp),f
  6992  0620  07E0               	goto	l731
  6993  0621  2E23               	line	209
  6994                           	
  6995                           l733:	
  6996  0622                     	goto	l731
  6997  0622  2E23               	line	210
  6998                           	
  6999                           l732:	
  7000  0623                     	line	211
  7001                           	
  7002                           l731:	
  7003  0623                     	line	215
  7004                           		incf	((___fladd@bexp)),w
  7005  0623  0A60               	btfsc	status,2
  7006  0624  1903               	goto	u2641
  7007  0625  2E27               	goto	u2640
  7008  0626  2E28               u2641:
  7009  0627                     	goto	l2407
  7010  0627  2E2E               u2640:
  7011  0628                     	
  7012                           l2405:	
  7013  0628                     	movf	((___fladd@bexp)),w
  7014  0628  0860               	btfss	status,2
  7015  0629  1D03               	goto	u2651
  7016  062A  2E2C               	goto	u2650
  7017  062B  2E2D               u2651:
  7018  062C                     	goto	l2413
  7019  062C  2E3E               u2650:
  7020  062D                     	goto	l2407
  7021  062D  2E2E               	
  7022                           l736:	
  7023  062E                     	line	216
  7024                           	
  7025                           l2407:	
  7026  062E                     	movlw	high highword(0)
  7027  062E  3000               	movwf	(___fladd@b+3)
  7028  062F  00CD               	movlw	low highword(0)
  7029  0630  3000               	movwf	(___fladd@b+2)
  7030  0631  00CC               	movlw	high(0)
  7031  0632  3000               	movwf	(___fladd@b+1)
  7032  0633  00CB               	movlw	low(0)
  7033  0634  3000               	movwf	(___fladd@b)
  7034  0635  00CA               
  7035                           	line	218
  7036                           	
  7037                           l2409:	
  7038  0636                     	movf	((___fladd@bexp)),w
  7039  0636  0860               	btfss	status,2
  7040  0637  1D03               	goto	u2661
  7041  0638  2E3A               	goto	u2660
  7042  0639  2E3B               u2661:
  7043  063A                     	goto	l2413
  7044  063A  2E3E               u2660:
  7045  063B                     	line	219
  7046                           	
  7047                           l2411:	
  7048  063B                     	clrf	(___fladd@signs)
  7049  063B  01DE               	goto	l2413
  7050  063C  2E3E               	line	220
  7051                           	
  7052                           l737:	
  7053  063D                     	goto	l2413
  7054  063D  2E3E               	line	221
  7055                           	
  7056                           l734:	
  7057  063E                     	line	225
  7058                           	
  7059                           l2413:	
  7060  063E                     	btfss	(___fladd@bexp),(0)&7
  7061  063E  1C60               	goto	u2671
  7062  063F  2E41               	goto	u2670
  7063  0640  2E42               u2671:
  7064  0641                     	goto	l2417
  7065  0641  2E44               u2670:
  7066  0642                     	line	226
  7067                           	
  7068                           l2415:	
  7069  0642                     	bsf	0+(___fladd@b)+02h+(7/8),(7)&7
  7070  0642  17CC               	line	227
  7071                           	goto	l739
  7072  0643  2E48               	line	229
  7073                           	
  7074                           l738:	
  7075  0644                     	line	230
  7076                           	
  7077                           l2417:	
  7078  0644                     	movlw	low(07Fh)
  7079  0644  307F               	movwf	(??___fladd+0)+0
  7080  0645  00D2               	movf	(??___fladd+0)+0,w
  7081  0646  0852               	andwf	0+(___fladd@b)+02h,f
  7082  0647  05CC               	line	231
  7083                           	
  7084                           l739:	
  7085  0648                     	line	232
  7086                           	movf	(___fladd@bexp),w
  7087  0648  0860               	movwf	(??___fladd+0)+0
  7088  0649  00D2               	clrc
  7089  064A  1003               	rrf	(??___fladd+0)+0,w
  7090  064B  0C52               	movwf	(??___fladd+1)+0
  7091  064C  00D3               	movf	(??___fladd+1)+0,w
  7092  064D  0853               	movwf	0+(___fladd@b)+03h
  7093  064E  00CD               	line	233
  7094                           	
  7095                           l2419:	
  7096  064F                     	btfss	(___fladd@signs),(7)&7
  7097  064F  1FDE               	goto	u2681
  7098  0650  2E52               	goto	u2680
  7099  0651  2E53               u2681:
  7100  0652                     	goto	l740
  7101  0652  2E54               u2680:
  7102  0653                     	line	234
  7103                           	
  7104                           l2421:	
  7105  0653                     	bsf	0+(___fladd@b)+03h+(7/8),(7)&7
  7106  0653  17CD               	line	235
  7107                           	
  7108                           l740:	
  7109  0654                     	line	236
  7110                           	line	237
  7111                           	
  7112                           l710:	
  7113  0654                     	return
  7114  0654  0008               	opt stack 0
  7115                           GLOBAL	__end_of___fladd
  7116                           	__end_of___fladd:
  7117  0655                     	signat	___fladd,8316
  7118                           	global	___bmul
  7119                           
  7120 ;; *************** function ___bmul *****************
  7121 ;; Defined at:
  7122 ;;		line 4 in file "C:\Program Files (x86)\Microchip\xc8\v2.00\pic\sources\c90\common\Umul8.c"
  7123 ;; Parameters:    Size  Location     Type
  7124 ;;  multiplier      1    wreg     unsigned char 
  7125 ;;  multiplicand    1    3[COMMON] unsigned char 
  7126 ;; Auto vars:     Size  Location     Type
  7127 ;;  multiplier      1    6[COMMON] unsigned char 
  7128 ;;  product         1    5[COMMON] unsigned char 
  7129 ;; Return value:  Size  Location     Type
  7130 ;;                  1    wreg      unsigned char 
  7131 ;; Registers used:
  7132 ;;		wreg, status,2, status,0
  7133 ;; Tracked objects:
  7134 ;;		On entry : 0/0
  7135 ;;		On exit  : 0/0
  7136 ;;		Unchanged: 0/0
  7137 ;; Data sizes:     COMMON   BANK0   BANK1   BANK3   BANK2
  7138 ;;      Params:         1       0       0       0       0
  7139 ;;      Locals:         2       0       0       0       0
  7140 ;;      Temps:          1       0       0       0       0
  7141 ;;      Totals:         4       0       0       0       0
  7142 ;;Total ram usage:        4 bytes
  7143 ;; Hardware stack levels used:    1
  7144 ;; Hardware stack levels required when called:    1
  7145 ;; This function calls:
  7146 ;;		Nothing
  7147 ;; This function is called by:
  7148 ;;		_b0
  7149 ;; This function uses a non-reentrant model
  7150 ;;
  7151                           psect	text12,local,class=CODE,delta=2,merge=1,group=1
  7152                           	file	"C:\Program Files (x86)\Microchip\xc8\v2.00\pic\sources\c90\common\Umul8.c"
  7153                           	line	4
  7154                           global __ptext12
  7155                           __ptext12:	;psect for function ___bmul
  7156  159B                     psect	text12
  7157                           	file	"C:\Program Files (x86)\Microchip\xc8\v2.00\pic\sources\c90\common\Umul8.c"
  7158                           	line	4
  7159                           	global	__size_of___bmul
  7160                           	__size_of___bmul	equ	__end_of___bmul-___bmul
  7161  0019                     	
  7162                           ___bmul:	
  7163  159B                     ;incstack = 0
  7164                           	opt	stack 5
  7165                           ; Regs used in ___bmul: [wreg+status,2+status,0]
  7166                           ;___bmul@multiplier stored from wreg
  7167                           	movwf	(___bmul@multiplier)
  7168  159B  00F6               	line	6
  7169                           	
  7170                           l2127:	
  7171  159C                     	clrf	(___bmul@product)
  7172  159C  01F5               	goto	l2129
  7173  159D  2D9E               	line	42
  7174                           	
  7175                           l427:	
  7176  159E                     	line	43
  7177                           	
  7178                           l2129:	
  7179  159E                     	btfss	(___bmul@multiplier),(0)&7
  7180  159E  1C76               	goto	u2001
  7181  159F  2DA1               	goto	u2000
  7182  15A0  2DA2               u2001:
  7183  15A1                     	goto	l2133
  7184  15A1  2DA7               u2000:
  7185  15A2                     	line	44
  7186                           	
  7187                           l2131:	
  7188  15A2                     	movf	(___bmul@multiplicand),w
  7189  15A2  0873               	movwf	(??___bmul+0)+0
  7190  15A3  00F4               	movf	(??___bmul+0)+0,w
  7191  15A4  0874               	addwf	(___bmul@product),f
  7192  15A5  07F5               	goto	l2133
  7193  15A6  2DA7               	
  7194                           l428:	
  7195  15A7                     	line	45
  7196                           	
  7197                           l2133:	
  7198  15A7                     	clrc
  7199  15A7  1003               	rlf	(___bmul@multiplicand),f
  7200  15A8  0DF3               
  7201                           	line	46
  7202                           	
  7203                           l2135:	
  7204  15A9                     	clrc
  7205  15A9  1003               	rrf	(___bmul@multiplier),f
  7206  15AA  0CF6               
  7207                           	line	47
  7208                           	movf	((___bmul@multiplier)),w
  7209  15AB  0876               	btfss	status,2
  7210  15AC  1D03               	goto	u2011
  7211  15AD  2DAF               	goto	u2010
  7212  15AE  2DB0               u2011:
  7213  15AF                     	goto	l2129
  7214  15AF  2D9E               u2010:
  7215  15B0                     	goto	l2137
  7216  15B0  2DB1               	
  7217                           l429:	
  7218  15B1                     	line	50
  7219                           	
  7220                           l2137:	
  7221  15B1                     	movf	(___bmul@product),w
  7222  15B1  0875               	goto	l430
  7223  15B2  2DB3               	
  7224                           l2139:	
  7225  15B3                     	line	51
  7226                           	
  7227                           l430:	
  7228  15B3                     	return
  7229  15B3  0008               	opt stack 0
  7230                           GLOBAL	__end_of___bmul
  7231                           	__end_of___bmul:
  7232  15B4                     	signat	___bmul,8313
  7233                           	global	___awdiv
  7234                           
  7235 ;; *************** function ___awdiv *****************
  7236 ;; Defined at:
  7237 ;;		line 5 in file "C:\Program Files (x86)\Microchip\xc8\v2.00\pic\sources\c90\common\awdiv.c"
  7238 ;; Parameters:    Size  Location     Type
  7239 ;;  divisor         2    3[COMMON] int 
  7240 ;;  dividend        2    5[COMMON] int 
  7241 ;; Auto vars:     Size  Location     Type
  7242 ;;  quotient        2    2[BANK0 ] int 
  7243 ;;  sign            1    1[BANK0 ] unsigned char 
  7244 ;;  counter         1    0[BANK0 ] unsigned char 
  7245 ;; Return value:  Size  Location     Type
  7246 ;;                  2    3[COMMON] int 
  7247 ;; Registers used:
  7248 ;;		wreg, status,2, status,0
  7249 ;; Tracked objects:
  7250 ;;		On entry : 0/0
  7251 ;;		On exit  : 0/0
  7252 ;;		Unchanged: 0/0
  7253 ;; Data sizes:     COMMON   BANK0   BANK1   BANK3   BANK2
  7254 ;;      Params:         4       0       0       0       0
  7255 ;;      Locals:         0       4       0       0       0
  7256 ;;      Temps:          1       0       0       0       0
  7257 ;;      Totals:         5       4       0       0       0
  7258 ;;Total ram usage:        9 bytes
  7259 ;; Hardware stack levels used:    1
  7260 ;; Hardware stack levels required when called:    1
  7261 ;; This function calls:
  7262 ;;		Nothing
  7263 ;; This function is called by:
  7264 ;;		_main
  7265 ;;		_b1
  7266 ;;		_b0
  7267 ;; This function uses a non-reentrant model
  7268 ;;
  7269                           psect	text13,local,class=CODE,delta=2,merge=1,group=1
  7270                           	file	"C:\Program Files (x86)\Microchip\xc8\v2.00\pic\sources\c90\common\awdiv.c"
  7271                           	line	5
  7272                           global __ptext13
  7273                           __ptext13:	;psect for function ___awdiv
  7274  081D                     psect	text13
  7275                           	file	"C:\Program Files (x86)\Microchip\xc8\v2.00\pic\sources\c90\common\awdiv.c"
  7276                           	line	5
  7277                           	global	__size_of___awdiv
  7278                           	__size_of___awdiv	equ	__end_of___awdiv-___awdiv
  7279  0073                     	
  7280                           ___awdiv:	
  7281  081D                     ;incstack = 0
  7282                           	opt	stack 5
  7283                           ; Regs used in ___awdiv: [wreg+status,2+status,0]
  7284                           	line	13
  7285                           	
  7286                           l2141:	
  7287  081D                     	bcf	status, 5	;RP0=0, select bank0
  7288  081D  1283               	bcf	status, 6	;RP1=0, select bank0
  7289  081E  1303               	clrf	(___awdiv@sign)
  7290  081F  01A1               	line	14
  7291                           	
  7292                           l2143:	
  7293  0820                     	btfss	(___awdiv@divisor+1),7
  7294  0820  1FF4               	goto	u2021
  7295  0821  2823               	goto	u2020
  7296  0822  2824               u2021:
  7297  0823                     	goto	l2149
  7298  0823  282C               u2020:
  7299  0824                     	line	15
  7300                           	
  7301                           l2145:	
  7302  0824                     	comf	(___awdiv@divisor),f
  7303  0824  09F3               	comf	(___awdiv@divisor+1),f
  7304  0825  09F4               	incf	(___awdiv@divisor),f
  7305  0826  0AF3               	skipnz
  7306  0827  1903               	incf	(___awdiv@divisor+1),f
  7307  0828  0AF4               	line	16
  7308                           	
  7309                           l2147:	
  7310  0829                     	clrf	(___awdiv@sign)
  7311  0829  01A1               	incf	(___awdiv@sign),f
  7312  082A  0AA1               	goto	l2149
  7313  082B  282C               	line	17
  7314                           	
  7315                           l547:	
  7316  082C                     	line	18
  7317                           	
  7318                           l2149:	
  7319  082C                     	btfss	(___awdiv@dividend+1),7
  7320  082C  1FF6               	goto	u2031
  7321  082D  282F               	goto	u2030
  7322  082E  2830               u2031:
  7323  082F                     	goto	l2155
  7324  082F  283A               u2030:
  7325  0830                     	line	19
  7326                           	
  7327                           l2151:	
  7328  0830                     	comf	(___awdiv@dividend),f
  7329  0830  09F5               	comf	(___awdiv@dividend+1),f
  7330  0831  09F6               	incf	(___awdiv@dividend),f
  7331  0832  0AF5               	skipnz
  7332  0833  1903               	incf	(___awdiv@dividend+1),f
  7333  0834  0AF6               	line	20
  7334                           	
  7335                           l2153:	
  7336  0835                     	movlw	low(01h)
  7337  0835  3001               	movwf	(??___awdiv+0)+0
  7338  0836  00F7               	movf	(??___awdiv+0)+0,w
  7339  0837  0877               	xorwf	(___awdiv@sign),f
  7340  0838  06A1               	goto	l2155
  7341  0839  283A               	line	21
  7342                           	
  7343                           l548:	
  7344  083A                     	line	22
  7345                           	
  7346                           l2155:	
  7347  083A                     	clrf	(___awdiv@quotient)
  7348  083A  01A2               	clrf	(___awdiv@quotient+1)
  7349  083B  01A3               	line	23
  7350                           	
  7351                           l2157:	
  7352  083C                     	movf	((___awdiv@divisor)),w
  7353  083C  0873               iorwf	((___awdiv@divisor+1)),w
  7354  083D  0474               	btfsc	status,2
  7355  083E  1903               	goto	u2041
  7356  083F  2841               	goto	u2040
  7357  0840  2842               u2041:
  7358  0841                     	goto	l2177
  7359  0841  287F               u2040:
  7360  0842                     	line	24
  7361                           	
  7362                           l2159:	
  7363  0842                     	clrf	(___awdiv@counter)
  7364  0842  01A0               	incf	(___awdiv@counter),f
  7365  0843  0AA0               	line	25
  7366                           	goto	l2165
  7367  0844  2851               	
  7368                           l551:	
  7369  0845                     	line	26
  7370                           	
  7371                           l2161:	
  7372  0845                     	movlw	01h
  7373  0845  3001               	
  7374                           u2055:
  7375  0846                     	clrc
  7376  0846  1003               	rlf	(___awdiv@divisor),f
  7377  0847  0DF3               	rlf	(___awdiv@divisor+1),f
  7378  0848  0DF4               	addlw	-1
  7379  0849  3EFF               	skipz
  7380  084A  1D03               	goto	u2055
  7381  084B  2846               	line	27
  7382                           	
  7383                           l2163:	
  7384  084C                     	movlw	low(01h)
  7385  084C  3001               	movwf	(??___awdiv+0)+0
  7386  084D  00F7               	movf	(??___awdiv+0)+0,w
  7387  084E  0877               	addwf	(___awdiv@counter),f
  7388  084F  07A0               	goto	l2165
  7389  0850  2851               	line	28
  7390                           	
  7391                           l550:	
  7392  0851                     	line	25
  7393                           	
  7394                           l2165:	
  7395  0851                     	btfss	(___awdiv@divisor+1),(15)&7
  7396  0851  1FF4               	goto	u2061
  7397  0852  2854               	goto	u2060
  7398  0853  2855               u2061:
  7399  0854                     	goto	l2161
  7400  0854  2845               u2060:
  7401  0855                     	goto	l2167
  7402  0855  2857               	
  7403                           l552:	
  7404  0856                     	goto	l2167
  7405  0856  2857               	line	29
  7406                           	
  7407                           l553:	
  7408  0857                     	line	30
  7409                           	
  7410                           l2167:	
  7411  0857                     	movlw	01h
  7412  0857  3001               	
  7413                           u2075:
  7414  0858                     	clrc
  7415  0858  1003               	rlf	(___awdiv@quotient),f
  7416  0859  0DA2               	rlf	(___awdiv@quotient+1),f
  7417  085A  0DA3               	addlw	-1
  7418  085B  3EFF               	skipz
  7419  085C  1D03               	goto	u2075
  7420  085D  2858               	line	31
  7421                           	movf	(___awdiv@divisor+1),w
  7422  085E  0874               	subwf	(___awdiv@dividend+1),w
  7423  085F  0276               	skipz
  7424  0860  1D03               	goto	u2085
  7425  0861  2864               	movf	(___awdiv@divisor),w
  7426  0862  0873               	subwf	(___awdiv@dividend),w
  7427  0863  0275               u2085:
  7428  0864                     	skipc
  7429  0864  1C03               	goto	u2081
  7430  0865  2867               	goto	u2080
  7431  0866  2868               u2081:
  7432  0867                     	goto	l2173
  7433  0867  2870               u2080:
  7434  0868                     	line	32
  7435                           	
  7436                           l2169:	
  7437  0868                     	movf	(___awdiv@divisor),w
  7438  0868  0873               	subwf	(___awdiv@dividend),f
  7439  0869  02F5               	movf	(___awdiv@divisor+1),w
  7440  086A  0874               	skipc
  7441  086B  1C03               	decf	(___awdiv@dividend+1),f
  7442  086C  03F6               	subwf	(___awdiv@dividend+1),f
  7443  086D  02F6               	line	33
  7444                           	
  7445                           l2171:	
  7446  086E                     	bsf	(___awdiv@quotient)+(0/8),(0)&7
  7447  086E  1422               	goto	l2173
  7448  086F  2870               	line	34
  7449                           	
  7450                           l554:	
  7451  0870                     	line	35
  7452                           	
  7453                           l2173:	
  7454  0870                     	movlw	01h
  7455  0870  3001               	
  7456                           u2095:
  7457  0871                     	clrc
  7458  0871  1003               	rrf	(___awdiv@divisor+1),f
  7459  0872  0CF4               	rrf	(___awdiv@divisor),f
  7460  0873  0CF3               	addlw	-1
  7461  0874  3EFF               	skipz
  7462  0875  1D03               	goto	u2095
  7463  0876  2871               	line	36
  7464                           	
  7465                           l2175:	
  7466  0877                     	movlw	01h
  7467  0877  3001               	subwf	(___awdiv@counter),f
  7468  0878  02A0               	btfss	status,2
  7469  0879  1D03               	goto	u2101
  7470  087A  287C               	goto	u2100
  7471  087B  287D               u2101:
  7472  087C                     	goto	l2167
  7473  087C  2857               u2100:
  7474  087D                     	goto	l2177
  7475  087D  287F               	
  7476                           l555:	
  7477  087E                     	goto	l2177
  7478  087E  287F               	line	37
  7479                           	
  7480                           l549:	
  7481  087F                     	line	38
  7482                           	
  7483                           l2177:	
  7484  087F                     	movf	((___awdiv@sign)),w
  7485  087F  0821               	btfsc	status,2
  7486  0880  1903               	goto	u2111
  7487  0881  2883               	goto	u2110
  7488  0882  2884               u2111:
  7489  0883                     	goto	l2181
  7490  0883  288A               u2110:
  7491  0884                     	line	39
  7492                           	
  7493                           l2179:	
  7494  0884                     	comf	(___awdiv@quotient),f
  7495  0884  09A2               	comf	(___awdiv@quotient+1),f
  7496  0885  09A3               	incf	(___awdiv@quotient),f
  7497  0886  0AA2               	skipnz
  7498  0887  1903               	incf	(___awdiv@quotient+1),f
  7499  0888  0AA3               	goto	l2181
  7500  0889  288A               	
  7501                           l556:	
  7502  088A                     	line	40
  7503                           	
  7504                           l2181:	
  7505  088A                     	movf	(___awdiv@quotient+1),w
  7506  088A  0823               	movwf	(?___awdiv+1)
  7507  088B  00F4               	movf	(___awdiv@quotient),w
  7508  088C  0822               	movwf	(?___awdiv)
  7509  088D  00F3               	goto	l557
  7510  088E  288F               	
  7511                           l2183:	
  7512  088F                     	line	41
  7513                           	
  7514                           l557:	
  7515  088F                     	return
  7516  088F  0008               	opt stack 0
  7517                           GLOBAL	__end_of___awdiv
  7518                           	__end_of___awdiv:
  7519  0890                     	signat	___awdiv,8314
  7520                           	global	___flmul
  7521                           
  7522 ;; *************** function ___flmul *****************
  7523 ;; Defined at:
  7524 ;;		line 8 in file "C:\Program Files (x86)\Microchip\xc8\v2.00\pic\sources\c90\common\sprcmul.c"
  7525 ;; Parameters:    Size  Location     Type
  7526 ;;  b               4   16[BANK0 ] int 
  7527 ;;  a               4   20[BANK0 ] int 
  7528 ;; Auto vars:     Size  Location     Type
  7529 ;;  prod            4   36[BANK0 ] struct .
  7530 ;;  grs             4   30[BANK0 ] unsigned long 
  7531 ;;  temp            2   40[BANK0 ] struct .
  7532 ;;  bexp            1   35[BANK0 ] unsigned char 
  7533 ;;  aexp            1   34[BANK0 ] unsigned char 
  7534 ;;  sign            1   29[BANK0 ] unsigned char 
  7535 ;; Return value:  Size  Location     Type
  7536 ;;                  4   16[BANK0 ] unsigned char 
  7537 ;; Registers used:
  7538 ;;		wreg, status,2, status,0, btemp+1, pclath, cstack
  7539 ;; Tracked objects:
  7540 ;;		On entry : 0/0
  7541 ;;		On exit  : 0/0
  7542 ;;		Unchanged: 0/0
  7543 ;; Data sizes:     COMMON   BANK0   BANK1   BANK3   BANK2
  7544 ;;      Params:         0       8       0       0       0
  7545 ;;      Locals:         0      13       0       0       0
  7546 ;;      Temps:          0       5       0       0       0
  7547 ;;      Totals:         0      26       0       0       0
  7548 ;;Total ram usage:       26 bytes
  7549 ;; Hardware stack levels used:    1
  7550 ;; Hardware stack levels required when called:    2
  7551 ;; This function calls:
  7552 ;;		__Umul8_16
  7553 ;; This function is called by:
  7554 ;;		_main
  7555 ;; This function uses a non-reentrant model
  7556 ;;
  7557                           psect	text14,local,class=CODE,delta=2,merge=1,group=1
  7558                           	file	"C:\Program Files (x86)\Microchip\xc8\v2.00\pic\sources\c90\common\sprcmul.c"
  7559                           	line	8
  7560                           global __ptext14
  7561                           __ptext14:	;psect for function ___flmul
  7562  0024                     psect	text14
  7563                           	file	"C:\Program Files (x86)\Microchip\xc8\v2.00\pic\sources\c90\common\sprcmul.c"
  7564                           	line	8
  7565                           	global	__size_of___flmul
  7566                           	__size_of___flmul	equ	__end_of___flmul-___flmul
  7567  0375                     	
  7568                           ___flmul:	
  7569  0024                     ;incstack = 0
  7570                           	opt	stack 5
  7571                           ; Regs used in ___flmul: [wreg+status,2+status,0+btemp+1+pclath+cstack]
  7572                           	line	17
  7573                           	
  7574                           l2803:	
  7575  0024                     	bcf	status, 5	;RP0=0, select bank0
  7576  0024  1283               	bcf	status, 6	;RP1=0, select bank0
  7577  0025  1303               	movf	0+(___flmul@b)+03h,w
  7578  0026  0833               	andlw	080h
  7579  0027  3980               	movwf	(??___flmul+0)+0
  7580  0028  00B8               	movf	(??___flmul+0)+0,w
  7581  0029  0838               	movwf	(___flmul@sign)
  7582  002A  00BD               	line	18
  7583                           	
  7584                           l2805:	
  7585  002B                     	movf	0+(___flmul@b)+03h,w
  7586  002B  0833               	movwf	(??___flmul+0)+0
  7587  002C  00B8               	addwf	(??___flmul+0)+0,w
  7588  002D  0738               	movwf	(??___flmul+1)+0
  7589  002E  00B9               	movf	(??___flmul+1)+0,w
  7590  002F  0839               	movwf	(___flmul@bexp)
  7591  0030  00C3               	line	19
  7592                           	
  7593                           l2807:	
  7594  0031                     	btfss	0+(___flmul@b)+02h,(7)&7
  7595  0031  1FB2               	goto	u3211
  7596  0032  2834               	goto	u3210
  7597  0033  2835               u3211:
  7598  0034                     	goto	l2811
  7599  0034  2837               u3210:
  7600  0035                     	line	20
  7601                           	
  7602                           l2809:	
  7603  0035                     	bsf	(___flmul@bexp)+(0/8),(0)&7
  7604  0035  1443               	goto	l2811
  7605  0036  2837               	line	21
  7606                           	
  7607                           l782:	
  7608  0037                     	line	24
  7609                           	
  7610                           l2811:	
  7611  0037                     	movf	((___flmul@bexp)),w
  7612  0037  0843               	btfsc	status,2
  7613  0038  1903               	goto	u3221
  7614  0039  283B               	goto	u3220
  7615  003A  283C               u3221:
  7616  003B                     	goto	l2819
  7617  003B  284C               u3220:
  7618  003C                     	line	26
  7619                           	
  7620                           l2813:	
  7621  003C                     		incf	((___flmul@bexp)),w
  7622  003C  0A43               	btfss	status,2
  7623  003D  1D03               	goto	u3231
  7624  003E  2840               	goto	u3230
  7625  003F  2841               u3231:
  7626  0040                     	goto	l2817
  7627  0040  284A               u3230:
  7628  0041                     	line	28
  7629                           	
  7630                           l2815:	
  7631  0041                     	movlw	0x0
  7632  0041  3000               	movwf	(___flmul@b+3)
  7633  0042  00B3               	movlw	0x0
  7634  0043  3000               	movwf	(___flmul@b+2)
  7635  0044  00B2               	movlw	0x0
  7636  0045  3000               	movwf	(___flmul@b+1)
  7637  0046  00B1               	movlw	0x0
  7638  0047  3000               	movwf	(___flmul@b)
  7639  0048  00B0               
  7640                           	goto	l2817
  7641  0049  284A               	line	29
  7642                           	
  7643                           l784:	
  7644  004A                     	line	31
  7645                           	
  7646                           l2817:	
  7647  004A                     	bsf	(___flmul@b)+(23/8),(23)&7
  7648  004A  17B2               	line	33
  7649                           	goto	l2821
  7650  004B  2855               	line	34
  7651                           	
  7652                           l783:	
  7653  004C                     	line	36
  7654                           	
  7655                           l2819:	
  7656  004C                     	movlw	0x0
  7657  004C  3000               	movwf	(___flmul@b+3)
  7658  004D  00B3               	movlw	0x0
  7659  004E  3000               	movwf	(___flmul@b+2)
  7660  004F  00B2               	movlw	0x0
  7661  0050  3000               	movwf	(___flmul@b+1)
  7662  0051  00B1               	movlw	0x0
  7663  0052  3000               	movwf	(___flmul@b)
  7664  0053  00B0               
  7665                           	goto	l2821
  7666  0054  2855               	line	37
  7667                           	
  7668                           l785:	
  7669  0055                     	line	39
  7670                           	
  7671                           l2821:	
  7672  0055                     	movf	0+(___flmul@a)+03h,w
  7673  0055  0837               	andlw	080h
  7674  0056  3980               	movwf	(??___flmul+0)+0
  7675  0057  00B8               	movf	(??___flmul+0)+0,w
  7676  0058  0838               	xorwf	(___flmul@sign),f
  7677  0059  06BD               	line	40
  7678                           	
  7679                           l2823:	
  7680  005A                     	movf	0+(___flmul@a)+03h,w
  7681  005A  0837               	movwf	(??___flmul+0)+0
  7682  005B  00B8               	addwf	(??___flmul+0)+0,w
  7683  005C  0738               	movwf	(??___flmul+1)+0
  7684  005D  00B9               	movf	(??___flmul+1)+0,w
  7685  005E  0839               	movwf	(___flmul@aexp)
  7686  005F  00C2               	line	41
  7687                           	
  7688                           l2825:	
  7689  0060                     	btfss	0+(___flmul@a)+02h,(7)&7
  7690  0060  1FB6               	goto	u3241
  7691  0061  2863               	goto	u3240
  7692  0062  2864               u3241:
  7693  0063                     	goto	l2829
  7694  0063  2866               u3240:
  7695  0064                     	line	42
  7696                           	
  7697                           l2827:	
  7698  0064                     	bsf	(___flmul@aexp)+(0/8),(0)&7
  7699  0064  1442               	goto	l2829
  7700  0065  2866               	line	43
  7701                           	
  7702                           l786:	
  7703  0066                     	line	45
  7704                           	
  7705                           l2829:	
  7706  0066                     	movf	((___flmul@aexp)),w
  7707  0066  0842               	btfsc	status,2
  7708  0067  1903               	goto	u3251
  7709  0068  286A               	goto	u3250
  7710  0069  286B               u3251:
  7711  006A                     	goto	l2837
  7712  006A  287B               u3250:
  7713  006B                     	line	48
  7714                           	
  7715                           l2831:	
  7716  006B                     		incf	((___flmul@aexp)),w
  7717  006B  0A42               	btfss	status,2
  7718  006C  1D03               	goto	u3261
  7719  006D  286F               	goto	u3260
  7720  006E  2870               u3261:
  7721  006F                     	goto	l2835
  7722  006F  2879               u3260:
  7723  0070                     	line	50
  7724                           	
  7725                           l2833:	
  7726  0070                     	movlw	0x0
  7727  0070  3000               	movwf	(___flmul@a+3)
  7728  0071  00B7               	movlw	0x0
  7729  0072  3000               	movwf	(___flmul@a+2)
  7730  0073  00B6               	movlw	0x0
  7731  0074  3000               	movwf	(___flmul@a+1)
  7732  0075  00B5               	movlw	0x0
  7733  0076  3000               	movwf	(___flmul@a)
  7734  0077  00B4               
  7735                           	goto	l2835
  7736  0078  2879               	line	51
  7737                           	
  7738                           l788:	
  7739  0079                     	line	53
  7740                           	
  7741                           l2835:	
  7742  0079                     	bsf	(___flmul@a)+(23/8),(23)&7
  7743  0079  17B6               	line	54
  7744                           	goto	l2839
  7745  007A  2884               	line	55
  7746                           	
  7747                           l787:	
  7748  007B                     	line	57
  7749                           	
  7750                           l2837:	
  7751  007B                     	movlw	0x0
  7752  007B  3000               	movwf	(___flmul@a+3)
  7753  007C  00B7               	movlw	0x0
  7754  007D  3000               	movwf	(___flmul@a+2)
  7755  007E  00B6               	movlw	0x0
  7756  007F  3000               	movwf	(___flmul@a+1)
  7757  0080  00B5               	movlw	0x0
  7758  0081  3000               	movwf	(___flmul@a)
  7759  0082  00B4               
  7760                           	goto	l2839
  7761  0083  2884               	line	58
  7762                           	
  7763                           l789:	
  7764  0084                     	line	65
  7765                           	
  7766                           l2839:	
  7767  0084                     	movf	((___flmul@aexp)),w
  7768  0084  0842               	btfsc	status,2
  7769  0085  1903               	goto	u3271
  7770  0086  2888               	goto	u3270
  7771  0087  2889               u3271:
  7772  0088                     	goto	l2843
  7773  0088  288F               u3270:
  7774  0089                     	
  7775                           l2841:	
  7776  0089                     	movf	((___flmul@bexp)),w
  7777  0089  0843               	btfss	status,2
  7778  008A  1D03               	goto	u3281
  7779  008B  288D               	goto	u3280
  7780  008C  288E               u3281:
  7781  008D                     	goto	l2847
  7782  008D  2899               u3280:
  7783  008E                     	goto	l2843
  7784  008E  288F               	
  7785                           l792:	
  7786  008F                     	line	66
  7787                           	
  7788                           l2843:	
  7789  008F                     	movlw	0x0
  7790  008F  3000               	movwf	(?___flmul+3)
  7791  0090  00B3               	movlw	0x0
  7792  0091  3000               	movwf	(?___flmul+2)
  7793  0092  00B2               	movlw	0x0
  7794  0093  3000               	movwf	(?___flmul+1)
  7795  0094  00B1               	movlw	0x0
  7796  0095  3000               	movwf	(?___flmul)
  7797  0096  00B0               
  7798                           	goto	l793
  7799  0097  2B98               	
  7800                           l2845:	
  7801  0098                     	goto	l793
  7802  0098  2B98               	line	67
  7803                           	
  7804                           l790:	
  7805  0099                     	line	119
  7806                           	
  7807                           l2847:	
  7808  0099                     	movf	(___flmul@b),w
  7809  0099  0830               	movwf	(??___flmul+0)+0
  7810  009A  00B8               	movf	(??___flmul+0)+0,w
  7811  009B  0838               	movwf	(__Umul8_16@multiplicand)
  7812  009C  00F3               	movf	0+(___flmul@a)+02h,w
  7813  009D  0836               	fcall	__Umul8_16
  7814  009E  160A  118A  25F9  120A  118A  	movf	(1+(?__Umul8_16)),w
  7815  00A3  0874               	bcf	status, 5	;RP0=0, select bank0
  7816  00A4  1283               	bcf	status, 6	;RP1=0, select bank0
  7817  00A5  1303               	movwf	(___flmul@temp+1)
  7818  00A6  00C9               	movf	(0+(?__Umul8_16)),w
  7819  00A7  0873               	movwf	(___flmul@temp)
  7820  00A8  00C8               	line	120
  7821                           	
  7822                           l2849:	
  7823  00A9                     	movf	(___flmul@temp),w
  7824  00A9  0848               	movwf	(??___flmul+0)+0
  7825  00AA  00B8               	clrf	(??___flmul+0)+0+1
  7826  00AB  01B9               	clrf	(??___flmul+0)+0+2
  7827  00AC  01BA               	clrf	(??___flmul+0)+0+3
  7828  00AD  01BB               	movf	3+(??___flmul+0)+0,w
  7829  00AE  083B               	movwf	(___flmul@grs+3)
  7830  00AF  00C1               	movf	2+(??___flmul+0)+0,w
  7831  00B0  083A               	movwf	(___flmul@grs+2)
  7832  00B1  00C0               	movf	1+(??___flmul+0)+0,w
  7833  00B2  0839               	movwf	(___flmul@grs+1)
  7834  00B3  00BF               	movf	0+(??___flmul+0)+0,w
  7835  00B4  0838               	movwf	(___flmul@grs)
  7836  00B5  00BE               
  7837                           	line	121
  7838                           	
  7839                           l2851:	
  7840  00B6                     	movf	0+(___flmul@temp)+01h,w
  7841  00B6  0849               	movwf	(??___flmul+0)+0
  7842  00B7  00B8               	clrf	(??___flmul+0)+0+1
  7843  00B8  01B9               	clrf	(??___flmul+0)+0+2
  7844  00B9  01BA               	clrf	(??___flmul+0)+0+3
  7845  00BA  01BB               	movf	3+(??___flmul+0)+0,w
  7846  00BB  083B               	movwf	(___flmul@prod+3)
  7847  00BC  00C7               	movf	2+(??___flmul+0)+0,w
  7848  00BD  083A               	movwf	(___flmul@prod+2)
  7849  00BE  00C6               	movf	1+(??___flmul+0)+0,w
  7850  00BF  0839               	movwf	(___flmul@prod+1)
  7851  00C0  00C5               	movf	0+(??___flmul+0)+0,w
  7852  00C1  0838               	movwf	(___flmul@prod)
  7853  00C2  00C4               
  7854                           	line	122
  7855                           	movf	0+(___flmul@b)+01h,w
  7856  00C3  0831               	movwf	(??___flmul+0)+0
  7857  00C4  00B8               	movf	(??___flmul+0)+0,w
  7858  00C5  0838               	movwf	(__Umul8_16@multiplicand)
  7859  00C6  00F3               	movf	0+(___flmul@a)+01h,w
  7860  00C7  0835               	fcall	__Umul8_16
  7861  00C8  160A  118A  25F9  120A  118A  	movf	(1+(?__Umul8_16)),w
  7862  00CD  0874               	bcf	status, 5	;RP0=0, select bank0
  7863  00CE  1283               	bcf	status, 6	;RP1=0, select bank0
  7864  00CF  1303               	movwf	(___flmul@temp+1)
  7865  00D0  00C9               	movf	(0+(?__Umul8_16)),w
  7866  00D1  0873               	movwf	(___flmul@temp)
  7867  00D2  00C8               	line	123
  7868                           	
  7869                           l2853:	
  7870  00D3                     	movf	(___flmul@temp),w
  7871  00D3  0848               	movwf	(??___flmul+0)+0
  7872  00D4  00B8               	clrf	(??___flmul+0)+0+1
  7873  00D5  01B9               	clrf	(??___flmul+0)+0+2
  7874  00D6  01BA               	clrf	(??___flmul+0)+0+3
  7875  00D7  01BB               	movf	0+(??___flmul+0)+0,w
  7876  00D8  0838               	addwf	(___flmul@grs),f
  7877  00D9  07BE               	movf	1+(??___flmul+0)+0,w
  7878  00DA  0839               	clrz
  7879  00DB  1103               	skipnc
  7880  00DC  1803               	addlw	1
  7881  00DD  3E01               	skipnz
  7882  00DE  1903               	goto	u3291
  7883  00DF  28E1               	addwf	(___flmul@grs+1),f
  7884  00E0  07BF               u3291:
  7885  00E1                     	movf	2+(??___flmul+0)+0,w
  7886  00E1  083A               	clrz
  7887  00E2  1103               	skipnc
  7888  00E3  1803               	addlw	1
  7889  00E4  3E01               	skipnz
  7890  00E5  1903               	goto	u3292
  7891  00E6  28E8               	addwf	(___flmul@grs+2),f
  7892  00E7  07C0               u3292:
  7893  00E8                     	movf	3+(??___flmul+0)+0,w
  7894  00E8  083B               	clrz
  7895  00E9  1103               	skipnc
  7896  00EA  1803               	addlw	1
  7897  00EB  3E01               	skipnz
  7898  00EC  1903               	goto	u3293
  7899  00ED  28EF               	addwf	(___flmul@grs+3),f
  7900  00EE  07C1               u3293:
  7901  00EF                     
  7902                           	line	124
  7903                           	
  7904                           l2855:	
  7905  00EF                     	movf	0+(___flmul@temp)+01h,w
  7906  00EF  0849               	movwf	(??___flmul+0)+0
  7907  00F0  00B8               	clrf	(??___flmul+0)+0+1
  7908  00F1  01B9               	clrf	(??___flmul+0)+0+2
  7909  00F2  01BA               	clrf	(??___flmul+0)+0+3
  7910  00F3  01BB               	movf	0+(??___flmul+0)+0,w
  7911  00F4  0838               	addwf	(___flmul@prod),f
  7912  00F5  07C4               	movf	1+(??___flmul+0)+0,w
  7913  00F6  0839               	clrz
  7914  00F7  1103               	skipnc
  7915  00F8  1803               	addlw	1
  7916  00F9  3E01               	skipnz
  7917  00FA  1903               	goto	u3301
  7918  00FB  28FD               	addwf	(___flmul@prod+1),f
  7919  00FC  07C5               u3301:
  7920  00FD                     	movf	2+(??___flmul+0)+0,w
  7921  00FD  083A               	clrz
  7922  00FE  1103               	skipnc
  7923  00FF  1803               	addlw	1
  7924  0100  3E01               	skipnz
  7925  0101  1903               	goto	u3302
  7926  0102  2904               	addwf	(___flmul@prod+2),f
  7927  0103  07C6               u3302:
  7928  0104                     	movf	3+(??___flmul+0)+0,w
  7929  0104  083B               	clrz
  7930  0105  1103               	skipnc
  7931  0106  1803               	addlw	1
  7932  0107  3E01               	skipnz
  7933  0108  1903               	goto	u3303
  7934  0109  290B               	addwf	(___flmul@prod+3),f
  7935  010A  07C7               u3303:
  7936  010B                     
  7937                           	line	125
  7938                           	movf	0+(___flmul@b)+02h,w
  7939  010B  0832               	movwf	(??___flmul+0)+0
  7940  010C  00B8               	movf	(??___flmul+0)+0,w
  7941  010D  0838               	movwf	(__Umul8_16@multiplicand)
  7942  010E  00F3               	movf	(___flmul@a),w
  7943  010F  0834               	fcall	__Umul8_16
  7944  0110  160A  118A  25F9  120A  118A  	movf	(1+(?__Umul8_16)),w
  7945  0115  0874               	bcf	status, 5	;RP0=0, select bank0
  7946  0116  1283               	bcf	status, 6	;RP1=0, select bank0
  7947  0117  1303               	movwf	(___flmul@temp+1)
  7948  0118  00C9               	movf	(0+(?__Umul8_16)),w
  7949  0119  0873               	movwf	(___flmul@temp)
  7950  011A  00C8               	line	126
  7951                           	
  7952                           l2857:	
  7953  011B                     	movf	(___flmul@temp),w
  7954  011B  0848               	movwf	(??___flmul+0)+0
  7955  011C  00B8               	clrf	(??___flmul+0)+0+1
  7956  011D  01B9               	clrf	(??___flmul+0)+0+2
  7957  011E  01BA               	clrf	(??___flmul+0)+0+3
  7958  011F  01BB               	movf	0+(??___flmul+0)+0,w
  7959  0120  0838               	addwf	(___flmul@grs),f
  7960  0121  07BE               	movf	1+(??___flmul+0)+0,w
  7961  0122  0839               	clrz
  7962  0123  1103               	skipnc
  7963  0124  1803               	addlw	1
  7964  0125  3E01               	skipnz
  7965  0126  1903               	goto	u3311
  7966  0127  2929               	addwf	(___flmul@grs+1),f
  7967  0128  07BF               u3311:
  7968  0129                     	movf	2+(??___flmul+0)+0,w
  7969  0129  083A               	clrz
  7970  012A  1103               	skipnc
  7971  012B  1803               	addlw	1
  7972  012C  3E01               	skipnz
  7973  012D  1903               	goto	u3312
  7974  012E  2930               	addwf	(___flmul@grs+2),f
  7975  012F  07C0               u3312:
  7976  0130                     	movf	3+(??___flmul+0)+0,w
  7977  0130  083B               	clrz
  7978  0131  1103               	skipnc
  7979  0132  1803               	addlw	1
  7980  0133  3E01               	skipnz
  7981  0134  1903               	goto	u3313
  7982  0135  2937               	addwf	(___flmul@grs+3),f
  7983  0136  07C1               u3313:
  7984  0137                     
  7985                           	line	127
  7986                           	
  7987                           l2859:	
  7988  0137                     	movf	0+(___flmul@temp)+01h,w
  7989  0137  0849               	movwf	(??___flmul+0)+0
  7990  0138  00B8               	clrf	(??___flmul+0)+0+1
  7991  0139  01B9               	clrf	(??___flmul+0)+0+2
  7992  013A  01BA               	clrf	(??___flmul+0)+0+3
  7993  013B  01BB               	movf	0+(??___flmul+0)+0,w
  7994  013C  0838               	addwf	(___flmul@prod),f
  7995  013D  07C4               	movf	1+(??___flmul+0)+0,w
  7996  013E  0839               	clrz
  7997  013F  1103               	skipnc
  7998  0140  1803               	addlw	1
  7999  0141  3E01               	skipnz
  8000  0142  1903               	goto	u3321
  8001  0143  2945               	addwf	(___flmul@prod+1),f
  8002  0144  07C5               u3321:
  8003  0145                     	movf	2+(??___flmul+0)+0,w
  8004  0145  083A               	clrz
  8005  0146  1103               	skipnc
  8006  0147  1803               	addlw	1
  8007  0148  3E01               	skipnz
  8008  0149  1903               	goto	u3322
  8009  014A  294C               	addwf	(___flmul@prod+2),f
  8010  014B  07C6               u3322:
  8011  014C                     	movf	3+(??___flmul+0)+0,w
  8012  014C  083B               	clrz
  8013  014D  1103               	skipnc
  8014  014E  1803               	addlw	1
  8015  014F  3E01               	skipnz
  8016  0150  1903               	goto	u3323
  8017  0151  2953               	addwf	(___flmul@prod+3),f
  8018  0152  07C7               u3323:
  8019  0153                     
  8020                           	line	128
  8021                           	
  8022                           l2861:	
  8023  0153                     	movlw	08h
  8024  0153  3008               	movwf	(??___flmul+0)+0
  8025  0154  00B8               u3335:
  8026  0155                     	clrc
  8027  0155  1003               	rlf	(___flmul@grs),f
  8028  0156  0DBE               	rlf	(___flmul@grs+1),f
  8029  0157  0DBF               	rlf	(___flmul@grs+2),f
  8030  0158  0DC0               	rlf	(___flmul@grs+3),f
  8031  0159  0DC1               	decfsz	(??___flmul+0)+0
  8032  015A  0BB8               	goto	u3335
  8033  015B  2955               	line	129
  8034                           	
  8035                           l2863:	
  8036  015C                     	movf	0+(___flmul@b)+01h,w
  8037  015C  0831               	movwf	(??___flmul+0)+0
  8038  015D  00B8               	movf	(??___flmul+0)+0,w
  8039  015E  0838               	movwf	(__Umul8_16@multiplicand)
  8040  015F  00F3               	movf	(___flmul@a),w
  8041  0160  0834               	fcall	__Umul8_16
  8042  0161  160A  118A  25F9  120A  118A  	movf	(1+(?__Umul8_16)),w
  8043  0166  0874               	bcf	status, 5	;RP0=0, select bank0
  8044  0167  1283               	bcf	status, 6	;RP1=0, select bank0
  8045  0168  1303               	movwf	(___flmul@temp+1)
  8046  0169  00C9               	movf	(0+(?__Umul8_16)),w
  8047  016A  0873               	movwf	(___flmul@temp)
  8048  016B  00C8               	line	130
  8049                           	
  8050                           l2865:	
  8051  016C                     	movf	(___flmul@temp),w
  8052  016C  0848               	movwf	((??___flmul+0)+0)
  8053  016D  00B8               	movf	(___flmul@temp+1),w
  8054  016E  0849               	movwf	((??___flmul+0)+0+1)
  8055  016F  00B9               	clrf	((??___flmul+0)+0+2)
  8056  0170  01BA               	clrf	((??___flmul+0)+0+3)
  8057  0171  01BB               	movf	0+(??___flmul+0)+0,w
  8058  0172  0838               	addwf	(___flmul@grs),f
  8059  0173  07BE               	movf	1+(??___flmul+0)+0,w
  8060  0174  0839               	clrz
  8061  0175  1103               	skipnc
  8062  0176  1803               	addlw	1
  8063  0177  3E01               	skipnz
  8064  0178  1903               	goto	u3341
  8065  0179  297B               	addwf	(___flmul@grs+1),f
  8066  017A  07BF               u3341:
  8067  017B                     	movf	2+(??___flmul+0)+0,w
  8068  017B  083A               	clrz
  8069  017C  1103               	skipnc
  8070  017D  1803               	addlw	1
  8071  017E  3E01               	skipnz
  8072  017F  1903               	goto	u3342
  8073  0180  2982               	addwf	(___flmul@grs+2),f
  8074  0181  07C0               u3342:
  8075  0182                     	movf	3+(??___flmul+0)+0,w
  8076  0182  083B               	clrz
  8077  0183  1103               	skipnc
  8078  0184  1803               	addlw	1
  8079  0185  3E01               	skipnz
  8080  0186  1903               	goto	u3343
  8081  0187  2989               	addwf	(___flmul@grs+3),f
  8082  0188  07C1               u3343:
  8083  0189                     
  8084                           	line	131
  8085                           	
  8086                           l2867:	
  8087  0189                     	movf	(___flmul@b),w
  8088  0189  0830               	movwf	(??___flmul+0)+0
  8089  018A  00B8               	movf	(??___flmul+0)+0,w
  8090  018B  0838               	movwf	(__Umul8_16@multiplicand)
  8091  018C  00F3               	movf	0+(___flmul@a)+01h,w
  8092  018D  0835               	fcall	__Umul8_16
  8093  018E  160A  118A  25F9  120A  118A  	movf	(1+(?__Umul8_16)),w
  8094  0193  0874               	bcf	status, 5	;RP0=0, select bank0
  8095  0194  1283               	bcf	status, 6	;RP1=0, select bank0
  8096  0195  1303               	movwf	(___flmul@temp+1)
  8097  0196  00C9               	movf	(0+(?__Umul8_16)),w
  8098  0197  0873               	movwf	(___flmul@temp)
  8099  0198  00C8               	line	132
  8100                           	
  8101                           l2869:	
  8102  0199                     	movf	(___flmul@temp),w
  8103  0199  0848               	movwf	((??___flmul+0)+0)
  8104  019A  00B8               	movf	(___flmul@temp+1),w
  8105  019B  0849               	movwf	((??___flmul+0)+0+1)
  8106  019C  00B9               	clrf	((??___flmul+0)+0+2)
  8107  019D  01BA               	clrf	((??___flmul+0)+0+3)
  8108  019E  01BB               	movf	0+(??___flmul+0)+0,w
  8109  019F  0838               	addwf	(___flmul@grs),f
  8110  01A0  07BE               	movf	1+(??___flmul+0)+0,w
  8111  01A1  0839               	clrz
  8112  01A2  1103               	skipnc
  8113  01A3  1803               	addlw	1
  8114  01A4  3E01               	skipnz
  8115  01A5  1903               	goto	u3351
  8116  01A6  29A8               	addwf	(___flmul@grs+1),f
  8117  01A7  07BF               u3351:
  8118  01A8                     	movf	2+(??___flmul+0)+0,w
  8119  01A8  083A               	clrz
  8120  01A9  1103               	skipnc
  8121  01AA  1803               	addlw	1
  8122  01AB  3E01               	skipnz
  8123  01AC  1903               	goto	u3352
  8124  01AD  29AF               	addwf	(___flmul@grs+2),f
  8125  01AE  07C0               u3352:
  8126  01AF                     	movf	3+(??___flmul+0)+0,w
  8127  01AF  083B               	clrz
  8128  01B0  1103               	skipnc
  8129  01B1  1803               	addlw	1
  8130  01B2  3E01               	skipnz
  8131  01B3  1903               	goto	u3353
  8132  01B4  29B6               	addwf	(___flmul@grs+3),f
  8133  01B5  07C1               u3353:
  8134  01B6                     
  8135                           	line	133
  8136                           	
  8137                           l2871:	
  8138  01B6                     	movlw	08h
  8139  01B6  3008               	movwf	(??___flmul+0)+0
  8140  01B7  00B8               u3365:
  8141  01B8                     	clrc
  8142  01B8  1003               	rlf	(___flmul@grs),f
  8143  01B9  0DBE               	rlf	(___flmul@grs+1),f
  8144  01BA  0DBF               	rlf	(___flmul@grs+2),f
  8145  01BB  0DC0               	rlf	(___flmul@grs+3),f
  8146  01BC  0DC1               	decfsz	(??___flmul+0)+0
  8147  01BD  0BB8               	goto	u3365
  8148  01BE  29B8               	line	134
  8149                           	movf	(___flmul@b),w
  8150  01BF  0830               	movwf	(??___flmul+0)+0
  8151  01C0  00B8               	movf	(??___flmul+0)+0,w
  8152  01C1  0838               	movwf	(__Umul8_16@multiplicand)
  8153  01C2  00F3               	movf	(___flmul@a),w
  8154  01C3  0834               	fcall	__Umul8_16
  8155  01C4  160A  118A  25F9  120A  118A  	movf	(1+(?__Umul8_16)),w
  8156  01C9  0874               	bcf	status, 5	;RP0=0, select bank0
  8157  01CA  1283               	bcf	status, 6	;RP1=0, select bank0
  8158  01CB  1303               	movwf	(___flmul@temp+1)
  8159  01CC  00C9               	movf	(0+(?__Umul8_16)),w
  8160  01CD  0873               	movwf	(___flmul@temp)
  8161  01CE  00C8               	line	135
  8162                           	
  8163                           l2873:	
  8164  01CF                     	movf	(___flmul@temp),w
  8165  01CF  0848               	movwf	((??___flmul+0)+0)
  8166  01D0  00B8               	movf	(___flmul@temp+1),w
  8167  01D1  0849               	movwf	((??___flmul+0)+0+1)
  8168  01D2  00B9               	clrf	((??___flmul+0)+0+2)
  8169  01D3  01BA               	clrf	((??___flmul+0)+0+3)
  8170  01D4  01BB               	movf	0+(??___flmul+0)+0,w
  8171  01D5  0838               	addwf	(___flmul@grs),f
  8172  01D6  07BE               	movf	1+(??___flmul+0)+0,w
  8173  01D7  0839               	clrz
  8174  01D8  1103               	skipnc
  8175  01D9  1803               	addlw	1
  8176  01DA  3E01               	skipnz
  8177  01DB  1903               	goto	u3371
  8178  01DC  29DE               	addwf	(___flmul@grs+1),f
  8179  01DD  07BF               u3371:
  8180  01DE                     	movf	2+(??___flmul+0)+0,w
  8181  01DE  083A               	clrz
  8182  01DF  1103               	skipnc
  8183  01E0  1803               	addlw	1
  8184  01E1  3E01               	skipnz
  8185  01E2  1903               	goto	u3372
  8186  01E3  29E5               	addwf	(___flmul@grs+2),f
  8187  01E4  07C0               u3372:
  8188  01E5                     	movf	3+(??___flmul+0)+0,w
  8189  01E5  083B               	clrz
  8190  01E6  1103               	skipnc
  8191  01E7  1803               	addlw	1
  8192  01E8  3E01               	skipnz
  8193  01E9  1903               	goto	u3373
  8194  01EA  29EC               	addwf	(___flmul@grs+3),f
  8195  01EB  07C1               u3373:
  8196  01EC                     
  8197                           	line	136
  8198                           	
  8199                           l2875:	
  8200  01EC                     	movf	0+(___flmul@b)+01h,w
  8201  01EC  0831               	movwf	(??___flmul+0)+0
  8202  01ED  00B8               	movf	(??___flmul+0)+0,w
  8203  01EE  0838               	movwf	(__Umul8_16@multiplicand)
  8204  01EF  00F3               	movf	0+(___flmul@a)+02h,w
  8205  01F0  0836               	fcall	__Umul8_16
  8206  01F1  160A  118A  25F9  120A  118A  	movf	(1+(?__Umul8_16)),w
  8207  01F6  0874               	bcf	status, 5	;RP0=0, select bank0
  8208  01F7  1283               	bcf	status, 6	;RP1=0, select bank0
  8209  01F8  1303               	movwf	(___flmul@temp+1)
  8210  01F9  00C9               	movf	(0+(?__Umul8_16)),w
  8211  01FA  0873               	movwf	(___flmul@temp)
  8212  01FB  00C8               	line	137
  8213                           	movf	(___flmul@temp),w
  8214  01FC  0848               	movwf	((??___flmul+0)+0)
  8215  01FD  00B8               	movf	(___flmul@temp+1),w
  8216  01FE  0849               	movwf	((??___flmul+0)+0+1)
  8217  01FF  00B9               	clrf	((??___flmul+0)+0+2)
  8218  0200  01BA               	clrf	((??___flmul+0)+0+3)
  8219  0201  01BB               	movf	0+(??___flmul+0)+0,w
  8220  0202  0838               	addwf	(___flmul@prod),f
  8221  0203  07C4               	movf	1+(??___flmul+0)+0,w
  8222  0204  0839               	clrz
  8223  0205  1103               	skipnc
  8224  0206  1803               	addlw	1
  8225  0207  3E01               	skipnz
  8226  0208  1903               	goto	u3381
  8227  0209  2A0B               	addwf	(___flmul@prod+1),f
  8228  020A  07C5               u3381:
  8229  020B                     	movf	2+(??___flmul+0)+0,w
  8230  020B  083A               	clrz
  8231  020C  1103               	skipnc
  8232  020D  1803               	addlw	1
  8233  020E  3E01               	skipnz
  8234  020F  1903               	goto	u3382
  8235  0210  2A12               	addwf	(___flmul@prod+2),f
  8236  0211  07C6               u3382:
  8237  0212                     	movf	3+(??___flmul+0)+0,w
  8238  0212  083B               	clrz
  8239  0213  1103               	skipnc
  8240  0214  1803               	addlw	1
  8241  0215  3E01               	skipnz
  8242  0216  1903               	goto	u3383
  8243  0217  2A19               	addwf	(___flmul@prod+3),f
  8244  0218  07C7               u3383:
  8245  0219                     
  8246                           	line	138
  8247                           	
  8248                           l2877:	
  8249  0219                     	movf	0+(___flmul@b)+02h,w
  8250  0219  0832               	movwf	(??___flmul+0)+0
  8251  021A  00B8               	movf	(??___flmul+0)+0,w
  8252  021B  0838               	movwf	(__Umul8_16@multiplicand)
  8253  021C  00F3               	movf	0+(___flmul@a)+01h,w
  8254  021D  0835               	fcall	__Umul8_16
  8255  021E  160A  118A  25F9  120A  118A  	movf	(1+(?__Umul8_16)),w
  8256  0223  0874               	bcf	status, 5	;RP0=0, select bank0
  8257  0224  1283               	bcf	status, 6	;RP1=0, select bank0
  8258  0225  1303               	movwf	(___flmul@temp+1)
  8259  0226  00C9               	movf	(0+(?__Umul8_16)),w
  8260  0227  0873               	movwf	(___flmul@temp)
  8261  0228  00C8               	line	139
  8262                           	
  8263                           l2879:	
  8264  0229                     	movf	(___flmul@temp),w
  8265  0229  0848               	movwf	((??___flmul+0)+0)
  8266  022A  00B8               	movf	(___flmul@temp+1),w
  8267  022B  0849               	movwf	((??___flmul+0)+0+1)
  8268  022C  00B9               	clrf	((??___flmul+0)+0+2)
  8269  022D  01BA               	clrf	((??___flmul+0)+0+3)
  8270  022E  01BB               	movf	0+(??___flmul+0)+0,w
  8271  022F  0838               	addwf	(___flmul@prod),f
  8272  0230  07C4               	movf	1+(??___flmul+0)+0,w
  8273  0231  0839               	clrz
  8274  0232  1103               	skipnc
  8275  0233  1803               	addlw	1
  8276  0234  3E01               	skipnz
  8277  0235  1903               	goto	u3391
  8278  0236  2A38               	addwf	(___flmul@prod+1),f
  8279  0237  07C5               u3391:
  8280  0238                     	movf	2+(??___flmul+0)+0,w
  8281  0238  083A               	clrz
  8282  0239  1103               	skipnc
  8283  023A  1803               	addlw	1
  8284  023B  3E01               	skipnz
  8285  023C  1903               	goto	u3392
  8286  023D  2A3F               	addwf	(___flmul@prod+2),f
  8287  023E  07C6               u3392:
  8288  023F                     	movf	3+(??___flmul+0)+0,w
  8289  023F  083B               	clrz
  8290  0240  1103               	skipnc
  8291  0241  1803               	addlw	1
  8292  0242  3E01               	skipnz
  8293  0243  1903               	goto	u3393
  8294  0244  2A46               	addwf	(___flmul@prod+3),f
  8295  0245  07C7               u3393:
  8296  0246                     
  8297                           	line	140
  8298                           	movf	0+(___flmul@b)+02h,w
  8299  0246  0832               	movwf	(??___flmul+0)+0
  8300  0247  00B8               	movf	(??___flmul+0)+0,w
  8301  0248  0838               	movwf	(__Umul8_16@multiplicand)
  8302  0249  00F3               	movf	0+(___flmul@a)+02h,w
  8303  024A  0836               	fcall	__Umul8_16
  8304  024B  160A  118A  25F9  120A  118A  	movf	(1+(?__Umul8_16)),w
  8305  0250  0874               	bcf	status, 5	;RP0=0, select bank0
  8306  0251  1283               	bcf	status, 6	;RP1=0, select bank0
  8307  0252  1303               	movwf	(___flmul@temp+1)
  8308  0253  00C9               	movf	(0+(?__Umul8_16)),w
  8309  0254  0873               	movwf	(___flmul@temp)
  8310  0255  00C8               	line	141
  8311                           	
  8312                           l2881:	
  8313  0256                     	movf	(___flmul@temp),w
  8314  0256  0848               	movwf	((??___flmul+0)+0)
  8315  0257  00B8               	movf	(___flmul@temp+1),w
  8316  0258  0849               	movwf	((??___flmul+0)+0+1)
  8317  0259  00B9               	clrf	((??___flmul+0)+0+2)
  8318  025A  01BA               	clrf	((??___flmul+0)+0+3)
  8319  025B  01BB               	movlw	08h
  8320  025C  3008               u3405:
  8321  025D                     	clrc
  8322  025D  1003               	rlf	(??___flmul+0)+0,f
  8323  025E  0DB8               	rlf	(??___flmul+0)+1,f
  8324  025F  0DB9               	rlf	(??___flmul+0)+2,f
  8325  0260  0DBA               	rlf	(??___flmul+0)+3,f
  8326  0261  0DBB               u3400:
  8327  0262                     	addlw	-1
  8328  0262  3EFF               	skipz
  8329  0263  1D03               	goto	u3405
  8330  0264  2A5D               	movf	0+(??___flmul+0)+0,w
  8331  0265  0838               	addwf	(___flmul@prod),f
  8332  0266  07C4               	movf	1+(??___flmul+0)+0,w
  8333  0267  0839               	clrz
  8334  0268  1103               	skipnc
  8335  0269  1803               	addlw	1
  8336  026A  3E01               	skipnz
  8337  026B  1903               	goto	u3411
  8338  026C  2A6E               	addwf	(___flmul@prod+1),f
  8339  026D  07C5               u3411:
  8340  026E                     	movf	2+(??___flmul+0)+0,w
  8341  026E  083A               	clrz
  8342  026F  1103               	skipnc
  8343  0270  1803               	addlw	1
  8344  0271  3E01               	skipnz
  8345  0272  1903               	goto	u3412
  8346  0273  2A75               	addwf	(___flmul@prod+2),f
  8347  0274  07C6               u3412:
  8348  0275                     	movf	3+(??___flmul+0)+0,w
  8349  0275  083B               	clrz
  8350  0276  1103               	skipnc
  8351  0277  1803               	addlw	1
  8352  0278  3E01               	skipnz
  8353  0279  1903               	goto	u3413
  8354  027A  2A7C               	addwf	(___flmul@prod+3),f
  8355  027B  07C7               u3413:
  8356  027C                     
  8357                           	line	145
  8358                           	
  8359                           l2883:	
  8360  027C                     	movf	(___flmul@grs),w
  8361  027C  083E               	movwf	(??___flmul+0)+0
  8362  027D  00B8               	movf	(___flmul@grs+1),w
  8363  027E  083F               	movwf	((??___flmul+0)+0+1)
  8364  027F  00B9               	movf	(___flmul@grs+2),w
  8365  0280  0840               	movwf	((??___flmul+0)+0+2)
  8366  0281  00BA               	movf	(___flmul@grs+3),w
  8367  0282  0841               	movwf	((??___flmul+0)+0+3)
  8368  0283  00BB               	movlw	018h
  8369  0284  3018               u3425:
  8370  0285                     	clrc
  8371  0285  1003               	rrf	(??___flmul+0)+3,f
  8372  0286  0CBB               	rrf	(??___flmul+0)+2,f
  8373  0287  0CBA               	rrf	(??___flmul+0)+1,f
  8374  0288  0CB9               	rrf	(??___flmul+0)+0,f
  8375  0289  0CB8               u3420:
  8376  028A                     	addlw	-1
  8377  028A  3EFF               	skipz
  8378  028B  1D03               	goto	u3425
  8379  028C  2A85               	movf	0+(??___flmul+0)+0,w
  8380  028D  0838               	addwf	(___flmul@prod),f
  8381  028E  07C4               	movf	1+(??___flmul+0)+0,w
  8382  028F  0839               	clrz
  8383  0290  1103               	skipnc
  8384  0291  1803               	addlw	1
  8385  0292  3E01               	skipnz
  8386  0293  1903               	goto	u3431
  8387  0294  2A96               	addwf	(___flmul@prod+1),f
  8388  0295  07C5               u3431:
  8389  0296                     	movf	2+(??___flmul+0)+0,w
  8390  0296  083A               	clrz
  8391  0297  1103               	skipnc
  8392  0298  1803               	addlw	1
  8393  0299  3E01               	skipnz
  8394  029A  1903               	goto	u3432
  8395  029B  2A9D               	addwf	(___flmul@prod+2),f
  8396  029C  07C6               u3432:
  8397  029D                     	movf	3+(??___flmul+0)+0,w
  8398  029D  083B               	clrz
  8399  029E  1103               	skipnc
  8400  029F  1803               	addlw	1
  8401  02A0  3E01               	skipnz
  8402  02A1  1903               	goto	u3433
  8403  02A2  2AA4               	addwf	(___flmul@prod+3),f
  8404  02A3  07C7               u3433:
  8405  02A4                     
  8406                           	line	146
  8407                           	
  8408                           l2885:	
  8409  02A4                     	movlw	08h
  8410  02A4  3008               	movwf	(??___flmul+0)+0
  8411  02A5  00B8               u3445:
  8412  02A6                     	clrc
  8413  02A6  1003               	rlf	(___flmul@grs),f
  8414  02A7  0DBE               	rlf	(___flmul@grs+1),f
  8415  02A8  0DBF               	rlf	(___flmul@grs+2),f
  8416  02A9  0DC0               	rlf	(___flmul@grs+3),f
  8417  02AA  0DC1               	decfsz	(??___flmul+0)+0
  8418  02AB  0BB8               	goto	u3445
  8419  02AC  2AA6               	line	149
  8420                           	
  8421                           l2887:	
  8422  02AD                     	movf	(___flmul@bexp),w
  8423  02AD  0843               	addwf	(___flmul@aexp),w
  8424  02AE  0742               	movwf	(??___flmul+0)+0
  8425  02AF  00B8               	clrf	(??___flmul+0)+0+1
  8426  02B0  01B9               	rlf	1+(??___flmul+0)+0,f
  8427  02B1  0DB9               	
  8428                           	movf	0+(??___flmul+0)+0,w
  8429  02B2  0838               	addlw	low(-126)
  8430  02B3  3E82               	movwf	(___flmul@temp)
  8431  02B4  00C8               	movf	1+(??___flmul+0)+0,w
  8432  02B5  0839               	skipnc
  8433  02B6  1803               	addlw	1
  8434  02B7  3E01               	addlw	high(-126)
  8435  02B8  3EFF               	movwf	1+(___flmul@temp)
  8436  02B9  00C9               	line	152
  8437                           	goto	l2899
  8438  02BA  2ADA               	
  8439                           l795:	
  8440  02BB                     	line	153
  8441                           	
  8442                           l2889:	
  8443  02BB                     	movlw	01h
  8444  02BB  3001               	movwf	(??___flmul+0)+0
  8445  02BC  00B8               u3455:
  8446  02BD                     	clrc
  8447  02BD  1003               	rlf	(___flmul@prod),f
  8448  02BE  0DC4               	rlf	(___flmul@prod+1),f
  8449  02BF  0DC5               	rlf	(___flmul@prod+2),f
  8450  02C0  0DC6               	rlf	(___flmul@prod+3),f
  8451  02C1  0DC7               	decfsz	(??___flmul+0)+0
  8452  02C2  0BB8               	goto	u3455
  8453  02C3  2ABD               	line	154
  8454                           	
  8455                           l2891:	
  8456  02C4                     	btfss	(___flmul@grs+3),(31)&7
  8457  02C4  1FC1               	goto	u3461
  8458  02C5  2AC7               	goto	u3460
  8459  02C6  2AC8               u3461:
  8460  02C7                     	goto	l2895
  8461  02C7  2ACA               u3460:
  8462  02C8                     	line	155
  8463                           	
  8464                           l2893:	
  8465  02C8                     	bsf	(___flmul@prod)+(0/8),(0)&7
  8466  02C8  1444               	goto	l2895
  8467  02C9  2ACA               	line	156
  8468                           	
  8469                           l796:	
  8470  02CA                     	line	157
  8471                           	
  8472                           l2895:	
  8473  02CA                     	movlw	01h
  8474  02CA  3001               	movwf	(??___flmul+0)+0
  8475  02CB  00B8               u3475:
  8476  02CC                     	clrc
  8477  02CC  1003               	rlf	(___flmul@grs),f
  8478  02CD  0DBE               	rlf	(___flmul@grs+1),f
  8479  02CE  0DBF               	rlf	(___flmul@grs+2),f
  8480  02CF  0DC0               	rlf	(___flmul@grs+3),f
  8481  02D0  0DC1               	decfsz	(??___flmul+0)+0
  8482  02D1  0BB8               	goto	u3475
  8483  02D2  2ACC               	line	158
  8484                           	
  8485                           l2897:	
  8486  02D3                     	movlw	0FFh
  8487  02D3  30FF               	addwf	(___flmul@temp),f
  8488  02D4  07C8               	skipnc
  8489  02D5  1803               	incf	(___flmul@temp+1),f
  8490  02D6  0AC9               	movlw	0FFh
  8491  02D7  30FF               	addwf	(___flmul@temp+1),f
  8492  02D8  07C9               	goto	l2899
  8493  02D9  2ADA               	line	159
  8494                           	
  8495                           l794:	
  8496  02DA                     	line	152
  8497                           	
  8498                           l2899:	
  8499  02DA                     	btfss	(___flmul@prod+2),(23)&7
  8500  02DA  1FC6               	goto	u3481
  8501  02DB  2ADD               	goto	u3480
  8502  02DC  2ADE               u3481:
  8503  02DD                     	goto	l2889
  8504  02DD  2ABB               u3480:
  8505  02DE                     	goto	l2901
  8506  02DE  2ADF               	
  8507                           l797:	
  8508  02DF                     	line	163
  8509                           	
  8510                           l2901:	
  8511  02DF                     	clrf	(___flmul@aexp)
  8512  02DF  01C2               	line	164
  8513                           	
  8514                           l2903:	
  8515  02E0                     	btfss	(___flmul@grs+3),(31)&7
  8516  02E0  1FC1               	goto	u3491
  8517  02E1  2AE3               	goto	u3490
  8518  02E2  2AE4               u3491:
  8519  02E3                     	goto	l2911
  8520  02E3  2B04               u3490:
  8521  02E4                     	line	165
  8522                           	
  8523                           l2905:	
  8524  02E4                     	movlw	0FFh
  8525  02E4  30FF               	andwf	(___flmul@grs),w
  8526  02E5  053E               	movwf	(??___flmul+0)+0
  8527  02E6  00B8               	movlw	0FFh
  8528  02E7  30FF               	andwf	(___flmul@grs+1),w
  8529  02E8  053F               	movwf	((??___flmul+0)+0+1)
  8530  02E9  00B9               	movlw	0FFh
  8531  02EA  30FF               	andwf	(___flmul@grs+2),w
  8532  02EB  0540               	movwf	((??___flmul+0)+0+2)
  8533  02EC  00BA               	movlw	07Fh
  8534  02ED  307F               	andwf	(___flmul@grs+3),w
  8535  02EE  0541               	movwf	((??___flmul+0)+0+3)
  8536  02EF  00BB               	movf	3+(??___flmul+0)+0,w
  8537  02F0  083B               	iorwf	2+(??___flmul+0)+0,w
  8538  02F1  043A               	iorwf	1+(??___flmul+0)+0,w
  8539  02F2  0439               	iorwf	0+(??___flmul+0)+0,w
  8540  02F3  0438               	skipnz
  8541  02F4  1903               	goto	u3501
  8542  02F5  2AF7               	goto	u3500
  8543  02F6  2AF8               u3501:
  8544  02F7                     	goto	l799
  8545  02F7  2AFB               u3500:
  8546  02F8                     	line	166
  8547                           	
  8548                           l2907:	
  8549  02F8                     	clrf	(___flmul@aexp)
  8550  02F8  01C2               	incf	(___flmul@aexp),f
  8551  02F9  0AC2               	line	167
  8552                           	goto	l2911
  8553  02FA  2B04               	line	168
  8554                           	
  8555                           l799:	
  8556  02FB                     	line	169
  8557                           	btfss	(___flmul@prod),(0)&7
  8558  02FB  1C44               	goto	u3511
  8559  02FC  2AFE               	goto	u3510
  8560  02FD  2AFF               u3511:
  8561  02FE                     	goto	l2911
  8562  02FE  2B04               u3510:
  8563  02FF                     	line	170
  8564                           	
  8565                           l2909:	
  8566  02FF                     	clrf	(___flmul@aexp)
  8567  02FF  01C2               	incf	(___flmul@aexp),f
  8568  0300  0AC2               	goto	l2911
  8569  0301  2B04               	line	171
  8570                           	
  8571                           l801:	
  8572  0302                     	goto	l2911
  8573  0302  2B04               	line	172
  8574                           	
  8575                           l800:	
  8576  0303                     	goto	l2911
  8577  0303  2B04               	line	173
  8578                           	
  8579                           l798:	
  8580  0304                     	line	174
  8581                           	
  8582                           l2911:	
  8583  0304                     	movf	((___flmul@aexp)),w
  8584  0304  0842               	btfsc	status,2
  8585  0305  1903               	goto	u3521
  8586  0306  2B08               	goto	u3520
  8587  0307  2B09               u3521:
  8588  0308                     	goto	l2921
  8589  0308  2B3C               u3520:
  8590  0309                     	line	175
  8591                           	
  8592                           l2913:	
  8593  0309                     	movlw	01h
  8594  0309  3001               	addwf	(___flmul@prod),f
  8595  030A  07C4               	movlw	0
  8596  030B  3000               	skipnc
  8597  030C  1803               movlw 1
  8598  030D  3001               	addwf	(___flmul@prod+1),f
  8599  030E  07C5               	movlw	0
  8600  030F  3000               	skipnc
  8601  0310  1803               movlw 1
  8602  0311  3001               	addwf	(___flmul@prod+2),f
  8603  0312  07C6               	movlw	0
  8604  0313  3000               	skipnc
  8605  0314  1803               movlw 1
  8606  0315  3001               	addwf	(___flmul@prod+3),f
  8607  0316  07C7               	line	176
  8608                           	
  8609                           l2915:	
  8610  0317                     	btfss	(___flmul@prod+3),(24)&7
  8611  0317  1C47               	goto	u3531
  8612  0318  2B1A               	goto	u3530
  8613  0319  2B1B               u3531:
  8614  031A                     	goto	l2921
  8615  031A  2B3C               u3530:
  8616  031B                     	line	177
  8617                           	
  8618                           l2917:	
  8619  031B                     	movf	(___flmul@prod),w
  8620  031B  0844               	movwf	(??___flmul+0)+0
  8621  031C  00B8               	movf	(___flmul@prod+1),w
  8622  031D  0845               	movwf	((??___flmul+0)+0+1)
  8623  031E  00B9               	movf	(___flmul@prod+2),w
  8624  031F  0846               	movwf	((??___flmul+0)+0+2)
  8625  0320  00BA               	movf	(___flmul@prod+3),w
  8626  0321  0847               	movwf	((??___flmul+0)+0+3)
  8627  0322  00BB               	movlw	01h
  8628  0323  3001               	movwf	(??___flmul+4)+0
  8629  0324  00BC               u3545:
  8630  0325                     	rlf	(??___flmul+0)+3,w
  8631  0325  0D3B               	rrf	(??___flmul+0)+3,f
  8632  0326  0CBB               	rrf	(??___flmul+0)+2,f
  8633  0327  0CBA               	rrf	(??___flmul+0)+1,f
  8634  0328  0CB9               	rrf	(??___flmul+0)+0,f
  8635  0329  0CB8               u3540:
  8636  032A                     	decfsz	(??___flmul+4)+0,f
  8637  032A  0BBC               	goto	u3545
  8638  032B  2B25               	movf	3+(??___flmul+0)+0,w
  8639  032C  083B               	movwf	(___flmul@prod+3)
  8640  032D  00C7               	movf	2+(??___flmul+0)+0,w
  8641  032E  083A               	movwf	(___flmul@prod+2)
  8642  032F  00C6               	movf	1+(??___flmul+0)+0,w
  8643  0330  0839               	movwf	(___flmul@prod+1)
  8644  0331  00C5               	movf	0+(??___flmul+0)+0,w
  8645  0332  0838               	movwf	(___flmul@prod)
  8646  0333  00C4               
  8647                           	line	178
  8648                           	
  8649                           l2919:	
  8650  0334                     	movlw	01h
  8651  0334  3001               	addwf	(___flmul@temp),f
  8652  0335  07C8               	skipnc
  8653  0336  1803               	incf	(___flmul@temp+1),f
  8654  0337  0AC9               	movlw	0
  8655  0338  3000               	addwf	(___flmul@temp+1),f
  8656  0339  07C9               	goto	l2921
  8657  033A  2B3C               	line	179
  8658                           	
  8659                           l803:	
  8660  033B                     	goto	l2921
  8661  033B  2B3C               	line	180
  8662                           	
  8663                           l802:	
  8664  033C                     	line	183
  8665                           	
  8666                           l2921:	
  8667  033C                     	movf	(___flmul@temp+1),w
  8668  033C  0849               	xorlw	80h
  8669  033D  3A80               	movwf	btemp+1
  8670  033E  00FF               	movlw	(0)^80h
  8671  033F  3080               	subwf	btemp+1,w
  8672  0340  027F               	skipz
  8673  0341  1D03               	goto	u3555
  8674  0342  2B45               	movlw	0FFh
  8675  0343  30FF               	subwf	(___flmul@temp),w
  8676  0344  0248               u3555:
  8677  0345                     
  8678                           	skipc
  8679  0345  1C03               	goto	u3551
  8680  0346  2B48               	goto	u3550
  8681  0347  2B49               u3551:
  8682  0348                     	goto	l2925
  8683  0348  2B54               u3550:
  8684  0349                     	line	184
  8685                           	
  8686                           l2923:	
  8687  0349                     	movlw	07Fh
  8688  0349  307F               	bcf	status, 5	;RP0=0, select bank0
  8689  034A  1283               	bcf	status, 6	;RP1=0, select bank0
  8690  034B  1303               	movwf	(___flmul@prod+3)
  8691  034C  00C7               	movlw	080h
  8692  034D  3080               	movwf	(___flmul@prod+2)
  8693  034E  00C6               	movlw	0
  8694  034F  3000               	movwf	(___flmul@prod+1)
  8695  0350  00C5               	movlw	0
  8696  0351  3000               	movwf	(___flmul@prod)
  8697  0352  00C4               
  8698                           	line	185
  8699                           	goto	l805
  8700  0353  2B8B               	line	187
  8701                           	
  8702                           l804:	
  8703  0354                     	
  8704                           l2925:	
  8705  0354                     	bcf	status, 5	;RP0=0, select bank0
  8706  0354  1283               	bcf	status, 6	;RP1=0, select bank0
  8707  0355  1303               	movf	(___flmul@temp+1),w
  8708  0356  0849               	xorlw	80h
  8709  0357  3A80               	movwf	btemp+1
  8710  0358  00FF               	movlw	(0)^80h
  8711  0359  3080               	subwf	btemp+1,w
  8712  035A  027F               	skipz
  8713  035B  1D03               	goto	u3565
  8714  035C  2B5F               	movlw	01h
  8715  035D  3001               	subwf	(___flmul@temp),w
  8716  035E  0248               u3565:
  8717  035F                     
  8718                           	skipnc
  8719  035F  1803               	goto	u3561
  8720  0360  2B62               	goto	u3560
  8721  0361  2B63               u3561:
  8722  0362                     	goto	l2931
  8723  0362  2B6F               u3560:
  8724  0363                     	line	188
  8725                           	
  8726                           l2927:	
  8727  0363                     	movlw	high highword(0)
  8728  0363  3000               	bcf	status, 5	;RP0=0, select bank0
  8729  0364  1283               	bcf	status, 6	;RP1=0, select bank0
  8730  0365  1303               	movwf	(___flmul@prod+3)
  8731  0366  00C7               	movlw	low highword(0)
  8732  0367  3000               	movwf	(___flmul@prod+2)
  8733  0368  00C6               	movlw	high(0)
  8734  0369  3000               	movwf	(___flmul@prod+1)
  8735  036A  00C5               	movlw	low(0)
  8736  036B  3000               	movwf	(___flmul@prod)
  8737  036C  00C4               
  8738                           	line	190
  8739                           	
  8740                           l2929:	
  8741  036D                     	clrf	(___flmul@sign)
  8742  036D  01BD               	line	191
  8743                           	goto	l805
  8744  036E  2B8B               	line	192
  8745                           	
  8746                           l806:	
  8747  036F                     	line	194
  8748                           	
  8749                           l2931:	
  8750  036F                     	bcf	status, 5	;RP0=0, select bank0
  8751  036F  1283               	bcf	status, 6	;RP1=0, select bank0
  8752  0370  1303               	movf	(___flmul@temp),w
  8753  0371  0848               	movwf	(??___flmul+0)+0
  8754  0372  00B8               	movf	(??___flmul+0)+0,w
  8755  0373  0838               	movwf	(___flmul@bexp)
  8756  0374  00C3               	line	195
  8757                           	movlw	0FFh
  8758  0375  30FF               	andwf	(___flmul@prod),f
  8759  0376  05C4               	movlw	0FFh
  8760  0377  30FF               	andwf	(___flmul@prod+1),f
  8761  0378  05C5               	movlw	07Fh
  8762  0379  307F               	andwf	(___flmul@prod+2),f
  8763  037A  05C6               	movlw	0
  8764  037B  3000               	andwf	(___flmul@prod+3),f
  8765  037C  05C7               	line	196
  8766                           	
  8767                           l2933:	
  8768  037D                     	btfss	(___flmul@bexp),(0)&7
  8769  037D  1C43               	goto	u3571
  8770  037E  2B80               	goto	u3570
  8771  037F  2B81               u3571:
  8772  0380                     	goto	l2937
  8773  0380  2B83               u3570:
  8774  0381                     	line	197
  8775                           	
  8776                           l2935:	
  8777  0381                     	bsf	0+(___flmul@prod)+02h+(7/8),(7)&7
  8778  0381  17C6               	goto	l2937
  8779  0382  2B83               	line	198
  8780                           	
  8781                           l808:	
  8782  0383                     	line	199
  8783                           	
  8784                           l2937:	
  8785  0383                     	movf	(___flmul@bexp),w
  8786  0383  0843               	movwf	(??___flmul+0)+0
  8787  0384  00B8               	clrc
  8788  0385  1003               	rrf	(??___flmul+0)+0,w
  8789  0386  0C38               	movwf	(??___flmul+1)+0
  8790  0387  00B9               	movf	(??___flmul+1)+0,w
  8791  0388  0839               	movwf	0+(___flmul@prod)+03h
  8792  0389  00C7               	goto	l805
  8793  038A  2B8B               	line	200
  8794                           	
  8795                           l807:	
  8796  038B                     	
  8797                           l805:	
  8798  038B                     	line	201
  8799                           	movf	(___flmul@sign),w
  8800  038B  083D               	movwf	(??___flmul+0)+0
  8801  038C  00B8               	movf	(??___flmul+0)+0,w
  8802  038D  0838               	iorwf	0+(___flmul@prod)+03h,f
  8803  038E  04C7               	line	203
  8804                           	
  8805                           l2939:	
  8806  038F                     	movf	(___flmul@prod+3),w
  8807  038F  0847               	movwf	(?___flmul+3)
  8808  0390  00B3               	movf	(___flmul@prod+2),w
  8809  0391  0846               	movwf	(?___flmul+2)
  8810  0392  00B2               	movf	(___flmul@prod+1),w
  8811  0393  0845               	movwf	(?___flmul+1)
  8812  0394  00B1               	movf	(___flmul@prod),w
  8813  0395  0844               	movwf	(?___flmul)
  8814  0396  00B0               
  8815                           	goto	l793
  8816  0397  2B98               	
  8817                           l2941:	
  8818  0398                     	line	205
  8819                           	
  8820                           l793:	
  8821  0398                     	return
  8822  0398  0008               	opt stack 0
  8823                           GLOBAL	__end_of___flmul
  8824                           	__end_of___flmul:
  8825  0399                     	signat	___flmul,8316
  8826                           	global	__Umul8_16
  8827                           
  8828 ;; *************** function __Umul8_16 *****************
  8829 ;; Defined at:
  8830 ;;		line 4 in file "C:\Program Files (x86)\Microchip\xc8\v2.00\pic\sources\c90\common\Umul8_16.c"
  8831 ;; Parameters:    Size  Location     Type
  8832 ;;  multiplier      1    wreg     unsigned char 
  8833 ;;  multiplicand    1    3[COMMON] unsigned char 
  8834 ;; Auto vars:     Size  Location     Type
  8835 ;;  multiplier      1    4[BANK0 ] unsigned char 
  8836 ;;  word_mpld       2    2[BANK0 ] unsigned int 
  8837 ;;  product         2    0[BANK0 ] unsigned int 
  8838 ;; Return value:  Size  Location     Type
  8839 ;;                  2    3[COMMON] unsigned int 
  8840 ;; Registers used:
  8841 ;;		wreg, status,2, status,0
  8842 ;; Tracked objects:
  8843 ;;		On entry : 0/0
  8844 ;;		On exit  : 0/0
  8845 ;;		Unchanged: 0/0
  8846 ;; Data sizes:     COMMON   BANK0   BANK1   BANK3   BANK2
  8847 ;;      Params:         2       0       0       0       0
  8848 ;;      Locals:         0       5       0       0       0
  8849 ;;      Temps:          2       0       0       0       0
  8850 ;;      Totals:         4       5       0       0       0
  8851 ;;Total ram usage:        9 bytes
  8852 ;; Hardware stack levels used:    1
  8853 ;; Hardware stack levels required when called:    1
  8854 ;; This function calls:
  8855 ;;		Nothing
  8856 ;; This function is called by:
  8857 ;;		___flmul
  8858 ;; This function uses a non-reentrant model
  8859 ;;
  8860                           psect	text15,local,class=CODE,delta=2,merge=1,group=1
  8861                           	file	"C:\Program Files (x86)\Microchip\xc8\v2.00\pic\sources\c90\common\Umul8_16.c"
  8862                           	line	4
  8863                           global __ptext15
  8864                           __ptext15:	;psect for function __Umul8_16
  8865  15F9                     psect	text15
  8866                           	file	"C:\Program Files (x86)\Microchip\xc8\v2.00\pic\sources\c90\common\Umul8_16.c"
  8867                           	line	4
  8868                           	global	__size_of__Umul8_16
  8869                           	__size_of__Umul8_16	equ	__end_of__Umul8_16-__Umul8_16
  8870  002C                     	
  8871                           __Umul8_16:	
  8872  15F9                     ;incstack = 0
  8873                           	opt	stack 5
  8874                           ; Regs used in __Umul8_16: [wreg+status,2+status,0]
  8875                           ;__Umul8_16@multiplier stored from wreg
  8876                           	bcf	status, 5	;RP0=0, select bank0
  8877  15F9  1283               	bcf	status, 6	;RP1=0, select bank0
  8878  15FA  1303               	movwf	(__Umul8_16@multiplier)
  8879  15FB  00A4               	line	5
  8880                           	
  8881                           l2565:	
  8882  15FC                     	clrf	(__Umul8_16@product)
  8883  15FC  01A0               	clrf	(__Umul8_16@product+1)
  8884  15FD  01A1               	line	6
  8885                           	
  8886                           l2567:	
  8887  15FE                     	movf	(__Umul8_16@multiplicand),w
  8888  15FE  0873               	movwf	(??__Umul8_16+0)+0
  8889  15FF  00F5               	clrf	(??__Umul8_16+0)+0+1
  8890  1600  01F6               	movf	0+(??__Umul8_16+0)+0,w
  8891  1601  0875               	movwf	(__Umul8_16@word_mpld)
  8892  1602  00A2               	movf	1+(??__Umul8_16+0)+0,w
  8893  1603  0876               	movwf	(__Umul8_16@word_mpld+1)
  8894  1604  00A3               	goto	l2569
  8895  1605  2E06               	line	50
  8896                           	
  8897                           l830:	
  8898  1606                     	line	51
  8899                           	
  8900                           l2569:	
  8901  1606                     	btfss	(__Umul8_16@multiplier),(0)&7
  8902  1606  1C24               	goto	u2991
  8903  1607  2E09               	goto	u2990
  8904  1608  2E0A               u2991:
  8905  1609                     	goto	l831
  8906  1609  2E10               u2990:
  8907  160A                     	line	52
  8908                           	
  8909                           l2571:	
  8910  160A                     	movf	(__Umul8_16@word_mpld),w
  8911  160A  0822               	addwf	(__Umul8_16@product),f
  8912  160B  07A0               	skipnc
  8913  160C  1803               	incf	(__Umul8_16@product+1),f
  8914  160D  0AA1               	movf	(__Umul8_16@word_mpld+1),w
  8915  160E  0823               	addwf	(__Umul8_16@product+1),f
  8916  160F  07A1               	line	53
  8917                           	
  8918                           l831:	
  8919  1610                     	line	54
  8920                           	movlw	01h
  8921  1610  3001               	
  8922                           u3005:
  8923  1611                     	clrc
  8924  1611  1003               	rlf	(__Umul8_16@word_mpld),f
  8925  1612  0DA2               	rlf	(__Umul8_16@word_mpld+1),f
  8926  1613  0DA3               	addlw	-1
  8927  1614  3EFF               	skipz
  8928  1615  1D03               	goto	u3005
  8929  1616  2E11               	line	55
  8930                           	clrc
  8931  1617  1003               	rrf	(__Umul8_16@multiplier),f
  8932  1618  0CA4               
  8933                           	line	56
  8934                           	
  8935                           l2573:	
  8936  1619                     	movf	((__Umul8_16@multiplier)),w
  8937  1619  0824               	btfss	status,2
  8938  161A  1D03               	goto	u3011
  8939  161B  2E1D               	goto	u3010
  8940  161C  2E1E               u3011:
  8941  161D                     	goto	l2569
  8942  161D  2E06               u3010:
  8943  161E                     	goto	l2575
  8944  161E  2E1F               	
  8945                           l832:	
  8946  161F                     	line	59
  8947                           	
  8948                           l2575:	
  8949  161F                     	movf	(__Umul8_16@product+1),w
  8950  161F  0821               	movwf	(?__Umul8_16+1)
  8951  1620  00F4               	movf	(__Umul8_16@product),w
  8952  1621  0820               	movwf	(?__Umul8_16)
  8953  1622  00F3               	goto	l833
  8954  1623  2E24               	
  8955                           l2577:	
  8956  1624                     	line	60
  8957                           	
  8958                           l833:	
  8959  1624                     	return
  8960  1624  0008               	opt stack 0
  8961                           GLOBAL	__end_of__Umul8_16
  8962                           	__end_of__Umul8_16:
  8963  1625                     	signat	__Umul8_16,8314
  8964                           	global	_Lcd_Write_String
  8965                           
  8966 ;; *************** function _Lcd_Write_String *****************
  8967 ;; Defined at:
  8968 ;;		line 125 in file "LCD.c"
  8969 ;; Parameters:    Size  Location     Type
  8970 ;;  a               2    6[COMMON] PTR unsigned char 
  8971 ;;		 -> main@s1(5), STR_3(4), STR_2(4), STR_1(6), 
  8972 ;; Auto vars:     Size  Location     Type
  8973 ;;  i               2    3[BANK0 ] int 
  8974 ;; Return value:  Size  Location     Type
  8975 ;;                  1    wreg      void 
  8976 ;; Registers used:
  8977 ;;		wreg, fsr0l, fsr0h, status,2, status,0, btemp+1, pclath, cstack
  8978 ;; Tracked objects:
  8979 ;;		On entry : 0/0
  8980 ;;		On exit  : 0/0
  8981 ;;		Unchanged: 0/0
  8982 ;; Data sizes:     COMMON   BANK0   BANK1   BANK3   BANK2
  8983 ;;      Params:         2       0       0       0       0
  8984 ;;      Locals:         0       2       0       0       0
  8985 ;;      Temps:          0       3       0       0       0
  8986 ;;      Totals:         2       5       0       0       0
  8987 ;;Total ram usage:        7 bytes
  8988 ;; Hardware stack levels used:    1
  8989 ;; Hardware stack levels required when called:    3
  8990 ;; This function calls:
  8991 ;;		_Lcd_Write_Char
  8992 ;; This function is called by:
  8993 ;;		_main
  8994 ;; This function uses a non-reentrant model
  8995 ;;
  8996                           psect	text16,local,class=CODE,delta=2,merge=1,group=0
  8997                           	file	"LCD.c"
  8998                           	line	125
  8999                           global __ptext16
  9000                           __ptext16:	;psect for function _Lcd_Write_String
  9001  16C3                     psect	text16
  9002                           	file	"LCD.c"
  9003                           	line	125
  9004                           	global	__size_of_Lcd_Write_String
  9005                           	__size_of_Lcd_Write_String	equ	__end_of_Lcd_Write_String-_Lcd_Write_String
  9006  0048                     	
  9007                           _Lcd_Write_String:	
  9008  16C3                     ;incstack = 0
  9009                           	opt	stack 4
  9010                           ; Regs used in _Lcd_Write_String: [wreg-fsr0h+status,2+status,0+btemp+1+pclath+cstack]
  9011                           	line	128
  9012                           	
  9013                           l3437:	
  9014  16C3                     ;LCD.c: 125: void Lcd_Write_String(char *a);LCD.c: 126: {;LCD.c: 127:  int i;;LCD.c: 128
                                 :  for(i=0;a[i]!='\0';i++)
  9015                           	bcf	status, 5	;RP0=0, select bank0
  9016  16C3  1283               	bcf	status, 6	;RP1=0, select bank0
  9017  16C4  1303               	clrf	(Lcd_Write_String@i)
  9018  16C5  01A3               	clrf	(Lcd_Write_String@i+1)
  9019  16C6  01A4               	goto	l3443
  9020  16C7  2EED               	
  9021                           l109:	
  9022  16C8                     	line	129
  9023                           	
  9024                           l3439:	
  9025  16C8                     ;LCD.c: 129:     Lcd_Write_Char(a[i]);
  9026                           	movf	(Lcd_Write_String@i),w
  9027  16C8  0823               	addwf	(Lcd_Write_String@a),w
  9028  16C9  0776               	movwf	(??_Lcd_Write_String+1)+0
  9029  16CA  00A1               	movf	(Lcd_Write_String@a+1),w
  9030  16CB  0877               	movwf	(??_Lcd_Write_String+0)+0
  9031  16CC  00A0               	skipnc
  9032  16CD  1803               	incf	(??_Lcd_Write_String+0)+0,f
  9033  16CE  0AA0               	btfss	(Lcd_Write_String@i),7
  9034  16CF  1FA3               	goto	u4240
  9035  16D0  2ED2               	decf	(??_Lcd_Write_String+0)+0,f
  9036  16D1  03A0               u4240:
  9037  16D2                     	bcf	status, 5	;RP0=0, select bank0
  9038  16D2  1283               	bcf	status, 6	;RP1=0, select bank0
  9039  16D3  1303               	movf	(??_Lcd_Write_String+0)+0,w
  9040  16D4  0820               	movwf	0+((??_Lcd_Write_String+1)+0)+1
  9041  16D5  00A2               	movf	1+(??_Lcd_Write_String+1)+0,w
  9042  16D6  0822               	movwf	btemp+1
  9043  16D7  00FF               	movf	0+(??_Lcd_Write_String+1)+0,w
  9044  16D8  0821               	movwf	fsr0
  9045  16D9  0084               	fcall	stringtab
  9046  16DA  160A  118A  2000  160A  118A  	fcall	_Lcd_Write_Char
  9047  16DF  160A  118A  2585  160A  118A  	
  9048                           l3441:	
  9049  16E4                     	movlw	01h
  9050  16E4  3001               	bcf	status, 5	;RP0=0, select bank0
  9051  16E5  1283               	bcf	status, 6	;RP1=0, select bank0
  9052  16E6  1303               	addwf	(Lcd_Write_String@i),f
  9053  16E7  07A3               	skipnc
  9054  16E8  1803               	incf	(Lcd_Write_String@i+1),f
  9055  16E9  0AA4               	movlw	0
  9056  16EA  3000               	addwf	(Lcd_Write_String@i+1),f
  9057  16EB  07A4               	goto	l3443
  9058  16EC  2EED               	
  9059                           l108:	
  9060  16ED                     	
  9061                           l3443:	
  9062  16ED                     	movf	(Lcd_Write_String@i),w
  9063  16ED  0823               	addwf	(Lcd_Write_String@a),w
  9064  16EE  0776               	movwf	(??_Lcd_Write_String+1)+0
  9065  16EF  00A1               	movf	(Lcd_Write_String@a+1),w
  9066  16F0  0877               	movwf	(??_Lcd_Write_String+0)+0
  9067  16F1  00A0               	skipnc
  9068  16F2  1803               	incf	(??_Lcd_Write_String+0)+0,f
  9069  16F3  0AA0               	btfss	(Lcd_Write_String@i),7
  9070  16F4  1FA3               	goto	u4250
  9071  16F5  2EF7               	decf	(??_Lcd_Write_String+0)+0,f
  9072  16F6  03A0               u4250:
  9073  16F7                     	bcf	status, 5	;RP0=0, select bank0
  9074  16F7  1283               	bcf	status, 6	;RP1=0, select bank0
  9075  16F8  1303               	movf	(??_Lcd_Write_String+0)+0,w
  9076  16F9  0820               	movwf	0+((??_Lcd_Write_String+1)+0)+1
  9077  16FA  00A2               	movf	1+(??_Lcd_Write_String+1)+0,w
  9078  16FB  0822               	movwf	btemp+1
  9079  16FC  00FF               	movf	0+(??_Lcd_Write_String+1)+0,w
  9080  16FD  0821               	movwf	fsr0
  9081  16FE  0084               	fcall	stringtab
  9082  16FF  160A  118A  2000  160A  118A  	xorlw	0
  9083  1704  3A00               	skipz
  9084  1705  1D03               	goto	u4261
  9085  1706  2F08               	goto	u4260
  9086  1707  2F09               u4261:
  9087  1708                     	goto	l3439
  9088  1708  2EC8               u4260:
  9089  1709                     	goto	l111
  9090  1709  2F0A               	
  9091                           l110:	
  9092  170A                     	line	130
  9093                           	
  9094                           l111:	
  9095  170A                     	return
  9096  170A  0008               	opt stack 0
  9097                           GLOBAL	__end_of_Lcd_Write_String
  9098                           	__end_of_Lcd_Write_String:
  9099  170B                     	signat	_Lcd_Write_String,4217
  9100                           	global	_Lcd_Write_Char
  9101                           
  9102 ;; *************** function _Lcd_Write_Char *****************
  9103 ;; Defined at:
  9104 ;;		line 115 in file "LCD.c"
  9105 ;; Parameters:    Size  Location     Type
  9106 ;;  a               1    wreg     unsigned char 
  9107 ;; Auto vars:     Size  Location     Type
  9108 ;;  a               1    5[COMMON] unsigned char 
  9109 ;; Return value:  Size  Location     Type
  9110 ;;                  1    wreg      void 
  9111 ;; Registers used:
  9112 ;;		wreg, status,2, status,0, pclath, cstack
  9113 ;; Tracked objects:
  9114 ;;		On entry : 0/0
  9115 ;;		On exit  : 0/0
  9116 ;;		Unchanged: 0/0
  9117 ;; Data sizes:     COMMON   BANK0   BANK1   BANK3   BANK2
  9118 ;;      Params:         0       0       0       0       0
  9119 ;;      Locals:         1       0       0       0       0
  9120 ;;      Temps:          1       0       0       0       0
  9121 ;;      Totals:         2       0       0       0       0
  9122 ;;Total ram usage:        2 bytes
  9123 ;; Hardware stack levels used:    1
  9124 ;; Hardware stack levels required when called:    2
  9125 ;; This function calls:
  9126 ;;		_Lcd_Port
  9127 ;; This function is called by:
  9128 ;;		_Lcd_Write_String
  9129 ;; This function uses a non-reentrant model
  9130 ;;
  9131                           psect	text17,local,class=CODE,delta=2,merge=1,group=0
  9132                           	line	115
  9133                           global __ptext17
  9134                           __ptext17:	;psect for function _Lcd_Write_Char
  9135  1585                     psect	text17
  9136                           	file	"LCD.c"
  9137                           	line	115
  9138                           	global	__size_of_Lcd_Write_Char
  9139                           	__size_of_Lcd_Write_Char	equ	__end_of_Lcd_Write_Char-_Lcd_Write_Char
  9140  0016                     	
  9141                           _Lcd_Write_Char:	
  9142  1585                     ;incstack = 0
  9143                           	opt	stack 4
  9144                           ; Regs used in _Lcd_Write_Char: [wreg+status,2+status,0+pclath+cstack]
  9145                           ;Lcd_Write_Char@a stored from wreg
  9146                           	movwf	(Lcd_Write_Char@a)
  9147  1585  00F5               	line	118
  9148                           	
  9149                           l3173:	
  9150  1586                     ;LCD.c: 115: void Lcd_Write_Char(char a);LCD.c: 116: {;LCD.c: 118:    RC1 = 1;
  9151                           	bcf	status, 5	;RP0=0, select bank0
  9152  1586  1283               	bcf	status, 6	;RP1=0, select bank0
  9153  1587  1303               	bsf	(57/8),(57)&7	;volatile
  9154  1588  1487               	line	119
  9155                           	
  9156                           l3175:	
  9157  1589                     ;LCD.c: 119:    Lcd_Port(a);
  9158                           	movf	(Lcd_Write_Char@a),w
  9159  1589  0875               	fcall	_Lcd_Port
  9160  158A  160A  118A  2684  160A  118A  	line	120
  9161                           	
  9162                           l3177:	
  9163  158F                     ;LCD.c: 120:    RC0 = 1;
  9164                           	bcf	status, 5	;RP0=0, select bank0
  9165  158F  1283               	bcf	status, 6	;RP1=0, select bank0
  9166  1590  1303               	bsf	(56/8),(56)&7	;volatile
  9167  1591  1407               	line	121
  9168                           	
  9169                           l3179:	
  9170  1592                     ;LCD.c: 121:    _delay((unsigned long)((100)*(8000000/4000000.0)));
  9171                           	opt asmopt_push
  9172                           opt asmopt_off
  9173                           	movlw	66
  9174  1592  3042               movwf	((??_Lcd_Write_Char+0)+0),f
  9175  1593  00F4               	u4307:
  9176  1594                     decfsz	(??_Lcd_Write_Char+0)+0,f
  9177  1594  0BF4               	goto	u4307
  9178  1595  2D94               	nop
  9179  1596  0000               opt asmopt_pop
  9180                           
  9181                           	line	122
  9182                           	
  9183                           l3181:	
  9184  1597                     ;LCD.c: 122:    RC0 = 0;
  9185                           	bcf	status, 5	;RP0=0, select bank0
  9186  1597  1283               	bcf	status, 6	;RP1=0, select bank0
  9187  1598  1303               	bcf	(56/8),(56)&7	;volatile
  9188  1599  1007               	line	123
  9189                           	
  9190                           l105:	
  9191  159A                     	return
  9192  159A  0008               	opt stack 0
  9193                           GLOBAL	__end_of_Lcd_Write_Char
  9194                           	__end_of_Lcd_Write_Char:
  9195  159B                     	signat	_Lcd_Write_Char,4217
  9196                           	global	_Lcd_Set_Cursor
  9197                           
  9198 ;; *************** function _Lcd_Set_Cursor *****************
  9199 ;; Defined at:
  9200 ;;		line 85 in file "LCD.c"
  9201 ;; Parameters:    Size  Location     Type
  9202 ;;  a               1    wreg     unsigned char 
  9203 ;;  b               1    7[COMMON] unsigned char 
  9204 ;; Auto vars:     Size  Location     Type
  9205 ;;  a               1    0[BANK0 ] unsigned char 
  9206 ;; Return value:  Size  Location     Type
  9207 ;;                  1    wreg      void 
  9208 ;; Registers used:
  9209 ;;		wreg, status,2, status,0, pclath, cstack
  9210 ;; Tracked objects:
  9211 ;;		On entry : 0/0
  9212 ;;		On exit  : 0/0
  9213 ;;		Unchanged: 0/0
  9214 ;; Data sizes:     COMMON   BANK0   BANK1   BANK3   BANK2
  9215 ;;      Params:         1       0       0       0       0
  9216 ;;      Locals:         0       1       0       0       0
  9217 ;;      Temps:          0       0       0       0       0
  9218 ;;      Totals:         1       1       0       0       0
  9219 ;;Total ram usage:        2 bytes
  9220 ;; Hardware stack levels used:    1
  9221 ;; Hardware stack levels required when called:    3
  9222 ;; This function calls:
  9223 ;;		_Lcd_Cmd
  9224 ;; This function is called by:
  9225 ;;		_main
  9226 ;; This function uses a non-reentrant model
  9227 ;;
  9228                           psect	text18,local,class=CODE,delta=2,merge=1,group=0
  9229                           	line	85
  9230                           global __ptext18
  9231                           __ptext18:	;psect for function _Lcd_Set_Cursor
  9232  15B4                     psect	text18
  9233                           	file	"LCD.c"
  9234                           	line	85
  9235                           	global	__size_of_Lcd_Set_Cursor
  9236                           	__size_of_Lcd_Set_Cursor	equ	__end_of_Lcd_Set_Cursor-_Lcd_Set_Cursor
  9237  0022                     	
  9238                           _Lcd_Set_Cursor:	
  9239  15B4                     ;incstack = 0
  9240                           	opt	stack 4
  9241                           ; Regs used in _Lcd_Set_Cursor: [wreg+status,2+status,0+pclath+cstack]
  9242                           ;Lcd_Set_Cursor@a stored from wreg
  9243                           	bcf	status, 5	;RP0=0, select bank0
  9244  15B4  1283               	bcf	status, 6	;RP1=0, select bank0
  9245  15B5  1303               	movwf	(Lcd_Set_Cursor@a)
  9246  15B6  00A0               	line	87
  9247                           	
  9248                           l3409:	
  9249  15B7                     ;LCD.c: 85: void Lcd_Set_Cursor(char a, char b);LCD.c: 86: {;LCD.c: 87:  if(a == 1)
  9250                           		decf	((Lcd_Set_Cursor@a)),w
  9251  15B7  0320               	btfss	status,2
  9252  15B8  1D03               	goto	u4221
  9253  15B9  2DBB               	goto	u4220
  9254  15BA  2DBC               u4221:
  9255  15BB                     	goto	l3413
  9256  15BB  2DC4               u4220:
  9257  15BC                     	line	89
  9258                           	
  9259                           l3411:	
  9260  15BC                     ;LCD.c: 88:  {;LCD.c: 89:   Lcd_Cmd(0x80 + b - 1);
  9261                           	movf	(Lcd_Set_Cursor@b),w
  9262  15BC  0877               	addlw	07Fh
  9263  15BD  3E7F               	fcall	_Lcd_Cmd
  9264  15BE  160A  118A  25D6  160A  118A  	line	90
  9265                           ;LCD.c: 90:  }
  9266                           	goto	l99
  9267  15C3  2DD5               	line	91
  9268                           ;LCD.c: 91:  else if(a == 2)
  9269                           	
  9270                           l96:	
  9271  15C4                     	
  9272                           l3413:	
  9273  15C4                     		movlw	2
  9274  15C4  3002               	bcf	status, 5	;RP0=0, select bank0
  9275  15C5  1283               	bcf	status, 6	;RP1=0, select bank0
  9276  15C6  1303               	xorwf	((Lcd_Set_Cursor@a)),w
  9277  15C7  0620               	btfss	status,2
  9278  15C8  1D03               	goto	u4231
  9279  15C9  2DCB               	goto	u4230
  9280  15CA  2DCC               u4231:
  9281  15CB                     	goto	l99
  9282  15CB  2DD5               u4230:
  9283  15CC                     	line	93
  9284                           	
  9285                           l3415:	
  9286  15CC                     ;LCD.c: 92:  {;LCD.c: 93:   Lcd_Cmd(0xC0 + b - 1);
  9287                           	movf	(Lcd_Set_Cursor@b),w
  9288  15CC  0877               	addlw	0BFh
  9289  15CD  3EBF               	fcall	_Lcd_Cmd
  9290  15CE  160A  118A  25D6  160A  118A  	goto	l99
  9291  15D3  2DD5               	line	94
  9292                           ;LCD.c: 94:  }
  9293                           	
  9294                           l98:	
  9295  15D4                     	goto	l99
  9296  15D4  2DD5               	
  9297                           l97:	
  9298  15D5                     	line	95
  9299                           	
  9300                           l99:	
  9301  15D5                     	return
  9302  15D5  0008               	opt stack 0
  9303                           GLOBAL	__end_of_Lcd_Set_Cursor
  9304                           	__end_of_Lcd_Set_Cursor:
  9305  15D6                     	signat	_Lcd_Set_Cursor,8313
  9306                           	global	_Lcd_Init
  9307                           
  9308 ;; *************** function _Lcd_Init *****************
  9309 ;; Defined at:
  9310 ;;		line 97 in file "LCD.c"
  9311 ;; Parameters:    Size  Location     Type
  9312 ;;		None
  9313 ;; Auto vars:     Size  Location     Type
  9314 ;;		None
  9315 ;; Return value:  Size  Location     Type
  9316 ;;                  1    wreg      void 
  9317 ;; Registers used:
  9318 ;;		wreg, status,2, status,0, pclath, cstack
  9319 ;; Tracked objects:
  9320 ;;		On entry : 0/0
  9321 ;;		On exit  : 0/0
  9322 ;;		Unchanged: 0/0
  9323 ;; Data sizes:     COMMON   BANK0   BANK1   BANK3   BANK2
  9324 ;;      Params:         0       0       0       0       0
  9325 ;;      Locals:         0       0       0       0       0
  9326 ;;      Temps:          0       2       0       0       0
  9327 ;;      Totals:         0       2       0       0       0
  9328 ;;Total ram usage:        2 bytes
  9329 ;; Hardware stack levels used:    1
  9330 ;; Hardware stack levels required when called:    3
  9331 ;; This function calls:
  9332 ;;		_Lcd_Cmd
  9333 ;; This function is called by:
  9334 ;;		_main
  9335 ;; This function uses a non-reentrant model
  9336 ;;
  9337                           psect	text19,local,class=CODE,delta=2,merge=1,group=0
  9338                           	line	97
  9339                           global __ptext19
  9340                           __ptext19:	;psect for function _Lcd_Init
  9341  1753                     psect	text19
  9342                           	file	"LCD.c"
  9343                           	line	97
  9344                           	global	__size_of_Lcd_Init
  9345                           	__size_of_Lcd_Init	equ	__end_of_Lcd_Init-_Lcd_Init
  9346  004D                     	
  9347                           _Lcd_Init:	
  9348  1753                     ;incstack = 0
  9349                           	opt	stack 4
  9350                           ; Regs used in _Lcd_Init: [wreg+status,2+status,0+pclath+cstack]
  9351                           	line	100
  9352                           	
  9353                           l3417:	
  9354  1753                     ;LCD.c: 100:    _delay((unsigned long)((15)*(8000000/4000.0)));
  9355                           	opt asmopt_push
  9356                           opt asmopt_off
  9357                           movlw	39
  9358  1753  3027               	bcf	status, 5	;RP0=0, select bank0
  9359  1754  1283               	bcf	status, 6	;RP1=0, select bank0
  9360  1755  1303               movwf	((??_Lcd_Init+0)+0+1),f
  9361  1756  00A1               	movlw	244
  9362  1757  30F4               movwf	((??_Lcd_Init+0)+0),f
  9363  1758  00A0               	u4317:
  9364  1759                     decfsz	((??_Lcd_Init+0)+0),f
  9365  1759  0BA0               	goto	u4317
  9366  175A  2F59               	decfsz	((??_Lcd_Init+0)+0+1),f
  9367  175B  0BA1               	goto	u4317
  9368  175C  2F59               	nop
  9369  175D  0000               opt asmopt_pop
  9370                           
  9371                           	line	101
  9372                           	
  9373                           l3419:	
  9374  175E                     ;LCD.c: 101:   Lcd_Cmd(0x030);
  9375                           	movlw	low(030h)
  9376  175E  3030               	fcall	_Lcd_Cmd
  9377  175F  160A  118A  25D6  160A  118A  	line	102
  9378                           	
  9379                           l3421:	
  9380  1764                     ;LCD.c: 102:   _delay((unsigned long)((5)*(8000000/4000.0)));
  9381                           	opt asmopt_push
  9382                           opt asmopt_off
  9383                           movlw	13
  9384  1764  300D               	bcf	status, 5	;RP0=0, select bank0
  9385  1765  1283               	bcf	status, 6	;RP1=0, select bank0
  9386  1766  1303               movwf	((??_Lcd_Init+0)+0+1),f
  9387  1767  00A1               	movlw	251
  9388  1768  30FB               movwf	((??_Lcd_Init+0)+0),f
  9389  1769  00A0               	u4327:
  9390  176A                     decfsz	((??_Lcd_Init+0)+0),f
  9391  176A  0BA0               	goto	u4327
  9392  176B  2F6A               	decfsz	((??_Lcd_Init+0)+0+1),f
  9393  176C  0BA1               	goto	u4327
  9394  176D  2F6A               opt asmopt_pop
  9395                           
  9396                           	line	103
  9397                           ;LCD.c: 103:   Lcd_Cmd(0x030);
  9398                           	movlw	low(030h)
  9399  176E  3030               	fcall	_Lcd_Cmd
  9400  176F  160A  118A  25D6  160A  118A  	line	104
  9401                           	
  9402                           l3423:	
  9403  1774                     ;LCD.c: 104:   _delay((unsigned long)((160)*(8000000/4000000.0)));
  9404                           	opt asmopt_push
  9405                           opt asmopt_off
  9406                           	movlw	105
  9407  1774  3069               	bcf	status, 5	;RP0=0, select bank0
  9408  1775  1283               	bcf	status, 6	;RP1=0, select bank0
  9409  1776  1303               movwf	((??_Lcd_Init+0)+0),f
  9410  1777  00A0               	u4337:
  9411  1778                     decfsz	(??_Lcd_Init+0)+0,f
  9412  1778  0BA0               	goto	u4337
  9413  1779  2F78               	nop2
  9414  177A  2F7B               opt asmopt_pop
  9415                           
  9416                           	line	105
  9417                           	
  9418                           l3425:	
  9419  177B                     ;LCD.c: 105:   Lcd_Cmd(0x030);
  9420                           	movlw	low(030h)
  9421  177B  3030               	fcall	_Lcd_Cmd
  9422  177C  160A  118A  25D6  160A  118A  	line	107
  9423                           	
  9424                           l3427:	
  9425  1781                     ;LCD.c: 107:   Lcd_Cmd(0x38);
  9426                           	movlw	low(038h)
  9427  1781  3038               	fcall	_Lcd_Cmd
  9428  1782  160A  118A  25D6  160A  118A  	line	108
  9429                           	
  9430                           l3429:	
  9431  1787                     ;LCD.c: 108:   Lcd_Cmd(0x10);
  9432                           	movlw	low(010h)
  9433  1787  3010               	fcall	_Lcd_Cmd
  9434  1788  160A  118A  25D6  160A  118A  	line	109
  9435                           	
  9436                           l3431:	
  9437  178D                     ;LCD.c: 109:   Lcd_Cmd(0x01);
  9438                           	movlw	low(01h)
  9439  178D  3001               	fcall	_Lcd_Cmd
  9440  178E  160A  118A  25D6  160A  118A  	line	110
  9441                           	
  9442                           l3433:	
  9443  1793                     ;LCD.c: 110:   Lcd_Cmd(0x06);
  9444                           	movlw	low(06h)
  9445  1793  3006               	fcall	_Lcd_Cmd
  9446  1794  160A  118A  25D6  160A  118A  	line	111
  9447                           	
  9448                           l3435:	
  9449  1799                     ;LCD.c: 111:   Lcd_Cmd(0x0C);
  9450                           	movlw	low(0Ch)
  9451  1799  300C               	fcall	_Lcd_Cmd
  9452  179A  160A  118A  25D6  160A  118A  	line	113
  9453                           	
  9454                           l102:	
  9455  179F                     	return
  9456  179F  0008               	opt stack 0
  9457                           GLOBAL	__end_of_Lcd_Init
  9458                           	__end_of_Lcd_Init:
  9459  17A0                     	signat	_Lcd_Init,89
  9460                           	global	_Lcd_Cmd
  9461                           
  9462 ;; *************** function _Lcd_Cmd *****************
  9463 ;; Defined at:
  9464 ;;		line 70 in file "LCD.c"
  9465 ;; Parameters:    Size  Location     Type
  9466 ;;  a               1    wreg     unsigned char 
  9467 ;; Auto vars:     Size  Location     Type
  9468 ;;  a               1    6[COMMON] unsigned char 
  9469 ;; Return value:  Size  Location     Type
  9470 ;;                  1    wreg      void 
  9471 ;; Registers used:
  9472 ;;		wreg, status,2, status,0, pclath, cstack
  9473 ;; Tracked objects:
  9474 ;;		On entry : 0/0
  9475 ;;		On exit  : 0/0
  9476 ;;		Unchanged: 0/0
  9477 ;; Data sizes:     COMMON   BANK0   BANK1   BANK3   BANK2
  9478 ;;      Params:         0       0       0       0       0
  9479 ;;      Locals:         1       0       0       0       0
  9480 ;;      Temps:          2       0       0       0       0
  9481 ;;      Totals:         3       0       0       0       0
  9482 ;;Total ram usage:        3 bytes
  9483 ;; Hardware stack levels used:    1
  9484 ;; Hardware stack levels required when called:    2
  9485 ;; This function calls:
  9486 ;;		_Lcd_Port
  9487 ;; This function is called by:
  9488 ;;		_Lcd_Set_Cursor
  9489 ;;		_Lcd_Init
  9490 ;;		_Lcd_Clear
  9491 ;;		_Lcd_Shift_Right
  9492 ;;		_Lcd_Shift_Left
  9493 ;; This function uses a non-reentrant model
  9494 ;;
  9495                           psect	text20,local,class=CODE,delta=2,merge=1,group=0
  9496                           	line	70
  9497                           global __ptext20
  9498                           __ptext20:	;psect for function _Lcd_Cmd
  9499  15D6                     psect	text20
  9500                           	file	"LCD.c"
  9501                           	line	70
  9502                           	global	__size_of_Lcd_Cmd
  9503                           	__size_of_Lcd_Cmd	equ	__end_of_Lcd_Cmd-_Lcd_Cmd
  9504  0023                     	
  9505                           _Lcd_Cmd:	
  9506  15D6                     ;incstack = 0
  9507                           	opt	stack 4
  9508                           ; Regs used in _Lcd_Cmd: [wreg+status,2+status,0+pclath+cstack]
  9509                           ;Lcd_Cmd@a stored from wreg
  9510                           	movwf	(Lcd_Cmd@a)
  9511  15D6  00F6               	line	72
  9512                           	
  9513                           l3161:	
  9514  15D7                     ;LCD.c: 70: void Lcd_Cmd(char a);LCD.c: 71: {;LCD.c: 72:  RC1 = 0;
  9515                           	bcf	status, 5	;RP0=0, select bank0
  9516  15D7  1283               	bcf	status, 6	;RP1=0, select bank0
  9517  15D8  1303               	bcf	(57/8),(57)&7	;volatile
  9518  15D9  1087               	line	73
  9519                           	
  9520                           l3163:	
  9521  15DA                     ;LCD.c: 73:  Lcd_Port(a);
  9522                           	movf	(Lcd_Cmd@a),w
  9523  15DA  0876               	fcall	_Lcd_Port
  9524  15DB  160A  118A  2684  160A  118A  	line	74
  9525                           	
  9526                           l3165:	
  9527  15E0                     ;LCD.c: 74:  RC0 = 1;
  9528                           	bcf	status, 5	;RP0=0, select bank0
  9529  15E0  1283               	bcf	status, 6	;RP1=0, select bank0
  9530  15E1  1303               	bsf	(56/8),(56)&7	;volatile
  9531  15E2  1407               	line	75
  9532                           	
  9533                           l3167:	
  9534  15E3                     ;LCD.c: 75:     _delay((unsigned long)((5)*(8000000/4000.0)));
  9535                           	opt asmopt_push
  9536                           opt asmopt_off
  9537                           movlw	13
  9538  15E3  300D               movwf	((??_Lcd_Cmd+0)+0+1),f
  9539  15E4  00F5               	movlw	251
  9540  15E5  30FB               movwf	((??_Lcd_Cmd+0)+0),f
  9541  15E6  00F4               	u4347:
  9542  15E7                     decfsz	((??_Lcd_Cmd+0)+0),f
  9543  15E7  0BF4               	goto	u4347
  9544  15E8  2DE7               	decfsz	((??_Lcd_Cmd+0)+0+1),f
  9545  15E9  0BF5               	goto	u4347
  9546  15EA  2DE7               	nop2
  9547  15EB  2DEC               opt asmopt_pop
  9548                           
  9549                           	line	76
  9550                           	
  9551                           l3169:	
  9552  15EC                     ;LCD.c: 76:     RC0 = 0;
  9553                           	bcf	status, 5	;RP0=0, select bank0
  9554  15EC  1283               	bcf	status, 6	;RP1=0, select bank0
  9555  15ED  1303               	bcf	(56/8),(56)&7	;volatile
  9556  15EE  1007               	line	77
  9557                           	
  9558                           l3171:	
  9559  15EF                     ;LCD.c: 77:     _delay((unsigned long)((1)*(8000000/4000.0)));
  9560                           	opt asmopt_push
  9561                           opt asmopt_off
  9562                           movlw	3
  9563  15EF  3003               movwf	((??_Lcd_Cmd+0)+0+1),f
  9564  15F0  00F5               	movlw	151
  9565  15F1  3097               movwf	((??_Lcd_Cmd+0)+0),f
  9566  15F2  00F4               	u4357:
  9567  15F3                     decfsz	((??_Lcd_Cmd+0)+0),f
  9568  15F3  0BF4               	goto	u4357
  9569  15F4  2DF3               	decfsz	((??_Lcd_Cmd+0)+0+1),f
  9570  15F5  0BF5               	goto	u4357
  9571  15F6  2DF3               	nop2
  9572  15F7  2DF8               opt asmopt_pop
  9573                           
  9574                           	line	78
  9575                           	
  9576                           l90:	
  9577  15F8                     	return
  9578  15F8  0008               	opt stack 0
  9579                           GLOBAL	__end_of_Lcd_Cmd
  9580                           	__end_of_Lcd_Cmd:
  9581  15F9                     	signat	_Lcd_Cmd,4217
  9582                           	global	_Lcd_Port
  9583                           
  9584 ;; *************** function _Lcd_Port *****************
  9585 ;; Defined at:
  9586 ;;		line 27 in file "LCD.c"
  9587 ;; Parameters:    Size  Location     Type
  9588 ;;  a               1    wreg     unsigned char 
  9589 ;; Auto vars:     Size  Location     Type
  9590 ;;  a               1    3[COMMON] unsigned char 
  9591 ;; Return value:  Size  Location     Type
  9592 ;;                  1    wreg      void 
  9593 ;; Registers used:
  9594 ;;		wreg
  9595 ;; Tracked objects:
  9596 ;;		On entry : 0/0
  9597 ;;		On exit  : 0/0
  9598 ;;		Unchanged: 0/0
  9599 ;; Data sizes:     COMMON   BANK0   BANK1   BANK3   BANK2
  9600 ;;      Params:         0       0       0       0       0
  9601 ;;      Locals:         1       0       0       0       0
  9602 ;;      Temps:          0       0       0       0       0
  9603 ;;      Totals:         1       0       0       0       0
  9604 ;;Total ram usage:        1 bytes
  9605 ;; Hardware stack levels used:    1
  9606 ;; Hardware stack levels required when called:    1
  9607 ;; This function calls:
  9608 ;;		Nothing
  9609 ;; This function is called by:
  9610 ;;		_Lcd_Cmd
  9611 ;;		_Lcd_Write_Char
  9612 ;; This function uses a non-reentrant model
  9613 ;;
  9614                           psect	text21,local,class=CODE,delta=2,merge=1,group=0
  9615                           	line	27
  9616                           global __ptext21
  9617                           __ptext21:	;psect for function _Lcd_Port
  9618  1684                     psect	text21
  9619                           	file	"LCD.c"
  9620                           	line	27
  9621                           	global	__size_of_Lcd_Port
  9622                           	__size_of_Lcd_Port	equ	__end_of_Lcd_Port-_Lcd_Port
  9623  003F                     	
  9624                           _Lcd_Port:	
  9625  1684                     ;incstack = 0
  9626                           	opt	stack 4
  9627                           ; Regs used in _Lcd_Port: [wreg]
  9628                           ;Lcd_Port@a stored from wreg
  9629                           	movwf	(Lcd_Port@a)
  9630  1684  00F3               	line	29
  9631                           	
  9632                           l3143:	
  9633  1685                     ;LCD.c: 27: void Lcd_Port(char a);LCD.c: 28: {;LCD.c: 29:     if(a & 1)
  9634                           	btfss	(Lcd_Port@a),(0)&7
  9635  1685  1C73               	goto	u3711
  9636  1686  2E88               	goto	u3710
  9637  1687  2E89               u3711:
  9638  1688                     	goto	l71
  9639  1688  2E8D               u3710:
  9640  1689                     	line	30
  9641                           	
  9642                           l3145:	
  9643  1689                     ;LCD.c: 30:   RA0 = 1;
  9644                           	bcf	status, 5	;RP0=0, select bank0
  9645  1689  1283               	bcf	status, 6	;RP1=0, select bank0
  9646  168A  1303               	bsf	(40/8),(40)&7	;volatile
  9647  168B  1405               	goto	l72
  9648  168C  2E90               	line	31
  9649                           ;LCD.c: 31:  else
  9650                           	
  9651                           l71:	
  9652  168D                     	line	32
  9653                           ;LCD.c: 32:   RA0 = 0;
  9654                           	bcf	status, 5	;RP0=0, select bank0
  9655  168D  1283               	bcf	status, 6	;RP1=0, select bank0
  9656  168E  1303               	bcf	(40/8),(40)&7	;volatile
  9657  168F  1005               	
  9658                           l72:	
  9659  1690                     	line	34
  9660                           ;LCD.c: 34:  if(a & 2)
  9661                           	btfss	(Lcd_Port@a),(1)&7
  9662  1690  1CF3               	goto	u3721
  9663  1691  2E93               	goto	u3720
  9664  1692  2E94               u3721:
  9665  1693                     	goto	l73
  9666  1693  2E96               u3720:
  9667  1694                     	line	35
  9668                           	
  9669                           l3147:	
  9670  1694                     ;LCD.c: 35:   RA1 = 1;
  9671                           	bsf	(41/8),(41)&7	;volatile
  9672  1694  1485               	goto	l74
  9673  1695  2E97               	line	36
  9674                           ;LCD.c: 36:  else
  9675                           	
  9676                           l73:	
  9677  1696                     	line	37
  9678                           ;LCD.c: 37:   RA1 = 0;
  9679                           	bcf	(41/8),(41)&7	;volatile
  9680  1696  1085               	
  9681                           l74:	
  9682  1697                     	line	39
  9683                           ;LCD.c: 39:  if(a & 4)
  9684                           	btfss	(Lcd_Port@a),(2)&7
  9685  1697  1D73               	goto	u3731
  9686  1698  2E9A               	goto	u3730
  9687  1699  2E9B               u3731:
  9688  169A                     	goto	l75
  9689  169A  2E9D               u3730:
  9690  169B                     	line	40
  9691                           	
  9692                           l3149:	
  9693  169B                     ;LCD.c: 40:   RA2 = 1;
  9694                           	bsf	(42/8),(42)&7	;volatile
  9695  169B  1505               	goto	l76
  9696  169C  2E9E               	line	41
  9697                           ;LCD.c: 41:  else
  9698                           	
  9699                           l75:	
  9700  169D                     	line	42
  9701                           ;LCD.c: 42:   RA2 = 0;
  9702                           	bcf	(42/8),(42)&7	;volatile
  9703  169D  1105               	
  9704                           l76:	
  9705  169E                     	line	44
  9706                           ;LCD.c: 44:  if(a & 8)
  9707                           	btfss	(Lcd_Port@a),(3)&7
  9708  169E  1DF3               	goto	u3741
  9709  169F  2EA1               	goto	u3740
  9710  16A0  2EA2               u3741:
  9711  16A1                     	goto	l77
  9712  16A1  2EA4               u3740:
  9713  16A2                     	line	45
  9714                           	
  9715                           l3151:	
  9716  16A2                     ;LCD.c: 45:   RA3 = 1;
  9717                           	bsf	(43/8),(43)&7	;volatile
  9718  16A2  1585               	goto	l78
  9719  16A3  2EA5               	line	46
  9720                           ;LCD.c: 46:  else
  9721                           	
  9722                           l77:	
  9723  16A4                     	line	47
  9724                           ;LCD.c: 47:   RA3 = 0;
  9725                           	bcf	(43/8),(43)&7	;volatile
  9726  16A4  1185               	
  9727                           l78:	
  9728  16A5                     	line	49
  9729                           ;LCD.c: 49:  if(a & 16)
  9730                           	btfss	(Lcd_Port@a),(4)&7
  9731  16A5  1E73               	goto	u3751
  9732  16A6  2EA8               	goto	u3750
  9733  16A7  2EA9               u3751:
  9734  16A8                     	goto	l79
  9735  16A8  2EAB               u3750:
  9736  16A9                     	line	50
  9737                           	
  9738                           l3153:	
  9739  16A9                     ;LCD.c: 50:   RA4 = 1;
  9740                           	bsf	(44/8),(44)&7	;volatile
  9741  16A9  1605               	goto	l80
  9742  16AA  2EAC               	line	51
  9743                           ;LCD.c: 51:  else
  9744                           	
  9745                           l79:	
  9746  16AB                     	line	52
  9747                           ;LCD.c: 52:   RA4 = 0;
  9748                           	bcf	(44/8),(44)&7	;volatile
  9749  16AB  1205               	
  9750                           l80:	
  9751  16AC                     	line	54
  9752                           ;LCD.c: 54:  if(a & 32)
  9753                           	btfss	(Lcd_Port@a),(5)&7
  9754  16AC  1EF3               	goto	u3761
  9755  16AD  2EAF               	goto	u3760
  9756  16AE  2EB0               u3761:
  9757  16AF                     	goto	l81
  9758  16AF  2EB2               u3760:
  9759  16B0                     	line	55
  9760                           	
  9761                           l3155:	
  9762  16B0                     ;LCD.c: 55:   RA5 = 1;
  9763                           	bsf	(45/8),(45)&7	;volatile
  9764  16B0  1685               	goto	l82
  9765  16B1  2EB3               	line	56
  9766                           ;LCD.c: 56:  else
  9767                           	
  9768                           l81:	
  9769  16B2                     	line	57
  9770                           ;LCD.c: 57:   RA5 = 0;
  9771                           	bcf	(45/8),(45)&7	;volatile
  9772  16B2  1285               	
  9773                           l82:	
  9774  16B3                     	line	59
  9775                           ;LCD.c: 59:  if(a & 64)
  9776                           	btfss	(Lcd_Port@a),(6)&7
  9777  16B3  1F73               	goto	u3771
  9778  16B4  2EB6               	goto	u3770
  9779  16B5  2EB7               u3771:
  9780  16B6                     	goto	l83
  9781  16B6  2EB9               u3770:
  9782  16B7                     	line	60
  9783                           	
  9784                           l3157:	
  9785  16B7                     ;LCD.c: 60:   RA6 = 1;
  9786                           	bsf	(46/8),(46)&7	;volatile
  9787  16B7  1705               	goto	l84
  9788  16B8  2EBA               	line	61
  9789                           ;LCD.c: 61:  else
  9790                           	
  9791                           l83:	
  9792  16B9                     	line	62
  9793                           ;LCD.c: 62:   RA6 = 0;
  9794                           	bcf	(46/8),(46)&7	;volatile
  9795  16B9  1305               	
  9796                           l84:	
  9797  16BA                     	line	64
  9798                           ;LCD.c: 64:  if(a & 128)
  9799                           	btfss	(Lcd_Port@a),(7)&7
  9800  16BA  1FF3               	goto	u3781
  9801  16BB  2EBD               	goto	u3780
  9802  16BC  2EBE               u3781:
  9803  16BD                     	goto	l85
  9804  16BD  2EC0               u3780:
  9805  16BE                     	line	65
  9806                           	
  9807                           l3159:	
  9808  16BE                     ;LCD.c: 65:   RA7 = 1;
  9809                           	bsf	(47/8),(47)&7	;volatile
  9810  16BE  1785               	goto	l87
  9811  16BF  2EC2               	line	66
  9812                           ;LCD.c: 66:  else
  9813                           	
  9814                           l85:	
  9815  16C0                     	line	67
  9816                           ;LCD.c: 67:   RA7 = 0;
  9817                           	bcf	(47/8),(47)&7	;volatile
  9818  16C0  1385               	goto	l87
  9819  16C1  2EC2               	
  9820                           l86:	
  9821  16C2                     	line	68
  9822                           	
  9823                           l87:	
  9824  16C2                     	return
  9825  16C2  0008               	opt stack 0
  9826                           GLOBAL	__end_of_Lcd_Port
  9827                           	__end_of_Lcd_Port:
  9828  16C3                     	signat	_Lcd_Port,4217
  9829                           	global	_I2C_Slave_Init
  9830                           
  9831 ;; *************** function _I2C_Slave_Init *****************
  9832 ;; Defined at:
  9833 ;;		line 90 in file "I2C.c"
  9834 ;; Parameters:    Size  Location     Type
  9835 ;;  address         1    wreg     unsigned char 
  9836 ;; Auto vars:     Size  Location     Type
  9837 ;;  address         1    3[COMMON] unsigned char 
  9838 ;; Return value:  Size  Location     Type
  9839 ;;                  1    wreg      void 
  9840 ;; Registers used:
  9841 ;;		wreg
  9842 ;; Tracked objects:
  9843 ;;		On entry : 0/0
  9844 ;;		On exit  : 0/0
  9845 ;;		Unchanged: 0/0
  9846 ;; Data sizes:     COMMON   BANK0   BANK1   BANK3   BANK2
  9847 ;;      Params:         0       0       0       0       0
  9848 ;;      Locals:         1       0       0       0       0
  9849 ;;      Temps:          0       0       0       0       0
  9850 ;;      Totals:         1       0       0       0       0
  9851 ;;Total ram usage:        1 bytes
  9852 ;; Hardware stack levels used:    1
  9853 ;; Hardware stack levels required when called:    1
  9854 ;; This function calls:
  9855 ;;		Nothing
  9856 ;; This function is called by:
  9857 ;;		_main
  9858 ;; This function uses a non-reentrant model
  9859 ;;
  9860                           psect	text22,local,class=CODE,delta=2,merge=1,group=0
  9861                           	file	"I2C.c"
  9862                           	line	90
  9863                           global __ptext22
  9864                           __ptext22:	;psect for function _I2C_Slave_Init
  9865  0803                     psect	text22
  9866                           	file	"I2C.c"
  9867                           	line	90
  9868                           	global	__size_of_I2C_Slave_Init
  9869                           	__size_of_I2C_Slave_Init	equ	__end_of_I2C_Slave_Init-_I2C_Slave_Init
  9870  001A                     	
  9871                           _I2C_Slave_Init:	
  9872  0803                     ;incstack = 0
  9873                           	opt	stack 6
  9874                           ; Regs used in _I2C_Slave_Init: [wreg]
  9875                           ;I2C_Slave_Init@address stored from wreg
  9876                           	movwf	(I2C_Slave_Init@address)
  9877  0803  00F3               	line	92
  9878                           	
  9879                           l2741:	
  9880  0804                     ;I2C.c: 90: void I2C_Slave_Init(uint8_t address);I2C.c: 91: {;I2C.c: 92:     SSPADD = ad
                                 dress;
  9881                           	movf	(I2C_Slave_Init@address),w
  9882  0804  0873               	bsf	status, 5	;RP0=1, select bank1
  9883  0805  1683               	bcf	status, 6	;RP1=0, select bank1
  9884  0806  1303               	movwf	(147)^080h	;volatile
  9885  0807  0093               	line	93
  9886                           ;I2C.c: 93:     SSPCON = 0x36;
  9887                           	movlw	low(036h)
  9888  0808  3036               	bcf	status, 5	;RP0=0, select bank0
  9889  0809  1283               	bcf	status, 6	;RP1=0, select bank0
  9890  080A  1303               	movwf	(20)	;volatile
  9891  080B  0094               	line	94
  9892                           ;I2C.c: 94:     SSPSTAT = 0x80;
  9893                           	movlw	low(080h)
  9894  080C  3080               	bsf	status, 5	;RP0=1, select bank1
  9895  080D  1683               	bcf	status, 6	;RP1=0, select bank1
  9896  080E  1303               	movwf	(148)^080h	;volatile
  9897  080F  0094               	line	95
  9898                           ;I2C.c: 95:     SSPCON2 = 0x01;
  9899                           	movlw	low(01h)
  9900  0810  3001               	movwf	(145)^080h	;volatile
  9901  0811  0091               	line	96
  9902                           	
  9903                           l2743:	
  9904  0812                     ;I2C.c: 96:     TRISC3 = 1;
  9905                           	bsf	(1083/8)^080h,(1083)&7	;volatile
  9906  0812  1587               	line	97
  9907                           	
  9908                           l2745:	
  9909  0813                     ;I2C.c: 97:     TRISC4 = 1;
  9910                           	bsf	(1084/8)^080h,(1084)&7	;volatile
  9911  0813  1607               	line	98
  9912                           	
  9913                           l2747:	
  9914  0814                     ;I2C.c: 98:     GIE = 1;
  9915                           	bsf	(95/8),(95)&7	;volatile
  9916  0814  178B               	line	99
  9917                           	
  9918                           l2749:	
  9919  0815                     ;I2C.c: 99:     PEIE = 1;
  9920                           	bsf	(94/8),(94)&7	;volatile
  9921  0815  170B               	line	100
  9922                           	
  9923                           l2751:	
  9924  0816                     ;I2C.c: 100:     SSPIF = 0;
  9925                           	bcf	status, 5	;RP0=0, select bank0
  9926  0816  1283               	bcf	status, 6	;RP1=0, select bank0
  9927  0817  1303               	bcf	(99/8),(99)&7	;volatile
  9928  0818  118C               	line	101
  9929                           	
  9930                           l2753:	
  9931  0819                     ;I2C.c: 101:     SSPIE = 1;
  9932                           	bsf	status, 5	;RP0=1, select bank1
  9933  0819  1683               	bcf	status, 6	;RP1=0, select bank1
  9934  081A  1303               	bsf	(1123/8)^080h,(1123)&7	;volatile
  9935  081B  158C               	line	102
  9936                           	
  9937                           l318:	
  9938  081C                     	return
  9939  081C  0008               	opt stack 0
  9940                           GLOBAL	__end_of_I2C_Slave_Init
  9941                           	__end_of_I2C_Slave_Init:
  9942  081D                     	signat	_I2C_Slave_Init,4217
  9943                           	global	_ADC_INTERRUPT
  9944                           
  9945 ;; *************** function _ADC_INTERRUPT *****************
  9946 ;; Defined at:
  9947 ;;		line 114 in file "ADC.c"
  9948 ;; Parameters:    Size  Location     Type
  9949 ;;		None
  9950 ;; Auto vars:     Size  Location     Type
  9951 ;;		None
  9952 ;; Return value:  Size  Location     Type
  9953 ;;                  1    wreg      void 
  9954 ;; Registers used:
  9955 ;;		None
  9956 ;; Tracked objects:
  9957 ;;		On entry : 0/0
  9958 ;;		On exit  : 0/0
  9959 ;;		Unchanged: 0/0
  9960 ;; Data sizes:     COMMON   BANK0   BANK1   BANK3   BANK2
  9961 ;;      Params:         0       0       0       0       0
  9962 ;;      Locals:         0       0       0       0       0
  9963 ;;      Temps:          0       0       0       0       0
  9964 ;;      Totals:         0       0       0       0       0
  9965 ;;Total ram usage:        0 bytes
  9966 ;; Hardware stack levels used:    1
  9967 ;; Hardware stack levels required when called:    1
  9968 ;; This function calls:
  9969 ;;		Nothing
  9970 ;; This function is called by:
  9971 ;;		_main
  9972 ;; This function uses a non-reentrant model
  9973 ;;
  9974                           psect	text23,local,class=CODE,delta=2,merge=1,group=0
  9975                           	file	"ADC.c"
  9976                           	line	114
  9977                           global __ptext23
  9978                           __ptext23:	;psect for function _ADC_INTERRUPT
  9979  156D                     psect	text23
  9980                           	file	"ADC.c"
  9981                           	line	114
  9982                           	global	__size_of_ADC_INTERRUPT
  9983                           	__size_of_ADC_INTERRUPT	equ	__end_of_ADC_INTERRUPT-_ADC_INTERRUPT
  9984  0009                     	
  9985                           _ADC_INTERRUPT:	
  9986  156D                     ;incstack = 0
  9987                           	opt	stack 6
  9988                           ; Regs used in _ADC_INTERRUPT: []
  9989                           	line	115
  9990                           	
  9991                           l2703:	
  9992  156D                     ;ADC.c: 115:     PIR1bits.ADIF = 0;
  9993                           	bcf	status, 5	;RP0=0, select bank0
  9994  156D  1283               	bcf	status, 6	;RP1=0, select bank0
  9995  156E  1303               	bcf	(12),6	;volatile
  9996  156F  130C               	line	116
  9997                           ;ADC.c: 116:     PIE1bits.ADIE = 1;
  9998                           	bsf	status, 5	;RP0=1, select bank1
  9999  1570  1683               	bcf	status, 6	;RP1=0, select bank1
 10000  1571  1303               	bsf	(140)^080h,6	;volatile
 10001  1572  170C               	line	117
 10002                           ;ADC.c: 117:     INTCONbits.GIE = 1;
 10003                           	bsf	(11),7	;volatile
 10004  1573  178B               	line	118
 10005                           ;ADC.c: 118:     INTCONbits.PEIE = 1;
 10006                           	bsf	(11),6	;volatile
 10007  1574  170B               	line	119
 10008                           	
 10009                           l46:	
 10010  1575                     	return
 10011  1575  0008               	opt stack 0
 10012                           GLOBAL	__end_of_ADC_INTERRUPT
 10013                           	__end_of_ADC_INTERRUPT:
 10014  1576                     	signat	_ADC_INTERRUPT,89
 10015                           	global	_ADC_CONFIG
 10016                           
 10017 ;; *************** function _ADC_CONFIG *****************
 10018 ;; Defined at:
 10019 ;;		line 12 in file "ADC.c"
 10020 ;; Parameters:    Size  Location     Type
 10021 ;;  canal           1    wreg     unsigned char 
 10022 ;;  justif          1    3[COMMON] unsigned char 
 10023 ;; Auto vars:     Size  Location     Type
 10024 ;;  canal           1    6[COMMON] unsigned char 
 10025 ;; Return value:  Size  Location     Type
 10026 ;;                  1    wreg      void 
 10027 ;; Registers used:
 10028 ;;		wreg, fsr0l, fsr0h, status,2, status,0
 10029 ;; Tracked objects:
 10030 ;;		On entry : 0/0
 10031 ;;		On exit  : 0/0
 10032 ;;		Unchanged: 0/0
 10033 ;; Data sizes:     COMMON   BANK0   BANK1   BANK3   BANK2
 10034 ;;      Params:         1       0       0       0       0
 10035 ;;      Locals:         1       0       0       0       0
 10036 ;;      Temps:          2       0       0       0       0
 10037 ;;      Totals:         4       0       0       0       0
 10038 ;;Total ram usage:        4 bytes
 10039 ;; Hardware stack levels used:    1
 10040 ;; Hardware stack levels required when called:    1
 10041 ;; This function calls:
 10042 ;;		Nothing
 10043 ;; This function is called by:
 10044 ;;		_main
 10045 ;; This function uses a non-reentrant model
 10046 ;;
 10047                           psect	text24,local,class=CODE,delta=2,merge=1,group=0
 10048                           	line	12
 10049                           global __ptext24
 10050                           __ptext24:	;psect for function _ADC_CONFIG
 10051  0655                     psect	text24
 10052                           	file	"ADC.c"
 10053                           	line	12
 10054                           	global	__size_of_ADC_CONFIG
 10055                           	__size_of_ADC_CONFIG	equ	__end_of_ADC_CONFIG-_ADC_CONFIG
 10056  010E                     	
 10057                           _ADC_CONFIG:	
 10058  0655                     ;incstack = 0
 10059                           	opt	stack 6
 10060                           ; Regs used in _ADC_CONFIG: [wreg-fsr0h+status,2+status,0]
 10061                           ;ADC_CONFIG@canal stored from wreg
 10062                           	movwf	(ADC_CONFIG@canal)
 10063  0655  00F6               	line	13
 10064                           	
 10065                           l2623:	
 10066  0656                     ;ADC.c: 13:     ADCON0bits.ADON = 1;
 10067                           	bcf	status, 5	;RP0=0, select bank0
 10068  0656  1283               	bcf	status, 6	;RP1=0, select bank0
 10069  0657  1303               	bsf	(31),0	;volatile
 10070  0658  141F               	line	14
 10071                           ;ADC.c: 14:     ADCON0bits.GO = 1;
 10072                           	bsf	(31),1	;volatile
 10073  0659  149F               	line	15
 10074                           	
 10075                           l2625:	
 10076  065A                     ;ADC.c: 15:     ADCON0bits.ADCS = 1;
 10077                           	movf	(31),w	;volatile
 10078  065A  081F               	andlw	not (((1<<2)-1)<<6)
 10079  065B  393F               	iorlw	(01h & ((1<<2)-1))<<6
 10080  065C  3840               	movwf	(31)	;volatile
 10081  065D  009F               	line	16
 10082                           	
 10083                           l2627:	
 10084  065E                     ;ADC.c: 16:     ADCON1bits.VCFG0 = 0;
 10085                           	bsf	status, 5	;RP0=1, select bank1
 10086  065E  1683               	bcf	status, 6	;RP1=0, select bank1
 10087  065F  1303               	bcf	(159)^080h,4	;volatile
 10088  0660  121F               	line	17
 10089                           	
 10090                           l2629:	
 10091  0661                     ;ADC.c: 17:     ADCON1bits.VCFG1 = 0;
 10092                           	bcf	(159)^080h,5	;volatile
 10093  0661  129F               	line	19
 10094                           ;ADC.c: 19:     switch(canal){
 10095                           	goto	l2689
 10096  0662  2F18               	line	20
 10097                           ;ADC.c: 20:         case 0:
 10098                           	
 10099                           l24:	
 10100  0663                     	line	21
 10101                           ;ADC.c: 21:             ANSELbits.ANS0 = 1;
 10102                           	bsf	status, 5	;RP0=1, select bank3
 10103  0663  1683               	bsf	status, 6	;RP1=1, select bank3
 10104  0664  1703               	bsf	(392)^0180h,0	;volatile
 10105  0665  1408               	line	22
 10106                           	
 10107                           l2631:	
 10108  0666                     ;ADC.c: 22:             ADCON0bits.CHS = 0;
 10109                           	movlw	((0 & ((1<<4)-1))<<2)|not (((1<<4)-1)<<2)
 10110  0666  30C3               	bcf	status, 5	;RP0=0, select bank0
 10111  0667  1283               	bcf	status, 6	;RP1=0, select bank0
 10112  0668  1303               	andwf	(31),f	;volatile
 10113  0669  059F               	line	23
 10114                           	
 10115                           l2633:	
 10116  066A                     ;ADC.c: 23:             TRISAbits.TRISA0 = 1;
 10117                           	bsf	status, 5	;RP0=1, select bank1
 10118  066A  1683               	bcf	status, 6	;RP1=0, select bank1
 10119  066B  1303               	bsf	(133)^080h,0	;volatile
 10120  066C  1405               	line	24
 10121                           ;ADC.c: 24:             break;
 10122                           	goto	l2693
 10123  066D  2F52               	line	26
 10124                           ;ADC.c: 26:         case 1:
 10125                           	
 10126                           l26:	
 10127  066E                     	line	27
 10128                           ;ADC.c: 27:             ANSELbits.ANS1 = 1;
 10129                           	bsf	status, 5	;RP0=1, select bank3
 10130  066E  1683               	bsf	status, 6	;RP1=1, select bank3
 10131  066F  1703               	bsf	(392)^0180h,1	;volatile
 10132  0670  1488               	line	28
 10133                           	
 10134                           l2635:	
 10135  0671                     ;ADC.c: 28:             ADCON0bits.CHS = 1;
 10136                           	bcf	status, 5	;RP0=0, select bank0
 10137  0671  1283               	bcf	status, 6	;RP1=0, select bank0
 10138  0672  1303               	movf	(31),w	;volatile
 10139  0673  081F               	andlw	not (((1<<4)-1)<<2)
 10140  0674  39C3               	iorlw	(01h & ((1<<4)-1))<<2
 10141  0675  3804               	movwf	(31)	;volatile
 10142  0676  009F               	line	29
 10143                           	
 10144                           l2637:	
 10145  0677                     ;ADC.c: 29:             TRISAbits.TRISA1 = 1;
 10146                           	bsf	status, 5	;RP0=1, select bank1
 10147  0677  1683               	bcf	status, 6	;RP1=0, select bank1
 10148  0678  1303               	bsf	(133)^080h,1	;volatile
 10149  0679  1485               	line	30
 10150                           ;ADC.c: 30:             break;
 10151                           	goto	l2693
 10152  067A  2F52               	line	32
 10153                           ;ADC.c: 32:         case 2:
 10154                           	
 10155                           l27:	
 10156  067B                     	line	33
 10157                           ;ADC.c: 33:             ANSELbits.ANS2 = 1;
 10158                           	bsf	status, 5	;RP0=1, select bank3
 10159  067B  1683               	bsf	status, 6	;RP1=1, select bank3
 10160  067C  1703               	bsf	(392)^0180h,2	;volatile
 10161  067D  1508               	line	34
 10162                           	
 10163                           l2639:	
 10164  067E                     ;ADC.c: 34:             ADCON0bits.CHS = 2;
 10165                           	bcf	status, 5	;RP0=0, select bank0
 10166  067E  1283               	bcf	status, 6	;RP1=0, select bank0
 10167  067F  1303               	movf	(31),w	;volatile
 10168  0680  081F               	andlw	not (((1<<4)-1)<<2)
 10169  0681  39C3               	iorlw	(02h & ((1<<4)-1))<<2
 10170  0682  3808               	movwf	(31)	;volatile
 10171  0683  009F               	line	35
 10172                           	
 10173                           l2641:	
 10174  0684                     ;ADC.c: 35:             TRISAbits.TRISA2 = 1;
 10175                           	bsf	status, 5	;RP0=1, select bank1
 10176  0684  1683               	bcf	status, 6	;RP1=0, select bank1
 10177  0685  1303               	bsf	(133)^080h,2	;volatile
 10178  0686  1505               	line	36
 10179                           ;ADC.c: 36:             break;
 10180                           	goto	l2693
 10181  0687  2F52               	line	38
 10182                           ;ADC.c: 38:         case 3:
 10183                           	
 10184                           l28:	
 10185  0688                     	line	39
 10186                           ;ADC.c: 39:             ANSELbits.ANS3 = 1;
 10187                           	bsf	status, 5	;RP0=1, select bank3
 10188  0688  1683               	bsf	status, 6	;RP1=1, select bank3
 10189  0689  1703               	bsf	(392)^0180h,3	;volatile
 10190  068A  1588               	line	40
 10191                           	
 10192                           l2643:	
 10193  068B                     ;ADC.c: 40:             ADCON0bits.CHS = 3;
 10194                           	bcf	status, 5	;RP0=0, select bank0
 10195  068B  1283               	bcf	status, 6	;RP1=0, select bank0
 10196  068C  1303               	movf	(31),w	;volatile
 10197  068D  081F               	andlw	not (((1<<4)-1)<<2)
 10198  068E  39C3               	iorlw	(03h & ((1<<4)-1))<<2
 10199  068F  380C               	movwf	(31)	;volatile
 10200  0690  009F               	line	41
 10201                           	
 10202                           l2645:	
 10203  0691                     ;ADC.c: 41:             TRISAbits.TRISA3 = 1;
 10204                           	bsf	status, 5	;RP0=1, select bank1
 10205  0691  1683               	bcf	status, 6	;RP1=0, select bank1
 10206  0692  1303               	bsf	(133)^080h,3	;volatile
 10207  0693  1585               	line	42
 10208                           ;ADC.c: 42:             break;
 10209                           	goto	l2693
 10210  0694  2F52               	line	44
 10211                           ;ADC.c: 44:         case 4:
 10212                           	
 10213                           l29:	
 10214  0695                     	line	45
 10215                           ;ADC.c: 45:             ANSELbits.ANS4 = 1;
 10216                           	bsf	status, 5	;RP0=1, select bank3
 10217  0695  1683               	bsf	status, 6	;RP1=1, select bank3
 10218  0696  1703               	bsf	(392)^0180h,4	;volatile
 10219  0697  1608               	line	46
 10220                           	
 10221                           l2647:	
 10222  0698                     ;ADC.c: 46:             ADCON0bits.CHS = 4;
 10223                           	bcf	status, 5	;RP0=0, select bank0
 10224  0698  1283               	bcf	status, 6	;RP1=0, select bank0
 10225  0699  1303               	movf	(31),w	;volatile
 10226  069A  081F               	andlw	not (((1<<4)-1)<<2)
 10227  069B  39C3               	iorlw	(04h & ((1<<4)-1))<<2
 10228  069C  3810               	movwf	(31)	;volatile
 10229  069D  009F               	line	47
 10230                           	
 10231                           l2649:	
 10232  069E                     ;ADC.c: 47:             TRISAbits.TRISA5 = 1;
 10233                           	bsf	status, 5	;RP0=1, select bank1
 10234  069E  1683               	bcf	status, 6	;RP1=0, select bank1
 10235  069F  1303               	bsf	(133)^080h,5	;volatile
 10236  06A0  1685               	line	48
 10237                           ;ADC.c: 48:             break;
 10238                           	goto	l2693
 10239  06A1  2F52               	line	50
 10240                           ;ADC.c: 50:         case 5:
 10241                           	
 10242                           l30:	
 10243  06A2                     	line	51
 10244                           ;ADC.c: 51:             ANSELbits.ANS5 = 1;
 10245                           	bsf	status, 5	;RP0=1, select bank3
 10246  06A2  1683               	bsf	status, 6	;RP1=1, select bank3
 10247  06A3  1703               	bsf	(392)^0180h,5	;volatile
 10248  06A4  1688               	line	52
 10249                           	
 10250                           l2651:	
 10251  06A5                     ;ADC.c: 52:             ADCON0bits.CHS = 5;
 10252                           	bcf	status, 5	;RP0=0, select bank0
 10253  06A5  1283               	bcf	status, 6	;RP1=0, select bank0
 10254  06A6  1303               	movf	(31),w	;volatile
 10255  06A7  081F               	andlw	not (((1<<4)-1)<<2)
 10256  06A8  39C3               	iorlw	(05h & ((1<<4)-1))<<2
 10257  06A9  3814               	movwf	(31)	;volatile
 10258  06AA  009F               	line	53
 10259                           	
 10260                           l2653:	
 10261  06AB                     ;ADC.c: 53:             TRISEbits.TRISE0 = 1;
 10262                           	bsf	status, 5	;RP0=1, select bank1
 10263  06AB  1683               	bcf	status, 6	;RP1=0, select bank1
 10264  06AC  1303               	bsf	(137)^080h,0	;volatile
 10265  06AD  1409               	line	54
 10266                           ;ADC.c: 54:             break;
 10267                           	goto	l2693
 10268  06AE  2F52               	line	56
 10269                           ;ADC.c: 56:         case 6:
 10270                           	
 10271                           l31:	
 10272  06AF                     	line	57
 10273                           ;ADC.c: 57:             ANSELbits.ANS6 = 1;
 10274                           	bsf	status, 5	;RP0=1, select bank3
 10275  06AF  1683               	bsf	status, 6	;RP1=1, select bank3
 10276  06B0  1703               	bsf	(392)^0180h,6	;volatile
 10277  06B1  1708               	line	58
 10278                           	
 10279                           l2655:	
 10280  06B2                     ;ADC.c: 58:             ADCON0bits.CHS = 6;
 10281                           	bcf	status, 5	;RP0=0, select bank0
 10282  06B2  1283               	bcf	status, 6	;RP1=0, select bank0
 10283  06B3  1303               	movf	(31),w	;volatile
 10284  06B4  081F               	andlw	not (((1<<4)-1)<<2)
 10285  06B5  39C3               	iorlw	(06h & ((1<<4)-1))<<2
 10286  06B6  3818               	movwf	(31)	;volatile
 10287  06B7  009F               	line	59
 10288                           	
 10289                           l2657:	
 10290  06B8                     ;ADC.c: 59:             TRISEbits.TRISE1 = 1;
 10291                           	bsf	status, 5	;RP0=1, select bank1
 10292  06B8  1683               	bcf	status, 6	;RP1=0, select bank1
 10293  06B9  1303               	bsf	(137)^080h,1	;volatile
 10294  06BA  1489               	line	60
 10295                           ;ADC.c: 60:             break;
 10296                           	goto	l2693
 10297  06BB  2F52               	line	62
 10298                           ;ADC.c: 62:         case 7:
 10299                           	
 10300                           l32:	
 10301  06BC                     	line	63
 10302                           ;ADC.c: 63:             ANSELbits.ANS7 = 1;
 10303                           	bsf	status, 5	;RP0=1, select bank3
 10304  06BC  1683               	bsf	status, 6	;RP1=1, select bank3
 10305  06BD  1703               	bsf	(392)^0180h,7	;volatile
 10306  06BE  1788               	line	64
 10307                           	
 10308                           l2659:	
 10309  06BF                     ;ADC.c: 64:             ADCON0bits.CHS = 7;
 10310                           	bcf	status, 5	;RP0=0, select bank0
 10311  06BF  1283               	bcf	status, 6	;RP1=0, select bank0
 10312  06C0  1303               	movf	(31),w	;volatile
 10313  06C1  081F               	andlw	not (((1<<4)-1)<<2)
 10314  06C2  39C3               	iorlw	(07h & ((1<<4)-1))<<2
 10315  06C3  381C               	movwf	(31)	;volatile
 10316  06C4  009F               	line	65
 10317                           	
 10318                           l2661:	
 10319  06C5                     ;ADC.c: 65:             TRISEbits.TRISE2 = 1;
 10320                           	bsf	status, 5	;RP0=1, select bank1
 10321  06C5  1683               	bcf	status, 6	;RP1=0, select bank1
 10322  06C6  1303               	bsf	(137)^080h,2	;volatile
 10323  06C7  1509               	line	66
 10324                           ;ADC.c: 66:             break;
 10325                           	goto	l2693
 10326  06C8  2F52               	line	68
 10327                           ;ADC.c: 68:         case 8:
 10328                           	
 10329                           l33:	
 10330  06C9                     	line	69
 10331                           ;ADC.c: 69:             ANSELHbits.ANS8 = 1;
 10332                           	bsf	status, 5	;RP0=1, select bank3
 10333  06C9  1683               	bsf	status, 6	;RP1=1, select bank3
 10334  06CA  1703               	bsf	(393)^0180h,0	;volatile
 10335  06CB  1409               	line	70
 10336                           	
 10337                           l2663:	
 10338  06CC                     ;ADC.c: 70:             ADCON0bits.CHS = 8;
 10339                           	bcf	status, 5	;RP0=0, select bank0
 10340  06CC  1283               	bcf	status, 6	;RP1=0, select bank0
 10341  06CD  1303               	movf	(31),w	;volatile
 10342  06CE  081F               	andlw	not (((1<<4)-1)<<2)
 10343  06CF  39C3               	iorlw	(08h & ((1<<4)-1))<<2
 10344  06D0  3820               	movwf	(31)	;volatile
 10345  06D1  009F               	line	71
 10346                           	
 10347                           l2665:	
 10348  06D2                     ;ADC.c: 71:             TRISBbits.TRISB2 = 1;
 10349                           	bsf	status, 5	;RP0=1, select bank1
 10350  06D2  1683               	bcf	status, 6	;RP1=0, select bank1
 10351  06D3  1303               	bsf	(134)^080h,2	;volatile
 10352  06D4  1506               	line	72
 10353                           ;ADC.c: 72:             break;
 10354                           	goto	l2693
 10355  06D5  2F52               	line	74
 10356                           ;ADC.c: 74:         case 9:
 10357                           	
 10358                           l34:	
 10359  06D6                     	line	75
 10360                           ;ADC.c: 75:             ANSELHbits.ANS9 = 1;
 10361                           	bsf	status, 5	;RP0=1, select bank3
 10362  06D6  1683               	bsf	status, 6	;RP1=1, select bank3
 10363  06D7  1703               	bsf	(393)^0180h,1	;volatile
 10364  06D8  1489               	line	76
 10365                           	
 10366                           l2667:	
 10367  06D9                     ;ADC.c: 76:             ADCON0bits.CHS = 9;
 10368                           	bcf	status, 5	;RP0=0, select bank0
 10369  06D9  1283               	bcf	status, 6	;RP1=0, select bank0
 10370  06DA  1303               	movf	(31),w	;volatile
 10371  06DB  081F               	andlw	not (((1<<4)-1)<<2)
 10372  06DC  39C3               	iorlw	(09h & ((1<<4)-1))<<2
 10373  06DD  3824               	movwf	(31)	;volatile
 10374  06DE  009F               	line	77
 10375                           	
 10376                           l2669:	
 10377  06DF                     ;ADC.c: 77:             TRISBbits.TRISB3 = 1;
 10378                           	bsf	status, 5	;RP0=1, select bank1
 10379  06DF  1683               	bcf	status, 6	;RP1=0, select bank1
 10380  06E0  1303               	bsf	(134)^080h,3	;volatile
 10381  06E1  1586               	line	78
 10382                           ;ADC.c: 78:             break;
 10383                           	goto	l2693
 10384  06E2  2F52               	line	80
 10385                           ;ADC.c: 80:         case 10:
 10386                           	
 10387                           l35:	
 10388  06E3                     	line	81
 10389                           ;ADC.c: 81:             ANSELHbits.ANS10 = 1;
 10390                           	bsf	status, 5	;RP0=1, select bank3
 10391  06E3  1683               	bsf	status, 6	;RP1=1, select bank3
 10392  06E4  1703               	bsf	(393)^0180h,2	;volatile
 10393  06E5  1509               	line	82
 10394                           	
 10395                           l2671:	
 10396  06E6                     ;ADC.c: 82:             ADCON0bits.CHS = 10;
 10397                           	bcf	status, 5	;RP0=0, select bank0
 10398  06E6  1283               	bcf	status, 6	;RP1=0, select bank0
 10399  06E7  1303               	movf	(31),w	;volatile
 10400  06E8  081F               	andlw	not (((1<<4)-1)<<2)
 10401  06E9  39C3               	iorlw	(0Ah & ((1<<4)-1))<<2
 10402  06EA  3828               	movwf	(31)	;volatile
 10403  06EB  009F               	line	83
 10404                           	
 10405                           l2673:	
 10406  06EC                     ;ADC.c: 83:             TRISBbits.TRISB1 = 1;
 10407                           	bsf	status, 5	;RP0=1, select bank1
 10408  06EC  1683               	bcf	status, 6	;RP1=0, select bank1
 10409  06ED  1303               	bsf	(134)^080h,1	;volatile
 10410  06EE  1486               	line	84
 10411                           ;ADC.c: 84:             break;
 10412                           	goto	l2693
 10413  06EF  2F52               	line	86
 10414                           ;ADC.c: 86:         case 11:
 10415                           	
 10416                           l36:	
 10417  06F0                     	line	87
 10418                           ;ADC.c: 87:             ANSELHbits.ANS11 = 1;
 10419                           	bsf	status, 5	;RP0=1, select bank3
 10420  06F0  1683               	bsf	status, 6	;RP1=1, select bank3
 10421  06F1  1703               	bsf	(393)^0180h,3	;volatile
 10422  06F2  1589               	line	88
 10423                           	
 10424                           l2675:	
 10425  06F3                     ;ADC.c: 88:             ADCON0bits.CHS = 11;
 10426                           	bcf	status, 5	;RP0=0, select bank0
 10427  06F3  1283               	bcf	status, 6	;RP1=0, select bank0
 10428  06F4  1303               	movf	(31),w	;volatile
 10429  06F5  081F               	andlw	not (((1<<4)-1)<<2)
 10430  06F6  39C3               	iorlw	(0Bh & ((1<<4)-1))<<2
 10431  06F7  382C               	movwf	(31)	;volatile
 10432  06F8  009F               	line	89
 10433                           	
 10434                           l2677:	
 10435  06F9                     ;ADC.c: 89:             TRISBbits.TRISB4 = 1;
 10436                           	bsf	status, 5	;RP0=1, select bank1
 10437  06F9  1683               	bcf	status, 6	;RP1=0, select bank1
 10438  06FA  1303               	bsf	(134)^080h,4	;volatile
 10439  06FB  1606               	line	90
 10440                           ;ADC.c: 90:             break;
 10441                           	goto	l2693
 10442  06FC  2F52               	line	92
 10443                           ;ADC.c: 92:         case 12:
 10444                           	
 10445                           l37:	
 10446  06FD                     	line	93
 10447                           ;ADC.c: 93:             ANSELHbits.ANS12 = 1;
 10448                           	bsf	status, 5	;RP0=1, select bank3
 10449  06FD  1683               	bsf	status, 6	;RP1=1, select bank3
 10450  06FE  1703               	bsf	(393)^0180h,4	;volatile
 10451  06FF  1609               	line	94
 10452                           	
 10453                           l2679:	
 10454  0700                     ;ADC.c: 94:             ADCON0bits.CHS = 12;
 10455                           	bcf	status, 5	;RP0=0, select bank0
 10456  0700  1283               	bcf	status, 6	;RP1=0, select bank0
 10457  0701  1303               	movf	(31),w	;volatile
 10458  0702  081F               	andlw	not (((1<<4)-1)<<2)
 10459  0703  39C3               	iorlw	(0Ch & ((1<<4)-1))<<2
 10460  0704  3830               	movwf	(31)	;volatile
 10461  0705  009F               	line	95
 10462                           	
 10463                           l2681:	
 10464  0706                     ;ADC.c: 95:             TRISBbits.TRISB0 = 1;
 10465                           	bsf	status, 5	;RP0=1, select bank1
 10466  0706  1683               	bcf	status, 6	;RP1=0, select bank1
 10467  0707  1303               	bsf	(134)^080h,0	;volatile
 10468  0708  1406               	line	96
 10469                           ;ADC.c: 96:             break;
 10470                           	goto	l2693
 10471  0709  2F52               	line	98
 10472                           ;ADC.c: 98:         case 13:
 10473                           	
 10474                           l38:	
 10475  070A                     	line	99
 10476                           ;ADC.c: 99:             ANSELHbits.ANS13 = 1;
 10477                           	bsf	status, 5	;RP0=1, select bank3
 10478  070A  1683               	bsf	status, 6	;RP1=1, select bank3
 10479  070B  1703               	bsf	(393)^0180h,5	;volatile
 10480  070C  1689               	line	100
 10481                           	
 10482                           l2683:	
 10483  070D                     ;ADC.c: 100:             ADCON0bits.CHS = 13;
 10484                           	bcf	status, 5	;RP0=0, select bank0
 10485  070D  1283               	bcf	status, 6	;RP1=0, select bank0
 10486  070E  1303               	movf	(31),w	;volatile
 10487  070F  081F               	andlw	not (((1<<4)-1)<<2)
 10488  0710  39C3               	iorlw	(0Dh & ((1<<4)-1))<<2
 10489  0711  3834               	movwf	(31)	;volatile
 10490  0712  009F               	line	101
 10491                           	
 10492                           l2685:	
 10493  0713                     ;ADC.c: 101:             TRISBbits.TRISB5 = 1;
 10494                           	bsf	status, 5	;RP0=1, select bank1
 10495  0713  1683               	bcf	status, 6	;RP1=0, select bank1
 10496  0714  1303               	bsf	(134)^080h,5	;volatile
 10497  0715  1686               	line	102
 10498                           ;ADC.c: 102:             break;
 10499                           	goto	l2693
 10500  0716  2F52               	line	103
 10501                           	
 10502                           l2687:	
 10503  0717                     ;ADC.c: 103:     }
 10504                           	goto	l2693
 10505  0717  2F52               	
 10506                           l23:	
 10507  0718                     	
 10508                           l2689:	
 10509  0718                     	movf	(ADC_CONFIG@canal),w
 10510  0718  0876               	movwf	(??_ADC_CONFIG+0)+0
 10511  0719  00F4               	clrf	(??_ADC_CONFIG+0)+0+1
 10512  071A  01F5               	; Switch on 2 bytes has been partitioned into a top level switch of size 1, and 1 sub-s
                                 witches
 10513                           ; Switch size 1, requested type "space"
 10514                           ; Number of cases is 1, Range of values is 0 to 0
 10515                           ; switch strategies available:
 10516                           ; Name         Instructions Cycles
 10517                           ; simple_byte            4     3 (average)
 10518                           ; direct_byte           11     8 (fixed)
 10519                           ; jumptable            260     6 (fixed)
 10520                           ;	Chosen strategy is simple_byte
 10521                           
 10522                           	movf 1+(??_ADC_CONFIG+0)+0,w
 10523  071B  0875               	opt asmopt_push
 10524                           	opt asmopt_off
 10525                           	xorlw	0^0	; case 0
 10526  071C  3A00               	skipnz
 10527  071D  1903               	goto	l3637
 10528  071E  2F20               	goto	l2693
 10529  071F  2F52               	opt asmopt_pop
 10530                           	
 10531                           l3637:	
 10532  0720                     ; Switch size 1, requested type "space"
 10533                           ; Number of cases is 14, Range of values is 0 to 13
 10534                           ; switch strategies available:
 10535                           ; Name         Instructions Cycles
 10536                           ; simple_byte           43    22 (average)
 10537                           ; direct_byte           50     8 (fixed)
 10538                           ; jumptable            260     6 (fixed)
 10539                           ;	Chosen strategy is simple_byte
 10540                           
 10541                           	movf 0+(??_ADC_CONFIG+0)+0,w
 10542  0720  0874               	opt asmopt_push
 10543                           	opt asmopt_off
 10544                           	xorlw	0^0	; case 0
 10545  0721  3A00               	skipnz
 10546  0722  1903               	goto	l24
 10547  0723  2E63               	xorlw	1^0	; case 1
 10548  0724  3A01               	skipnz
 10549  0725  1903               	goto	l26
 10550  0726  2E6E               	xorlw	2^1	; case 2
 10551  0727  3A03               	skipnz
 10552  0728  1903               	goto	l27
 10553  0729  2E7B               	xorlw	3^2	; case 3
 10554  072A  3A01               	skipnz
 10555  072B  1903               	goto	l28
 10556  072C  2E88               	xorlw	4^3	; case 4
 10557  072D  3A07               	skipnz
 10558  072E  1903               	goto	l29
 10559  072F  2E95               	xorlw	5^4	; case 5
 10560  0730  3A01               	skipnz
 10561  0731  1903               	goto	l30
 10562  0732  2EA2               	xorlw	6^5	; case 6
 10563  0733  3A03               	skipnz
 10564  0734  1903               	goto	l31
 10565  0735  2EAF               	xorlw	7^6	; case 7
 10566  0736  3A01               	skipnz
 10567  0737  1903               	goto	l32
 10568  0738  2EBC               	xorlw	8^7	; case 8
 10569  0739  3A0F               	skipnz
 10570  073A  1903               	goto	l33
 10571  073B  2EC9               	xorlw	9^8	; case 9
 10572  073C  3A01               	skipnz
 10573  073D  1903               	goto	l34
 10574  073E  2ED6               	xorlw	10^9	; case 10
 10575  073F  3A03               	skipnz
 10576  0740  1903               	goto	l35
 10577  0741  2EE3               	xorlw	11^10	; case 11
 10578  0742  3A01               	skipnz
 10579  0743  1903               	goto	l36
 10580  0744  2EF0               	xorlw	12^11	; case 12
 10581  0745  3A07               	skipnz
 10582  0746  1903               	goto	l37
 10583  0747  2EFD               	xorlw	13^12	; case 13
 10584  0748  3A01               	skipnz
 10585  0749  1903               	goto	l38
 10586  074A  2F0A               	goto	l2693
 10587  074B  2F52               	opt asmopt_pop
 10588                           
 10589                           	
 10590                           l25:	
 10591  074C                     	line	104
 10592                           ;ADC.c: 104:     switch(justif){
 10593                           	goto	l2693
 10594  074C  2F52               	line	105
 10595                           ;ADC.c: 105:         case 0:
 10596                           	
 10597                           l40:	
 10598  074D                     	line	106
 10599                           ;ADC.c: 106:             ADCON1bits.ADFM = 0;
 10600                           	bcf	(159)^080h,7	;volatile
 10601  074D  139F               	line	107
 10602                           ;ADC.c: 107:             break;
 10603                           	goto	l43
 10604  074E  2F62               	line	108
 10605                           ;ADC.c: 108:         case 1:
 10606                           	
 10607                           l42:	
 10608  074F                     	line	109
 10609                           ;ADC.c: 109:             ADCON1bits.ADFM = 1;
 10610                           	bsf	(159)^080h,7	;volatile
 10611  074F  179F               	line	110
 10612                           ;ADC.c: 110:             break;
 10613                           	goto	l43
 10614  0750  2F62               	line	111
 10615                           	
 10616                           l2691:	
 10617  0751                     ;ADC.c: 111:     }
 10618                           	goto	l43
 10619  0751  2F62               	
 10620                           l39:	
 10621  0752                     	
 10622                           l2693:	
 10623  0752                     	movf	(ADC_CONFIG@justif),w
 10624  0752  0873               	movwf	(??_ADC_CONFIG+0)+0
 10625  0753  00F4               	clrf	(??_ADC_CONFIG+0)+0+1
 10626  0754  01F5               	; Switch on 2 bytes has been partitioned into a top level switch of size 1, and 1 sub-s
                                 witches
 10627                           ; Switch size 1, requested type "space"
 10628                           ; Number of cases is 1, Range of values is 0 to 0
 10629                           ; switch strategies available:
 10630                           ; Name         Instructions Cycles
 10631                           ; simple_byte            4     3 (average)
 10632                           ; direct_byte           11     8 (fixed)
 10633                           ; jumptable            260     6 (fixed)
 10634                           ;	Chosen strategy is simple_byte
 10635                           
 10636                           	movf 1+(??_ADC_CONFIG+0)+0,w
 10637  0755  0875               	opt asmopt_push
 10638                           	opt asmopt_off
 10639                           	xorlw	0^0	; case 0
 10640  0756  3A00               	skipnz
 10641  0757  1903               	goto	l3639
 10642  0758  2F5A               	goto	l43
 10643  0759  2F62               	opt asmopt_pop
 10644                           	
 10645                           l3639:	
 10646  075A                     ; Switch size 1, requested type "space"
 10647                           ; Number of cases is 2, Range of values is 0 to 1
 10648                           ; switch strategies available:
 10649                           ; Name         Instructions Cycles
 10650                           ; simple_byte            7     4 (average)
 10651                           ; direct_byte           14     8 (fixed)
 10652                           ; jumptable            260     6 (fixed)
 10653                           ;	Chosen strategy is simple_byte
 10654                           
 10655                           	movf 0+(??_ADC_CONFIG+0)+0,w
 10656  075A  0874               	opt asmopt_push
 10657                           	opt asmopt_off
 10658                           	xorlw	0^0	; case 0
 10659  075B  3A00               	skipnz
 10660  075C  1903               	goto	l40
 10661  075D  2F4D               	xorlw	1^0	; case 1
 10662  075E  3A01               	skipnz
 10663  075F  1903               	goto	l42
 10664  0760  2F4F               	goto	l43
 10665  0761  2F62               	opt asmopt_pop
 10666                           
 10667                           	
 10668                           l41:	
 10669  0762                     	line	112
 10670                           	
 10671                           l43:	
 10672  0762                     	return
 10673  0762  0008               	opt stack 0
 10674                           GLOBAL	__end_of_ADC_CONFIG
 10675                           	__end_of_ADC_CONFIG:
 10676  0763                     	signat	_ADC_CONFIG,8313
 10677                           	global	_ISR
 10678                           
 10679 ;; *************** function _ISR *****************
 10680 ;; Defined at:
 10681 ;;		line 59 in file "parteD.c"
 10682 ;; Parameters:    Size  Location     Type
 10683 ;;		None
 10684 ;; Auto vars:     Size  Location     Type
 10685 ;;		None
 10686 ;; Return value:  Size  Location     Type
 10687 ;;                  1    wreg      void 
 10688 ;; Registers used:
 10689 ;;		wreg
 10690 ;; Tracked objects:
 10691 ;;		On entry : 0/0
 10692 ;;		On exit  : 0/0
 10693 ;;		Unchanged: 0/0
 10694 ;; Data sizes:     COMMON   BANK0   BANK1   BANK3   BANK2
 10695 ;;      Params:         0       0       0       0       0
 10696 ;;      Locals:         0       0       0       0       0
 10697 ;;      Temps:          3       0       0       0       0
 10698 ;;      Totals:         3       0       0       0       0
 10699 ;;Total ram usage:        3 bytes
 10700 ;; Hardware stack levels used:    1
 10701 ;; This function calls:
 10702 ;;		Nothing
 10703 ;; This function is called by:
 10704 ;;		Interrupt level 1
 10705 ;; This function uses a non-reentrant model
 10706 ;;
 10707                           psect	text25,local,class=CODE,delta=2,merge=1,group=0
 10708                           	file	"parteD.c"
 10709                           	line	59
 10710                           global __ptext25
 10711                           __ptext25:	;psect for function _ISR
 10712  0890                     psect	text25
 10713                           	file	"parteD.c"
 10714                           	line	59
 10715                           	global	__size_of_ISR
 10716                           	__size_of_ISR	equ	__end_of_ISR-_ISR
 10717  007E                     	
 10718                           _ISR:	
 10719  0890                     ;incstack = 0
 10720                           	opt	stack 4
 10721                           ; Regs used in _ISR: [wreg]
 10722                           psect	intentry,class=CODE,delta=2
 10723                           global __pintentry
 10724                           __pintentry:
 10725  0004                     global interrupt_function
 10726                           interrupt_function:
 10727  0004                     	global saved_w
 10728                           	saved_w	set	btemp+0
 10729  007E                     	movwf	saved_w
 10730  0004  00FE               	swapf	status,w
 10731  0005  0E03               	movwf	(??_ISR+1)
 10732  0006  00F1               	movf	pclath,w
 10733  0007  080A               	movwf	(??_ISR+2)
 10734  0008  00F2               	ljmp	_ISR
 10735  0009  120A  158A  2890   psect	text25
 10736                           	line	60
 10737                           	
 10738                           i1l2949:	
 10739  0890                     ;parteD.c: 60:     if(PIR1bits.ADIF == 1){
 10740                           	bcf	status, 5	;RP0=0, select bank0
 10741  0890  1283               	bcf	status, 6	;RP1=0, select bank0
 10742  0891  1303               	btfss	(12),6	;volatile
 10743  0892  1F0C               	goto	u358_21
 10744  0893  2895               	goto	u358_20
 10745  0894  2896               u358_21:
 10746  0895                     	goto	i1l2957
 10747  0895  28A1               u358_20:
 10748  0896                     	line	61
 10749                           	
 10750                           i1l2951:	
 10751  0896                     ;parteD.c: 61:         adc1 = ADRESH;
 10752                           	movf	(30),w	;volatile
 10753  0896  081E               	movwf	(??_ISR+0)+0
 10754  0897  00F0               	movf	(??_ISR+0)+0,w
 10755  0898  0870               	bsf	status, 5	;RP0=1, select bank1
 10756  0899  1683               	bcf	status, 6	;RP1=0, select bank1
 10757  089A  1303               	movwf	(_adc1)^080h
 10758  089B  00CA               	line	62
 10759                           	
 10760                           i1l2953:	
 10761  089C                     ;parteD.c: 62:         ADIF = 0;
 10762                           	bcf	status, 5	;RP0=0, select bank0
 10763  089C  1283               	bcf	status, 6	;RP1=0, select bank0
 10764  089D  1303               	bcf	(102/8),(102)&7	;volatile
 10765  089E  130C               	line	63
 10766                           	
 10767                           i1l2955:	
 10768  089F                     ;parteD.c: 63:         ADCON0bits.GO = 1;
 10769                           	bsf	(31),1	;volatile
 10770  089F  149F               	goto	i1l2957
 10771  08A0  28A1               	line	64
 10772                           ;parteD.c: 64:     }
 10773                           	
 10774                           i1l200:	
 10775  08A1                     	line	65
 10776                           	
 10777                           i1l2957:	
 10778  08A1                     ;parteD.c: 65:     if(PIR1bits.SSPIF == 1){
 10779                           	btfss	(12),3	;volatile
 10780  08A1  1D8C               	goto	u359_21
 10781  08A2  28A4               	goto	u359_20
 10782  08A3  28A5               u359_21:
 10783  08A4                     	goto	i1l214
 10784  08A4  2907               u359_20:
 10785  08A5                     	line	67
 10786                           	
 10787                           i1l2959:	
 10788  08A5                     ;parteD.c: 67:         SSPCONbits.CKP = 0;
 10789                           	bcf	(20),4	;volatile
 10790  08A5  1214               	line	69
 10791                           ;parteD.c: 69:         if ((SSPCONbits.SSPOV) || (SSPCONbits.WCOL)){
 10792                           	btfsc	(20),6	;volatile
 10793  08A6  1B14               	goto	u360_21
 10794  08A7  28A9               	goto	u360_20
 10795  08A8  28AA               u360_21:
 10796  08A9                     	goto	i1l2963
 10797  08A9  28AF               u360_20:
 10798  08AA                     	
 10799                           i1l2961:	
 10800  08AA                     	btfss	(20),7	;volatile
 10801  08AA  1F94               	goto	u361_21
 10802  08AB  28AD               	goto	u361_20
 10803  08AC  28AE               u361_21:
 10804  08AD                     	goto	i1l2971
 10805  08AD  28B7               u361_20:
 10806  08AE                     	goto	i1l2963
 10807  08AE  28AF               	
 10808                           i1l204:	
 10809  08AF                     	line	70
 10810                           	
 10811                           i1l2963:	
 10812  08AF                     ;parteD.c: 70:             z = SSPBUF;
 10813                           	movf	(19),w	;volatile
 10814  08AF  0813               	movwf	(??_ISR+0)+0
 10815  08B0  00F0               	movf	(??_ISR+0)+0,w
 10816  08B1  0870               	movwf	(_z)
 10817  08B2  00F9               	line	71
 10818                           	
 10819                           i1l2965:	
 10820  08B3                     ;parteD.c: 71:             SSPCONbits.SSPOV = 0;
 10821                           	bcf	(20),6	;volatile
 10822  08B3  1314               	line	72
 10823                           	
 10824                           i1l2967:	
 10825  08B4                     ;parteD.c: 72:             SSPCONbits.WCOL = 0;
 10826                           	bcf	(20),7	;volatile
 10827  08B4  1394               	line	73
 10828                           	
 10829                           i1l2969:	
 10830  08B5                     ;parteD.c: 73:             SSPCONbits.CKP = 1;
 10831                           	bsf	(20),4	;volatile
 10832  08B5  1614               	goto	i1l2971
 10833  08B6  28B7               	line	74
 10834                           ;parteD.c: 74:         }
 10835                           	
 10836                           i1l202:	
 10837  08B7                     	line	76
 10838                           	
 10839                           i1l2971:	
 10840  08B7                     ;parteD.c: 76:         if(!SSPSTATbits.D_nA && !SSPSTATbits.R_nW) {
 10841                           	bsf	status, 5	;RP0=1, select bank1
 10842  08B7  1683               	bcf	status, 6	;RP1=0, select bank1
 10843  08B8  1303               	btfsc	(148)^080h,5	;volatile
 10844  08B9  1A94               	goto	u362_21
 10845  08BA  28BC               	goto	u362_20
 10846  08BB  28BD               u362_21:
 10847  08BC                     	goto	i1l205
 10848  08BC  28DF               u362_20:
 10849  08BD                     	
 10850                           i1l2973:	
 10851  08BD                     	btfsc	(148)^080h,2	;volatile
 10852  08BD  1914               	goto	u363_21
 10853  08BE  28C0               	goto	u363_20
 10854  08BF  28C1               u363_21:
 10855  08C0                     	goto	i1l205
 10856  08C0  28DF               u363_20:
 10857  08C1                     	line	78
 10858                           	
 10859                           i1l2975:	
 10860  08C1                     ;parteD.c: 78:             z = SSPBUF;
 10861                           	bcf	status, 5	;RP0=0, select bank0
 10862  08C1  1283               	bcf	status, 6	;RP1=0, select bank0
 10863  08C2  1303               	movf	(19),w	;volatile
 10864  08C3  0813               	movwf	(??_ISR+0)+0
 10865  08C4  00F0               	movf	(??_ISR+0)+0,w
 10866  08C5  0870               	movwf	(_z)
 10867  08C6  00F9               	line	80
 10868                           	
 10869                           i1l2977:	
 10870  08C7                     ;parteD.c: 80:             PIR1bits.SSPIF = 0;
 10871                           	bcf	(12),3	;volatile
 10872  08C7  118C               	line	81
 10873                           	
 10874                           i1l2979:	
 10875  08C8                     ;parteD.c: 81:             SSPCONbits.CKP = 1;
 10876                           	bsf	(20),4	;volatile
 10877  08C8  1614               	line	82
 10878                           ;parteD.c: 82:             while(!SSPSTATbits.BF);
 10879                           	goto	i1l206
 10880  08C9  28CA               	
 10881                           i1l207:	
 10882  08CA                     	
 10883                           i1l206:	
 10884  08CA                     	bsf	status, 5	;RP0=1, select bank1
 10885  08CA  1683               	bcf	status, 6	;RP1=0, select bank1
 10886  08CB  1303               	btfss	(148)^080h,0	;volatile
 10887  08CC  1C14               	goto	u364_21
 10888  08CD  28CF               	goto	u364_20
 10889  08CE  28D0               u364_21:
 10890  08CF                     	goto	i1l206
 10891  08CF  28CA               u364_20:
 10892  08D0                     	goto	i1l2981
 10893  08D0  28D1               	
 10894                           i1l208:	
 10895  08D1                     	line	83
 10896                           	
 10897                           i1l2981:	
 10898  08D1                     ;parteD.c: 83:             eleccion = SSPBUF;
 10899                           	bcf	status, 5	;RP0=0, select bank0
 10900  08D1  1283               	bcf	status, 6	;RP1=0, select bank0
 10901  08D2  1303               	movf	(19),w	;volatile
 10902  08D3  0813               	movwf	(??_ISR+0)+0
 10903  08D4  00F0               	movf	(??_ISR+0)+0,w
 10904  08D5  0870               	bsf	status, 5	;RP0=1, select bank1
 10905  08D6  1683               	bcf	status, 6	;RP1=0, select bank1
 10906  08D7  1303               	movwf	(_eleccion)^080h
 10907  08D8  00C9               	line	84
 10908                           ;parteD.c: 84:             _delay((unsigned long)((250)*(8000000/4000000.0)));
 10909                           	opt asmopt_push
 10910                           opt asmopt_off
 10911                           	movlw	166
 10912  08D9  30A6               movwf	((??_ISR+0)+0),f
 10913  08DA  00F0               	u436_27:
 10914  08DB                     decfsz	(??_ISR+0)+0,f
 10915  08DB  0BF0               	goto	u436_27
 10916  08DC  28DB               	nop
 10917  08DD  0000               opt asmopt_pop
 10918                           
 10919                           	line	86
 10920                           ;parteD.c: 86:         }else if(!SSPSTATbits.D_nA && SSPSTATbits.R_nW){
 10921                           	goto	i1l209
 10922  08DE  2903               	
 10923                           i1l205:	
 10924  08DF                     	btfsc	(148)^080h,5	;volatile
 10925  08DF  1A94               	goto	u365_21
 10926  08E0  28E2               	goto	u365_20
 10927  08E1  28E3               u365_21:
 10928  08E2                     	goto	i1l209
 10929  08E2  2903               u365_20:
 10930  08E3                     	
 10931                           i1l2983:	
 10932  08E3                     	btfss	(148)^080h,2	;volatile
 10933  08E3  1D14               	goto	u366_21
 10934  08E4  28E6               	goto	u366_20
 10935  08E5  28E7               u366_21:
 10936  08E6                     	goto	i1l209
 10937  08E6  2903               u366_20:
 10938  08E7                     	line	87
 10939                           	
 10940                           i1l2985:	
 10941  08E7                     ;parteD.c: 87:             z = SSPBUF;
 10942                           	bcf	status, 5	;RP0=0, select bank0
 10943  08E7  1283               	bcf	status, 6	;RP1=0, select bank0
 10944  08E8  1303               	movf	(19),w	;volatile
 10945  08E9  0813               	movwf	(??_ISR+0)+0
 10946  08EA  00F0               	movf	(??_ISR+0)+0,w
 10947  08EB  0870               	movwf	(_z)
 10948  08EC  00F9               	line	88
 10949                           	
 10950                           i1l2987:	
 10951  08ED                     ;parteD.c: 88:             BF = 0;
 10952                           	bsf	status, 5	;RP0=1, select bank1
 10953  08ED  1683               	bcf	status, 6	;RP1=0, select bank1
 10954  08EE  1303               	bcf	(1184/8)^080h,(1184)&7	;volatile
 10955  08EF  1014               	line	89
 10956                           ;parteD.c: 89:             SSPBUF = envio;
 10957                           	movf	(_envio),w
 10958  08F0  0878               	bcf	status, 5	;RP0=0, select bank0
 10959  08F1  1283               	bcf	status, 6	;RP1=0, select bank0
 10960  08F2  1303               	movwf	(19)	;volatile
 10961  08F3  0093               	line	90
 10962                           	
 10963                           i1l2989:	
 10964  08F4                     ;parteD.c: 90:             SSPCONbits.CKP = 1;
 10965                           	bsf	(20),4	;volatile
 10966  08F4  1614               	line	91
 10967                           ;parteD.c: 91:             _delay((unsigned long)((250)*(8000000/4000000.0)));
 10968                           	opt asmopt_push
 10969                           opt asmopt_off
 10970                           	movlw	166
 10971  08F5  30A6               movwf	((??_ISR+0)+0),f
 10972  08F6  00F0               	u437_27:
 10973  08F7                     decfsz	(??_ISR+0)+0,f
 10974  08F7  0BF0               	goto	u437_27
 10975  08F8  28F7               	nop
 10976  08F9  0000               opt asmopt_pop
 10977                           
 10978                           	line	92
 10979                           ;parteD.c: 92:             while(SSPSTATbits.BF);
 10980                           	goto	i1l211
 10981  08FA  28FB               	
 10982                           i1l212:	
 10983  08FB                     	
 10984                           i1l211:	
 10985  08FB                     	bsf	status, 5	;RP0=1, select bank1
 10986  08FB  1683               	bcf	status, 6	;RP1=0, select bank1
 10987  08FC  1303               	btfsc	(148)^080h,0	;volatile
 10988  08FD  1814               	goto	u367_21
 10989  08FE  2900               	goto	u367_20
 10990  08FF  2901               u367_21:
 10991  0900                     	goto	i1l211
 10992  0900  28FB               u367_20:
 10993  0901                     	goto	i1l209
 10994  0901  2903               	
 10995                           i1l213:	
 10996  0902                     	goto	i1l209
 10997  0902  2903               	line	93
 10998                           ;parteD.c: 93:         }
 10999                           	
 11000                           i1l210:	
 11001  0903                     	
 11002                           i1l209:	
 11003  0903                     	line	95
 11004                           ;parteD.c: 95:         PIR1bits.SSPIF = 0;
 11005                           	bcf	status, 5	;RP0=0, select bank0
 11006  0903  1283               	bcf	status, 6	;RP1=0, select bank0
 11007  0904  1303               	bcf	(12),3	;volatile
 11008  0905  118C               	goto	i1l214
 11009  0906  2907               	line	96
 11010                           ;parteD.c: 96:     }
 11011                           	
 11012                           i1l201:	
 11013  0907                     	line	97
 11014                           	
 11015                           i1l214:	
 11016  0907                     	movf	(??_ISR+2),w
 11017  0907  0872               	movwf	pclath
 11018  0908  008A               	swapf	(??_ISR+1)^0FFFFFF80h,w
 11019  0909  0E71               	movwf	status
 11020  090A  0083               	swapf	saved_w,f
 11021  090B  0EFE               	swapf	saved_w,w
 11022  090C  0E7E               	retfie
 11023  090D  0009               	opt stack 0
 11024                           GLOBAL	__end_of_ISR
 11025                           	__end_of_ISR:
 11026  090E                     	signat	_ISR,89
 11027                           global	___latbits
 11028                           ___latbits	equ	2
 11029  0002                     	global	btemp
 11030                           	btemp set 07Eh
 11031  007E                     
 11032                           	DABS	1,126,2	;btemp
 11033                           	global	wtemp0
 11034                           	wtemp0 set btemp+0
 11035  007E                     	end


Data Sizes:
    Strings     14
    Constant    0
    Data        0
    BSS         15
    Persistent  0
    Stack       0

Auto Spaces:
    Space          Size  Autos    Used
    COMMON           14      8      11
    BANK0            80     80      80
    BANK1            80     31      43
    BANK3            96      0       0
    BANK2            96      0       0

Pointer List with Targets:

    Lcd_Write_String@a	PTR unsigned char  size(2) Largest target is 6
		 -> main@s1(BANK1[5]), STR_3(CODE[4]), STR_2(CODE[4]), STR_1(CODE[6]), 


Critical Paths under _main in COMMON

    _main->_Lcd_Set_Cursor
    _main->_Lcd_Write_String
    _main->___awdiv
    _b2->___fldiv
    _b1->___awdiv
    _b1->___fldiv
    _b0->___awdiv
    _b0->___fldiv
    ___xxtofl->___wmul
    ___fltol->___fldiv
    ___flneg->___wmul
    ___fladd->___wmul
    ___flmul->__Umul8_16
    _Lcd_Write_String->_Lcd_Write_Char
    _Lcd_Write_Char->_Lcd_Port
    _Lcd_Set_Cursor->_Lcd_Cmd
    _Lcd_Init->_Lcd_Cmd
    _Lcd_Cmd->_Lcd_Port

Critical Paths under _ISR in COMMON

    None.

Critical Paths under _main in BANK0

    _main->_b0
    _main->_b1
    _main->_b2
    _b2->___fltol
    _b1->___fltol
    _b0->___fltol
    ___xxtofl->___wmul
    ___fltol->___fladd
    ___flneg->___xxtofl
    ___fladd->___flmul
    ___flmul->___xxtofl

Critical Paths under _ISR in BANK0

    None.

Critical Paths under _main in BANK1

    _main->_b0

Critical Paths under _ISR in BANK1

    None.

Critical Paths under _main in BANK3

    None.

Critical Paths under _ISR in BANK3

    None.

Critical Paths under _main in BANK2

    None.

Critical Paths under _ISR in BANK2

    None.

Call Graph Tables:

 ---------------------------------------------------------------------------------
 (Depth) Function   	        Calls       Base Space   Used Autos Params    Refs
 ---------------------------------------------------------------------------------
 (0) _main                                                26    26      0   30204
                                              9 BANK1     22    22      0
                         _ADC_CONFIG
                      _ADC_INTERRUPT
                     _I2C_Slave_Init
                           _Lcd_Init
                     _Lcd_Set_Cursor
                   _Lcd_Write_String
                            ___awdiv
                            ___fladd
                            ___flmul
                            ___fltol
                           ___xxtofl
                                 _b0
                                 _b1
                                 _b2
                       _opcion_envio
 ---------------------------------------------------------------------------------
 (1) _opcion_envio                                         3     3      0      22
                                              3 COMMON     3     3      0
 ---------------------------------------------------------------------------------
 (1) _b2                                                  11     7      4    3381
                                             77 BANK0      3     3      0
                                              0 BANK1      4     0      4
                            ___fldiv
                            ___fltol
                           ___xxtofl (ARG)
                           _num_case
 ---------------------------------------------------------------------------------
 (1) _b1                                                  11     7      4    8425
                                             77 BANK0      3     3      0
                                              0 BANK1      8     4      4
                            ___awdiv
                            ___fladd
                            ___fldiv
                            ___flneg
                            ___fltol
                             ___wmul
                           ___xxtofl
                           _num_case
 ---------------------------------------------------------------------------------
 (1) _b0                                                  12     8      4    8658
                                             77 BANK0      3     3      0
                                              0 BANK1      9     5      4
                            ___awdiv
                             ___bmul
                            ___fladd
                            ___fldiv
                            ___flneg
                            ___fltol
                             ___wmul
                           ___xxtofl
                           _num_case
 ---------------------------------------------------------------------------------
 (2) _num_case                                             4     4      0      92
                                              3 COMMON     4     4      0
 ---------------------------------------------------------------------------------
 (2) ___xxtofl                                            14    10      4     778
                                              2 BANK0     14    10      4
                             ___wmul (ARG)
 ---------------------------------------------------------------------------------
 (2) ___wmul                                               6     2      4     496
                                              3 COMMON     4     0      4
                                              0 BANK0      2     2      0
 ---------------------------------------------------------------------------------
 (2) ___fltol                                             11     7      4     877
                                             66 BANK0     11     7      4
                            ___fladd (ARG)
                            ___fldiv (ARG)
                            ___flmul (ARG)
                            ___flneg (ARG)
                             ___wmul (ARG)
                           ___xxtofl (ARG)
 ---------------------------------------------------------------------------------
 (2) ___flneg                                              4     0      4     197
                                             16 BANK0      4     0      4
                             ___wmul (ARG)
                           ___xxtofl (ARG)
 ---------------------------------------------------------------------------------
 (2) ___fldiv                                             26    18      8    2223
                                              3 COMMON     5     5      0
                                              0 BANK0     21    13      8
 ---------------------------------------------------------------------------------
 (2) ___fladd                                             24    16      8    2718
                                             42 BANK0     24    16      8
                            ___flmul (ARG)
                            ___flneg (ARG)
                             ___wmul (ARG)
                           ___xxtofl (ARG)
 ---------------------------------------------------------------------------------
 (2) ___bmul                                               4     3      1     168
                                              3 COMMON     4     3      1
 ---------------------------------------------------------------------------------
 (2) ___awdiv                                              9     5      4     756
                                              3 COMMON     5     1      4
                                              0 BANK0      4     4      0
 ---------------------------------------------------------------------------------
 (1) ___flmul                                             26    18      8    2417
                                             16 BANK0     26    18      8
                          __Umul8_16
                           ___xxtofl (ARG)
 ---------------------------------------------------------------------------------
 (2) __Umul8_16                                            9     7      2     799
                                              3 COMMON     4     2      2
                                              0 BANK0      5     5      0
 ---------------------------------------------------------------------------------
 (1) _Lcd_Write_String                                     7     5      2     769
                                              6 COMMON     2     0      2
                                              0 BANK0      5     5      0
                     _Lcd_Write_Char
 ---------------------------------------------------------------------------------
 (2) _Lcd_Write_Char                                       2     2      0     279
                                              4 COMMON     2     2      0
                           _Lcd_Port
 ---------------------------------------------------------------------------------
 (1) _Lcd_Set_Cursor                                       2     1      1     763
                                              7 COMMON     1     0      1
                                              0 BANK0      1     1      0
                            _Lcd_Cmd
 ---------------------------------------------------------------------------------
 (1) _Lcd_Init                                             2     2      0     279
                                              0 BANK0      2     2      0
                            _Lcd_Cmd
 ---------------------------------------------------------------------------------
 (2) _Lcd_Cmd                                              3     3      0     279
                                              4 COMMON     3     3      0
                           _Lcd_Port
 ---------------------------------------------------------------------------------
 (3) _Lcd_Port                                             1     1      0     248
                                              3 COMMON     1     1      0
 ---------------------------------------------------------------------------------
 (1) _I2C_Slave_Init                                       1     1      0      22
                                              3 COMMON     1     1      0
 ---------------------------------------------------------------------------------
 (1) _ADC_INTERRUPT                                        0     0      0       0
 ---------------------------------------------------------------------------------
 (1) _ADC_CONFIG                                           4     3      1     120
                                              3 COMMON     4     3      1
 ---------------------------------------------------------------------------------
 Estimated maximum stack depth 3
 ---------------------------------------------------------------------------------
 (Depth) Function   	        Calls       Base Space   Used Autos Params    Refs
 ---------------------------------------------------------------------------------
 (4) _ISR                                                  3     3      0       0
                                              0 COMMON     3     3      0
 ---------------------------------------------------------------------------------
 Estimated maximum stack depth 4
 ---------------------------------------------------------------------------------

 Call Graph Graphs:

 _main (ROOT)
   _ADC_CONFIG
   _ADC_INTERRUPT
   _I2C_Slave_Init
   _Lcd_Init
     _Lcd_Cmd
       _Lcd_Port
   _Lcd_Set_Cursor
     _Lcd_Cmd
       _Lcd_Port
   _Lcd_Write_String
     _Lcd_Write_Char
       _Lcd_Port
   ___awdiv
   ___fladd
     ___flmul (ARG)
       __Umul8_16
       ___xxtofl (ARG)
         ___wmul (ARG)
     ___flneg (ARG)
       ___wmul (ARG)
       ___xxtofl (ARG)
         ___wmul (ARG)
     ___wmul (ARG)
     ___xxtofl (ARG)
       ___wmul (ARG)
   ___flmul
     __Umul8_16
     ___xxtofl (ARG)
       ___wmul (ARG)
   ___fltol
     ___fladd (ARG)
       ___flmul (ARG)
         __Umul8_16
         ___xxtofl (ARG)
           ___wmul (ARG)
       ___flneg (ARG)
         ___wmul (ARG)
         ___xxtofl (ARG)
           ___wmul (ARG)
       ___wmul (ARG)
       ___xxtofl (ARG)
         ___wmul (ARG)
     ___fldiv (ARG)
     ___flmul (ARG)
       __Umul8_16
       ___xxtofl (ARG)
         ___wmul (ARG)
     ___flneg (ARG)
       ___wmul (ARG)
       ___xxtofl (ARG)
         ___wmul (ARG)
     ___wmul (ARG)
     ___xxtofl (ARG)
       ___wmul (ARG)
   ___xxtofl
     ___wmul (ARG)
   _b0
     ___awdiv
     ___bmul
     ___fladd
       ___flmul (ARG)
         __Umul8_16
         ___xxtofl (ARG)
           ___wmul (ARG)
       ___flneg (ARG)
         ___wmul (ARG)
         ___xxtofl (ARG)
           ___wmul (ARG)
       ___wmul (ARG)
       ___xxtofl (ARG)
         ___wmul (ARG)
     ___fldiv
     ___flneg
       ___wmul (ARG)
       ___xxtofl (ARG)
         ___wmul (ARG)
     ___fltol
       ___fladd (ARG)
         ___flmul (ARG)
           __Umul8_16
           ___xxtofl (ARG)
             ___wmul (ARG)
         ___flneg (ARG)
           ___wmul (ARG)
           ___xxtofl (ARG)
             ___wmul (ARG)
         ___wmul (ARG)
         ___xxtofl (ARG)
           ___wmul (ARG)
       ___fldiv (ARG)
       ___flmul (ARG)
         __Umul8_16
         ___xxtofl (ARG)
           ___wmul (ARG)
       ___flneg (ARG)
         ___wmul (ARG)
         ___xxtofl (ARG)
           ___wmul (ARG)
       ___wmul (ARG)
       ___xxtofl (ARG)
         ___wmul (ARG)
     ___wmul
     ___xxtofl
       ___wmul (ARG)
     _num_case
   _b1
     ___awdiv
     ___fladd
       ___flmul (ARG)
         __Umul8_16
         ___xxtofl (ARG)
           ___wmul (ARG)
       ___flneg (ARG)
         ___wmul (ARG)
         ___xxtofl (ARG)
           ___wmul (ARG)
       ___wmul (ARG)
       ___xxtofl (ARG)
         ___wmul (ARG)
     ___fldiv
     ___flneg
       ___wmul (ARG)
       ___xxtofl (ARG)
         ___wmul (ARG)
     ___fltol
       ___fladd (ARG)
         ___flmul (ARG)
           __Umul8_16
           ___xxtofl (ARG)
             ___wmul (ARG)
         ___flneg (ARG)
           ___wmul (ARG)
           ___xxtofl (ARG)
             ___wmul (ARG)
         ___wmul (ARG)
         ___xxtofl (ARG)
           ___wmul (ARG)
       ___fldiv (ARG)
       ___flmul (ARG)
         __Umul8_16
         ___xxtofl (ARG)
           ___wmul (ARG)
       ___flneg (ARG)
         ___wmul (ARG)
         ___xxtofl (ARG)
           ___wmul (ARG)
       ___wmul (ARG)
       ___xxtofl (ARG)
         ___wmul (ARG)
     ___wmul
     ___xxtofl
       ___wmul (ARG)
     _num_case
   _b2
     ___fldiv
     ___fltol
       ___fladd (ARG)
         ___flmul (ARG)
           __Umul8_16
           ___xxtofl (ARG)
             ___wmul (ARG)
         ___flneg (ARG)
           ___wmul (ARG)
           ___xxtofl (ARG)
             ___wmul (ARG)
         ___wmul (ARG)
         ___xxtofl (ARG)
           ___wmul (ARG)
       ___fldiv (ARG)
       ___flmul (ARG)
         __Umul8_16
         ___xxtofl (ARG)
           ___wmul (ARG)
       ___flneg (ARG)
         ___wmul (ARG)
         ___xxtofl (ARG)
           ___wmul (ARG)
       ___wmul (ARG)
       ___xxtofl (ARG)
         ___wmul (ARG)
     ___xxtofl (ARG)
       ___wmul (ARG)
     _num_case (ARG)
   _opcion_envio

 _ISR (ROOT)

 Address spaces:
Name               Size   Autos  Total    Cost      Usage
BITCOMMON            E      0       0       0        0.0%
EEDATA             100      0       0       0        0.0%
NULL                 0      0       0       0        0.0%
CODE                 0      0       0       0        0.0%
COMMON               E      8       B       1       78.6%
BITSFR0              0      0       0       1        0.0%
SFR0                 0      0       0       1        0.0%
BITSFR1              0      0       0       2        0.0%
SFR1                 0      0       0       2        0.0%
STACK                0      0       0       2        0.0%
ABS                  0      0      86       3        0.0%
BITBANK0            50      0       0       4        0.0%
BITSFR3              0      0       0       4        0.0%
SFR3                 0      0       0       4        0.0%
BANK0               50     50      50       5      100.0%
BITSFR2              0      0       0       5        0.0%
SFR2                 0      0       0       5        0.0%
BITBANK1            50      0       0       6        0.0%
BANK1               50     1F      2B       7       53.8%
BITBANK3            60      0       0       8        0.0%
BANK3               60      0       0       9        0.0%
BITBANK2            60      0       0      10        0.0%
BANK2               60      0       0      11        0.0%
DATA                 0      0      86      12        0.0%


Microchip Technology PIC Macro Assembler V2.00 build -1524193055 
Symbol Table                                                                                   Wed Feb 26 18:32:22 2020

      __size_of_ADC_CONFIG 010E               ___fldiv@aexp 0034               ___fldiv@bexp 0033  
                        _z 0079                          pc 0002               ___fldiv@sign 002C  
           ___bmul@product 0075                __CFG_CP$OFF 0000            ADC_CONFIG@canal 0076  
              _SSPSTATbits 0094                         l30 06A2                         _BF 04A0  
                       l23 0718                         l31 06AF                         l40 074D  
                       l32 06BC                         l24 0663                         l41 0762  
                       l25 074C                         l33 06C9                         l42 074F  
                       l34 06D6                         l26 066E                         l43 0762  
                       l35 06E3                         l27 067B                         l36 06F0  
                       l28 0688                         l37 06FD                         l29 0695  
                       l38 070A                         l46 1575                         l39 0752  
                       l71 168D                         l80 16AC                         l72 1690  
                       l81 16B2                         l73 1696                         l82 16B3  
                       l74 1697                         l90 15F8                         l83 16B9  
                       l75 169D                         l84 16BA                         l76 169E  
                       l85 16C0                         l77 16A4                         l86 16C2  
                       l78 16A5                         l87 16C2                         l79 16AB  
                       l96 15C4                         l97 15D5                         l98 15D4  
                       l99 15D5                         _b0 0AA8                         _b1 09D2  
                       _b2 170B               ___awdiv@sign 0021                         fsr 0004  
      ___wmul@multiplicand 0075        __Umul8_16@word_mpld 0022                        ?_b0 00A0  
                      ?_b1 00A0                        ?_b2 00A0                        l102 179F  
                      l110 170A                        l111 170A                        l105 159A  
                      l108 16ED                        l109 16C8                        l221 0E15  
                      b0@m 00A0                        l230 0FFD                        l222 0FC6  
                      l223 0FCD                        l224 0FD9                        l233 1670  
                      l225 0FDC                        b1@m 00A0                        l242 17D5  
                      l250 17C0                        l234 1655                        l226 0FE8  
                      l403 162A                        l251 17C5                        l243 17A2  
                      l235 1683                        l227 0FEF                        l404 1636  
                      l244 17FD                        l252 17CA                        l260 0AA7  
                      l236 165C                        l228 0FFC                        l405 164B  
                      l253 17CF                        l245 17A7                        l237 1663  
                      l229 0FFD                        b2@m 00A0                        l318 081C  
                      l430 15B3                        l406 1652                        l254 17FF  
                      l246 17AC                        l238 166A                        l247 17B1  
                      l263 0B97                        l239 1683                        l600 07FE  
                      l248 17B6                        l249 17BB                        l257 1752  
                      l427 159E                        l428 15A7                        l700 0487  
                      l429 15B1                        l701 04B5                        l550 0851  
                      l710 0654                        l702 04AC                        l551 0845  
                      l711 0507                        l703 0488                        l800 0303  
                      l552 0856                        l720 05CB                        l712 04F0  
                      l704 0495                        l801 0302                        l553 0857  
                      l721 05AA                        l713 04F3                        l705 0498  
                      l802 033C                        l554 0870                        l730 05E6  
                      l722 05B8                        l714 04F9                        l706 049E  
                      l803 033B                        l555 087E                        l547 082C  
                      l731 0623                        l715 05D1                        l723 05BF  
                      l707 04B5                        l811 092A                        l804 0354  
                      l556 088A                        l548 083A                        l740 0654  
                      l732 0623                        l724 05C2                        l716 0584  
                      l708 0508                        l820 0981                        l812 0932  
                      l805 038B                        l557 088F                        l549 087F  
                      l733 0622                        l725 05CA                        l717 0583  
                      l709 04C8                        l821 098E                        l813 0944  
                      l830 1606                        l806 036F                        l734 063E  
                      l726 05D0                        l718 0592                        l750 0BDB  
                      l590 07FE                        l822 0982                        l814 09D1  
                      l831 1610                        l807 038B                        l727 05E8  
                      l719 05A9                        l751 0BF1                        l591 07CB  
                      l815 0957                        l832 161F                        l808 0383  
                      l736 062E                        l728 05DF                        l760 0C80  
                      l752 0BEE                        l592 07B7                        l824 0999  
                      l816 0949                        l833 1624                        l737 063D  
                      l729 05E7                        l761 0CAC                        l753 0BF9  
                      l585 1583                        l593 07B8                        l825 0999  
                      l817 095E                        l738 0644                        l690 03C2  
                      l770 0D0B                        l762 0CB8                        l754 0C1B  
                      l746 0BAB                        l586 1584                        l594 07CA  
                      l826 09A5                        l818 097A                        l739 0648  
                      l691 03BF                        l771 0D0A                        l763 0CC2  
                      l755 0DA0                        l747 0BC1                        l595 07EE  
                      l827 09C8                        l819 095F                        l692 03CB  
                      l772 0D44                        l764 0CE2                        l756 0C32  
                      l748 0BBE                        l596 07DB                        l693 03D8  
                      l773 0D43                        l765 0CC3                        l757 0CB1  
                      l749 0BCA                        l597 07E7                        l589 0782  
                      l790 0099                        l782 0037                        l694 03E4  
                      l774 0D60                        l766 0CD2                        l758 0C63  
                      l598 07DC                        l783 004C                        l695 03FA  
                      l775 0D7C                        l767 0CE7                        l759 0C8A  
                      l599 07ED                        l792 008F                        l784 004A  
                      l696 03F7                        l776 0D88                        l768 0D0C  
                      l793 0398                        l785 0055                        l697 0402  
                      l689 03AC                        l777 0D8C                        l769 0D03  
                      l794 02DA                        l786 0066                        l698 044E  
                      l795 02BB                        l787 007B                        l699 0411  
                      l796 02CA                        l788 0079                        l797 02DF  
                      l789 0084                        l798 0304                        l799 02FB  
                      _GIE 005F                        _RA0 0028                        _RA1 0029  
                      _RA2 002A                        _RA3 002B                        _RA4 002C  
                      _RC0 0038                        _RA5 002D                        _RC1 0039  
                      _RA6 002E                        _RD0 0040                        _RA7 002F  
                      _RD1 0041                        _RD3 0043               __CFG_CPD$OFF 0000  
                      _ISR 0890                        _adc 007A                        _min 00C8  
                      fsr0 0004                        indf 0000           ADC_CONFIG@justif 0073  
             ___flmul@aexp 0042               ___flmul@bexp 0043               ___flmul@sign 003D  
             ___flmul@temp 0048               ___flmul@prod 0044                       ??_b0 006D  
                     ??_b1 006D                       ??_b2 006D               __CFG_LVP$OFF 0000  
                     ?_ISR 0070               ___fltol@exp1 006C                       l2131 15A2  
                     l2141 081D                       l2133 15A7                       l2301 0441  
                     l2151 0830                       l2143 0820                       l2135 15A9  
                     l2127 159C                       l2311 046B                       l2303 0445  
                     l2231 03A0                       b0@p0 00A7                       l2161 0845  
                     l2153 0835                       l2145 0824                       l2137 15B1  
                     l2129 159E                       l2401 05FF                       l2321 049E  
                     l2313 048C                       l2305 0449                       l2241 03B6  
                     l2233 03A6                       l3201 17CA                       l2171 086E  
                     l2163 084C                       l2155 083A                       l2147 0829  
                     l2139 15B3                       l2411 063B                       l2403 061D  
                     l2331 04C7                       l2323 04A7                       l2315 0495  
                     l2307 044E                       l2251 03D0                       l2243 03BF  
                     l2235 03AA                       l3211 17FF                       l3203 17CF  
                     l2181 088A                       l2173 0870                       l2165 0851  
                     l2157 083C                       l2149 082C                       l2421 0653  
                     l2413 063E                       l2405 0628                       l2341 04F0  
                     l2333 04C8                       l2317 0498                       l2325 04AC  
                     l2309 044F                       l2261 03E4                       l2253 03D6  
                     l2245 03C0                       l2237 03AC                       l2229 0399  
                     l3301 0BEE                       l3221 162E                       l3205 17D4  
                     l3151 16A2                       l3143 1685                       l2183 088F  
                     l2175 0877                       l2167 0857                       l2159 0842  
                     l2415 0642                       l2407 062E                       l2343 04F3  
                     l2335 04DF                       l2327 04B9                       l2351 0508  
                     l2319 049C                       l2263 03E9                       l2271 03FA  
                     l2255 03D8                       l2239 03B1                       l2247 03C2  
                     l3311 0C11                       l3303 0BEF                       l2191 1584  
                     l3231 0763                       l3223 163D                       l3207 17D5  
                     l3153 16A9                       l3145 1689                       l3161 15D7  
                     l2169 0868                       l2177 087F                       l2417 0644  
                     l2409 0636                       l2353 051E                       l2361 0584  
                     l2345 04F7                       l2337 04E3                       l2329 04BE  
                     l2281 0419                       l2273 0408                       l2265 03EE  
                     l2257 03DE                       l2249 03CB                       l3401 0D86  
                     l3321 0C32                       l3313 0C1A                       l3305 0BF1  
                     l2185 1576                       l3241 0798                       l3233 0778  
                     l3225 1644                       l3217 1625                       l2601 0971  
                     l3209 17FD                       b1@p1 00A7                       l3155 16B0  
                     l3147 1694                       l3171 15EF                       l3163 15DA  
                     l3411 15BC                       l2179 0884                       l2419 064F  
                     l2371 05B3                       l2363 059A                       l2355 056D  
                     l2347 04F9                       l2339 04E7                       l2291 042D  
                     l2283 041D                       l2275 040C                       l2267 03F7  
                     l2259 03E2                       l3403 0D88                       l3331 0C63  
                     l3323 0C49                       l3307 0C01                       l3315 0C1B  
                     l2187 1580                       l3251 07B6                       l3243 07A0  
                     l3235 0781                       l3227 164B                       l3219 162A  
                     l2611 09A7                       l2603 0982                       l3157 16B7  
                     l3149 169B                       l3165 15E0                       l3421 1764  
                     l3413 15C4                       l3181 1597                       l3173 1586  
                     l2381 05C7                       l2373 05B7                       l2365 059F  
                     l2357 056F                       l2349 0502                       l2293 0431  
                     l2285 0421                       l2277 0411                       l2269 03F8  
                     l3405 0D97                       l3333 0C68                       l3341 0C8A  
                     l3325 0C51                       l3317 0C20                       l3309 0C0D  
                     l2189 1583                       l3261 07DC                       l3253 07B8  
                     l3245 07A2                       l3237 0782                       l3229 1652  
                     l2621 09D1                       l2613 09BD                       l2605 098E  
                     l3501 0DD7                       l2631 0666                       l2623 0656  
                     l2703 156D                       l3159 16BE                       l3167 15E3  
                     l3431 178D                       l3423 1774                       l3415 15CC  
                     l3175 1589                       l2391 05DC                       l2375 05BC  
                     l2367 05A8                       l2383 05CB                       l2359 0574  
                     l2295 0435                       l2287 0425                       l2279 0415  
                     l3407 0DA0                       l3351 0CB8                       l3343 0C9C  
                     l3335 0C7A                       l3327 0C59                       l3319 0C31  
                     l3271 0BA5                       l3263 07EE                       l3247 07A6  
                     l3255 07CB                       l3239 0797                       l2615 09C2  
                     l2607 0992                       l3191 17B1                       l3183 17A1  
                     l3511 0E15                       l3503 0DE3                       l2641 0684  
                     l2633 066A                       l2625 065A                       l3169 15EC  
                     l3433 1793                       l3425 177B                       l3417 1753  
                     l3409 15B7                       l3177 158F                       l3441 16E4  
                     l2393 05E3                       l2377 05BF                       l2369 05AA  
                     l2385 05D1                       l2297 0439                       l2289 0429  
                     l3361 0CD2                       l3353 0CC0                       l3345 0C9D  
                     l3337 0C7E                       l3329 0C61                       l3281 0BBE  
                     l3273 0BA9                       l3265 07F3                       l3257 07D1  
                     l3249 07AD                       l2617 09C6                       l2609 099D  
                     l3193 17B6                       l3185 17A2                       l3521 0F0F  
                     l3513 0E7E                       l3505 0DEC                       b2@p2 006F  
                     l2651 06A5                       l2643 068B                       l2635 0671  
                     l2627 065E                       l3435 1799                       l3427 1781  
                     l3419 175E                       l3179 1592                       l3443 16ED  
                     l2571 160A                       l2811 0037                       l2803 0024  
                     l2395 05E8                       l2387 05D2                       l2379 05C2  
                     l2299 043D                       l3371 0CEC                       l3363 0CDB  
                     l3355 0CC3                       l3347 0CAC                       l3339 0C80  
                     l3291 0BD5                       l3283 0BBF                       l3275 0BAB  
                     l3267 0B98                       l3259 07DA                       l2619 09C8  
                     l3195 17BB                       l3187 17A7                       l3451 0B88  
                     l3531 0FB8                       l3523 0F21                       l3515 0EB8  
                     l3507 0DF8                       l2661 06C5                       l2653 06AB  
                     l2645 0691                       l2637 0677                       l2629 0661  
                     l2741 0804                       l3429 1787                       l3437 16C3  
                     l2573 1619                       l2565 15FC                       l2901 02DF  
                     l2821 0055                       l2813 003C                       l2805 002B  
                     l2397 05ED                       l2389 05D6                       l3381 0D1F  
                     l3373 0D00                       l3357 0CCC                       l3365 0CE2  
                     l3349 0CB1                       l3293 0BD9                       l3277 0BB0  
                     l3285 0BC1                       l3269 0B9F                       l2581 0916  
                     l3197 17C0                       l3189 17AC                       l3453 0B95  
                     l3445 0AA8                       l3461 0A98                       l3541 0FD5  
                     l3533 0FBE                       l3525 0F5A                       l3517 0ECC  
                     l3509 0E01                       l2671 06E6                       l2663 06CC  
                     l2655 06B2                       l2647 0698                       l2639 067E  
                     l2751 0816                       l2743 0812                       l3439 16C8  
                     l2575 161F                       l2567 15FE                       l2911 0304  
                     l2903 02E0                       l2831 006B                       l2823 005A  
                     l2815 0041                       l2807 0031                       l2399 05FB  
                     l3391 0D60                       l3383 0D23                       l3375 0D07  
                     l3367 0CE7                       l3359 0CD0                       l3295 0BDB  
                     l3287 0BCA                       l3279 0BB5                       l2591 0944  
                     l2583 091A                       l3199 17C5                       l3455 0B97  
                     l3447 0B54                       l3463 0AA5                       l3471 1750  
                     l3551 0FF5                       l3543 0FE0                       l3535 0FC6  
                     l3527 0F6C                       l3519 0ED4                       l2681 0706  
                     l2673 06EC                       l2665 06D2                       l2657 06B8  
                     l2649 069E                       l2753 0819                       l2745 0813  
                     l2577 1624                       l2569 1606                       l2913 0309  
                     l2921 033C                       l2905 02E4                       l2841 0089  
                     l2833 0070                       l2825 0060                       l2817 004A  
                     l2809 0035                       l3393 0D6F                       l3385 0D3C  
                     l3377 0D0C                       l3369 0CE8                       l3297 0BE0  
                     l3289 0BCF                       l2593 0949                       l2585 092A  
                     l3449 0B6E                       l3465 0AA7                       l3457 09D2  
                     l3473 1752                       l3633 1678                       l3545 0FE8  
                     l3537 0FC9                       l3529 0FAF                       l3481 0DA1  
                     l2691 0751                       l2683 070D                       l2675 06F3  
                     l2667 06D9                       l2659 06BF                       l2747 0814  
                     l2931 036F                       l2923 0349                       l2915 0317  
                     l2907 02F8                       l2851 00B6                       l2843 008F  
                     l2835 0079                       l2827 0064                       l2819 004C  
                     l3395 0D73                       l3379 0D11                       l3387 0D44  
                     l3299 0BE5                       l2595 0957                       l2587 093A  
                     l2579 0911                       l3635 17DD                       l3459 0A7E  
                     l3467 170B                       l3547 0FEB                       l3539 0FCD  
                     l3491 0DB7                       l3483 0DA9                       l3637 0720  
                     l2685 0713                       l2677 06F9                       l2669 06DF  
                     l2693 0752                       l2749 0815                       l2941 0398  
                     l2933 037D                       l2925 0354                       l2917 031B  
                     l2909 02FF                       l2861 0153                       l2853 00D3  
                     l2845 0098                       l2837 007B                       l2829 0066  
                     l3397 0D7B                       l3389 0D51                       l2597 095F  
                     l2589 0943                       l3469 1745                       l3549 0FEF  
                     l3493 0DBE                       l3485 0DAB                       l3639 075A  
                     l2687 0717                       l2679 0700                       l2935 0381  
                     l2927 0363                       l2919 0334                       l2871 01B6  
                     l2863 015C                       l2855 00EF                       l2847 0099  
                     l2839 0084                       l3399 0D82                       l2599 0963  
                     l2791 1663                       l3495 0DC3                       l3487 0DAC  
                     l2689 0718                       l2937 0383                       l2929 036D  
                     l2881 0256                       l2873 01CF                       l2865 016C  
                     l2857 011B                       l2849 00A9                       l2793 166A  
                     l2785 1654                       l3497 0DC6                       l3489 0DB1  
                     l2939 038F                       l2891 02C4                       l2883 027C  
                     l2875 01EC                       l2867 0189                       l2859 0137  
                     l2795 166F                       l2787 1655                       l3499 0DCE  
                     l2893 02C8                       l2885 02A4                       l2877 0219  
                     l2869 0199                       l2789 165C                       l2797 1670  
                     l2895 02CA                       l2887 02AD                       l2879 0229  
                     l2897 02D3                       l2889 02BB                       l2899 02DA  
                     _ADIF 0066                       STR_1 1010                       STR_2 1016  
                     STR_3 101A                       u2000 15A2                       u2001 15A1  
                     u2010 15B0                       u2011 15AF                       u2100 087D  
                     u2020 0824                       u2101 087C                       u2021 0823  
                     u2110 0884                       u2030 0830                       u2111 0883  
                     u2031 082F                       u2040 0842                       u2120 1580  
                     u2041 0841                       u2121 157F                       u3010 161E  
                     u3011 161D                       u2060 0855                       u2300 0408  
                     u3100 0992                       u3020 0916                       u3005 1611  
                     u2061 0854                       u2301 0407                       u3101 0991  
                     u3021 0915                       u2310 040C                       u2230 03AA  
                     u3110 0998                       u3030 091A                       u2055 0846  
                     u2311 040B                       u2231 03A9                       u3111 0997  
                     u3031 0919                       u2080 0868                       u2400 04BE  
                     u2320 046B                       u2240 03B1                       u4000 0C20  
                     u3120 099D                       u3040 093A                       u2081 0867  
                     u2401 04BD                       u2321 046A                       u2241 03B0  
                     u4001 0C1F                       u3121 099C                       u3041 0939  
                     u3210 0035                       u2330 0476                       u2250 03B6  
                     u4010 0C68                       u3130 09B2                       u3211 0034  
                     u2075 0858                       u2411 04D1                       u2331 0474  
                     u2251 03B5                       u4011 0C67                       u3220 003C  
                     u2500 059A                       u2420 04E3                       u2412 04D8  
                     u2340 0477                       u2260 03D6                       u4100 0CD0  
                     u3140 09C2                       u3060 095D                       u3301 00FD  
                     u3221 003B                       u2085 0864                       u2501 0599  
                     u2421 04E2                       u2413 04DF                       u2325 0467  
                     u2261 03D5                       u4101 0CCF                       u3141 09C1  
                     u3061 095C                       u3302 0104                       u3230 0041  
                     u2510 059F                       u2430 04E7                       u2350 048C  
                     u2270 03E2                       u3150 09C6                       u3311 0129  
                     u3303 010B                       u3231 0040                       u2095 0871  
                     u2511 059E                       u2431 04E6                       u2351 048B  
                     u2271 03E1                       u3151 09C5                       u3135 09AD  
                     u3055 094E                       u3400 0262                       u3312 0130  
                     u3240 0064                       u2600 05ED                       u2440 04F7  
                     u2360 049C                       u2280 03E9                       u4200 0D6F  
                     u4120 0CE6                       u4040 0C7E                       u3080 0980  
                     u3321 0145                       u3313 0137                       u3241 0063  
                     u2601 05EC                       u2441 04F6                       u2361 049B  
                     u2281 03E8                       u4201 0D6E                       u4121 0CE5  
                     u4041 0C7D                       u4025 0C6A                       u3081 097F  
                     u3322 014C                       u3250 006B                       u2610 05FF  
                     u2530 05B7                       u2290 03EE                       u4210 0D86  
                     u4130 0CEC                       u3411 026E                       u3323 0153  
                     u3251 006A                       u2611 05FE                       u2531 05B6  
                     u2291 03ED                       u4211 0D85                       u4131 0CEB  
                     u4115 0CD4                       u4035 0C73                       u3075 0972  
                     u4220 15BC                       u3500 02F8                       u3420 028A  
                     u3412 0275                       u3260 0070                       u2620 060E  
                     u2540 05BC                       u2460 051E                       u2380 04B4  
                     u4140 0D00                       u4060 0C9C                       u4221 15BB  
                     u3501 02F7                       u3413 027C                       u3405 025D  
                     u3341 017B                       u3261 006F                       u2541 05BB  
                     u2525 05AC                       u2461 051D                       u2381 04B3  
                     u4205 0D6B                       u4141 0CFF                       u4061 0C9B  
                     u4230 15CC                       u3510 02FF                       u3342 0182  
                     u3270 0089                       u2630 061D                       u2550 05C7  
                     u2470 0544                       u2390 04B9                       u4150 0D07  
                     u4070 0CB7                       u4231 15CB                       u3511 02FE  
                     u3431 0296                       u3351 01A8                       u3343 0189  
                     u3335 0155                       u3271 0088                       u2631 061C  
                     u2551 05C6                       u2471 0545                       u2463 051A  
                     u2455 04FB                       u2391 04B8                       u2375 04A0  
                     u4151 0D06                       u4071 0CB6                       u4055 0C82  
                     u3095 0986                       u4240 16D2                       u3520 0309  
                     u3432 029D                       u3352 01AF                       u3280 008E  
                     u2640 0628                       u2560 05CF                       u2480 0556  
                     u2472 054A                       u4160 0D11                       u4080 0CC0  
                     u3521 0308                       u3433 02A4                       u3425 0285  
                     u3353 01B6                       u3281 008D                       u2641 0627  
                     u2625 0609                       u2561 05CE                       u2481 0557  
                     u2473 054B                       u4161 0D10                       u4081 0CBF  
                     u4065 0C98                       u4250 16F7                       u3530 031B  
                     u2650 062D                       u2570 05D6                       u2490 0574  
                     u2482 055C                       u4170 0D23                       u4307 1594  
                     u3531 031A                       u3371 01DE                       u3291 00E1  
                     u2651 062C                       u2571 05D5                       u2491 0573  
                     u2483 055D                       u4171 0D22                       u4260 1709  
                     u3540 032A                       u3460 02C8                       u3372 01E5  
                     u3292 00E8                       u2660 063B                       u2580 05DC  
                     u4180 0D32                       u4317 1759                       u4261 1708  
                     u3461 02C7                       u3445 02A6                       u3381 020B  
                     u3373 01EC                       u3365 01B8                       u3293 00EF  
                     u2661 063A                       u2581 05DB                       u3710 1689  
                     u3550 0349                       u3382 0212                       u2670 0642  
                     u2590 05E3                       u4190 0D51                       u4270 0FBE  
                     u3711 1688                       u4327 176A                       u3551 0348  
                     u3455 02BD                       u3391 0238                       u3383 0219  
                     u2671 0641                       u2591 05E2                       u4191 0D50  
                     u4095 0CC5                       u4271 0FBD                       u3720 1694  
                     u3560 0363                       u3480 02DE                       u3392 023F  
                     u2680 0653                       u4280 0FD5                       u3721 1693  
                     u4337 1778                       u3561 0362                       u3545 0325  
                     u3481 02DD                       u3393 0246                       u2681 0652  
                     u4185 0D2D                       u4281 0FD4                       u3730 169B  
                     u3570 0381                       u3490 02E4                       u4290 0FE0  
                     u3731 169A                       u4347 15E7                       u3571 0380  
                     u3555 0345                       u3491 02E3                       u3475 02CC  
                     u4195 0D4D                       u4291 0FDF                       _PEIE 005E  
                     u3740 16A2                       u3820 164A                       u3741 16A1  
                     u4357 15F3                       u3565 035F                       u3821 1649  
                     u3805 1637                       u3750 16A9                       u3910 07EC  
                     u3830 0778                       u3751 16A8                       u3911 07EB  
                     u3831 0777                       u3815 163E                       u3760 16B0  
                     u3920 07F3                       u3840 0790                       u3761 16AF  
                     u3921 07F2                       u3905 07DE                       u3770 16B7  
                     u3930 0BA9                       u3850 07A6                       u3771 16B6  
                     u3931 0BA8                       u3851 07A5                       u3780 16BE  
                     u3940 0BB0                       u3860 07AD                       u3781 16BD  
                     u3941 0BAF                       u3861 07AC                       u3845 078B  
                     u2990 160A                       u3950 0BB5                       u3790 162E  
                     u2991 1609                       u3951 0BB4                       u3791 162D  
                     u3960 0BD9                       u3880 07C9                       u3961 0BD8  
                     u3881 07C8                       u3970 0BE0                       u3890 07D1  
                     u3971 0BDF                       u3891 07D0                       u3875 07B9  
                     u3980 0BE5                       u3981 0BE4                       _HUMO 00C4  
                     u3990 0C01                       u3991 0C00                       _TEMP 00C6  
             __CFG_WRT$OFF 0000                       _adc1 00CA     __size_of_ADC_INTERRUPT 0009  
        ?_Lcd_Write_String 0076                       _main 0DA1                       btemp 007E  
                     start 000C         ??_Lcd_Write_String 0020              __CFG_IESO$OFF 0000  
          ___fldiv@new_exp 002D            __end_of_Lcd_Cmd 15F9          ___bmul@multiplier 0076  
                    ??_ISR 0070                      b0@bb0 00A6                      b0@bb1 00A5  
                    b0@bb2 00A4                      b1@bb1 00A5                      b1@bb2 00A4  
            ___fltol@sign1 006B                      b2@bb2 006E            __end_of___fladd 0655  
                    ?_main 0070            __end_of___fldiv 0DA1            __end_of___awdiv 0890  
          __end_of___flneg 1585              __CFG_WDTE$OFF 0000            __end_of___flmul 0399  
          __end_of___fltol 07FF                      _ANSEL 0188            ___awdiv@divisor 0073  
                    i1l200 08A1                      i1l201 0907                      i1l210 0903  
                    i1l202 08B7                      i1l211 08FB                      i1l212 08FB  
                    i1l204 08AF                      i1l213 0902                      i1l205 08DF  
                    i1l206 08CA                      i1l214 0907                      i1l207 08CA  
                    i1l208 08D1                      i1l209 0903            ___awdiv@counter 0020  
                    _TEMPA 00C5                      _SISMO 00C7    __size_of_Lcd_Set_Cursor 0022  
                    _TRISA 0085                      _TRISB 0086                      _TRISC 0087  
                    _TRISD 0088                      _SSPIE 0463                      _SSPIF 0063  
           __CFG_FCMEN$OFF 0000                      _envio 0078             __CFG_BOREN$OFF 0000  
                    pclath 000A                      status 0003                      wtemp0 007E  
         __end_of_Lcd_Init 17A0           __end_of_Lcd_Port 16C3             __CFG_MCLRE$OFF 0000  
          __initialization 000F               __end_of_main 1000              _ADC_INTERRUPT 156D  
                   ??_main 00A9               ??_ADC_CONFIG 0074                     _ADRESH 001E  
         ___awdiv@dividend 0075                     _ANSELH 0189                     i1l2951 0896  
                   i1l2961 08AA                     i1l2953 089C                     i1l2971 08B7  
                   i1l2963 08AF                     i1l2955 089F                     i1l2981 08D1  
                   i1l2973 08BD                     i1l2965 08B3                     i1l2957 08A1  
                   i1l2949 0890                     i1l2983 08E3                     i1l2975 08C1  
                   i1l2967 08B4                     i1l2959 08A5                     i1l2985 08E7  
                   i1l2977 08C7                     i1l2969 08B5                     i1l2987 08ED  
                   i1l2979 08C8                     i1l2989 08F4                     u360_20 08AA  
                   u360_21 08A9                     u361_20 08AE                     u361_21 08AD  
                   u362_20 08BD                     u362_21 08BC                     u363_20 08C1  
                   u363_21 08C0                     u364_20 08D0                     u364_21 08CF  
                   u436_27 08DB                     u365_20 08E3                     u365_21 08E2  
                   u437_27 08F7                     u366_20 08E7                     u358_20 0896  
                   u366_21 08E6                     u358_21 0895                     u367_20 0901  
                   u359_20 08A5                     u367_21 0900                     u359_21 08A4  
                ??_Lcd_Cmd 0074    __size_of_Lcd_Write_Char 0016                     _SSPADD 0093  
                   _TRISC3 043B                     _TRISC4 043C                     _SSPBUF 0013  
                   _SSPCON 0014           __end_of___xxtofl 09D2             __CFG_PWRTE$OFF 0000  
                   ___bmul 159B                  ??___fladd 0052         __end_of_ADC_CONFIG 0763  
                   ___wmul 1625                  ??___fldiv 0073                  ??___awdiv 0077  
                ??___flneg 0077                  ??___flmul 0038                  ??___fltol 0066  
           ?_ADC_INTERRUPT 0070           ___awdiv@quotient 0022                     main@s1 00AE  
         __end_of_num_case 1800         __size_of__Umul8_16 002C                     saved_w 007E  
          Lcd_Set_Cursor@a 0020            Lcd_Set_Cursor@b 0077               ___xxtofl@arg 002C  
             ___xxtofl@exp 002B               ___xxtofl@val 0022    __end_of__initialization 0020  
               ___flneg@f1 0030                 ___fltol@f1 0062        ___bmul@multiplicand 0073  
           __pcstackCOMMON 0070    __size_of_I2C_Slave_Init 001A                 __end_of_b0 0B98  
               __end_of_b1 0AA8                 __end_of_b2 1753             _Lcd_Set_Cursor 15B4  
                ?_Lcd_Init 0070                  ?_Lcd_Port 0070      I2C_Slave_Init@address 0073  
               __pbssBANK1 00BF          __end_of__Umul8_16 1625                 __pmaintext 0DA1  
                  ?___bmul 0073            ??_ADC_INTERRUPT 0073                    ?___wmul 0073  
               __pintentry 0004                    b0@local 00A8  __size_of_Lcd_Write_String 0048  
                  b1@local 00A6     __end_of_Lcd_Set_Cursor 15D6              ?_opcion_envio 0070  
                ?___xxtofl 0022                 ??_Lcd_Init 0020                 ??_Lcd_Port 0073  
                  _SSPCON2 0091                    _SSPSTAT 0094                 __stringtab 1000  
           _Lcd_Write_Char 1585                    _Lcd_Cmd 15D6                  ?_num_case 0070  
          __size_of___bmul 0019                    ___fladd 0399                    ___fldiv 0B98  
                  ___awdiv 081D                    ___flneg 1576                    ___flmul 0024  
                  ___fltol 0763            __size_of___wmul 002E                  _ANSELbits 0188  
          ?_Lcd_Set_Cursor 0077                    __ptext1 1653                    __ptext2 170B  
                  __ptext3 09D2                    __ptext4 0AA8                    __ptext5 17A0  
                  __ptext6 090E                    __ptext7 1625                    __ptext8 0763  
                  __ptext9 1576             ??_opcion_envio 0073               __size_of_ISR 007E  
               ??___xxtofl 0026     __end_of_Lcd_Write_Char 159B       end_of_initialization 0020  
              num_case@num 0075                 ??_num_case 0073             _I2C_Slave_Init 0803  
                Lcd_Port@a 0073                  _PORTBbits 0006                ___fladd@grs 0061  
            ___xxtofl@sign 002A                  _TRISAbits 0085                  _TRISBbits 0086  
                _TRISCbits 0087                  _TRISEbits 0089                ___fldiv@grs 002F  
              ___fldiv@rem 0028            ?_Lcd_Write_Char 0070          Lcd_Write_String@a 0076  
        Lcd_Write_String@i 0023                ___flmul@grs 003E     __end_of_I2C_Slave_Init 081D  
           __end_of___bmul 15B4             __end_of___wmul 1653           _Lcd_Write_String 16C3  
      start_initialization 000F                __end_of_ISR 090E          __size_of_Lcd_Init 004D  
        __size_of_Lcd_Port 003F       __end_of_opcion_envio 1684   __CFG_FOSC$INTRC_NOCLKOUT 0000  
          ?_I2C_Slave_Init 0070                   ??___bmul 0074                   ??___wmul 0077  
                __Umul8_16 15F9            Lcd_Write_Char@a 0075                  ___fladd@a 004E  
                ___fladd@b 004A                  ___fldiv@a 0020                  ___fldiv@b 0024  
                ___flmul@a 0034                  ___flmul@b 0030                __pbssCOMMON 0078  
                ___latbits 0002              __pcstackBANK0 0020              __pcstackBANK1 00A0  
        __size_of___xxtofl 00C4                   ?_Lcd_Cmd 0070                  _main$1355 00B3  
                _main$1356 00B7                  _main$1357 00BB           ??_Lcd_Set_Cursor 0078  
                 ?___fladd 004A                   ?___fldiv 0020                   ?___awdiv 0073  
                 ?___flneg 0030                   ?___flmul 0030                   ?___fltol 0062  
               ?__Umul8_16 0073          __size_of_num_case 0060      __end_of_ADC_INTERRUPT 1576  
                __pstrings 1000                __size_of_b0 00F0                __size_of_b1 00D6  
              __size_of_b2 0048          interrupt_function 0004             ___wmul@product 0020  
                 _PIE1bits 008C                   Lcd_Cmd@a 0076                   _PIR1bits 000C  
                main@F1528 00BF                 _ADCON0bits 001F                __stringbase 100F  
               _ADCON1bits 009F          ___wmul@multiplier 0073           ??_Lcd_Write_Char 0074  
               _ADC_CONFIG 0655                   _Lcd_Init 1753                   _Lcd_Port 1684  
    __size_of_opcion_envio 0031   __end_of_Lcd_Write_String 170B           __size_of_Lcd_Cmd 0023  
              ??__Umul8_16 0075           __size_of___fladd 02BC           __size_of___fldiv 0209  
         __size_of___awdiv 0073           __size_of___flneg 000F           __size_of___flmul 0375  
         __size_of___fltol 009C      opcion_envio@seleccion 0075         __end_of__stringtab 1010  
               _ANSELHbits 0189               _opcion_envio 1653                   ___xxtofl 090E  
                 _eleccion 00C9                   __ptext10 0B98                   __ptext11 0399  
                 __ptext20 15D6                   __ptext12 159B                   __ptext21 1684  
                 __ptext13 081D                   __ptext22 0803                   __ptext14 0024  
                 __ptext23 156D                   __ptext15 15F9                   __ptext24 0655  
                 __ptext16 16C3                   __ptext25 0890                   __ptext17 1585  
                 __ptext18 15B4                   __ptext19 1753          __CFG_BOR4V$BOR40V 0000  
         ??_I2C_Slave_Init 0073              __size_of_main 025F                  num_case@r 0076  
                 _num_case 17A0                 _INTCONbits 000B                ?_ADC_CONFIG 0073  
                 intlevel1 0000                  stringcode 100A     __Umul8_16@multiplicand 0073  
                 stringdir 100A                   stringtab 1000                _SSPCON2bits 0091  
            ___fladd@signs 005E               ___fladd@aexp 005F               ___fladd@bexp 0060  
     __Umul8_16@multiplier 0024                 _SSPCONbits 0014          __Umul8_16@product 0020  
